   1              		.cpu cortex-m3
   2              		.arch armv7-m
   3              		.fpu softvfp
   4              		.eabi_attribute 20, 1
   5              		.eabi_attribute 21, 1
   6              		.eabi_attribute 23, 3
   7              		.eabi_attribute 24, 1
   8              		.eabi_attribute 25, 1
   9              		.eabi_attribute 26, 1
  10              		.eabi_attribute 30, 6
  11              		.eabi_attribute 34, 1
  12              		.eabi_attribute 18, 4
  13              		.file	"stm32f10x_i2c.c"
  14              		.text
  15              	.Ltext0:
  16              		.cfi_sections	.debug_frame
  17              		.section	.text.I2C_DeInit,"ax",%progbits
  18              		.align	1
  19              		.global	I2C_DeInit
  20              		.syntax unified
  21              		.thumb
  22              		.thumb_func
  24              	I2C_DeInit:
  25              	.LFB27:
  26              		.file 1 "common/lib.stm32/STM32F10x_StdPeriph_Driver/src/stm32f10x_i2c.c"
   1:common/lib.stm32/STM32F10x_StdPeriph_Driver/src/stm32f10x_i2c.c **** /**
   2:common/lib.stm32/STM32F10x_StdPeriph_Driver/src/stm32f10x_i2c.c ****   ******************************************************************************
   3:common/lib.stm32/STM32F10x_StdPeriph_Driver/src/stm32f10x_i2c.c ****   * @file    stm32f10x_i2c.c
   4:common/lib.stm32/STM32F10x_StdPeriph_Driver/src/stm32f10x_i2c.c ****   * @author  MCD Application Team
   5:common/lib.stm32/STM32F10x_StdPeriph_Driver/src/stm32f10x_i2c.c ****   * @version V3.1.2
   6:common/lib.stm32/STM32F10x_StdPeriph_Driver/src/stm32f10x_i2c.c ****   * @date    09/28/2009
   7:common/lib.stm32/STM32F10x_StdPeriph_Driver/src/stm32f10x_i2c.c ****   * @brief   This file provides all the I2C firmware functions.
   8:common/lib.stm32/STM32F10x_StdPeriph_Driver/src/stm32f10x_i2c.c ****   ******************************************************************************
   9:common/lib.stm32/STM32F10x_StdPeriph_Driver/src/stm32f10x_i2c.c ****   * @copy
  10:common/lib.stm32/STM32F10x_StdPeriph_Driver/src/stm32f10x_i2c.c ****   *
  11:common/lib.stm32/STM32F10x_StdPeriph_Driver/src/stm32f10x_i2c.c ****   * THE PRESENT FIRMWARE WHICH IS FOR GUIDANCE ONLY AIMS AT PROVIDING CUSTOMERS
  12:common/lib.stm32/STM32F10x_StdPeriph_Driver/src/stm32f10x_i2c.c ****   * WITH CODING INFORMATION REGARDING THEIR PRODUCTS IN ORDER FOR THEM TO SAVE
  13:common/lib.stm32/STM32F10x_StdPeriph_Driver/src/stm32f10x_i2c.c ****   * TIME. AS A RESULT, STMICROELECTRONICS SHALL NOT BE HELD LIABLE FOR ANY
  14:common/lib.stm32/STM32F10x_StdPeriph_Driver/src/stm32f10x_i2c.c ****   * DIRECT, INDIRECT OR CONSEQUENTIAL DAMAGES WITH RESPECT TO ANY CLAIMS ARISING
  15:common/lib.stm32/STM32F10x_StdPeriph_Driver/src/stm32f10x_i2c.c ****   * FROM THE CONTENT OF SUCH FIRMWARE AND/OR THE USE MADE BY CUSTOMERS OF THE
  16:common/lib.stm32/STM32F10x_StdPeriph_Driver/src/stm32f10x_i2c.c ****   * CODING INFORMATION CONTAINED HEREIN IN CONNECTION WITH THEIR PRODUCTS.
  17:common/lib.stm32/STM32F10x_StdPeriph_Driver/src/stm32f10x_i2c.c ****   *
  18:common/lib.stm32/STM32F10x_StdPeriph_Driver/src/stm32f10x_i2c.c ****   * <h2><center>&copy; COPYRIGHT 2009 STMicroelectronics</center></h2>
  19:common/lib.stm32/STM32F10x_StdPeriph_Driver/src/stm32f10x_i2c.c ****   */ 
  20:common/lib.stm32/STM32F10x_StdPeriph_Driver/src/stm32f10x_i2c.c **** 
  21:common/lib.stm32/STM32F10x_StdPeriph_Driver/src/stm32f10x_i2c.c **** /* Includes ------------------------------------------------------------------*/
  22:common/lib.stm32/STM32F10x_StdPeriph_Driver/src/stm32f10x_i2c.c **** #include "stm32f10x_i2c.h"
  23:common/lib.stm32/STM32F10x_StdPeriph_Driver/src/stm32f10x_i2c.c **** #include "stm32f10x_rcc.h"
  24:common/lib.stm32/STM32F10x_StdPeriph_Driver/src/stm32f10x_i2c.c **** 
  25:common/lib.stm32/STM32F10x_StdPeriph_Driver/src/stm32f10x_i2c.c **** 
  26:common/lib.stm32/STM32F10x_StdPeriph_Driver/src/stm32f10x_i2c.c **** /** @addtogroup STM32F10x_StdPeriph_Driver
  27:common/lib.stm32/STM32F10x_StdPeriph_Driver/src/stm32f10x_i2c.c ****   * @{
  28:common/lib.stm32/STM32F10x_StdPeriph_Driver/src/stm32f10x_i2c.c ****   */
  29:common/lib.stm32/STM32F10x_StdPeriph_Driver/src/stm32f10x_i2c.c **** 
  30:common/lib.stm32/STM32F10x_StdPeriph_Driver/src/stm32f10x_i2c.c **** /** @defgroup I2C 
  31:common/lib.stm32/STM32F10x_StdPeriph_Driver/src/stm32f10x_i2c.c ****   * @brief I2C driver modules
  32:common/lib.stm32/STM32F10x_StdPeriph_Driver/src/stm32f10x_i2c.c ****   * @{
  33:common/lib.stm32/STM32F10x_StdPeriph_Driver/src/stm32f10x_i2c.c ****   */ 
  34:common/lib.stm32/STM32F10x_StdPeriph_Driver/src/stm32f10x_i2c.c **** 
  35:common/lib.stm32/STM32F10x_StdPeriph_Driver/src/stm32f10x_i2c.c **** /** @defgroup I2C_Private_TypesDefinitions
  36:common/lib.stm32/STM32F10x_StdPeriph_Driver/src/stm32f10x_i2c.c ****   * @{
  37:common/lib.stm32/STM32F10x_StdPeriph_Driver/src/stm32f10x_i2c.c ****   */
  38:common/lib.stm32/STM32F10x_StdPeriph_Driver/src/stm32f10x_i2c.c **** 
  39:common/lib.stm32/STM32F10x_StdPeriph_Driver/src/stm32f10x_i2c.c **** /**
  40:common/lib.stm32/STM32F10x_StdPeriph_Driver/src/stm32f10x_i2c.c ****   * @}
  41:common/lib.stm32/STM32F10x_StdPeriph_Driver/src/stm32f10x_i2c.c ****   */
  42:common/lib.stm32/STM32F10x_StdPeriph_Driver/src/stm32f10x_i2c.c **** 
  43:common/lib.stm32/STM32F10x_StdPeriph_Driver/src/stm32f10x_i2c.c **** /** @defgroup I2C_Private_Defines
  44:common/lib.stm32/STM32F10x_StdPeriph_Driver/src/stm32f10x_i2c.c ****   * @{
  45:common/lib.stm32/STM32F10x_StdPeriph_Driver/src/stm32f10x_i2c.c ****   */
  46:common/lib.stm32/STM32F10x_StdPeriph_Driver/src/stm32f10x_i2c.c **** 
  47:common/lib.stm32/STM32F10x_StdPeriph_Driver/src/stm32f10x_i2c.c **** /* I2C SPE mask */
  48:common/lib.stm32/STM32F10x_StdPeriph_Driver/src/stm32f10x_i2c.c **** #define CR1_PE_Set              ((uint16_t)0x0001)
  49:common/lib.stm32/STM32F10x_StdPeriph_Driver/src/stm32f10x_i2c.c **** #define CR1_PE_Reset            ((uint16_t)0xFFFE)
  50:common/lib.stm32/STM32F10x_StdPeriph_Driver/src/stm32f10x_i2c.c **** 
  51:common/lib.stm32/STM32F10x_StdPeriph_Driver/src/stm32f10x_i2c.c **** /* I2C START mask */
  52:common/lib.stm32/STM32F10x_StdPeriph_Driver/src/stm32f10x_i2c.c **** #define CR1_START_Set           ((uint16_t)0x0100)
  53:common/lib.stm32/STM32F10x_StdPeriph_Driver/src/stm32f10x_i2c.c **** #define CR1_START_Reset         ((uint16_t)0xFEFF)
  54:common/lib.stm32/STM32F10x_StdPeriph_Driver/src/stm32f10x_i2c.c **** 
  55:common/lib.stm32/STM32F10x_StdPeriph_Driver/src/stm32f10x_i2c.c **** /* I2C STOP mask */
  56:common/lib.stm32/STM32F10x_StdPeriph_Driver/src/stm32f10x_i2c.c **** #define CR1_STOP_Set            ((uint16_t)0x0200)
  57:common/lib.stm32/STM32F10x_StdPeriph_Driver/src/stm32f10x_i2c.c **** #define CR1_STOP_Reset          ((uint16_t)0xFDFF)
  58:common/lib.stm32/STM32F10x_StdPeriph_Driver/src/stm32f10x_i2c.c **** 
  59:common/lib.stm32/STM32F10x_StdPeriph_Driver/src/stm32f10x_i2c.c **** /* I2C ACK mask */
  60:common/lib.stm32/STM32F10x_StdPeriph_Driver/src/stm32f10x_i2c.c **** #define CR1_ACK_Set             ((uint16_t)0x0400)
  61:common/lib.stm32/STM32F10x_StdPeriph_Driver/src/stm32f10x_i2c.c **** #define CR1_ACK_Reset           ((uint16_t)0xFBFF)
  62:common/lib.stm32/STM32F10x_StdPeriph_Driver/src/stm32f10x_i2c.c **** 
  63:common/lib.stm32/STM32F10x_StdPeriph_Driver/src/stm32f10x_i2c.c **** /* I2C ENGC mask */
  64:common/lib.stm32/STM32F10x_StdPeriph_Driver/src/stm32f10x_i2c.c **** #define CR1_ENGC_Set            ((uint16_t)0x0040)
  65:common/lib.stm32/STM32F10x_StdPeriph_Driver/src/stm32f10x_i2c.c **** #define CR1_ENGC_Reset          ((uint16_t)0xFFBF)
  66:common/lib.stm32/STM32F10x_StdPeriph_Driver/src/stm32f10x_i2c.c **** 
  67:common/lib.stm32/STM32F10x_StdPeriph_Driver/src/stm32f10x_i2c.c **** /* I2C SWRST mask */
  68:common/lib.stm32/STM32F10x_StdPeriph_Driver/src/stm32f10x_i2c.c **** #define CR1_SWRST_Set           ((uint16_t)0x8000)
  69:common/lib.stm32/STM32F10x_StdPeriph_Driver/src/stm32f10x_i2c.c **** #define CR1_SWRST_Reset         ((uint16_t)0x7FFF)
  70:common/lib.stm32/STM32F10x_StdPeriph_Driver/src/stm32f10x_i2c.c **** 
  71:common/lib.stm32/STM32F10x_StdPeriph_Driver/src/stm32f10x_i2c.c **** /* I2C PEC mask */
  72:common/lib.stm32/STM32F10x_StdPeriph_Driver/src/stm32f10x_i2c.c **** #define CR1_PEC_Set             ((uint16_t)0x1000)
  73:common/lib.stm32/STM32F10x_StdPeriph_Driver/src/stm32f10x_i2c.c **** #define CR1_PEC_Reset           ((uint16_t)0xEFFF)
  74:common/lib.stm32/STM32F10x_StdPeriph_Driver/src/stm32f10x_i2c.c **** 
  75:common/lib.stm32/STM32F10x_StdPeriph_Driver/src/stm32f10x_i2c.c **** /* I2C ENPEC mask */
  76:common/lib.stm32/STM32F10x_StdPeriph_Driver/src/stm32f10x_i2c.c **** #define CR1_ENPEC_Set           ((uint16_t)0x0020)
  77:common/lib.stm32/STM32F10x_StdPeriph_Driver/src/stm32f10x_i2c.c **** #define CR1_ENPEC_Reset         ((uint16_t)0xFFDF)
  78:common/lib.stm32/STM32F10x_StdPeriph_Driver/src/stm32f10x_i2c.c **** 
  79:common/lib.stm32/STM32F10x_StdPeriph_Driver/src/stm32f10x_i2c.c **** /* I2C ENARP mask */
  80:common/lib.stm32/STM32F10x_StdPeriph_Driver/src/stm32f10x_i2c.c **** #define CR1_ENARP_Set           ((uint16_t)0x0010)
  81:common/lib.stm32/STM32F10x_StdPeriph_Driver/src/stm32f10x_i2c.c **** #define CR1_ENARP_Reset         ((uint16_t)0xFFEF)
  82:common/lib.stm32/STM32F10x_StdPeriph_Driver/src/stm32f10x_i2c.c **** 
  83:common/lib.stm32/STM32F10x_StdPeriph_Driver/src/stm32f10x_i2c.c **** /* I2C NOSTRETCH mask */
  84:common/lib.stm32/STM32F10x_StdPeriph_Driver/src/stm32f10x_i2c.c **** #define CR1_NOSTRETCH_Set       ((uint16_t)0x0080)
  85:common/lib.stm32/STM32F10x_StdPeriph_Driver/src/stm32f10x_i2c.c **** #define CR1_NOSTRETCH_Reset     ((uint16_t)0xFF7F)
  86:common/lib.stm32/STM32F10x_StdPeriph_Driver/src/stm32f10x_i2c.c **** 
  87:common/lib.stm32/STM32F10x_StdPeriph_Driver/src/stm32f10x_i2c.c **** /* I2C registers Masks */
  88:common/lib.stm32/STM32F10x_StdPeriph_Driver/src/stm32f10x_i2c.c **** #define CR1_CLEAR_Mask          ((uint16_t)0xFBF5)
  89:common/lib.stm32/STM32F10x_StdPeriph_Driver/src/stm32f10x_i2c.c **** 
  90:common/lib.stm32/STM32F10x_StdPeriph_Driver/src/stm32f10x_i2c.c **** /* I2C DMAEN mask */
  91:common/lib.stm32/STM32F10x_StdPeriph_Driver/src/stm32f10x_i2c.c **** #define CR2_DMAEN_Set           ((uint16_t)0x0800)
  92:common/lib.stm32/STM32F10x_StdPeriph_Driver/src/stm32f10x_i2c.c **** #define CR2_DMAEN_Reset         ((uint16_t)0xF7FF)
  93:common/lib.stm32/STM32F10x_StdPeriph_Driver/src/stm32f10x_i2c.c **** 
  94:common/lib.stm32/STM32F10x_StdPeriph_Driver/src/stm32f10x_i2c.c **** /* I2C LAST mask */
  95:common/lib.stm32/STM32F10x_StdPeriph_Driver/src/stm32f10x_i2c.c **** #define CR2_LAST_Set            ((uint16_t)0x1000)
  96:common/lib.stm32/STM32F10x_StdPeriph_Driver/src/stm32f10x_i2c.c **** #define CR2_LAST_Reset          ((uint16_t)0xEFFF)
  97:common/lib.stm32/STM32F10x_StdPeriph_Driver/src/stm32f10x_i2c.c **** 
  98:common/lib.stm32/STM32F10x_StdPeriph_Driver/src/stm32f10x_i2c.c **** /* I2C FREQ mask */
  99:common/lib.stm32/STM32F10x_StdPeriph_Driver/src/stm32f10x_i2c.c **** #define CR2_FREQ_Reset          ((uint16_t)0xFFC0)
 100:common/lib.stm32/STM32F10x_StdPeriph_Driver/src/stm32f10x_i2c.c **** 
 101:common/lib.stm32/STM32F10x_StdPeriph_Driver/src/stm32f10x_i2c.c **** /* I2C ADD0 mask */
 102:common/lib.stm32/STM32F10x_StdPeriph_Driver/src/stm32f10x_i2c.c **** #define OAR1_ADD0_Set           ((uint16_t)0x0001)
 103:common/lib.stm32/STM32F10x_StdPeriph_Driver/src/stm32f10x_i2c.c **** #define OAR1_ADD0_Reset         ((uint16_t)0xFFFE)
 104:common/lib.stm32/STM32F10x_StdPeriph_Driver/src/stm32f10x_i2c.c **** 
 105:common/lib.stm32/STM32F10x_StdPeriph_Driver/src/stm32f10x_i2c.c **** /* I2C ENDUAL mask */
 106:common/lib.stm32/STM32F10x_StdPeriph_Driver/src/stm32f10x_i2c.c **** #define OAR2_ENDUAL_Set         ((uint16_t)0x0001)
 107:common/lib.stm32/STM32F10x_StdPeriph_Driver/src/stm32f10x_i2c.c **** #define OAR2_ENDUAL_Reset       ((uint16_t)0xFFFE)
 108:common/lib.stm32/STM32F10x_StdPeriph_Driver/src/stm32f10x_i2c.c **** 
 109:common/lib.stm32/STM32F10x_StdPeriph_Driver/src/stm32f10x_i2c.c **** /* I2C ADD2 mask */
 110:common/lib.stm32/STM32F10x_StdPeriph_Driver/src/stm32f10x_i2c.c **** #define OAR2_ADD2_Reset         ((uint16_t)0xFF01)
 111:common/lib.stm32/STM32F10x_StdPeriph_Driver/src/stm32f10x_i2c.c **** 
 112:common/lib.stm32/STM32F10x_StdPeriph_Driver/src/stm32f10x_i2c.c **** /* I2C F/S mask */
 113:common/lib.stm32/STM32F10x_StdPeriph_Driver/src/stm32f10x_i2c.c **** #define CCR_FS_Set              ((uint16_t)0x8000)
 114:common/lib.stm32/STM32F10x_StdPeriph_Driver/src/stm32f10x_i2c.c **** 
 115:common/lib.stm32/STM32F10x_StdPeriph_Driver/src/stm32f10x_i2c.c **** /* I2C CCR mask */
 116:common/lib.stm32/STM32F10x_StdPeriph_Driver/src/stm32f10x_i2c.c **** #define CCR_CCR_Set             ((uint16_t)0x0FFF)
 117:common/lib.stm32/STM32F10x_StdPeriph_Driver/src/stm32f10x_i2c.c **** 
 118:common/lib.stm32/STM32F10x_StdPeriph_Driver/src/stm32f10x_i2c.c **** /* I2C FLAG mask */
 119:common/lib.stm32/STM32F10x_StdPeriph_Driver/src/stm32f10x_i2c.c **** #define FLAG_Mask               ((uint32_t)0x00FFFFFF)
 120:common/lib.stm32/STM32F10x_StdPeriph_Driver/src/stm32f10x_i2c.c **** 
 121:common/lib.stm32/STM32F10x_StdPeriph_Driver/src/stm32f10x_i2c.c **** /* I2C Interrupt Enable mask */
 122:common/lib.stm32/STM32F10x_StdPeriph_Driver/src/stm32f10x_i2c.c **** #define ITEN_Mask               ((uint32_t)0x07000000)
 123:common/lib.stm32/STM32F10x_StdPeriph_Driver/src/stm32f10x_i2c.c **** 
 124:common/lib.stm32/STM32F10x_StdPeriph_Driver/src/stm32f10x_i2c.c **** /**
 125:common/lib.stm32/STM32F10x_StdPeriph_Driver/src/stm32f10x_i2c.c ****   * @}
 126:common/lib.stm32/STM32F10x_StdPeriph_Driver/src/stm32f10x_i2c.c ****   */
 127:common/lib.stm32/STM32F10x_StdPeriph_Driver/src/stm32f10x_i2c.c **** 
 128:common/lib.stm32/STM32F10x_StdPeriph_Driver/src/stm32f10x_i2c.c **** /** @defgroup I2C_Private_Macros
 129:common/lib.stm32/STM32F10x_StdPeriph_Driver/src/stm32f10x_i2c.c ****   * @{
 130:common/lib.stm32/STM32F10x_StdPeriph_Driver/src/stm32f10x_i2c.c ****   */
 131:common/lib.stm32/STM32F10x_StdPeriph_Driver/src/stm32f10x_i2c.c **** 
 132:common/lib.stm32/STM32F10x_StdPeriph_Driver/src/stm32f10x_i2c.c **** /**
 133:common/lib.stm32/STM32F10x_StdPeriph_Driver/src/stm32f10x_i2c.c ****   * @}
 134:common/lib.stm32/STM32F10x_StdPeriph_Driver/src/stm32f10x_i2c.c ****   */
 135:common/lib.stm32/STM32F10x_StdPeriph_Driver/src/stm32f10x_i2c.c **** 
 136:common/lib.stm32/STM32F10x_StdPeriph_Driver/src/stm32f10x_i2c.c **** /** @defgroup I2C_Private_Variables
 137:common/lib.stm32/STM32F10x_StdPeriph_Driver/src/stm32f10x_i2c.c ****   * @{
 138:common/lib.stm32/STM32F10x_StdPeriph_Driver/src/stm32f10x_i2c.c ****   */
 139:common/lib.stm32/STM32F10x_StdPeriph_Driver/src/stm32f10x_i2c.c **** 
 140:common/lib.stm32/STM32F10x_StdPeriph_Driver/src/stm32f10x_i2c.c **** /**
 141:common/lib.stm32/STM32F10x_StdPeriph_Driver/src/stm32f10x_i2c.c ****   * @}
 142:common/lib.stm32/STM32F10x_StdPeriph_Driver/src/stm32f10x_i2c.c ****   */
 143:common/lib.stm32/STM32F10x_StdPeriph_Driver/src/stm32f10x_i2c.c **** 
 144:common/lib.stm32/STM32F10x_StdPeriph_Driver/src/stm32f10x_i2c.c **** /** @defgroup I2C_Private_FunctionPrototypes
 145:common/lib.stm32/STM32F10x_StdPeriph_Driver/src/stm32f10x_i2c.c ****   * @{
 146:common/lib.stm32/STM32F10x_StdPeriph_Driver/src/stm32f10x_i2c.c ****   */
 147:common/lib.stm32/STM32F10x_StdPeriph_Driver/src/stm32f10x_i2c.c **** 
 148:common/lib.stm32/STM32F10x_StdPeriph_Driver/src/stm32f10x_i2c.c **** /**
 149:common/lib.stm32/STM32F10x_StdPeriph_Driver/src/stm32f10x_i2c.c ****   * @}
 150:common/lib.stm32/STM32F10x_StdPeriph_Driver/src/stm32f10x_i2c.c ****   */
 151:common/lib.stm32/STM32F10x_StdPeriph_Driver/src/stm32f10x_i2c.c **** 
 152:common/lib.stm32/STM32F10x_StdPeriph_Driver/src/stm32f10x_i2c.c **** /** @defgroup I2C_Private_Functions
 153:common/lib.stm32/STM32F10x_StdPeriph_Driver/src/stm32f10x_i2c.c ****   * @{
 154:common/lib.stm32/STM32F10x_StdPeriph_Driver/src/stm32f10x_i2c.c ****   */
 155:common/lib.stm32/STM32F10x_StdPeriph_Driver/src/stm32f10x_i2c.c **** 
 156:common/lib.stm32/STM32F10x_StdPeriph_Driver/src/stm32f10x_i2c.c **** /**
 157:common/lib.stm32/STM32F10x_StdPeriph_Driver/src/stm32f10x_i2c.c ****   * @brief  Deinitializes the I2Cx peripheral registers to their default reset values.
 158:common/lib.stm32/STM32F10x_StdPeriph_Driver/src/stm32f10x_i2c.c ****   * @param  I2Cx: where x can be 1 or 2 to select the I2C peripheral.
 159:common/lib.stm32/STM32F10x_StdPeriph_Driver/src/stm32f10x_i2c.c ****   * @retval None
 160:common/lib.stm32/STM32F10x_StdPeriph_Driver/src/stm32f10x_i2c.c ****   */
 161:common/lib.stm32/STM32F10x_StdPeriph_Driver/src/stm32f10x_i2c.c **** void I2C_DeInit(I2C_TypeDef* I2Cx)
 162:common/lib.stm32/STM32F10x_StdPeriph_Driver/src/stm32f10x_i2c.c **** {
  27              		.loc 1 162 1
  28              		.cfi_startproc
  29              		@ args = 0, pretend = 0, frame = 8
  30              		@ frame_needed = 1, uses_anonymous_args = 0
  31 0000 80B5     		push	{r7, lr}
  32              	.LCFI0:
  33              		.cfi_def_cfa_offset 8
  34              		.cfi_offset 7, -8
  35              		.cfi_offset 14, -4
  36 0002 82B0     		sub	sp, sp, #8
  37              	.LCFI1:
  38              		.cfi_def_cfa_offset 16
  39 0004 00AF     		add	r7, sp, #0
  40              	.LCFI2:
  41              		.cfi_def_cfa_register 7
  42 0006 7860     		str	r0, [r7, #4]
 163:common/lib.stm32/STM32F10x_StdPeriph_Driver/src/stm32f10x_i2c.c ****   /* Check the parameters */
 164:common/lib.stm32/STM32F10x_StdPeriph_Driver/src/stm32f10x_i2c.c ****   assert_param(IS_I2C_ALL_PERIPH(I2Cx));
 165:common/lib.stm32/STM32F10x_StdPeriph_Driver/src/stm32f10x_i2c.c **** 
 166:common/lib.stm32/STM32F10x_StdPeriph_Driver/src/stm32f10x_i2c.c ****   if (I2Cx == I2C1)
  43              		.loc 1 166 6
  44 0008 7B68     		ldr	r3, [r7, #4]
  45 000a 0E4A     		ldr	r2, .L5
  46 000c 9342     		cmp	r3, r2
  47 000e 0AD1     		bne	.L2
 167:common/lib.stm32/STM32F10x_StdPeriph_Driver/src/stm32f10x_i2c.c ****   {
 168:common/lib.stm32/STM32F10x_StdPeriph_Driver/src/stm32f10x_i2c.c ****     /* Enable I2C1 reset state */
 169:common/lib.stm32/STM32F10x_StdPeriph_Driver/src/stm32f10x_i2c.c ****     RCC_APB1PeriphResetCmd(RCC_APB1Periph_I2C1, ENABLE);
  48              		.loc 1 169 5
  49 0010 0121     		movs	r1, #1
  50 0012 4FF40010 		mov	r0, #2097152
  51 0016 0C4B     		ldr	r3, .L5+4
  52 0018 9847     		blx	r3
  53              	.LVL0:
 170:common/lib.stm32/STM32F10x_StdPeriph_Driver/src/stm32f10x_i2c.c ****     /* Release I2C1 from reset state */
 171:common/lib.stm32/STM32F10x_StdPeriph_Driver/src/stm32f10x_i2c.c ****     RCC_APB1PeriphResetCmd(RCC_APB1Periph_I2C1, DISABLE);
  54              		.loc 1 171 5
  55 001a 0021     		movs	r1, #0
  56 001c 4FF40010 		mov	r0, #2097152
  57 0020 094B     		ldr	r3, .L5+4
  58 0022 9847     		blx	r3
  59              	.LVL1:
 172:common/lib.stm32/STM32F10x_StdPeriph_Driver/src/stm32f10x_i2c.c ****   }
 173:common/lib.stm32/STM32F10x_StdPeriph_Driver/src/stm32f10x_i2c.c ****   else
 174:common/lib.stm32/STM32F10x_StdPeriph_Driver/src/stm32f10x_i2c.c ****   {
 175:common/lib.stm32/STM32F10x_StdPeriph_Driver/src/stm32f10x_i2c.c ****     /* Enable I2C2 reset state */
 176:common/lib.stm32/STM32F10x_StdPeriph_Driver/src/stm32f10x_i2c.c ****     RCC_APB1PeriphResetCmd(RCC_APB1Periph_I2C2, ENABLE);
 177:common/lib.stm32/STM32F10x_StdPeriph_Driver/src/stm32f10x_i2c.c ****     /* Release I2C2 from reset state */
 178:common/lib.stm32/STM32F10x_StdPeriph_Driver/src/stm32f10x_i2c.c ****     RCC_APB1PeriphResetCmd(RCC_APB1Periph_I2C2, DISABLE);
 179:common/lib.stm32/STM32F10x_StdPeriph_Driver/src/stm32f10x_i2c.c ****   }
 180:common/lib.stm32/STM32F10x_StdPeriph_Driver/src/stm32f10x_i2c.c **** }
  60              		.loc 1 180 1
  61 0024 09E0     		b	.L4
  62              	.L2:
 176:common/lib.stm32/STM32F10x_StdPeriph_Driver/src/stm32f10x_i2c.c ****     /* Release I2C2 from reset state */
  63              		.loc 1 176 5
  64 0026 0121     		movs	r1, #1
  65 0028 4FF48000 		mov	r0, #4194304
  66 002c 064B     		ldr	r3, .L5+4
  67 002e 9847     		blx	r3
  68              	.LVL2:
 178:common/lib.stm32/STM32F10x_StdPeriph_Driver/src/stm32f10x_i2c.c ****   }
  69              		.loc 1 178 5
  70 0030 0021     		movs	r1, #0
  71 0032 4FF48000 		mov	r0, #4194304
  72 0036 044B     		ldr	r3, .L5+4
  73 0038 9847     		blx	r3
  74              	.LVL3:
  75              	.L4:
  76              		.loc 1 180 1
  77 003a 00BF     		nop
  78 003c 0837     		adds	r7, r7, #8
  79              	.LCFI3:
  80              		.cfi_def_cfa_offset 8
  81 003e BD46     		mov	sp, r7
  82              	.LCFI4:
  83              		.cfi_def_cfa_register 13
  84              		@ sp needed
  85 0040 80BD     		pop	{r7, pc}
  86              	.L6:
  87 0042 00BF     		.align	2
  88              	.L5:
  89 0044 00540040 		.word	1073763328
  90 0048 00000000 		.word	RCC_APB1PeriphResetCmd
  91              		.cfi_endproc
  92              	.LFE27:
  94              		.section	.text.I2C_Init,"ax",%progbits
  95              		.align	1
  96              		.global	I2C_Init
  97              		.syntax unified
  98              		.thumb
  99              		.thumb_func
 101              	I2C_Init:
 102              	.LFB28:
 181:common/lib.stm32/STM32F10x_StdPeriph_Driver/src/stm32f10x_i2c.c **** 
 182:common/lib.stm32/STM32F10x_StdPeriph_Driver/src/stm32f10x_i2c.c **** /**
 183:common/lib.stm32/STM32F10x_StdPeriph_Driver/src/stm32f10x_i2c.c ****   * @brief  Initializes the I2Cx peripheral according to the specified 
 184:common/lib.stm32/STM32F10x_StdPeriph_Driver/src/stm32f10x_i2c.c ****   *   parameters in the I2C_InitStruct.
 185:common/lib.stm32/STM32F10x_StdPeriph_Driver/src/stm32f10x_i2c.c ****   * @param  I2Cx: where x can be 1 or 2 to select the I2C peripheral.
 186:common/lib.stm32/STM32F10x_StdPeriph_Driver/src/stm32f10x_i2c.c ****   * @param  I2C_InitStruct: pointer to a I2C_InitTypeDef structure that
 187:common/lib.stm32/STM32F10x_StdPeriph_Driver/src/stm32f10x_i2c.c ****   *   contains the configuration information for the specified I2C peripheral.
 188:common/lib.stm32/STM32F10x_StdPeriph_Driver/src/stm32f10x_i2c.c ****   * @retval None
 189:common/lib.stm32/STM32F10x_StdPeriph_Driver/src/stm32f10x_i2c.c ****   */
 190:common/lib.stm32/STM32F10x_StdPeriph_Driver/src/stm32f10x_i2c.c **** void I2C_Init(I2C_TypeDef* I2Cx, I2C_InitTypeDef* I2C_InitStruct)
 191:common/lib.stm32/STM32F10x_StdPeriph_Driver/src/stm32f10x_i2c.c **** {
 103              		.loc 1 191 1
 104              		.cfi_startproc
 105              		@ args = 0, pretend = 0, frame = 40
 106              		@ frame_needed = 1, uses_anonymous_args = 0
 107 0000 80B5     		push	{r7, lr}
 108              	.LCFI5:
 109              		.cfi_def_cfa_offset 8
 110              		.cfi_offset 7, -8
 111              		.cfi_offset 14, -4
 112 0002 8AB0     		sub	sp, sp, #40
 113              	.LCFI6:
 114              		.cfi_def_cfa_offset 48
 115 0004 00AF     		add	r7, sp, #0
 116              	.LCFI7:
 117              		.cfi_def_cfa_register 7
 118 0006 7860     		str	r0, [r7, #4]
 119 0008 3960     		str	r1, [r7]
 192:common/lib.stm32/STM32F10x_StdPeriph_Driver/src/stm32f10x_i2c.c ****   uint16_t tmpreg = 0, freqrange = 0;
 120              		.loc 1 192 12
 121 000a 0023     		movs	r3, #0
 122 000c FB84     		strh	r3, [r7, #38]	@ movhi
 123              		.loc 1 192 24
 124 000e 0023     		movs	r3, #0
 125 0010 7B84     		strh	r3, [r7, #34]	@ movhi
 193:common/lib.stm32/STM32F10x_StdPeriph_Driver/src/stm32f10x_i2c.c ****   uint16_t result = 0x04;
 126              		.loc 1 193 12
 127 0012 0423     		movs	r3, #4
 128 0014 BB84     		strh	r3, [r7, #36]	@ movhi
 194:common/lib.stm32/STM32F10x_StdPeriph_Driver/src/stm32f10x_i2c.c ****   uint32_t pclk1 = 8000000;
 129              		.loc 1 194 12
 130 0016 574B     		ldr	r3, .L14
 131 0018 FB61     		str	r3, [r7, #28]
 195:common/lib.stm32/STM32F10x_StdPeriph_Driver/src/stm32f10x_i2c.c ****   RCC_ClocksTypeDef  rcc_clocks;
 196:common/lib.stm32/STM32F10x_StdPeriph_Driver/src/stm32f10x_i2c.c ****   /* Check the parameters */
 197:common/lib.stm32/STM32F10x_StdPeriph_Driver/src/stm32f10x_i2c.c ****   assert_param(IS_I2C_ALL_PERIPH(I2Cx));
 198:common/lib.stm32/STM32F10x_StdPeriph_Driver/src/stm32f10x_i2c.c ****   assert_param(IS_I2C_CLOCK_SPEED(I2C_InitStruct->I2C_ClockSpeed));
 199:common/lib.stm32/STM32F10x_StdPeriph_Driver/src/stm32f10x_i2c.c ****   assert_param(IS_I2C_MODE(I2C_InitStruct->I2C_Mode));
 200:common/lib.stm32/STM32F10x_StdPeriph_Driver/src/stm32f10x_i2c.c ****   assert_param(IS_I2C_DUTY_CYCLE(I2C_InitStruct->I2C_DutyCycle));
 201:common/lib.stm32/STM32F10x_StdPeriph_Driver/src/stm32f10x_i2c.c ****   assert_param(IS_I2C_OWN_ADDRESS1(I2C_InitStruct->I2C_OwnAddress1));
 202:common/lib.stm32/STM32F10x_StdPeriph_Driver/src/stm32f10x_i2c.c ****   assert_param(IS_I2C_ACK_STATE(I2C_InitStruct->I2C_Ack));
 203:common/lib.stm32/STM32F10x_StdPeriph_Driver/src/stm32f10x_i2c.c ****   assert_param(IS_I2C_ACKNOWLEDGE_ADDRESS(I2C_InitStruct->I2C_AcknowledgedAddress));
 204:common/lib.stm32/STM32F10x_StdPeriph_Driver/src/stm32f10x_i2c.c **** 
 205:common/lib.stm32/STM32F10x_StdPeriph_Driver/src/stm32f10x_i2c.c **** /*---------------------------- I2Cx CR2 Configuration ------------------------*/
 206:common/lib.stm32/STM32F10x_StdPeriph_Driver/src/stm32f10x_i2c.c ****   /* Get the I2Cx CR2 value */
 207:common/lib.stm32/STM32F10x_StdPeriph_Driver/src/stm32f10x_i2c.c ****   tmpreg = I2Cx->CR2;
 132              		.loc 1 207 10
 133 001a 7B68     		ldr	r3, [r7, #4]
 134 001c 9B88     		ldrh	r3, [r3, #4]	@ movhi
 135 001e FB84     		strh	r3, [r7, #38]	@ movhi
 208:common/lib.stm32/STM32F10x_StdPeriph_Driver/src/stm32f10x_i2c.c ****   /* Clear frequency FREQ[5:0] bits */
 209:common/lib.stm32/STM32F10x_StdPeriph_Driver/src/stm32f10x_i2c.c ****   tmpreg &= CR2_FREQ_Reset;
 136              		.loc 1 209 10
 137 0020 FB8C     		ldrh	r3, [r7, #38]	@ movhi
 138 0022 23F03F03 		bic	r3, r3, #63
 139 0026 FB84     		strh	r3, [r7, #38]	@ movhi
 210:common/lib.stm32/STM32F10x_StdPeriph_Driver/src/stm32f10x_i2c.c ****   /* Get pclk1 frequency value */
 211:common/lib.stm32/STM32F10x_StdPeriph_Driver/src/stm32f10x_i2c.c ****   RCC_GetClocksFreq(&rcc_clocks);
 140              		.loc 1 211 3
 141 0028 07F10803 		add	r3, r7, #8
 142 002c 1846     		mov	r0, r3
 143 002e 524B     		ldr	r3, .L14+4
 144 0030 9847     		blx	r3
 145              	.LVL4:
 212:common/lib.stm32/STM32F10x_StdPeriph_Driver/src/stm32f10x_i2c.c ****   pclk1 = rcc_clocks.PCLK1_Frequency;
 146              		.loc 1 212 9
 147 0032 3B69     		ldr	r3, [r7, #16]
 148 0034 FB61     		str	r3, [r7, #28]
 213:common/lib.stm32/STM32F10x_StdPeriph_Driver/src/stm32f10x_i2c.c ****   /* Set frequency bits depending on pclk1 value */
 214:common/lib.stm32/STM32F10x_StdPeriph_Driver/src/stm32f10x_i2c.c ****   freqrange = (uint16_t)(pclk1 / 1000000);
 149              		.loc 1 214 32
 150 0036 FB69     		ldr	r3, [r7, #28]
 151 0038 504A     		ldr	r2, .L14+8
 152 003a A2FB0323 		umull	r2, r3, r2, r3
 153 003e 9B0C     		lsrs	r3, r3, #18
 154              		.loc 1 214 13
 155 0040 7B84     		strh	r3, [r7, #34]	@ movhi
 215:common/lib.stm32/STM32F10x_StdPeriph_Driver/src/stm32f10x_i2c.c ****   tmpreg |= freqrange;
 156              		.loc 1 215 10
 157 0042 FA8C     		ldrh	r2, [r7, #38]	@ movhi
 158 0044 7B8C     		ldrh	r3, [r7, #34]	@ movhi
 159 0046 1343     		orrs	r3, r3, r2
 160 0048 FB84     		strh	r3, [r7, #38]	@ movhi
 216:common/lib.stm32/STM32F10x_StdPeriph_Driver/src/stm32f10x_i2c.c ****   /* Write to I2Cx CR2 */
 217:common/lib.stm32/STM32F10x_StdPeriph_Driver/src/stm32f10x_i2c.c ****   I2Cx->CR2 = tmpreg;
 161              		.loc 1 217 13
 162 004a 7B68     		ldr	r3, [r7, #4]
 163 004c FA8C     		ldrh	r2, [r7, #38]	@ movhi
 164 004e 9A80     		strh	r2, [r3, #4]	@ movhi
 218:common/lib.stm32/STM32F10x_StdPeriph_Driver/src/stm32f10x_i2c.c **** 
 219:common/lib.stm32/STM32F10x_StdPeriph_Driver/src/stm32f10x_i2c.c **** /*---------------------------- I2Cx CCR Configuration ------------------------*/
 220:common/lib.stm32/STM32F10x_StdPeriph_Driver/src/stm32f10x_i2c.c ****   /* Disable the selected I2C peripheral to configure TRISE */
 221:common/lib.stm32/STM32F10x_StdPeriph_Driver/src/stm32f10x_i2c.c ****   I2Cx->CR1 &= CR1_PE_Reset;
 165              		.loc 1 221 13
 166 0050 7B68     		ldr	r3, [r7, #4]
 167 0052 1B88     		ldrh	r3, [r3]	@ movhi
 168 0054 9BB2     		uxth	r3, r3
 169 0056 23F00103 		bic	r3, r3, #1
 170 005a 9AB2     		uxth	r2, r3
 171 005c 7B68     		ldr	r3, [r7, #4]
 172 005e 1A80     		strh	r2, [r3]	@ movhi
 222:common/lib.stm32/STM32F10x_StdPeriph_Driver/src/stm32f10x_i2c.c ****   /* Reset tmpreg value */
 223:common/lib.stm32/STM32F10x_StdPeriph_Driver/src/stm32f10x_i2c.c ****   /* Clear F/S, DUTY and CCR[11:0] bits */
 224:common/lib.stm32/STM32F10x_StdPeriph_Driver/src/stm32f10x_i2c.c ****   tmpreg = 0;
 173              		.loc 1 224 10
 174 0060 0023     		movs	r3, #0
 175 0062 FB84     		strh	r3, [r7, #38]	@ movhi
 225:common/lib.stm32/STM32F10x_StdPeriph_Driver/src/stm32f10x_i2c.c **** 
 226:common/lib.stm32/STM32F10x_StdPeriph_Driver/src/stm32f10x_i2c.c ****   /* Configure speed in standard mode */
 227:common/lib.stm32/STM32F10x_StdPeriph_Driver/src/stm32f10x_i2c.c ****   if (I2C_InitStruct->I2C_ClockSpeed <= 100000)
 176              		.loc 1 227 21
 177 0064 3B68     		ldr	r3, [r7]
 178 0066 1B68     		ldr	r3, [r3]
 179              		.loc 1 227 6
 180 0068 454A     		ldr	r2, .L14+12
 181 006a 9342     		cmp	r3, r2
 182 006c 15D8     		bhi	.L8
 228:common/lib.stm32/STM32F10x_StdPeriph_Driver/src/stm32f10x_i2c.c ****   {
 229:common/lib.stm32/STM32F10x_StdPeriph_Driver/src/stm32f10x_i2c.c ****     /* Standard mode speed calculate */
 230:common/lib.stm32/STM32F10x_StdPeriph_Driver/src/stm32f10x_i2c.c ****     result = (uint16_t)(pclk1 / (I2C_InitStruct->I2C_ClockSpeed << 1));
 183              		.loc 1 230 48
 184 006e 3B68     		ldr	r3, [r7]
 185 0070 1B68     		ldr	r3, [r3]
 186              		.loc 1 230 65
 187 0072 5B00     		lsls	r3, r3, #1
 188              		.loc 1 230 31
 189 0074 FA69     		ldr	r2, [r7, #28]
 190 0076 B2FBF3F3 		udiv	r3, r2, r3
 191              		.loc 1 230 12
 192 007a BB84     		strh	r3, [r7, #36]	@ movhi
 231:common/lib.stm32/STM32F10x_StdPeriph_Driver/src/stm32f10x_i2c.c ****     /* Test if CCR value is under 0x4*/
 232:common/lib.stm32/STM32F10x_StdPeriph_Driver/src/stm32f10x_i2c.c ****     if (result < 0x04)
 193              		.loc 1 232 8
 194 007c BB8C     		ldrh	r3, [r7, #36]
 195 007e 032B     		cmp	r3, #3
 196 0080 01D8     		bhi	.L9
 233:common/lib.stm32/STM32F10x_StdPeriph_Driver/src/stm32f10x_i2c.c ****     {
 234:common/lib.stm32/STM32F10x_StdPeriph_Driver/src/stm32f10x_i2c.c ****       /* Set minimum allowed value */
 235:common/lib.stm32/STM32F10x_StdPeriph_Driver/src/stm32f10x_i2c.c ****       result = 0x04;  
 197              		.loc 1 235 14
 198 0082 0423     		movs	r3, #4
 199 0084 BB84     		strh	r3, [r7, #36]	@ movhi
 200              	.L9:
 236:common/lib.stm32/STM32F10x_StdPeriph_Driver/src/stm32f10x_i2c.c ****     }
 237:common/lib.stm32/STM32F10x_StdPeriph_Driver/src/stm32f10x_i2c.c ****     /* Set speed value for standard mode */
 238:common/lib.stm32/STM32F10x_StdPeriph_Driver/src/stm32f10x_i2c.c ****     tmpreg |= result;	  
 201              		.loc 1 238 12
 202 0086 FA8C     		ldrh	r2, [r7, #38]	@ movhi
 203 0088 BB8C     		ldrh	r3, [r7, #36]	@ movhi
 204 008a 1343     		orrs	r3, r3, r2
 205 008c FB84     		strh	r3, [r7, #38]	@ movhi
 239:common/lib.stm32/STM32F10x_StdPeriph_Driver/src/stm32f10x_i2c.c ****     /* Set Maximum Rise Time for standard mode */
 240:common/lib.stm32/STM32F10x_StdPeriph_Driver/src/stm32f10x_i2c.c ****     I2Cx->TRISE = freqrange + 1; 
 206              		.loc 1 240 29
 207 008e 7B8C     		ldrh	r3, [r7, #34]	@ movhi
 208 0090 0133     		adds	r3, r3, #1
 209 0092 9AB2     		uxth	r2, r3
 210              		.loc 1 240 17
 211 0094 7B68     		ldr	r3, [r7, #4]
 212 0096 1A84     		strh	r2, [r3, #32]	@ movhi
 213 0098 40E0     		b	.L10
 214              	.L8:
 241:common/lib.stm32/STM32F10x_StdPeriph_Driver/src/stm32f10x_i2c.c ****   }
 242:common/lib.stm32/STM32F10x_StdPeriph_Driver/src/stm32f10x_i2c.c ****   /* Configure speed in fast mode */
 243:common/lib.stm32/STM32F10x_StdPeriph_Driver/src/stm32f10x_i2c.c ****   else /*(I2C_InitStruct->I2C_ClockSpeed <= 400000)*/
 244:common/lib.stm32/STM32F10x_StdPeriph_Driver/src/stm32f10x_i2c.c ****   {
 245:common/lib.stm32/STM32F10x_StdPeriph_Driver/src/stm32f10x_i2c.c ****     if (I2C_InitStruct->I2C_DutyCycle == I2C_DutyCycle_2)
 215              		.loc 1 245 23
 216 009a 3B68     		ldr	r3, [r7]
 217 009c DB88     		ldrh	r3, [r3, #6]
 218              		.loc 1 245 8
 219 009e 4BF6FF72 		movw	r2, #49151
 220 00a2 9342     		cmp	r3, r2
 221 00a4 09D1     		bne	.L11
 246:common/lib.stm32/STM32F10x_StdPeriph_Driver/src/stm32f10x_i2c.c ****     {
 247:common/lib.stm32/STM32F10x_StdPeriph_Driver/src/stm32f10x_i2c.c ****       /* Fast mode speed calculate: Tlow/Thigh = 2 */
 248:common/lib.stm32/STM32F10x_StdPeriph_Driver/src/stm32f10x_i2c.c ****       result = (uint16_t)(pclk1 / (I2C_InitStruct->I2C_ClockSpeed * 3));
 222              		.loc 1 248 50
 223 00a6 3B68     		ldr	r3, [r7]
 224 00a8 1A68     		ldr	r2, [r3]
 225              		.loc 1 248 67
 226 00aa 1346     		mov	r3, r2
 227 00ac 5B00     		lsls	r3, r3, #1
 228 00ae 1344     		add	r3, r3, r2
 229              		.loc 1 248 33
 230 00b0 FA69     		ldr	r2, [r7, #28]
 231 00b2 B2FBF3F3 		udiv	r3, r2, r3
 232              		.loc 1 248 14
 233 00b6 BB84     		strh	r3, [r7, #36]	@ movhi
 234 00b8 0EE0     		b	.L12
 235              	.L11:
 249:common/lib.stm32/STM32F10x_StdPeriph_Driver/src/stm32f10x_i2c.c ****     }
 250:common/lib.stm32/STM32F10x_StdPeriph_Driver/src/stm32f10x_i2c.c ****     else /*I2C_InitStruct->I2C_DutyCycle == I2C_DutyCycle_16_9*/
 251:common/lib.stm32/STM32F10x_StdPeriph_Driver/src/stm32f10x_i2c.c ****     {
 252:common/lib.stm32/STM32F10x_StdPeriph_Driver/src/stm32f10x_i2c.c ****       /* Fast mode speed calculate: Tlow/Thigh = 16/9 */
 253:common/lib.stm32/STM32F10x_StdPeriph_Driver/src/stm32f10x_i2c.c ****       result = (uint16_t)(pclk1 / (I2C_InitStruct->I2C_ClockSpeed * 25));
 236              		.loc 1 253 50
 237 00ba 3B68     		ldr	r3, [r7]
 238 00bc 1A68     		ldr	r2, [r3]
 239              		.loc 1 253 67
 240 00be 1346     		mov	r3, r2
 241 00c0 9B00     		lsls	r3, r3, #2
 242 00c2 1344     		add	r3, r3, r2
 243 00c4 9A00     		lsls	r2, r3, #2
 244 00c6 1344     		add	r3, r3, r2
 245              		.loc 1 253 33
 246 00c8 FA69     		ldr	r2, [r7, #28]
 247 00ca B2FBF3F3 		udiv	r3, r2, r3
 248              		.loc 1 253 14
 249 00ce BB84     		strh	r3, [r7, #36]	@ movhi
 254:common/lib.stm32/STM32F10x_StdPeriph_Driver/src/stm32f10x_i2c.c ****       /* Set DUTY bit */
 255:common/lib.stm32/STM32F10x_StdPeriph_Driver/src/stm32f10x_i2c.c ****       result |= I2C_DutyCycle_16_9;
 250              		.loc 1 255 14
 251 00d0 BB8C     		ldrh	r3, [r7, #36]	@ movhi
 252 00d2 43F48043 		orr	r3, r3, #16384
 253 00d6 BB84     		strh	r3, [r7, #36]	@ movhi
 254              	.L12:
 256:common/lib.stm32/STM32F10x_StdPeriph_Driver/src/stm32f10x_i2c.c ****     }
 257:common/lib.stm32/STM32F10x_StdPeriph_Driver/src/stm32f10x_i2c.c **** 
 258:common/lib.stm32/STM32F10x_StdPeriph_Driver/src/stm32f10x_i2c.c ****     /* Test if CCR value is under 0x1*/
 259:common/lib.stm32/STM32F10x_StdPeriph_Driver/src/stm32f10x_i2c.c ****     if ((result & CCR_CCR_Set) == 0)
 255              		.loc 1 259 17
 256 00d8 BB8C     		ldrh	r3, [r7, #36]
 257 00da C3F30B03 		ubfx	r3, r3, #0, #12
 258              		.loc 1 259 8
 259 00de 002B     		cmp	r3, #0
 260 00e0 03D1     		bne	.L13
 260:common/lib.stm32/STM32F10x_StdPeriph_Driver/src/stm32f10x_i2c.c ****     {
 261:common/lib.stm32/STM32F10x_StdPeriph_Driver/src/stm32f10x_i2c.c ****       /* Set minimum allowed value */
 262:common/lib.stm32/STM32F10x_StdPeriph_Driver/src/stm32f10x_i2c.c ****       result |= (uint16_t)0x0001;  
 261              		.loc 1 262 14
 262 00e2 BB8C     		ldrh	r3, [r7, #36]	@ movhi
 263 00e4 43F00103 		orr	r3, r3, #1
 264 00e8 BB84     		strh	r3, [r7, #36]	@ movhi
 265              	.L13:
 263:common/lib.stm32/STM32F10x_StdPeriph_Driver/src/stm32f10x_i2c.c ****     }
 264:common/lib.stm32/STM32F10x_StdPeriph_Driver/src/stm32f10x_i2c.c ****     /* Set speed value and set F/S bit for fast mode */
 265:common/lib.stm32/STM32F10x_StdPeriph_Driver/src/stm32f10x_i2c.c ****     tmpreg |= (uint16_t)(result | CCR_FS_Set);
 266              		.loc 1 265 12
 267 00ea BA8C     		ldrh	r2, [r7, #36]	@ movhi
 268 00ec FB8C     		ldrh	r3, [r7, #38]	@ movhi
 269 00ee 1343     		orrs	r3, r3, r2
 270 00f0 9BB2     		uxth	r3, r3
 271 00f2 6FEA4343 		mvn	r3, r3, lsl #17
 272 00f6 6FEA5343 		mvn	r3, r3, lsr #17
 273 00fa FB84     		strh	r3, [r7, #38]	@ movhi
 266:common/lib.stm32/STM32F10x_StdPeriph_Driver/src/stm32f10x_i2c.c ****     /* Set Maximum Rise Time for fast mode */
 267:common/lib.stm32/STM32F10x_StdPeriph_Driver/src/stm32f10x_i2c.c ****     I2Cx->TRISE = (uint16_t)(((freqrange * (uint16_t)300) / (uint16_t)1000) + (uint16_t)1);  
 274              		.loc 1 267 42
 275 00fc 7B8C     		ldrh	r3, [r7, #34]
 276 00fe 4FF49672 		mov	r2, #300
 277 0102 02FB03F3 		mul	r3, r2, r3
 278              		.loc 1 267 59
 279 0106 1F4A     		ldr	r2, .L14+16
 280 0108 82FB0312 		smull	r1, r2, r2, r3
 281 010c 9211     		asrs	r2, r2, #6
 282 010e DB17     		asrs	r3, r3, #31
 283 0110 D31A     		subs	r3, r2, r3
 284              		.loc 1 267 19
 285 0112 9BB2     		uxth	r3, r3
 286 0114 0133     		adds	r3, r3, #1
 287 0116 9AB2     		uxth	r2, r3
 288              		.loc 1 267 17
 289 0118 7B68     		ldr	r3, [r7, #4]
 290 011a 1A84     		strh	r2, [r3, #32]	@ movhi
 291              	.L10:
 268:common/lib.stm32/STM32F10x_StdPeriph_Driver/src/stm32f10x_i2c.c ****   }
 269:common/lib.stm32/STM32F10x_StdPeriph_Driver/src/stm32f10x_i2c.c **** 
 270:common/lib.stm32/STM32F10x_StdPeriph_Driver/src/stm32f10x_i2c.c ****   /* Write to I2Cx CCR */
 271:common/lib.stm32/STM32F10x_StdPeriph_Driver/src/stm32f10x_i2c.c ****   I2Cx->CCR = tmpreg;
 292              		.loc 1 271 13
 293 011c 7B68     		ldr	r3, [r7, #4]
 294 011e FA8C     		ldrh	r2, [r7, #38]	@ movhi
 295 0120 9A83     		strh	r2, [r3, #28]	@ movhi
 272:common/lib.stm32/STM32F10x_StdPeriph_Driver/src/stm32f10x_i2c.c ****   /* Enable the selected I2C peripheral */
 273:common/lib.stm32/STM32F10x_StdPeriph_Driver/src/stm32f10x_i2c.c ****   I2Cx->CR1 |= CR1_PE_Set;
 296              		.loc 1 273 13
 297 0122 7B68     		ldr	r3, [r7, #4]
 298 0124 1B88     		ldrh	r3, [r3]	@ movhi
 299 0126 9BB2     		uxth	r3, r3
 300 0128 43F00103 		orr	r3, r3, #1
 301 012c 9AB2     		uxth	r2, r3
 302 012e 7B68     		ldr	r3, [r7, #4]
 303 0130 1A80     		strh	r2, [r3]	@ movhi
 274:common/lib.stm32/STM32F10x_StdPeriph_Driver/src/stm32f10x_i2c.c **** 
 275:common/lib.stm32/STM32F10x_StdPeriph_Driver/src/stm32f10x_i2c.c **** /*---------------------------- I2Cx CR1 Configuration ------------------------*/
 276:common/lib.stm32/STM32F10x_StdPeriph_Driver/src/stm32f10x_i2c.c ****   /* Get the I2Cx CR1 value */
 277:common/lib.stm32/STM32F10x_StdPeriph_Driver/src/stm32f10x_i2c.c ****   tmpreg = I2Cx->CR1;
 304              		.loc 1 277 10
 305 0132 7B68     		ldr	r3, [r7, #4]
 306 0134 1B88     		ldrh	r3, [r3]	@ movhi
 307 0136 FB84     		strh	r3, [r7, #38]	@ movhi
 278:common/lib.stm32/STM32F10x_StdPeriph_Driver/src/stm32f10x_i2c.c ****   /* Clear ACK, SMBTYPE and  SMBUS bits */
 279:common/lib.stm32/STM32F10x_StdPeriph_Driver/src/stm32f10x_i2c.c ****   tmpreg &= CR1_CLEAR_Mask;
 308              		.loc 1 279 10
 309 0138 FB8C     		ldrh	r3, [r7, #38]	@ movhi
 310 013a 23F48163 		bic	r3, r3, #1032
 311 013e 23F00203 		bic	r3, r3, #2
 312 0142 FB84     		strh	r3, [r7, #38]	@ movhi
 280:common/lib.stm32/STM32F10x_StdPeriph_Driver/src/stm32f10x_i2c.c ****   /* Configure I2Cx: mode and acknowledgement */
 281:common/lib.stm32/STM32F10x_StdPeriph_Driver/src/stm32f10x_i2c.c ****   /* Set SMBTYPE and SMBUS bits according to I2C_Mode value */
 282:common/lib.stm32/STM32F10x_StdPeriph_Driver/src/stm32f10x_i2c.c ****   /* Set ACK bit according to I2C_Ack value */
 283:common/lib.stm32/STM32F10x_StdPeriph_Driver/src/stm32f10x_i2c.c ****   tmpreg |= (uint16_t)((uint32_t)I2C_InitStruct->I2C_Mode | I2C_InitStruct->I2C_Ack);
 313              		.loc 1 283 48
 314 0144 3B68     		ldr	r3, [r7]
 315 0146 9A88     		ldrh	r2, [r3, #4]
 316              		.loc 1 283 75
 317 0148 3B68     		ldr	r3, [r7]
 318 014a 5B89     		ldrh	r3, [r3, #10]
 319              		.loc 1 283 13
 320 014c 1343     		orrs	r3, r3, r2
 321 014e 9AB2     		uxth	r2, r3
 322              		.loc 1 283 10
 323 0150 FB8C     		ldrh	r3, [r7, #38]	@ movhi
 324 0152 1343     		orrs	r3, r3, r2
 325 0154 FB84     		strh	r3, [r7, #38]	@ movhi
 284:common/lib.stm32/STM32F10x_StdPeriph_Driver/src/stm32f10x_i2c.c ****   /* Write to I2Cx CR1 */
 285:common/lib.stm32/STM32F10x_StdPeriph_Driver/src/stm32f10x_i2c.c ****   I2Cx->CR1 = tmpreg;
 326              		.loc 1 285 13
 327 0156 7B68     		ldr	r3, [r7, #4]
 328 0158 FA8C     		ldrh	r2, [r7, #38]	@ movhi
 329 015a 1A80     		strh	r2, [r3]	@ movhi
 286:common/lib.stm32/STM32F10x_StdPeriph_Driver/src/stm32f10x_i2c.c **** 
 287:common/lib.stm32/STM32F10x_StdPeriph_Driver/src/stm32f10x_i2c.c **** /*---------------------------- I2Cx OAR1 Configuration -----------------------*/
 288:common/lib.stm32/STM32F10x_StdPeriph_Driver/src/stm32f10x_i2c.c ****   /* Set I2Cx Own Address1 and acknowledged address */
 289:common/lib.stm32/STM32F10x_StdPeriph_Driver/src/stm32f10x_i2c.c ****   I2Cx->OAR1 = (I2C_InitStruct->I2C_AcknowledgedAddress | I2C_InitStruct->I2C_OwnAddress1);
 330              		.loc 1 289 31
 331 015c 3B68     		ldr	r3, [r7]
 332 015e 9A89     		ldrh	r2, [r3, #12]
 333              		.loc 1 289 73
 334 0160 3B68     		ldr	r3, [r7]
 335 0162 1B89     		ldrh	r3, [r3, #8]
 336              		.loc 1 289 14
 337 0164 1343     		orrs	r3, r3, r2
 338 0166 9AB2     		uxth	r2, r3
 339 0168 7B68     		ldr	r3, [r7, #4]
 340 016a 1A81     		strh	r2, [r3, #8]	@ movhi
 290:common/lib.stm32/STM32F10x_StdPeriph_Driver/src/stm32f10x_i2c.c **** }
 341              		.loc 1 290 1
 342 016c 00BF     		nop
 343 016e 2837     		adds	r7, r7, #40
 344              	.LCFI8:
 345              		.cfi_def_cfa_offset 8
 346 0170 BD46     		mov	sp, r7
 347              	.LCFI9:
 348              		.cfi_def_cfa_register 13
 349              		@ sp needed
 350 0172 80BD     		pop	{r7, pc}
 351              	.L15:
 352              		.align	2
 353              	.L14:
 354 0174 00127A00 		.word	8000000
 355 0178 00000000 		.word	RCC_GetClocksFreq
 356 017c 83DE1B43 		.word	1125899907
 357 0180 A0860100 		.word	100000
 358 0184 D34D6210 		.word	274877907
 359              		.cfi_endproc
 360              	.LFE28:
 362              		.section	.text.I2C_StructInit,"ax",%progbits
 363              		.align	1
 364              		.global	I2C_StructInit
 365              		.syntax unified
 366              		.thumb
 367              		.thumb_func
 369              	I2C_StructInit:
 370              	.LFB29:
 291:common/lib.stm32/STM32F10x_StdPeriph_Driver/src/stm32f10x_i2c.c **** 
 292:common/lib.stm32/STM32F10x_StdPeriph_Driver/src/stm32f10x_i2c.c **** /**
 293:common/lib.stm32/STM32F10x_StdPeriph_Driver/src/stm32f10x_i2c.c ****   * @brief  Fills each I2C_InitStruct member with its default value.
 294:common/lib.stm32/STM32F10x_StdPeriph_Driver/src/stm32f10x_i2c.c ****   * @param  I2C_InitStruct: pointer to an I2C_InitTypeDef structure which will be initialized.
 295:common/lib.stm32/STM32F10x_StdPeriph_Driver/src/stm32f10x_i2c.c ****   * @retval None
 296:common/lib.stm32/STM32F10x_StdPeriph_Driver/src/stm32f10x_i2c.c ****   */
 297:common/lib.stm32/STM32F10x_StdPeriph_Driver/src/stm32f10x_i2c.c **** void I2C_StructInit(I2C_InitTypeDef* I2C_InitStruct)
 298:common/lib.stm32/STM32F10x_StdPeriph_Driver/src/stm32f10x_i2c.c **** {
 371              		.loc 1 298 1
 372              		.cfi_startproc
 373              		@ args = 0, pretend = 0, frame = 8
 374              		@ frame_needed = 1, uses_anonymous_args = 0
 375              		@ link register save eliminated.
 376 0000 80B4     		push	{r7}
 377              	.LCFI10:
 378              		.cfi_def_cfa_offset 4
 379              		.cfi_offset 7, -4
 380 0002 83B0     		sub	sp, sp, #12
 381              	.LCFI11:
 382              		.cfi_def_cfa_offset 16
 383 0004 00AF     		add	r7, sp, #0
 384              	.LCFI12:
 385              		.cfi_def_cfa_register 7
 386 0006 7860     		str	r0, [r7, #4]
 299:common/lib.stm32/STM32F10x_StdPeriph_Driver/src/stm32f10x_i2c.c **** /*---------------- Reset I2C init structure parameters values ----------------*/
 300:common/lib.stm32/STM32F10x_StdPeriph_Driver/src/stm32f10x_i2c.c ****   /* initialize the I2C_ClockSpeed member */
 301:common/lib.stm32/STM32F10x_StdPeriph_Driver/src/stm32f10x_i2c.c ****   I2C_InitStruct->I2C_ClockSpeed = 5000;
 387              		.loc 1 301 34
 388 0008 7B68     		ldr	r3, [r7, #4]
 389 000a 41F28832 		movw	r2, #5000
 390 000e 1A60     		str	r2, [r3]
 302:common/lib.stm32/STM32F10x_StdPeriph_Driver/src/stm32f10x_i2c.c ****   /* Initialize the I2C_Mode member */
 303:common/lib.stm32/STM32F10x_StdPeriph_Driver/src/stm32f10x_i2c.c ****   I2C_InitStruct->I2C_Mode = I2C_Mode_I2C;
 391              		.loc 1 303 28
 392 0010 7B68     		ldr	r3, [r7, #4]
 393 0012 0022     		movs	r2, #0
 394 0014 9A80     		strh	r2, [r3, #4]	@ movhi
 304:common/lib.stm32/STM32F10x_StdPeriph_Driver/src/stm32f10x_i2c.c ****   /* Initialize the I2C_DutyCycle member */
 305:common/lib.stm32/STM32F10x_StdPeriph_Driver/src/stm32f10x_i2c.c ****   I2C_InitStruct->I2C_DutyCycle = I2C_DutyCycle_2;
 395              		.loc 1 305 33
 396 0016 7B68     		ldr	r3, [r7, #4]
 397 0018 4BF6FF72 		movw	r2, #49151
 398 001c DA80     		strh	r2, [r3, #6]	@ movhi
 306:common/lib.stm32/STM32F10x_StdPeriph_Driver/src/stm32f10x_i2c.c ****   /* Initialize the I2C_OwnAddress1 member */
 307:common/lib.stm32/STM32F10x_StdPeriph_Driver/src/stm32f10x_i2c.c ****   I2C_InitStruct->I2C_OwnAddress1 = 0;
 399              		.loc 1 307 35
 400 001e 7B68     		ldr	r3, [r7, #4]
 401 0020 0022     		movs	r2, #0
 402 0022 1A81     		strh	r2, [r3, #8]	@ movhi
 308:common/lib.stm32/STM32F10x_StdPeriph_Driver/src/stm32f10x_i2c.c ****   /* Initialize the I2C_Ack member */
 309:common/lib.stm32/STM32F10x_StdPeriph_Driver/src/stm32f10x_i2c.c ****   I2C_InitStruct->I2C_Ack = I2C_Ack_Disable;
 403              		.loc 1 309 27
 404 0024 7B68     		ldr	r3, [r7, #4]
 405 0026 0022     		movs	r2, #0
 406 0028 5A81     		strh	r2, [r3, #10]	@ movhi
 310:common/lib.stm32/STM32F10x_StdPeriph_Driver/src/stm32f10x_i2c.c ****   /* Initialize the I2C_AcknowledgedAddress member */
 311:common/lib.stm32/STM32F10x_StdPeriph_Driver/src/stm32f10x_i2c.c ****   I2C_InitStruct->I2C_AcknowledgedAddress = I2C_AcknowledgedAddress_7bit;
 407              		.loc 1 311 43
 408 002a 7B68     		ldr	r3, [r7, #4]
 409 002c 4FF48042 		mov	r2, #16384
 410 0030 9A81     		strh	r2, [r3, #12]	@ movhi
 312:common/lib.stm32/STM32F10x_StdPeriph_Driver/src/stm32f10x_i2c.c **** }
 411              		.loc 1 312 1
 412 0032 00BF     		nop
 413 0034 0C37     		adds	r7, r7, #12
 414              	.LCFI13:
 415              		.cfi_def_cfa_offset 4
 416 0036 BD46     		mov	sp, r7
 417              	.LCFI14:
 418              		.cfi_def_cfa_register 13
 419              		@ sp needed
 420 0038 80BC     		pop	{r7}
 421              	.LCFI15:
 422              		.cfi_restore 7
 423              		.cfi_def_cfa_offset 0
 424 003a 7047     		bx	lr
 425              		.cfi_endproc
 426              	.LFE29:
 428              		.section	.text.I2C_Cmd,"ax",%progbits
 429              		.align	1
 430              		.global	I2C_Cmd
 431              		.syntax unified
 432              		.thumb
 433              		.thumb_func
 435              	I2C_Cmd:
 436              	.LFB30:
 313:common/lib.stm32/STM32F10x_StdPeriph_Driver/src/stm32f10x_i2c.c **** 
 314:common/lib.stm32/STM32F10x_StdPeriph_Driver/src/stm32f10x_i2c.c **** /**
 315:common/lib.stm32/STM32F10x_StdPeriph_Driver/src/stm32f10x_i2c.c ****   * @brief  Enables or disables the specified I2C peripheral.
 316:common/lib.stm32/STM32F10x_StdPeriph_Driver/src/stm32f10x_i2c.c ****   * @param  I2Cx: where x can be 1 or 2 to select the I2C peripheral.
 317:common/lib.stm32/STM32F10x_StdPeriph_Driver/src/stm32f10x_i2c.c ****   * @param  NewState: new state of the I2Cx peripheral. 
 318:common/lib.stm32/STM32F10x_StdPeriph_Driver/src/stm32f10x_i2c.c ****   *   This parameter can be: ENABLE or DISABLE.
 319:common/lib.stm32/STM32F10x_StdPeriph_Driver/src/stm32f10x_i2c.c ****   * @retval None
 320:common/lib.stm32/STM32F10x_StdPeriph_Driver/src/stm32f10x_i2c.c ****   */
 321:common/lib.stm32/STM32F10x_StdPeriph_Driver/src/stm32f10x_i2c.c **** void I2C_Cmd(I2C_TypeDef* I2Cx, FunctionalState NewState)
 322:common/lib.stm32/STM32F10x_StdPeriph_Driver/src/stm32f10x_i2c.c **** {
 437              		.loc 1 322 1
 438              		.cfi_startproc
 439              		@ args = 0, pretend = 0, frame = 8
 440              		@ frame_needed = 1, uses_anonymous_args = 0
 441              		@ link register save eliminated.
 442 0000 80B4     		push	{r7}
 443              	.LCFI16:
 444              		.cfi_def_cfa_offset 4
 445              		.cfi_offset 7, -4
 446 0002 83B0     		sub	sp, sp, #12
 447              	.LCFI17:
 448              		.cfi_def_cfa_offset 16
 449 0004 00AF     		add	r7, sp, #0
 450              	.LCFI18:
 451              		.cfi_def_cfa_register 7
 452 0006 7860     		str	r0, [r7, #4]
 453 0008 0B46     		mov	r3, r1
 454 000a FB70     		strb	r3, [r7, #3]
 323:common/lib.stm32/STM32F10x_StdPeriph_Driver/src/stm32f10x_i2c.c ****   /* Check the parameters */
 324:common/lib.stm32/STM32F10x_StdPeriph_Driver/src/stm32f10x_i2c.c ****   assert_param(IS_I2C_ALL_PERIPH(I2Cx));
 325:common/lib.stm32/STM32F10x_StdPeriph_Driver/src/stm32f10x_i2c.c ****   assert_param(IS_FUNCTIONAL_STATE(NewState));
 326:common/lib.stm32/STM32F10x_StdPeriph_Driver/src/stm32f10x_i2c.c ****   if (NewState != DISABLE)
 455              		.loc 1 326 6
 456 000c FB78     		ldrb	r3, [r7, #3]	@ zero_extendqisi2
 457 000e 002B     		cmp	r3, #0
 458 0010 08D0     		beq	.L18
 327:common/lib.stm32/STM32F10x_StdPeriph_Driver/src/stm32f10x_i2c.c ****   {
 328:common/lib.stm32/STM32F10x_StdPeriph_Driver/src/stm32f10x_i2c.c ****     /* Enable the selected I2C peripheral */
 329:common/lib.stm32/STM32F10x_StdPeriph_Driver/src/stm32f10x_i2c.c ****     I2Cx->CR1 |= CR1_PE_Set;
 459              		.loc 1 329 15
 460 0012 7B68     		ldr	r3, [r7, #4]
 461 0014 1B88     		ldrh	r3, [r3]	@ movhi
 462 0016 9BB2     		uxth	r3, r3
 463 0018 43F00103 		orr	r3, r3, #1
 464 001c 9AB2     		uxth	r2, r3
 465 001e 7B68     		ldr	r3, [r7, #4]
 466 0020 1A80     		strh	r2, [r3]	@ movhi
 330:common/lib.stm32/STM32F10x_StdPeriph_Driver/src/stm32f10x_i2c.c ****   }
 331:common/lib.stm32/STM32F10x_StdPeriph_Driver/src/stm32f10x_i2c.c ****   else
 332:common/lib.stm32/STM32F10x_StdPeriph_Driver/src/stm32f10x_i2c.c ****   {
 333:common/lib.stm32/STM32F10x_StdPeriph_Driver/src/stm32f10x_i2c.c ****     /* Disable the selected I2C peripheral */
 334:common/lib.stm32/STM32F10x_StdPeriph_Driver/src/stm32f10x_i2c.c ****     I2Cx->CR1 &= CR1_PE_Reset;
 335:common/lib.stm32/STM32F10x_StdPeriph_Driver/src/stm32f10x_i2c.c ****   }
 336:common/lib.stm32/STM32F10x_StdPeriph_Driver/src/stm32f10x_i2c.c **** }
 467              		.loc 1 336 1
 468 0022 07E0     		b	.L20
 469              	.L18:
 334:common/lib.stm32/STM32F10x_StdPeriph_Driver/src/stm32f10x_i2c.c ****   }
 470              		.loc 1 334 15
 471 0024 7B68     		ldr	r3, [r7, #4]
 472 0026 1B88     		ldrh	r3, [r3]	@ movhi
 473 0028 9BB2     		uxth	r3, r3
 474 002a 23F00103 		bic	r3, r3, #1
 475 002e 9AB2     		uxth	r2, r3
 476 0030 7B68     		ldr	r3, [r7, #4]
 477 0032 1A80     		strh	r2, [r3]	@ movhi
 478              	.L20:
 479              		.loc 1 336 1
 480 0034 00BF     		nop
 481 0036 0C37     		adds	r7, r7, #12
 482              	.LCFI19:
 483              		.cfi_def_cfa_offset 4
 484 0038 BD46     		mov	sp, r7
 485              	.LCFI20:
 486              		.cfi_def_cfa_register 13
 487              		@ sp needed
 488 003a 80BC     		pop	{r7}
 489              	.LCFI21:
 490              		.cfi_restore 7
 491              		.cfi_def_cfa_offset 0
 492 003c 7047     		bx	lr
 493              		.cfi_endproc
 494              	.LFE30:
 496              		.section	.text.I2C_DMACmd,"ax",%progbits
 497              		.align	1
 498              		.global	I2C_DMACmd
 499              		.syntax unified
 500              		.thumb
 501              		.thumb_func
 503              	I2C_DMACmd:
 504              	.LFB31:
 337:common/lib.stm32/STM32F10x_StdPeriph_Driver/src/stm32f10x_i2c.c **** 
 338:common/lib.stm32/STM32F10x_StdPeriph_Driver/src/stm32f10x_i2c.c **** /**
 339:common/lib.stm32/STM32F10x_StdPeriph_Driver/src/stm32f10x_i2c.c ****   * @brief  Enables or disables the specified I2C DMA requests.
 340:common/lib.stm32/STM32F10x_StdPeriph_Driver/src/stm32f10x_i2c.c ****   * @param  I2Cx: where x can be 1 or 2 to select the I2C peripheral.
 341:common/lib.stm32/STM32F10x_StdPeriph_Driver/src/stm32f10x_i2c.c ****   * @param  NewState: new state of the I2C DMA transfer.
 342:common/lib.stm32/STM32F10x_StdPeriph_Driver/src/stm32f10x_i2c.c ****   *   This parameter can be: ENABLE or DISABLE.
 343:common/lib.stm32/STM32F10x_StdPeriph_Driver/src/stm32f10x_i2c.c ****   * @retval None
 344:common/lib.stm32/STM32F10x_StdPeriph_Driver/src/stm32f10x_i2c.c ****   */
 345:common/lib.stm32/STM32F10x_StdPeriph_Driver/src/stm32f10x_i2c.c **** void I2C_DMACmd(I2C_TypeDef* I2Cx, FunctionalState NewState)
 346:common/lib.stm32/STM32F10x_StdPeriph_Driver/src/stm32f10x_i2c.c **** {
 505              		.loc 1 346 1
 506              		.cfi_startproc
 507              		@ args = 0, pretend = 0, frame = 8
 508              		@ frame_needed = 1, uses_anonymous_args = 0
 509              		@ link register save eliminated.
 510 0000 80B4     		push	{r7}
 511              	.LCFI22:
 512              		.cfi_def_cfa_offset 4
 513              		.cfi_offset 7, -4
 514 0002 83B0     		sub	sp, sp, #12
 515              	.LCFI23:
 516              		.cfi_def_cfa_offset 16
 517 0004 00AF     		add	r7, sp, #0
 518              	.LCFI24:
 519              		.cfi_def_cfa_register 7
 520 0006 7860     		str	r0, [r7, #4]
 521 0008 0B46     		mov	r3, r1
 522 000a FB70     		strb	r3, [r7, #3]
 347:common/lib.stm32/STM32F10x_StdPeriph_Driver/src/stm32f10x_i2c.c ****   /* Check the parameters */
 348:common/lib.stm32/STM32F10x_StdPeriph_Driver/src/stm32f10x_i2c.c ****   assert_param(IS_I2C_ALL_PERIPH(I2Cx));
 349:common/lib.stm32/STM32F10x_StdPeriph_Driver/src/stm32f10x_i2c.c ****   assert_param(IS_FUNCTIONAL_STATE(NewState));
 350:common/lib.stm32/STM32F10x_StdPeriph_Driver/src/stm32f10x_i2c.c ****   if (NewState != DISABLE)
 523              		.loc 1 350 6
 524 000c FB78     		ldrb	r3, [r7, #3]	@ zero_extendqisi2
 525 000e 002B     		cmp	r3, #0
 526 0010 08D0     		beq	.L22
 351:common/lib.stm32/STM32F10x_StdPeriph_Driver/src/stm32f10x_i2c.c ****   {
 352:common/lib.stm32/STM32F10x_StdPeriph_Driver/src/stm32f10x_i2c.c ****     /* Enable the selected I2C DMA requests */
 353:common/lib.stm32/STM32F10x_StdPeriph_Driver/src/stm32f10x_i2c.c ****     I2Cx->CR2 |= CR2_DMAEN_Set;
 527              		.loc 1 353 15
 528 0012 7B68     		ldr	r3, [r7, #4]
 529 0014 9B88     		ldrh	r3, [r3, #4]	@ movhi
 530 0016 9BB2     		uxth	r3, r3
 531 0018 43F40063 		orr	r3, r3, #2048
 532 001c 9AB2     		uxth	r2, r3
 533 001e 7B68     		ldr	r3, [r7, #4]
 534 0020 9A80     		strh	r2, [r3, #4]	@ movhi
 354:common/lib.stm32/STM32F10x_StdPeriph_Driver/src/stm32f10x_i2c.c ****   }
 355:common/lib.stm32/STM32F10x_StdPeriph_Driver/src/stm32f10x_i2c.c ****   else
 356:common/lib.stm32/STM32F10x_StdPeriph_Driver/src/stm32f10x_i2c.c ****   {
 357:common/lib.stm32/STM32F10x_StdPeriph_Driver/src/stm32f10x_i2c.c ****     /* Disable the selected I2C DMA requests */
 358:common/lib.stm32/STM32F10x_StdPeriph_Driver/src/stm32f10x_i2c.c ****     I2Cx->CR2 &= CR2_DMAEN_Reset;
 359:common/lib.stm32/STM32F10x_StdPeriph_Driver/src/stm32f10x_i2c.c ****   }
 360:common/lib.stm32/STM32F10x_StdPeriph_Driver/src/stm32f10x_i2c.c **** }
 535              		.loc 1 360 1
 536 0022 07E0     		b	.L24
 537              	.L22:
 358:common/lib.stm32/STM32F10x_StdPeriph_Driver/src/stm32f10x_i2c.c ****   }
 538              		.loc 1 358 15
 539 0024 7B68     		ldr	r3, [r7, #4]
 540 0026 9B88     		ldrh	r3, [r3, #4]	@ movhi
 541 0028 9BB2     		uxth	r3, r3
 542 002a 23F40063 		bic	r3, r3, #2048
 543 002e 9AB2     		uxth	r2, r3
 544 0030 7B68     		ldr	r3, [r7, #4]
 545 0032 9A80     		strh	r2, [r3, #4]	@ movhi
 546              	.L24:
 547              		.loc 1 360 1
 548 0034 00BF     		nop
 549 0036 0C37     		adds	r7, r7, #12
 550              	.LCFI25:
 551              		.cfi_def_cfa_offset 4
 552 0038 BD46     		mov	sp, r7
 553              	.LCFI26:
 554              		.cfi_def_cfa_register 13
 555              		@ sp needed
 556 003a 80BC     		pop	{r7}
 557              	.LCFI27:
 558              		.cfi_restore 7
 559              		.cfi_def_cfa_offset 0
 560 003c 7047     		bx	lr
 561              		.cfi_endproc
 562              	.LFE31:
 564              		.section	.text.I2C_DMALastTransferCmd,"ax",%progbits
 565              		.align	1
 566              		.global	I2C_DMALastTransferCmd
 567              		.syntax unified
 568              		.thumb
 569              		.thumb_func
 571              	I2C_DMALastTransferCmd:
 572              	.LFB32:
 361:common/lib.stm32/STM32F10x_StdPeriph_Driver/src/stm32f10x_i2c.c **** 
 362:common/lib.stm32/STM32F10x_StdPeriph_Driver/src/stm32f10x_i2c.c **** /**
 363:common/lib.stm32/STM32F10x_StdPeriph_Driver/src/stm32f10x_i2c.c ****   * @brief  Specifies that the next DMA transfer is the last one.
 364:common/lib.stm32/STM32F10x_StdPeriph_Driver/src/stm32f10x_i2c.c ****   * @param  I2Cx: where x can be 1 or 2 to select the I2C peripheral.
 365:common/lib.stm32/STM32F10x_StdPeriph_Driver/src/stm32f10x_i2c.c ****   * @param  NewState: new state of the I2C DMA last transfer.
 366:common/lib.stm32/STM32F10x_StdPeriph_Driver/src/stm32f10x_i2c.c ****   *   This parameter can be: ENABLE or DISABLE.
 367:common/lib.stm32/STM32F10x_StdPeriph_Driver/src/stm32f10x_i2c.c ****   * @retval None
 368:common/lib.stm32/STM32F10x_StdPeriph_Driver/src/stm32f10x_i2c.c ****   */
 369:common/lib.stm32/STM32F10x_StdPeriph_Driver/src/stm32f10x_i2c.c **** void I2C_DMALastTransferCmd(I2C_TypeDef* I2Cx, FunctionalState NewState)
 370:common/lib.stm32/STM32F10x_StdPeriph_Driver/src/stm32f10x_i2c.c **** {
 573              		.loc 1 370 1
 574              		.cfi_startproc
 575              		@ args = 0, pretend = 0, frame = 8
 576              		@ frame_needed = 1, uses_anonymous_args = 0
 577              		@ link register save eliminated.
 578 0000 80B4     		push	{r7}
 579              	.LCFI28:
 580              		.cfi_def_cfa_offset 4
 581              		.cfi_offset 7, -4
 582 0002 83B0     		sub	sp, sp, #12
 583              	.LCFI29:
 584              		.cfi_def_cfa_offset 16
 585 0004 00AF     		add	r7, sp, #0
 586              	.LCFI30:
 587              		.cfi_def_cfa_register 7
 588 0006 7860     		str	r0, [r7, #4]
 589 0008 0B46     		mov	r3, r1
 590 000a FB70     		strb	r3, [r7, #3]
 371:common/lib.stm32/STM32F10x_StdPeriph_Driver/src/stm32f10x_i2c.c ****   /* Check the parameters */
 372:common/lib.stm32/STM32F10x_StdPeriph_Driver/src/stm32f10x_i2c.c ****   assert_param(IS_I2C_ALL_PERIPH(I2Cx));
 373:common/lib.stm32/STM32F10x_StdPeriph_Driver/src/stm32f10x_i2c.c ****   assert_param(IS_FUNCTIONAL_STATE(NewState));
 374:common/lib.stm32/STM32F10x_StdPeriph_Driver/src/stm32f10x_i2c.c ****   if (NewState != DISABLE)
 591              		.loc 1 374 6
 592 000c FB78     		ldrb	r3, [r7, #3]	@ zero_extendqisi2
 593 000e 002B     		cmp	r3, #0
 594 0010 08D0     		beq	.L26
 375:common/lib.stm32/STM32F10x_StdPeriph_Driver/src/stm32f10x_i2c.c ****   {
 376:common/lib.stm32/STM32F10x_StdPeriph_Driver/src/stm32f10x_i2c.c ****     /* Next DMA transfer is the last transfer */
 377:common/lib.stm32/STM32F10x_StdPeriph_Driver/src/stm32f10x_i2c.c ****     I2Cx->CR2 |= CR2_LAST_Set;
 595              		.loc 1 377 15
 596 0012 7B68     		ldr	r3, [r7, #4]
 597 0014 9B88     		ldrh	r3, [r3, #4]	@ movhi
 598 0016 9BB2     		uxth	r3, r3
 599 0018 43F48053 		orr	r3, r3, #4096
 600 001c 9AB2     		uxth	r2, r3
 601 001e 7B68     		ldr	r3, [r7, #4]
 602 0020 9A80     		strh	r2, [r3, #4]	@ movhi
 378:common/lib.stm32/STM32F10x_StdPeriph_Driver/src/stm32f10x_i2c.c ****   }
 379:common/lib.stm32/STM32F10x_StdPeriph_Driver/src/stm32f10x_i2c.c ****   else
 380:common/lib.stm32/STM32F10x_StdPeriph_Driver/src/stm32f10x_i2c.c ****   {
 381:common/lib.stm32/STM32F10x_StdPeriph_Driver/src/stm32f10x_i2c.c ****     /* Next DMA transfer is not the last transfer */
 382:common/lib.stm32/STM32F10x_StdPeriph_Driver/src/stm32f10x_i2c.c ****     I2Cx->CR2 &= CR2_LAST_Reset;
 383:common/lib.stm32/STM32F10x_StdPeriph_Driver/src/stm32f10x_i2c.c ****   }
 384:common/lib.stm32/STM32F10x_StdPeriph_Driver/src/stm32f10x_i2c.c **** }
 603              		.loc 1 384 1
 604 0022 07E0     		b	.L28
 605              	.L26:
 382:common/lib.stm32/STM32F10x_StdPeriph_Driver/src/stm32f10x_i2c.c ****   }
 606              		.loc 1 382 15
 607 0024 7B68     		ldr	r3, [r7, #4]
 608 0026 9B88     		ldrh	r3, [r3, #4]	@ movhi
 609 0028 9BB2     		uxth	r3, r3
 610 002a 23F48053 		bic	r3, r3, #4096
 611 002e 9AB2     		uxth	r2, r3
 612 0030 7B68     		ldr	r3, [r7, #4]
 613 0032 9A80     		strh	r2, [r3, #4]	@ movhi
 614              	.L28:
 615              		.loc 1 384 1
 616 0034 00BF     		nop
 617 0036 0C37     		adds	r7, r7, #12
 618              	.LCFI31:
 619              		.cfi_def_cfa_offset 4
 620 0038 BD46     		mov	sp, r7
 621              	.LCFI32:
 622              		.cfi_def_cfa_register 13
 623              		@ sp needed
 624 003a 80BC     		pop	{r7}
 625              	.LCFI33:
 626              		.cfi_restore 7
 627              		.cfi_def_cfa_offset 0
 628 003c 7047     		bx	lr
 629              		.cfi_endproc
 630              	.LFE32:
 632              		.section	.text.I2C_GenerateSTART,"ax",%progbits
 633              		.align	1
 634              		.global	I2C_GenerateSTART
 635              		.syntax unified
 636              		.thumb
 637              		.thumb_func
 639              	I2C_GenerateSTART:
 640              	.LFB33:
 385:common/lib.stm32/STM32F10x_StdPeriph_Driver/src/stm32f10x_i2c.c **** 
 386:common/lib.stm32/STM32F10x_StdPeriph_Driver/src/stm32f10x_i2c.c **** /**
 387:common/lib.stm32/STM32F10x_StdPeriph_Driver/src/stm32f10x_i2c.c ****   * @brief  Generates I2Cx communication START condition.
 388:common/lib.stm32/STM32F10x_StdPeriph_Driver/src/stm32f10x_i2c.c ****   * @param  I2Cx: where x can be 1 or 2 to select the I2C peripheral.
 389:common/lib.stm32/STM32F10x_StdPeriph_Driver/src/stm32f10x_i2c.c ****   * @param  NewState: new state of the I2C START condition generation.
 390:common/lib.stm32/STM32F10x_StdPeriph_Driver/src/stm32f10x_i2c.c ****   *   This parameter can be: ENABLE or DISABLE.
 391:common/lib.stm32/STM32F10x_StdPeriph_Driver/src/stm32f10x_i2c.c ****   * @retval None.
 392:common/lib.stm32/STM32F10x_StdPeriph_Driver/src/stm32f10x_i2c.c ****   */
 393:common/lib.stm32/STM32F10x_StdPeriph_Driver/src/stm32f10x_i2c.c **** void I2C_GenerateSTART(I2C_TypeDef* I2Cx, FunctionalState NewState)
 394:common/lib.stm32/STM32F10x_StdPeriph_Driver/src/stm32f10x_i2c.c **** {
 641              		.loc 1 394 1
 642              		.cfi_startproc
 643              		@ args = 0, pretend = 0, frame = 8
 644              		@ frame_needed = 1, uses_anonymous_args = 0
 645              		@ link register save eliminated.
 646 0000 80B4     		push	{r7}
 647              	.LCFI34:
 648              		.cfi_def_cfa_offset 4
 649              		.cfi_offset 7, -4
 650 0002 83B0     		sub	sp, sp, #12
 651              	.LCFI35:
 652              		.cfi_def_cfa_offset 16
 653 0004 00AF     		add	r7, sp, #0
 654              	.LCFI36:
 655              		.cfi_def_cfa_register 7
 656 0006 7860     		str	r0, [r7, #4]
 657 0008 0B46     		mov	r3, r1
 658 000a FB70     		strb	r3, [r7, #3]
 395:common/lib.stm32/STM32F10x_StdPeriph_Driver/src/stm32f10x_i2c.c ****   /* Check the parameters */
 396:common/lib.stm32/STM32F10x_StdPeriph_Driver/src/stm32f10x_i2c.c ****   assert_param(IS_I2C_ALL_PERIPH(I2Cx));
 397:common/lib.stm32/STM32F10x_StdPeriph_Driver/src/stm32f10x_i2c.c ****   assert_param(IS_FUNCTIONAL_STATE(NewState));
 398:common/lib.stm32/STM32F10x_StdPeriph_Driver/src/stm32f10x_i2c.c ****   if (NewState != DISABLE)
 659              		.loc 1 398 6
 660 000c FB78     		ldrb	r3, [r7, #3]	@ zero_extendqisi2
 661 000e 002B     		cmp	r3, #0
 662 0010 08D0     		beq	.L30
 399:common/lib.stm32/STM32F10x_StdPeriph_Driver/src/stm32f10x_i2c.c ****   {
 400:common/lib.stm32/STM32F10x_StdPeriph_Driver/src/stm32f10x_i2c.c ****     /* Generate a START condition */
 401:common/lib.stm32/STM32F10x_StdPeriph_Driver/src/stm32f10x_i2c.c ****     I2Cx->CR1 |= CR1_START_Set;
 663              		.loc 1 401 15
 664 0012 7B68     		ldr	r3, [r7, #4]
 665 0014 1B88     		ldrh	r3, [r3]	@ movhi
 666 0016 9BB2     		uxth	r3, r3
 667 0018 43F48073 		orr	r3, r3, #256
 668 001c 9AB2     		uxth	r2, r3
 669 001e 7B68     		ldr	r3, [r7, #4]
 670 0020 1A80     		strh	r2, [r3]	@ movhi
 402:common/lib.stm32/STM32F10x_StdPeriph_Driver/src/stm32f10x_i2c.c ****   }
 403:common/lib.stm32/STM32F10x_StdPeriph_Driver/src/stm32f10x_i2c.c ****   else
 404:common/lib.stm32/STM32F10x_StdPeriph_Driver/src/stm32f10x_i2c.c ****   {
 405:common/lib.stm32/STM32F10x_StdPeriph_Driver/src/stm32f10x_i2c.c ****     /* Disable the START condition generation */
 406:common/lib.stm32/STM32F10x_StdPeriph_Driver/src/stm32f10x_i2c.c ****     I2Cx->CR1 &= CR1_START_Reset;
 407:common/lib.stm32/STM32F10x_StdPeriph_Driver/src/stm32f10x_i2c.c ****   }
 408:common/lib.stm32/STM32F10x_StdPeriph_Driver/src/stm32f10x_i2c.c **** }
 671              		.loc 1 408 1
 672 0022 07E0     		b	.L32
 673              	.L30:
 406:common/lib.stm32/STM32F10x_StdPeriph_Driver/src/stm32f10x_i2c.c ****   }
 674              		.loc 1 406 15
 675 0024 7B68     		ldr	r3, [r7, #4]
 676 0026 1B88     		ldrh	r3, [r3]	@ movhi
 677 0028 9BB2     		uxth	r3, r3
 678 002a 23F48073 		bic	r3, r3, #256
 679 002e 9AB2     		uxth	r2, r3
 680 0030 7B68     		ldr	r3, [r7, #4]
 681 0032 1A80     		strh	r2, [r3]	@ movhi
 682              	.L32:
 683              		.loc 1 408 1
 684 0034 00BF     		nop
 685 0036 0C37     		adds	r7, r7, #12
 686              	.LCFI37:
 687              		.cfi_def_cfa_offset 4
 688 0038 BD46     		mov	sp, r7
 689              	.LCFI38:
 690              		.cfi_def_cfa_register 13
 691              		@ sp needed
 692 003a 80BC     		pop	{r7}
 693              	.LCFI39:
 694              		.cfi_restore 7
 695              		.cfi_def_cfa_offset 0
 696 003c 7047     		bx	lr
 697              		.cfi_endproc
 698              	.LFE33:
 700              		.section	.text.I2C_GenerateSTOP,"ax",%progbits
 701              		.align	1
 702              		.global	I2C_GenerateSTOP
 703              		.syntax unified
 704              		.thumb
 705              		.thumb_func
 707              	I2C_GenerateSTOP:
 708              	.LFB34:
 409:common/lib.stm32/STM32F10x_StdPeriph_Driver/src/stm32f10x_i2c.c **** 
 410:common/lib.stm32/STM32F10x_StdPeriph_Driver/src/stm32f10x_i2c.c **** /**
 411:common/lib.stm32/STM32F10x_StdPeriph_Driver/src/stm32f10x_i2c.c ****   * @brief  Generates I2Cx communication STOP condition.
 412:common/lib.stm32/STM32F10x_StdPeriph_Driver/src/stm32f10x_i2c.c ****   * @param  I2Cx: where x can be 1 or 2 to select the I2C peripheral.
 413:common/lib.stm32/STM32F10x_StdPeriph_Driver/src/stm32f10x_i2c.c ****   * @param  NewState: new state of the I2C STOP condition generation.
 414:common/lib.stm32/STM32F10x_StdPeriph_Driver/src/stm32f10x_i2c.c ****   *   This parameter can be: ENABLE or DISABLE.
 415:common/lib.stm32/STM32F10x_StdPeriph_Driver/src/stm32f10x_i2c.c ****   * @retval None.
 416:common/lib.stm32/STM32F10x_StdPeriph_Driver/src/stm32f10x_i2c.c ****   */
 417:common/lib.stm32/STM32F10x_StdPeriph_Driver/src/stm32f10x_i2c.c **** void I2C_GenerateSTOP(I2C_TypeDef* I2Cx, FunctionalState NewState)
 418:common/lib.stm32/STM32F10x_StdPeriph_Driver/src/stm32f10x_i2c.c **** {
 709              		.loc 1 418 1
 710              		.cfi_startproc
 711              		@ args = 0, pretend = 0, frame = 8
 712              		@ frame_needed = 1, uses_anonymous_args = 0
 713              		@ link register save eliminated.
 714 0000 80B4     		push	{r7}
 715              	.LCFI40:
 716              		.cfi_def_cfa_offset 4
 717              		.cfi_offset 7, -4
 718 0002 83B0     		sub	sp, sp, #12
 719              	.LCFI41:
 720              		.cfi_def_cfa_offset 16
 721 0004 00AF     		add	r7, sp, #0
 722              	.LCFI42:
 723              		.cfi_def_cfa_register 7
 724 0006 7860     		str	r0, [r7, #4]
 725 0008 0B46     		mov	r3, r1
 726 000a FB70     		strb	r3, [r7, #3]
 419:common/lib.stm32/STM32F10x_StdPeriph_Driver/src/stm32f10x_i2c.c ****   /* Check the parameters */
 420:common/lib.stm32/STM32F10x_StdPeriph_Driver/src/stm32f10x_i2c.c ****   assert_param(IS_I2C_ALL_PERIPH(I2Cx));
 421:common/lib.stm32/STM32F10x_StdPeriph_Driver/src/stm32f10x_i2c.c ****   assert_param(IS_FUNCTIONAL_STATE(NewState));
 422:common/lib.stm32/STM32F10x_StdPeriph_Driver/src/stm32f10x_i2c.c ****   if (NewState != DISABLE)
 727              		.loc 1 422 6
 728 000c FB78     		ldrb	r3, [r7, #3]	@ zero_extendqisi2
 729 000e 002B     		cmp	r3, #0
 730 0010 08D0     		beq	.L34
 423:common/lib.stm32/STM32F10x_StdPeriph_Driver/src/stm32f10x_i2c.c ****   {
 424:common/lib.stm32/STM32F10x_StdPeriph_Driver/src/stm32f10x_i2c.c ****     /* Generate a STOP condition */
 425:common/lib.stm32/STM32F10x_StdPeriph_Driver/src/stm32f10x_i2c.c ****     I2Cx->CR1 |= CR1_STOP_Set;
 731              		.loc 1 425 15
 732 0012 7B68     		ldr	r3, [r7, #4]
 733 0014 1B88     		ldrh	r3, [r3]	@ movhi
 734 0016 9BB2     		uxth	r3, r3
 735 0018 43F40073 		orr	r3, r3, #512
 736 001c 9AB2     		uxth	r2, r3
 737 001e 7B68     		ldr	r3, [r7, #4]
 738 0020 1A80     		strh	r2, [r3]	@ movhi
 426:common/lib.stm32/STM32F10x_StdPeriph_Driver/src/stm32f10x_i2c.c ****   }
 427:common/lib.stm32/STM32F10x_StdPeriph_Driver/src/stm32f10x_i2c.c ****   else
 428:common/lib.stm32/STM32F10x_StdPeriph_Driver/src/stm32f10x_i2c.c ****   {
 429:common/lib.stm32/STM32F10x_StdPeriph_Driver/src/stm32f10x_i2c.c ****     /* Disable the STOP condition generation */
 430:common/lib.stm32/STM32F10x_StdPeriph_Driver/src/stm32f10x_i2c.c ****     I2Cx->CR1 &= CR1_STOP_Reset;
 431:common/lib.stm32/STM32F10x_StdPeriph_Driver/src/stm32f10x_i2c.c ****   }
 432:common/lib.stm32/STM32F10x_StdPeriph_Driver/src/stm32f10x_i2c.c **** }
 739              		.loc 1 432 1
 740 0022 07E0     		b	.L36
 741              	.L34:
 430:common/lib.stm32/STM32F10x_StdPeriph_Driver/src/stm32f10x_i2c.c ****   }
 742              		.loc 1 430 15
 743 0024 7B68     		ldr	r3, [r7, #4]
 744 0026 1B88     		ldrh	r3, [r3]	@ movhi
 745 0028 9BB2     		uxth	r3, r3
 746 002a 23F40073 		bic	r3, r3, #512
 747 002e 9AB2     		uxth	r2, r3
 748 0030 7B68     		ldr	r3, [r7, #4]
 749 0032 1A80     		strh	r2, [r3]	@ movhi
 750              	.L36:
 751              		.loc 1 432 1
 752 0034 00BF     		nop
 753 0036 0C37     		adds	r7, r7, #12
 754              	.LCFI43:
 755              		.cfi_def_cfa_offset 4
 756 0038 BD46     		mov	sp, r7
 757              	.LCFI44:
 758              		.cfi_def_cfa_register 13
 759              		@ sp needed
 760 003a 80BC     		pop	{r7}
 761              	.LCFI45:
 762              		.cfi_restore 7
 763              		.cfi_def_cfa_offset 0
 764 003c 7047     		bx	lr
 765              		.cfi_endproc
 766              	.LFE34:
 768              		.section	.text.I2C_AcknowledgeConfig,"ax",%progbits
 769              		.align	1
 770              		.global	I2C_AcknowledgeConfig
 771              		.syntax unified
 772              		.thumb
 773              		.thumb_func
 775              	I2C_AcknowledgeConfig:
 776              	.LFB35:
 433:common/lib.stm32/STM32F10x_StdPeriph_Driver/src/stm32f10x_i2c.c **** 
 434:common/lib.stm32/STM32F10x_StdPeriph_Driver/src/stm32f10x_i2c.c **** /**
 435:common/lib.stm32/STM32F10x_StdPeriph_Driver/src/stm32f10x_i2c.c ****   * @brief  Enables or disables the specified I2C acknowledge feature.
 436:common/lib.stm32/STM32F10x_StdPeriph_Driver/src/stm32f10x_i2c.c ****   * @param  I2Cx: where x can be 1 or 2 to select the I2C peripheral.
 437:common/lib.stm32/STM32F10x_StdPeriph_Driver/src/stm32f10x_i2c.c ****   * @param  NewState: new state of the I2C Acknowledgement.
 438:common/lib.stm32/STM32F10x_StdPeriph_Driver/src/stm32f10x_i2c.c ****   *   This parameter can be: ENABLE or DISABLE.
 439:common/lib.stm32/STM32F10x_StdPeriph_Driver/src/stm32f10x_i2c.c ****   * @retval None.
 440:common/lib.stm32/STM32F10x_StdPeriph_Driver/src/stm32f10x_i2c.c ****   */
 441:common/lib.stm32/STM32F10x_StdPeriph_Driver/src/stm32f10x_i2c.c **** void I2C_AcknowledgeConfig(I2C_TypeDef* I2Cx, FunctionalState NewState)
 442:common/lib.stm32/STM32F10x_StdPeriph_Driver/src/stm32f10x_i2c.c **** {
 777              		.loc 1 442 1
 778              		.cfi_startproc
 779              		@ args = 0, pretend = 0, frame = 8
 780              		@ frame_needed = 1, uses_anonymous_args = 0
 781              		@ link register save eliminated.
 782 0000 80B4     		push	{r7}
 783              	.LCFI46:
 784              		.cfi_def_cfa_offset 4
 785              		.cfi_offset 7, -4
 786 0002 83B0     		sub	sp, sp, #12
 787              	.LCFI47:
 788              		.cfi_def_cfa_offset 16
 789 0004 00AF     		add	r7, sp, #0
 790              	.LCFI48:
 791              		.cfi_def_cfa_register 7
 792 0006 7860     		str	r0, [r7, #4]
 793 0008 0B46     		mov	r3, r1
 794 000a FB70     		strb	r3, [r7, #3]
 443:common/lib.stm32/STM32F10x_StdPeriph_Driver/src/stm32f10x_i2c.c ****   /* Check the parameters */
 444:common/lib.stm32/STM32F10x_StdPeriph_Driver/src/stm32f10x_i2c.c ****   assert_param(IS_I2C_ALL_PERIPH(I2Cx));
 445:common/lib.stm32/STM32F10x_StdPeriph_Driver/src/stm32f10x_i2c.c ****   assert_param(IS_FUNCTIONAL_STATE(NewState));
 446:common/lib.stm32/STM32F10x_StdPeriph_Driver/src/stm32f10x_i2c.c ****   if (NewState != DISABLE)
 795              		.loc 1 446 6
 796 000c FB78     		ldrb	r3, [r7, #3]	@ zero_extendqisi2
 797 000e 002B     		cmp	r3, #0
 798 0010 08D0     		beq	.L38
 447:common/lib.stm32/STM32F10x_StdPeriph_Driver/src/stm32f10x_i2c.c ****   {
 448:common/lib.stm32/STM32F10x_StdPeriph_Driver/src/stm32f10x_i2c.c ****     /* Enable the acknowledgement */
 449:common/lib.stm32/STM32F10x_StdPeriph_Driver/src/stm32f10x_i2c.c ****     I2Cx->CR1 |= CR1_ACK_Set;
 799              		.loc 1 449 15
 800 0012 7B68     		ldr	r3, [r7, #4]
 801 0014 1B88     		ldrh	r3, [r3]	@ movhi
 802 0016 9BB2     		uxth	r3, r3
 803 0018 43F48063 		orr	r3, r3, #1024
 804 001c 9AB2     		uxth	r2, r3
 805 001e 7B68     		ldr	r3, [r7, #4]
 806 0020 1A80     		strh	r2, [r3]	@ movhi
 450:common/lib.stm32/STM32F10x_StdPeriph_Driver/src/stm32f10x_i2c.c ****   }
 451:common/lib.stm32/STM32F10x_StdPeriph_Driver/src/stm32f10x_i2c.c ****   else
 452:common/lib.stm32/STM32F10x_StdPeriph_Driver/src/stm32f10x_i2c.c ****   {
 453:common/lib.stm32/STM32F10x_StdPeriph_Driver/src/stm32f10x_i2c.c ****     /* Disable the acknowledgement */
 454:common/lib.stm32/STM32F10x_StdPeriph_Driver/src/stm32f10x_i2c.c ****     I2Cx->CR1 &= CR1_ACK_Reset;
 455:common/lib.stm32/STM32F10x_StdPeriph_Driver/src/stm32f10x_i2c.c ****   }
 456:common/lib.stm32/STM32F10x_StdPeriph_Driver/src/stm32f10x_i2c.c **** }
 807              		.loc 1 456 1
 808 0022 07E0     		b	.L40
 809              	.L38:
 454:common/lib.stm32/STM32F10x_StdPeriph_Driver/src/stm32f10x_i2c.c ****   }
 810              		.loc 1 454 15
 811 0024 7B68     		ldr	r3, [r7, #4]
 812 0026 1B88     		ldrh	r3, [r3]	@ movhi
 813 0028 9BB2     		uxth	r3, r3
 814 002a 23F48063 		bic	r3, r3, #1024
 815 002e 9AB2     		uxth	r2, r3
 816 0030 7B68     		ldr	r3, [r7, #4]
 817 0032 1A80     		strh	r2, [r3]	@ movhi
 818              	.L40:
 819              		.loc 1 456 1
 820 0034 00BF     		nop
 821 0036 0C37     		adds	r7, r7, #12
 822              	.LCFI49:
 823              		.cfi_def_cfa_offset 4
 824 0038 BD46     		mov	sp, r7
 825              	.LCFI50:
 826              		.cfi_def_cfa_register 13
 827              		@ sp needed
 828 003a 80BC     		pop	{r7}
 829              	.LCFI51:
 830              		.cfi_restore 7
 831              		.cfi_def_cfa_offset 0
 832 003c 7047     		bx	lr
 833              		.cfi_endproc
 834              	.LFE35:
 836              		.section	.text.I2C_OwnAddress2Config,"ax",%progbits
 837              		.align	1
 838              		.global	I2C_OwnAddress2Config
 839              		.syntax unified
 840              		.thumb
 841              		.thumb_func
 843              	I2C_OwnAddress2Config:
 844              	.LFB36:
 457:common/lib.stm32/STM32F10x_StdPeriph_Driver/src/stm32f10x_i2c.c **** 
 458:common/lib.stm32/STM32F10x_StdPeriph_Driver/src/stm32f10x_i2c.c **** /**
 459:common/lib.stm32/STM32F10x_StdPeriph_Driver/src/stm32f10x_i2c.c ****   * @brief  Configures the specified I2C own address2.
 460:common/lib.stm32/STM32F10x_StdPeriph_Driver/src/stm32f10x_i2c.c ****   * @param  I2Cx: where x can be 1 or 2 to select the I2C peripheral.
 461:common/lib.stm32/STM32F10x_StdPeriph_Driver/src/stm32f10x_i2c.c ****   * @param  Address: specifies the 7bit I2C own address2.
 462:common/lib.stm32/STM32F10x_StdPeriph_Driver/src/stm32f10x_i2c.c ****   * @retval None.
 463:common/lib.stm32/STM32F10x_StdPeriph_Driver/src/stm32f10x_i2c.c ****   */
 464:common/lib.stm32/STM32F10x_StdPeriph_Driver/src/stm32f10x_i2c.c **** void I2C_OwnAddress2Config(I2C_TypeDef* I2Cx, uint8_t Address)
 465:common/lib.stm32/STM32F10x_StdPeriph_Driver/src/stm32f10x_i2c.c **** {
 845              		.loc 1 465 1
 846              		.cfi_startproc
 847              		@ args = 0, pretend = 0, frame = 16
 848              		@ frame_needed = 1, uses_anonymous_args = 0
 849              		@ link register save eliminated.
 850 0000 80B4     		push	{r7}
 851              	.LCFI52:
 852              		.cfi_def_cfa_offset 4
 853              		.cfi_offset 7, -4
 854 0002 85B0     		sub	sp, sp, #20
 855              	.LCFI53:
 856              		.cfi_def_cfa_offset 24
 857 0004 00AF     		add	r7, sp, #0
 858              	.LCFI54:
 859              		.cfi_def_cfa_register 7
 860 0006 7860     		str	r0, [r7, #4]
 861 0008 0B46     		mov	r3, r1
 862 000a FB70     		strb	r3, [r7, #3]
 466:common/lib.stm32/STM32F10x_StdPeriph_Driver/src/stm32f10x_i2c.c ****   uint16_t tmpreg = 0;
 863              		.loc 1 466 12
 864 000c 0023     		movs	r3, #0
 865 000e FB81     		strh	r3, [r7, #14]	@ movhi
 467:common/lib.stm32/STM32F10x_StdPeriph_Driver/src/stm32f10x_i2c.c **** 
 468:common/lib.stm32/STM32F10x_StdPeriph_Driver/src/stm32f10x_i2c.c ****   /* Check the parameters */
 469:common/lib.stm32/STM32F10x_StdPeriph_Driver/src/stm32f10x_i2c.c ****   assert_param(IS_I2C_ALL_PERIPH(I2Cx));
 470:common/lib.stm32/STM32F10x_StdPeriph_Driver/src/stm32f10x_i2c.c **** 
 471:common/lib.stm32/STM32F10x_StdPeriph_Driver/src/stm32f10x_i2c.c ****   /* Get the old register value */
 472:common/lib.stm32/STM32F10x_StdPeriph_Driver/src/stm32f10x_i2c.c ****   tmpreg = I2Cx->OAR2;
 866              		.loc 1 472 10
 867 0010 7B68     		ldr	r3, [r7, #4]
 868 0012 9B89     		ldrh	r3, [r3, #12]	@ movhi
 869 0014 FB81     		strh	r3, [r7, #14]	@ movhi
 473:common/lib.stm32/STM32F10x_StdPeriph_Driver/src/stm32f10x_i2c.c **** 
 474:common/lib.stm32/STM32F10x_StdPeriph_Driver/src/stm32f10x_i2c.c ****   /* Reset I2Cx Own address2 bit [7:1] */
 475:common/lib.stm32/STM32F10x_StdPeriph_Driver/src/stm32f10x_i2c.c ****   tmpreg &= OAR2_ADD2_Reset;
 870              		.loc 1 475 10
 871 0016 FB89     		ldrh	r3, [r7, #14]	@ movhi
 872 0018 23F0FE03 		bic	r3, r3, #254
 873 001c FB81     		strh	r3, [r7, #14]	@ movhi
 476:common/lib.stm32/STM32F10x_StdPeriph_Driver/src/stm32f10x_i2c.c **** 
 477:common/lib.stm32/STM32F10x_StdPeriph_Driver/src/stm32f10x_i2c.c ****   /* Set I2Cx Own address2 */
 478:common/lib.stm32/STM32F10x_StdPeriph_Driver/src/stm32f10x_i2c.c ****   tmpreg |= (uint16_t)((uint16_t)Address & (uint16_t)0x00FE);
 874              		.loc 1 478 13
 875 001e FB78     		ldrb	r3, [r7, #3]	@ zero_extendqisi2
 876 0020 1BB2     		sxth	r3, r3
 877 0022 03F0FE03 		and	r3, r3, #254
 878 0026 1AB2     		sxth	r2, r3
 879              		.loc 1 478 10
 880 0028 B7F90E30 		ldrsh	r3, [r7, #14]
 881 002c 1343     		orrs	r3, r3, r2
 882 002e 1BB2     		sxth	r3, r3
 883 0030 FB81     		strh	r3, [r7, #14]	@ movhi
 479:common/lib.stm32/STM32F10x_StdPeriph_Driver/src/stm32f10x_i2c.c **** 
 480:common/lib.stm32/STM32F10x_StdPeriph_Driver/src/stm32f10x_i2c.c ****   /* Store the new register value */
 481:common/lib.stm32/STM32F10x_StdPeriph_Driver/src/stm32f10x_i2c.c ****   I2Cx->OAR2 = tmpreg;
 884              		.loc 1 481 14
 885 0032 7B68     		ldr	r3, [r7, #4]
 886 0034 FA89     		ldrh	r2, [r7, #14]	@ movhi
 887 0036 9A81     		strh	r2, [r3, #12]	@ movhi
 482:common/lib.stm32/STM32F10x_StdPeriph_Driver/src/stm32f10x_i2c.c **** }
 888              		.loc 1 482 1
 889 0038 00BF     		nop
 890 003a 1437     		adds	r7, r7, #20
 891              	.LCFI55:
 892              		.cfi_def_cfa_offset 4
 893 003c BD46     		mov	sp, r7
 894              	.LCFI56:
 895              		.cfi_def_cfa_register 13
 896              		@ sp needed
 897 003e 80BC     		pop	{r7}
 898              	.LCFI57:
 899              		.cfi_restore 7
 900              		.cfi_def_cfa_offset 0
 901 0040 7047     		bx	lr
 902              		.cfi_endproc
 903              	.LFE36:
 905              		.section	.text.I2C_DualAddressCmd,"ax",%progbits
 906              		.align	1
 907              		.global	I2C_DualAddressCmd
 908              		.syntax unified
 909              		.thumb
 910              		.thumb_func
 912              	I2C_DualAddressCmd:
 913              	.LFB37:
 483:common/lib.stm32/STM32F10x_StdPeriph_Driver/src/stm32f10x_i2c.c **** 
 484:common/lib.stm32/STM32F10x_StdPeriph_Driver/src/stm32f10x_i2c.c **** /**
 485:common/lib.stm32/STM32F10x_StdPeriph_Driver/src/stm32f10x_i2c.c ****   * @brief  Enables or disables the specified I2C dual addressing mode.
 486:common/lib.stm32/STM32F10x_StdPeriph_Driver/src/stm32f10x_i2c.c ****   * @param  I2Cx: where x can be 1 or 2 to select the I2C peripheral.
 487:common/lib.stm32/STM32F10x_StdPeriph_Driver/src/stm32f10x_i2c.c ****   * @param  NewState: new state of the I2C dual addressing mode.
 488:common/lib.stm32/STM32F10x_StdPeriph_Driver/src/stm32f10x_i2c.c ****   *   This parameter can be: ENABLE or DISABLE.
 489:common/lib.stm32/STM32F10x_StdPeriph_Driver/src/stm32f10x_i2c.c ****   * @retval None
 490:common/lib.stm32/STM32F10x_StdPeriph_Driver/src/stm32f10x_i2c.c ****   */
 491:common/lib.stm32/STM32F10x_StdPeriph_Driver/src/stm32f10x_i2c.c **** void I2C_DualAddressCmd(I2C_TypeDef* I2Cx, FunctionalState NewState)
 492:common/lib.stm32/STM32F10x_StdPeriph_Driver/src/stm32f10x_i2c.c **** {
 914              		.loc 1 492 1
 915              		.cfi_startproc
 916              		@ args = 0, pretend = 0, frame = 8
 917              		@ frame_needed = 1, uses_anonymous_args = 0
 918              		@ link register save eliminated.
 919 0000 80B4     		push	{r7}
 920              	.LCFI58:
 921              		.cfi_def_cfa_offset 4
 922              		.cfi_offset 7, -4
 923 0002 83B0     		sub	sp, sp, #12
 924              	.LCFI59:
 925              		.cfi_def_cfa_offset 16
 926 0004 00AF     		add	r7, sp, #0
 927              	.LCFI60:
 928              		.cfi_def_cfa_register 7
 929 0006 7860     		str	r0, [r7, #4]
 930 0008 0B46     		mov	r3, r1
 931 000a FB70     		strb	r3, [r7, #3]
 493:common/lib.stm32/STM32F10x_StdPeriph_Driver/src/stm32f10x_i2c.c ****   /* Check the parameters */
 494:common/lib.stm32/STM32F10x_StdPeriph_Driver/src/stm32f10x_i2c.c ****   assert_param(IS_I2C_ALL_PERIPH(I2Cx));
 495:common/lib.stm32/STM32F10x_StdPeriph_Driver/src/stm32f10x_i2c.c ****   assert_param(IS_FUNCTIONAL_STATE(NewState));
 496:common/lib.stm32/STM32F10x_StdPeriph_Driver/src/stm32f10x_i2c.c ****   if (NewState != DISABLE)
 932              		.loc 1 496 6
 933 000c FB78     		ldrb	r3, [r7, #3]	@ zero_extendqisi2
 934 000e 002B     		cmp	r3, #0
 935 0010 08D0     		beq	.L43
 497:common/lib.stm32/STM32F10x_StdPeriph_Driver/src/stm32f10x_i2c.c ****   {
 498:common/lib.stm32/STM32F10x_StdPeriph_Driver/src/stm32f10x_i2c.c ****     /* Enable dual addressing mode */
 499:common/lib.stm32/STM32F10x_StdPeriph_Driver/src/stm32f10x_i2c.c ****     I2Cx->OAR2 |= OAR2_ENDUAL_Set;
 936              		.loc 1 499 16
 937 0012 7B68     		ldr	r3, [r7, #4]
 938 0014 9B89     		ldrh	r3, [r3, #12]	@ movhi
 939 0016 9BB2     		uxth	r3, r3
 940 0018 43F00103 		orr	r3, r3, #1
 941 001c 9AB2     		uxth	r2, r3
 942 001e 7B68     		ldr	r3, [r7, #4]
 943 0020 9A81     		strh	r2, [r3, #12]	@ movhi
 500:common/lib.stm32/STM32F10x_StdPeriph_Driver/src/stm32f10x_i2c.c ****   }
 501:common/lib.stm32/STM32F10x_StdPeriph_Driver/src/stm32f10x_i2c.c ****   else
 502:common/lib.stm32/STM32F10x_StdPeriph_Driver/src/stm32f10x_i2c.c ****   {
 503:common/lib.stm32/STM32F10x_StdPeriph_Driver/src/stm32f10x_i2c.c ****     /* Disable dual addressing mode */
 504:common/lib.stm32/STM32F10x_StdPeriph_Driver/src/stm32f10x_i2c.c ****     I2Cx->OAR2 &= OAR2_ENDUAL_Reset;
 505:common/lib.stm32/STM32F10x_StdPeriph_Driver/src/stm32f10x_i2c.c ****   }
 506:common/lib.stm32/STM32F10x_StdPeriph_Driver/src/stm32f10x_i2c.c **** }
 944              		.loc 1 506 1
 945 0022 07E0     		b	.L45
 946              	.L43:
 504:common/lib.stm32/STM32F10x_StdPeriph_Driver/src/stm32f10x_i2c.c ****   }
 947              		.loc 1 504 16
 948 0024 7B68     		ldr	r3, [r7, #4]
 949 0026 9B89     		ldrh	r3, [r3, #12]	@ movhi
 950 0028 9BB2     		uxth	r3, r3
 951 002a 23F00103 		bic	r3, r3, #1
 952 002e 9AB2     		uxth	r2, r3
 953 0030 7B68     		ldr	r3, [r7, #4]
 954 0032 9A81     		strh	r2, [r3, #12]	@ movhi
 955              	.L45:
 956              		.loc 1 506 1
 957 0034 00BF     		nop
 958 0036 0C37     		adds	r7, r7, #12
 959              	.LCFI61:
 960              		.cfi_def_cfa_offset 4
 961 0038 BD46     		mov	sp, r7
 962              	.LCFI62:
 963              		.cfi_def_cfa_register 13
 964              		@ sp needed
 965 003a 80BC     		pop	{r7}
 966              	.LCFI63:
 967              		.cfi_restore 7
 968              		.cfi_def_cfa_offset 0
 969 003c 7047     		bx	lr
 970              		.cfi_endproc
 971              	.LFE37:
 973              		.section	.text.I2C_GeneralCallCmd,"ax",%progbits
 974              		.align	1
 975              		.global	I2C_GeneralCallCmd
 976              		.syntax unified
 977              		.thumb
 978              		.thumb_func
 980              	I2C_GeneralCallCmd:
 981              	.LFB38:
 507:common/lib.stm32/STM32F10x_StdPeriph_Driver/src/stm32f10x_i2c.c **** 
 508:common/lib.stm32/STM32F10x_StdPeriph_Driver/src/stm32f10x_i2c.c **** /**
 509:common/lib.stm32/STM32F10x_StdPeriph_Driver/src/stm32f10x_i2c.c ****   * @brief  Enables or disables the specified I2C general call feature.
 510:common/lib.stm32/STM32F10x_StdPeriph_Driver/src/stm32f10x_i2c.c ****   * @param  I2Cx: where x can be 1 or 2 to select the I2C peripheral.
 511:common/lib.stm32/STM32F10x_StdPeriph_Driver/src/stm32f10x_i2c.c ****   * @param  NewState: new state of the I2C General call.
 512:common/lib.stm32/STM32F10x_StdPeriph_Driver/src/stm32f10x_i2c.c ****   *   This parameter can be: ENABLE or DISABLE.
 513:common/lib.stm32/STM32F10x_StdPeriph_Driver/src/stm32f10x_i2c.c ****   * @retval None
 514:common/lib.stm32/STM32F10x_StdPeriph_Driver/src/stm32f10x_i2c.c ****   */
 515:common/lib.stm32/STM32F10x_StdPeriph_Driver/src/stm32f10x_i2c.c **** void I2C_GeneralCallCmd(I2C_TypeDef* I2Cx, FunctionalState NewState)
 516:common/lib.stm32/STM32F10x_StdPeriph_Driver/src/stm32f10x_i2c.c **** {
 982              		.loc 1 516 1
 983              		.cfi_startproc
 984              		@ args = 0, pretend = 0, frame = 8
 985              		@ frame_needed = 1, uses_anonymous_args = 0
 986              		@ link register save eliminated.
 987 0000 80B4     		push	{r7}
 988              	.LCFI64:
 989              		.cfi_def_cfa_offset 4
 990              		.cfi_offset 7, -4
 991 0002 83B0     		sub	sp, sp, #12
 992              	.LCFI65:
 993              		.cfi_def_cfa_offset 16
 994 0004 00AF     		add	r7, sp, #0
 995              	.LCFI66:
 996              		.cfi_def_cfa_register 7
 997 0006 7860     		str	r0, [r7, #4]
 998 0008 0B46     		mov	r3, r1
 999 000a FB70     		strb	r3, [r7, #3]
 517:common/lib.stm32/STM32F10x_StdPeriph_Driver/src/stm32f10x_i2c.c ****   /* Check the parameters */
 518:common/lib.stm32/STM32F10x_StdPeriph_Driver/src/stm32f10x_i2c.c ****   assert_param(IS_I2C_ALL_PERIPH(I2Cx));
 519:common/lib.stm32/STM32F10x_StdPeriph_Driver/src/stm32f10x_i2c.c ****   assert_param(IS_FUNCTIONAL_STATE(NewState));
 520:common/lib.stm32/STM32F10x_StdPeriph_Driver/src/stm32f10x_i2c.c ****   if (NewState != DISABLE)
 1000              		.loc 1 520 6
 1001 000c FB78     		ldrb	r3, [r7, #3]	@ zero_extendqisi2
 1002 000e 002B     		cmp	r3, #0
 1003 0010 08D0     		beq	.L47
 521:common/lib.stm32/STM32F10x_StdPeriph_Driver/src/stm32f10x_i2c.c ****   {
 522:common/lib.stm32/STM32F10x_StdPeriph_Driver/src/stm32f10x_i2c.c ****     /* Enable generall call */
 523:common/lib.stm32/STM32F10x_StdPeriph_Driver/src/stm32f10x_i2c.c ****     I2Cx->CR1 |= CR1_ENGC_Set;
 1004              		.loc 1 523 15
 1005 0012 7B68     		ldr	r3, [r7, #4]
 1006 0014 1B88     		ldrh	r3, [r3]	@ movhi
 1007 0016 9BB2     		uxth	r3, r3
 1008 0018 43F04003 		orr	r3, r3, #64
 1009 001c 9AB2     		uxth	r2, r3
 1010 001e 7B68     		ldr	r3, [r7, #4]
 1011 0020 1A80     		strh	r2, [r3]	@ movhi
 524:common/lib.stm32/STM32F10x_StdPeriph_Driver/src/stm32f10x_i2c.c ****   }
 525:common/lib.stm32/STM32F10x_StdPeriph_Driver/src/stm32f10x_i2c.c ****   else
 526:common/lib.stm32/STM32F10x_StdPeriph_Driver/src/stm32f10x_i2c.c ****   {
 527:common/lib.stm32/STM32F10x_StdPeriph_Driver/src/stm32f10x_i2c.c ****     /* Disable generall call */
 528:common/lib.stm32/STM32F10x_StdPeriph_Driver/src/stm32f10x_i2c.c ****     I2Cx->CR1 &= CR1_ENGC_Reset;
 529:common/lib.stm32/STM32F10x_StdPeriph_Driver/src/stm32f10x_i2c.c ****   }
 530:common/lib.stm32/STM32F10x_StdPeriph_Driver/src/stm32f10x_i2c.c **** }
 1012              		.loc 1 530 1
 1013 0022 07E0     		b	.L49
 1014              	.L47:
 528:common/lib.stm32/STM32F10x_StdPeriph_Driver/src/stm32f10x_i2c.c ****   }
 1015              		.loc 1 528 15
 1016 0024 7B68     		ldr	r3, [r7, #4]
 1017 0026 1B88     		ldrh	r3, [r3]	@ movhi
 1018 0028 9BB2     		uxth	r3, r3
 1019 002a 23F04003 		bic	r3, r3, #64
 1020 002e 9AB2     		uxth	r2, r3
 1021 0030 7B68     		ldr	r3, [r7, #4]
 1022 0032 1A80     		strh	r2, [r3]	@ movhi
 1023              	.L49:
 1024              		.loc 1 530 1
 1025 0034 00BF     		nop
 1026 0036 0C37     		adds	r7, r7, #12
 1027              	.LCFI67:
 1028              		.cfi_def_cfa_offset 4
 1029 0038 BD46     		mov	sp, r7
 1030              	.LCFI68:
 1031              		.cfi_def_cfa_register 13
 1032              		@ sp needed
 1033 003a 80BC     		pop	{r7}
 1034              	.LCFI69:
 1035              		.cfi_restore 7
 1036              		.cfi_def_cfa_offset 0
 1037 003c 7047     		bx	lr
 1038              		.cfi_endproc
 1039              	.LFE38:
 1041              		.section	.text.I2C_ITConfig,"ax",%progbits
 1042              		.align	1
 1043              		.global	I2C_ITConfig
 1044              		.syntax unified
 1045              		.thumb
 1046              		.thumb_func
 1048              	I2C_ITConfig:
 1049              	.LFB39:
 531:common/lib.stm32/STM32F10x_StdPeriph_Driver/src/stm32f10x_i2c.c **** 
 532:common/lib.stm32/STM32F10x_StdPeriph_Driver/src/stm32f10x_i2c.c **** /**
 533:common/lib.stm32/STM32F10x_StdPeriph_Driver/src/stm32f10x_i2c.c ****   * @brief  Enables or disables the specified I2C interrupts.
 534:common/lib.stm32/STM32F10x_StdPeriph_Driver/src/stm32f10x_i2c.c ****   * @param  I2Cx: where x can be 1 or 2 to select the I2C peripheral.
 535:common/lib.stm32/STM32F10x_StdPeriph_Driver/src/stm32f10x_i2c.c ****   * @param  I2C_IT: specifies the I2C interrupts sources to be enabled or disabled. 
 536:common/lib.stm32/STM32F10x_StdPeriph_Driver/src/stm32f10x_i2c.c ****   *   This parameter can be any combination of the following values:
 537:common/lib.stm32/STM32F10x_StdPeriph_Driver/src/stm32f10x_i2c.c ****   *     @arg I2C_IT_BUF: Buffer interrupt mask
 538:common/lib.stm32/STM32F10x_StdPeriph_Driver/src/stm32f10x_i2c.c ****   *     @arg I2C_IT_EVT: Event interrupt mask
 539:common/lib.stm32/STM32F10x_StdPeriph_Driver/src/stm32f10x_i2c.c ****   *     @arg I2C_IT_ERR: Error interrupt mask
 540:common/lib.stm32/STM32F10x_StdPeriph_Driver/src/stm32f10x_i2c.c ****   * @param  NewState: new state of the specified I2C interrupts.
 541:common/lib.stm32/STM32F10x_StdPeriph_Driver/src/stm32f10x_i2c.c ****   *   This parameter can be: ENABLE or DISABLE.
 542:common/lib.stm32/STM32F10x_StdPeriph_Driver/src/stm32f10x_i2c.c ****   * @retval None
 543:common/lib.stm32/STM32F10x_StdPeriph_Driver/src/stm32f10x_i2c.c ****   */
 544:common/lib.stm32/STM32F10x_StdPeriph_Driver/src/stm32f10x_i2c.c **** void I2C_ITConfig(I2C_TypeDef* I2Cx, uint16_t I2C_IT, FunctionalState NewState)
 545:common/lib.stm32/STM32F10x_StdPeriph_Driver/src/stm32f10x_i2c.c **** {
 1050              		.loc 1 545 1
 1051              		.cfi_startproc
 1052              		@ args = 0, pretend = 0, frame = 8
 1053              		@ frame_needed = 1, uses_anonymous_args = 0
 1054              		@ link register save eliminated.
 1055 0000 80B4     		push	{r7}
 1056              	.LCFI70:
 1057              		.cfi_def_cfa_offset 4
 1058              		.cfi_offset 7, -4
 1059 0002 83B0     		sub	sp, sp, #12
 1060              	.LCFI71:
 1061              		.cfi_def_cfa_offset 16
 1062 0004 00AF     		add	r7, sp, #0
 1063              	.LCFI72:
 1064              		.cfi_def_cfa_register 7
 1065 0006 7860     		str	r0, [r7, #4]
 1066 0008 0B46     		mov	r3, r1
 1067 000a 7B80     		strh	r3, [r7, #2]	@ movhi
 1068 000c 1346     		mov	r3, r2
 1069 000e 7B70     		strb	r3, [r7, #1]
 546:common/lib.stm32/STM32F10x_StdPeriph_Driver/src/stm32f10x_i2c.c ****   /* Check the parameters */
 547:common/lib.stm32/STM32F10x_StdPeriph_Driver/src/stm32f10x_i2c.c ****   assert_param(IS_I2C_ALL_PERIPH(I2Cx));
 548:common/lib.stm32/STM32F10x_StdPeriph_Driver/src/stm32f10x_i2c.c ****   assert_param(IS_FUNCTIONAL_STATE(NewState));
 549:common/lib.stm32/STM32F10x_StdPeriph_Driver/src/stm32f10x_i2c.c ****   assert_param(IS_I2C_CONFIG_IT(I2C_IT));
 550:common/lib.stm32/STM32F10x_StdPeriph_Driver/src/stm32f10x_i2c.c ****   
 551:common/lib.stm32/STM32F10x_StdPeriph_Driver/src/stm32f10x_i2c.c ****   if (NewState != DISABLE)
 1070              		.loc 1 551 6
 1071 0010 7B78     		ldrb	r3, [r7, #1]	@ zero_extendqisi2
 1072 0012 002B     		cmp	r3, #0
 1073 0014 08D0     		beq	.L51
 552:common/lib.stm32/STM32F10x_StdPeriph_Driver/src/stm32f10x_i2c.c ****   {
 553:common/lib.stm32/STM32F10x_StdPeriph_Driver/src/stm32f10x_i2c.c ****     /* Enable the selected I2C interrupts */
 554:common/lib.stm32/STM32F10x_StdPeriph_Driver/src/stm32f10x_i2c.c ****     I2Cx->CR2 |= I2C_IT;
 1074              		.loc 1 554 15
 1075 0016 7B68     		ldr	r3, [r7, #4]
 1076 0018 9B88     		ldrh	r3, [r3, #4]	@ movhi
 1077 001a 9AB2     		uxth	r2, r3
 1078 001c 7B88     		ldrh	r3, [r7, #2]	@ movhi
 1079 001e 1343     		orrs	r3, r3, r2
 1080 0020 9AB2     		uxth	r2, r3
 1081 0022 7B68     		ldr	r3, [r7, #4]
 1082 0024 9A80     		strh	r2, [r3, #4]	@ movhi
 555:common/lib.stm32/STM32F10x_StdPeriph_Driver/src/stm32f10x_i2c.c ****   }
 556:common/lib.stm32/STM32F10x_StdPeriph_Driver/src/stm32f10x_i2c.c ****   else
 557:common/lib.stm32/STM32F10x_StdPeriph_Driver/src/stm32f10x_i2c.c ****   {
 558:common/lib.stm32/STM32F10x_StdPeriph_Driver/src/stm32f10x_i2c.c ****     /* Disable the selected I2C interrupts */
 559:common/lib.stm32/STM32F10x_StdPeriph_Driver/src/stm32f10x_i2c.c ****     I2Cx->CR2 &= (uint16_t)~I2C_IT;
 560:common/lib.stm32/STM32F10x_StdPeriph_Driver/src/stm32f10x_i2c.c ****   }
 561:common/lib.stm32/STM32F10x_StdPeriph_Driver/src/stm32f10x_i2c.c **** }
 1083              		.loc 1 561 1
 1084 0026 09E0     		b	.L53
 1085              	.L51:
 559:common/lib.stm32/STM32F10x_StdPeriph_Driver/src/stm32f10x_i2c.c ****   }
 1086              		.loc 1 559 15
 1087 0028 7B68     		ldr	r3, [r7, #4]
 1088 002a 9B88     		ldrh	r3, [r3, #4]	@ movhi
 1089 002c 9AB2     		uxth	r2, r3
 559:common/lib.stm32/STM32F10x_StdPeriph_Driver/src/stm32f10x_i2c.c ****   }
 1090              		.loc 1 559 18
 1091 002e 7B88     		ldrh	r3, [r7, #2]	@ movhi
 1092 0030 DB43     		mvns	r3, r3
 1093 0032 9BB2     		uxth	r3, r3
 559:common/lib.stm32/STM32F10x_StdPeriph_Driver/src/stm32f10x_i2c.c ****   }
 1094              		.loc 1 559 15
 1095 0034 1340     		ands	r3, r3, r2
 1096 0036 9AB2     		uxth	r2, r3
 1097 0038 7B68     		ldr	r3, [r7, #4]
 1098 003a 9A80     		strh	r2, [r3, #4]	@ movhi
 1099              	.L53:
 1100              		.loc 1 561 1
 1101 003c 00BF     		nop
 1102 003e 0C37     		adds	r7, r7, #12
 1103              	.LCFI73:
 1104              		.cfi_def_cfa_offset 4
 1105 0040 BD46     		mov	sp, r7
 1106              	.LCFI74:
 1107              		.cfi_def_cfa_register 13
 1108              		@ sp needed
 1109 0042 80BC     		pop	{r7}
 1110              	.LCFI75:
 1111              		.cfi_restore 7
 1112              		.cfi_def_cfa_offset 0
 1113 0044 7047     		bx	lr
 1114              		.cfi_endproc
 1115              	.LFE39:
 1117              		.section	.text.I2C_SendData,"ax",%progbits
 1118              		.align	1
 1119              		.global	I2C_SendData
 1120              		.syntax unified
 1121              		.thumb
 1122              		.thumb_func
 1124              	I2C_SendData:
 1125              	.LFB40:
 562:common/lib.stm32/STM32F10x_StdPeriph_Driver/src/stm32f10x_i2c.c **** 
 563:common/lib.stm32/STM32F10x_StdPeriph_Driver/src/stm32f10x_i2c.c **** /**
 564:common/lib.stm32/STM32F10x_StdPeriph_Driver/src/stm32f10x_i2c.c ****   * @brief  Sends a data byte through the I2Cx peripheral.
 565:common/lib.stm32/STM32F10x_StdPeriph_Driver/src/stm32f10x_i2c.c ****   * @param  I2Cx: where x can be 1 or 2 to select the I2C peripheral.
 566:common/lib.stm32/STM32F10x_StdPeriph_Driver/src/stm32f10x_i2c.c ****   * @param  Data: Byte to be transmitted..
 567:common/lib.stm32/STM32F10x_StdPeriph_Driver/src/stm32f10x_i2c.c ****   * @retval None
 568:common/lib.stm32/STM32F10x_StdPeriph_Driver/src/stm32f10x_i2c.c ****   */
 569:common/lib.stm32/STM32F10x_StdPeriph_Driver/src/stm32f10x_i2c.c **** void I2C_SendData(I2C_TypeDef* I2Cx, uint8_t Data)
 570:common/lib.stm32/STM32F10x_StdPeriph_Driver/src/stm32f10x_i2c.c **** {
 1126              		.loc 1 570 1
 1127              		.cfi_startproc
 1128              		@ args = 0, pretend = 0, frame = 8
 1129              		@ frame_needed = 1, uses_anonymous_args = 0
 1130              		@ link register save eliminated.
 1131 0000 80B4     		push	{r7}
 1132              	.LCFI76:
 1133              		.cfi_def_cfa_offset 4
 1134              		.cfi_offset 7, -4
 1135 0002 83B0     		sub	sp, sp, #12
 1136              	.LCFI77:
 1137              		.cfi_def_cfa_offset 16
 1138 0004 00AF     		add	r7, sp, #0
 1139              	.LCFI78:
 1140              		.cfi_def_cfa_register 7
 1141 0006 7860     		str	r0, [r7, #4]
 1142 0008 0B46     		mov	r3, r1
 1143 000a FB70     		strb	r3, [r7, #3]
 571:common/lib.stm32/STM32F10x_StdPeriph_Driver/src/stm32f10x_i2c.c ****   /* Check the parameters */
 572:common/lib.stm32/STM32F10x_StdPeriph_Driver/src/stm32f10x_i2c.c ****   assert_param(IS_I2C_ALL_PERIPH(I2Cx));
 573:common/lib.stm32/STM32F10x_StdPeriph_Driver/src/stm32f10x_i2c.c ****   /* Write in the DR register the data to be sent */
 574:common/lib.stm32/STM32F10x_StdPeriph_Driver/src/stm32f10x_i2c.c ****   I2Cx->DR = Data;
 1144              		.loc 1 574 12
 1145 000c FB78     		ldrb	r3, [r7, #3]	@ zero_extendqisi2
 1146 000e 9AB2     		uxth	r2, r3
 1147 0010 7B68     		ldr	r3, [r7, #4]
 1148 0012 1A82     		strh	r2, [r3, #16]	@ movhi
 575:common/lib.stm32/STM32F10x_StdPeriph_Driver/src/stm32f10x_i2c.c **** }
 1149              		.loc 1 575 1
 1150 0014 00BF     		nop
 1151 0016 0C37     		adds	r7, r7, #12
 1152              	.LCFI79:
 1153              		.cfi_def_cfa_offset 4
 1154 0018 BD46     		mov	sp, r7
 1155              	.LCFI80:
 1156              		.cfi_def_cfa_register 13
 1157              		@ sp needed
 1158 001a 80BC     		pop	{r7}
 1159              	.LCFI81:
 1160              		.cfi_restore 7
 1161              		.cfi_def_cfa_offset 0
 1162 001c 7047     		bx	lr
 1163              		.cfi_endproc
 1164              	.LFE40:
 1166              		.section	.text.I2C_ReceiveData,"ax",%progbits
 1167              		.align	1
 1168              		.global	I2C_ReceiveData
 1169              		.syntax unified
 1170              		.thumb
 1171              		.thumb_func
 1173              	I2C_ReceiveData:
 1174              	.LFB41:
 576:common/lib.stm32/STM32F10x_StdPeriph_Driver/src/stm32f10x_i2c.c **** 
 577:common/lib.stm32/STM32F10x_StdPeriph_Driver/src/stm32f10x_i2c.c **** /**
 578:common/lib.stm32/STM32F10x_StdPeriph_Driver/src/stm32f10x_i2c.c ****   * @brief  Returns the most recent received data by the I2Cx peripheral.
 579:common/lib.stm32/STM32F10x_StdPeriph_Driver/src/stm32f10x_i2c.c ****   * @param  I2Cx: where x can be 1 or 2 to select the I2C peripheral.
 580:common/lib.stm32/STM32F10x_StdPeriph_Driver/src/stm32f10x_i2c.c ****   * @retval The value of the received data.
 581:common/lib.stm32/STM32F10x_StdPeriph_Driver/src/stm32f10x_i2c.c ****   */
 582:common/lib.stm32/STM32F10x_StdPeriph_Driver/src/stm32f10x_i2c.c **** uint8_t I2C_ReceiveData(I2C_TypeDef* I2Cx)
 583:common/lib.stm32/STM32F10x_StdPeriph_Driver/src/stm32f10x_i2c.c **** {
 1175              		.loc 1 583 1
 1176              		.cfi_startproc
 1177              		@ args = 0, pretend = 0, frame = 8
 1178              		@ frame_needed = 1, uses_anonymous_args = 0
 1179              		@ link register save eliminated.
 1180 0000 80B4     		push	{r7}
 1181              	.LCFI82:
 1182              		.cfi_def_cfa_offset 4
 1183              		.cfi_offset 7, -4
 1184 0002 83B0     		sub	sp, sp, #12
 1185              	.LCFI83:
 1186              		.cfi_def_cfa_offset 16
 1187 0004 00AF     		add	r7, sp, #0
 1188              	.LCFI84:
 1189              		.cfi_def_cfa_register 7
 1190 0006 7860     		str	r0, [r7, #4]
 584:common/lib.stm32/STM32F10x_StdPeriph_Driver/src/stm32f10x_i2c.c ****   /* Check the parameters */
 585:common/lib.stm32/STM32F10x_StdPeriph_Driver/src/stm32f10x_i2c.c ****   assert_param(IS_I2C_ALL_PERIPH(I2Cx));
 586:common/lib.stm32/STM32F10x_StdPeriph_Driver/src/stm32f10x_i2c.c ****   /* Return the data in the DR register */
 587:common/lib.stm32/STM32F10x_StdPeriph_Driver/src/stm32f10x_i2c.c ****   return (uint8_t)I2Cx->DR;
 1191              		.loc 1 587 23
 1192 0008 7B68     		ldr	r3, [r7, #4]
 1193 000a 1B8A     		ldrh	r3, [r3, #16]	@ movhi
 1194 000c 9BB2     		uxth	r3, r3
 1195              		.loc 1 587 10
 1196 000e DBB2     		uxtb	r3, r3
 588:common/lib.stm32/STM32F10x_StdPeriph_Driver/src/stm32f10x_i2c.c **** }
 1197              		.loc 1 588 1
 1198 0010 1846     		mov	r0, r3
 1199 0012 0C37     		adds	r7, r7, #12
 1200              	.LCFI85:
 1201              		.cfi_def_cfa_offset 4
 1202 0014 BD46     		mov	sp, r7
 1203              	.LCFI86:
 1204              		.cfi_def_cfa_register 13
 1205              		@ sp needed
 1206 0016 80BC     		pop	{r7}
 1207              	.LCFI87:
 1208              		.cfi_restore 7
 1209              		.cfi_def_cfa_offset 0
 1210 0018 7047     		bx	lr
 1211              		.cfi_endproc
 1212              	.LFE41:
 1214              		.section	.text.I2C_Send7bitAddress,"ax",%progbits
 1215              		.align	1
 1216              		.global	I2C_Send7bitAddress
 1217              		.syntax unified
 1218              		.thumb
 1219              		.thumb_func
 1221              	I2C_Send7bitAddress:
 1222              	.LFB42:
 589:common/lib.stm32/STM32F10x_StdPeriph_Driver/src/stm32f10x_i2c.c **** 
 590:common/lib.stm32/STM32F10x_StdPeriph_Driver/src/stm32f10x_i2c.c **** /**
 591:common/lib.stm32/STM32F10x_StdPeriph_Driver/src/stm32f10x_i2c.c ****   * @brief  Transmits the address byte to select the slave device.
 592:common/lib.stm32/STM32F10x_StdPeriph_Driver/src/stm32f10x_i2c.c ****   * @param  I2Cx: where x can be 1 or 2 to select the I2C peripheral.
 593:common/lib.stm32/STM32F10x_StdPeriph_Driver/src/stm32f10x_i2c.c ****   * @param  Address: specifies the slave address which will be transmitted
 594:common/lib.stm32/STM32F10x_StdPeriph_Driver/src/stm32f10x_i2c.c ****   * @param  I2C_Direction: specifies whether the I2C device will be a
 595:common/lib.stm32/STM32F10x_StdPeriph_Driver/src/stm32f10x_i2c.c ****   *   Transmitter or a Receiver. This parameter can be one of the following values
 596:common/lib.stm32/STM32F10x_StdPeriph_Driver/src/stm32f10x_i2c.c ****   *     @arg I2C_Direction_Transmitter: Transmitter mode
 597:common/lib.stm32/STM32F10x_StdPeriph_Driver/src/stm32f10x_i2c.c ****   *     @arg I2C_Direction_Receiver: Receiver mode
 598:common/lib.stm32/STM32F10x_StdPeriph_Driver/src/stm32f10x_i2c.c ****   * @retval None.
 599:common/lib.stm32/STM32F10x_StdPeriph_Driver/src/stm32f10x_i2c.c ****   */
 600:common/lib.stm32/STM32F10x_StdPeriph_Driver/src/stm32f10x_i2c.c **** void I2C_Send7bitAddress(I2C_TypeDef* I2Cx, uint8_t Address, uint8_t I2C_Direction)
 601:common/lib.stm32/STM32F10x_StdPeriph_Driver/src/stm32f10x_i2c.c **** {
 1223              		.loc 1 601 1
 1224              		.cfi_startproc
 1225              		@ args = 0, pretend = 0, frame = 8
 1226              		@ frame_needed = 1, uses_anonymous_args = 0
 1227              		@ link register save eliminated.
 1228 0000 80B4     		push	{r7}
 1229              	.LCFI88:
 1230              		.cfi_def_cfa_offset 4
 1231              		.cfi_offset 7, -4
 1232 0002 83B0     		sub	sp, sp, #12
 1233              	.LCFI89:
 1234              		.cfi_def_cfa_offset 16
 1235 0004 00AF     		add	r7, sp, #0
 1236              	.LCFI90:
 1237              		.cfi_def_cfa_register 7
 1238 0006 7860     		str	r0, [r7, #4]
 1239 0008 0B46     		mov	r3, r1
 1240 000a FB70     		strb	r3, [r7, #3]
 1241 000c 1346     		mov	r3, r2
 1242 000e BB70     		strb	r3, [r7, #2]
 602:common/lib.stm32/STM32F10x_StdPeriph_Driver/src/stm32f10x_i2c.c ****   /* Check the parameters */
 603:common/lib.stm32/STM32F10x_StdPeriph_Driver/src/stm32f10x_i2c.c ****   assert_param(IS_I2C_ALL_PERIPH(I2Cx));
 604:common/lib.stm32/STM32F10x_StdPeriph_Driver/src/stm32f10x_i2c.c ****   assert_param(IS_I2C_DIRECTION(I2C_Direction));
 605:common/lib.stm32/STM32F10x_StdPeriph_Driver/src/stm32f10x_i2c.c ****   /* Test on the direction to set/reset the read/write bit */
 606:common/lib.stm32/STM32F10x_StdPeriph_Driver/src/stm32f10x_i2c.c ****   if (I2C_Direction != I2C_Direction_Transmitter)
 1243              		.loc 1 606 6
 1244 0010 BB78     		ldrb	r3, [r7, #2]	@ zero_extendqisi2
 1245 0012 002B     		cmp	r3, #0
 1246 0014 04D0     		beq	.L58
 607:common/lib.stm32/STM32F10x_StdPeriph_Driver/src/stm32f10x_i2c.c ****   {
 608:common/lib.stm32/STM32F10x_StdPeriph_Driver/src/stm32f10x_i2c.c ****     /* Set the address bit0 for read */
 609:common/lib.stm32/STM32F10x_StdPeriph_Driver/src/stm32f10x_i2c.c ****     Address |= OAR1_ADD0_Set;
 1247              		.loc 1 609 13
 1248 0016 FB78     		ldrb	r3, [r7, #3]
 1249 0018 43F00103 		orr	r3, r3, #1
 1250 001c FB70     		strb	r3, [r7, #3]
 1251 001e 03E0     		b	.L59
 1252              	.L58:
 610:common/lib.stm32/STM32F10x_StdPeriph_Driver/src/stm32f10x_i2c.c ****   }
 611:common/lib.stm32/STM32F10x_StdPeriph_Driver/src/stm32f10x_i2c.c ****   else
 612:common/lib.stm32/STM32F10x_StdPeriph_Driver/src/stm32f10x_i2c.c ****   {
 613:common/lib.stm32/STM32F10x_StdPeriph_Driver/src/stm32f10x_i2c.c ****     /* Reset the address bit0 for write */
 614:common/lib.stm32/STM32F10x_StdPeriph_Driver/src/stm32f10x_i2c.c ****     Address &= OAR1_ADD0_Reset;
 1253              		.loc 1 614 13
 1254 0020 FB78     		ldrb	r3, [r7, #3]
 1255 0022 23F00103 		bic	r3, r3, #1
 1256 0026 FB70     		strb	r3, [r7, #3]
 1257              	.L59:
 615:common/lib.stm32/STM32F10x_StdPeriph_Driver/src/stm32f10x_i2c.c ****   }
 616:common/lib.stm32/STM32F10x_StdPeriph_Driver/src/stm32f10x_i2c.c ****   /* Send the address */
 617:common/lib.stm32/STM32F10x_StdPeriph_Driver/src/stm32f10x_i2c.c ****   I2Cx->DR = Address;
 1258              		.loc 1 617 12
 1259 0028 FB78     		ldrb	r3, [r7, #3]	@ zero_extendqisi2
 1260 002a 9AB2     		uxth	r2, r3
 1261 002c 7B68     		ldr	r3, [r7, #4]
 1262 002e 1A82     		strh	r2, [r3, #16]	@ movhi
 618:common/lib.stm32/STM32F10x_StdPeriph_Driver/src/stm32f10x_i2c.c **** }
 1263              		.loc 1 618 1
 1264 0030 00BF     		nop
 1265 0032 0C37     		adds	r7, r7, #12
 1266              	.LCFI91:
 1267              		.cfi_def_cfa_offset 4
 1268 0034 BD46     		mov	sp, r7
 1269              	.LCFI92:
 1270              		.cfi_def_cfa_register 13
 1271              		@ sp needed
 1272 0036 80BC     		pop	{r7}
 1273              	.LCFI93:
 1274              		.cfi_restore 7
 1275              		.cfi_def_cfa_offset 0
 1276 0038 7047     		bx	lr
 1277              		.cfi_endproc
 1278              	.LFE42:
 1280              		.section	.text.I2C_ReadRegister,"ax",%progbits
 1281              		.align	1
 1282              		.global	I2C_ReadRegister
 1283              		.syntax unified
 1284              		.thumb
 1285              		.thumb_func
 1287              	I2C_ReadRegister:
 1288              	.LFB43:
 619:common/lib.stm32/STM32F10x_StdPeriph_Driver/src/stm32f10x_i2c.c **** 
 620:common/lib.stm32/STM32F10x_StdPeriph_Driver/src/stm32f10x_i2c.c **** /**
 621:common/lib.stm32/STM32F10x_StdPeriph_Driver/src/stm32f10x_i2c.c ****   * @brief  Reads the specified I2C register and returns its value.
 622:common/lib.stm32/STM32F10x_StdPeriph_Driver/src/stm32f10x_i2c.c ****   * @param  I2C_Register: specifies the register to read.
 623:common/lib.stm32/STM32F10x_StdPeriph_Driver/src/stm32f10x_i2c.c ****   *   This parameter can be one of the following values:
 624:common/lib.stm32/STM32F10x_StdPeriph_Driver/src/stm32f10x_i2c.c ****   *     @arg I2C_Register_CR1:  CR1 register.
 625:common/lib.stm32/STM32F10x_StdPeriph_Driver/src/stm32f10x_i2c.c ****   *     @arg I2C_Register_CR2:   CR2 register.
 626:common/lib.stm32/STM32F10x_StdPeriph_Driver/src/stm32f10x_i2c.c ****   *     @arg I2C_Register_OAR1:  OAR1 register.
 627:common/lib.stm32/STM32F10x_StdPeriph_Driver/src/stm32f10x_i2c.c ****   *     @arg I2C_Register_OAR2:  OAR2 register.
 628:common/lib.stm32/STM32F10x_StdPeriph_Driver/src/stm32f10x_i2c.c ****   *     @arg I2C_Register_DR:    DR register.
 629:common/lib.stm32/STM32F10x_StdPeriph_Driver/src/stm32f10x_i2c.c ****   *     @arg I2C_Register_SR1:   SR1 register.
 630:common/lib.stm32/STM32F10x_StdPeriph_Driver/src/stm32f10x_i2c.c ****   *     @arg I2C_Register_SR2:   SR2 register.
 631:common/lib.stm32/STM32F10x_StdPeriph_Driver/src/stm32f10x_i2c.c ****   *     @arg I2C_Register_CCR:   CCR register.
 632:common/lib.stm32/STM32F10x_StdPeriph_Driver/src/stm32f10x_i2c.c ****   *     @arg I2C_Register_TRISE: TRISE register.
 633:common/lib.stm32/STM32F10x_StdPeriph_Driver/src/stm32f10x_i2c.c ****   * @retval The value of the read register.
 634:common/lib.stm32/STM32F10x_StdPeriph_Driver/src/stm32f10x_i2c.c ****   */
 635:common/lib.stm32/STM32F10x_StdPeriph_Driver/src/stm32f10x_i2c.c **** uint16_t I2C_ReadRegister(I2C_TypeDef* I2Cx, uint8_t I2C_Register)
 636:common/lib.stm32/STM32F10x_StdPeriph_Driver/src/stm32f10x_i2c.c **** {
 1289              		.loc 1 636 1
 1290              		.cfi_startproc
 1291              		@ args = 0, pretend = 0, frame = 16
 1292              		@ frame_needed = 1, uses_anonymous_args = 0
 1293              		@ link register save eliminated.
 1294 0000 80B4     		push	{r7}
 1295              	.LCFI94:
 1296              		.cfi_def_cfa_offset 4
 1297              		.cfi_offset 7, -4
 1298 0002 85B0     		sub	sp, sp, #20
 1299              	.LCFI95:
 1300              		.cfi_def_cfa_offset 24
 1301 0004 00AF     		add	r7, sp, #0
 1302              	.LCFI96:
 1303              		.cfi_def_cfa_register 7
 1304 0006 7860     		str	r0, [r7, #4]
 1305 0008 0B46     		mov	r3, r1
 1306 000a FB70     		strb	r3, [r7, #3]
 637:common/lib.stm32/STM32F10x_StdPeriph_Driver/src/stm32f10x_i2c.c ****   __IO uint32_t tmp = 0;
 1307              		.loc 1 637 17
 1308 000c 0023     		movs	r3, #0
 1309 000e FB60     		str	r3, [r7, #12]
 638:common/lib.stm32/STM32F10x_StdPeriph_Driver/src/stm32f10x_i2c.c **** 
 639:common/lib.stm32/STM32F10x_StdPeriph_Driver/src/stm32f10x_i2c.c ****   /* Check the parameters */
 640:common/lib.stm32/STM32F10x_StdPeriph_Driver/src/stm32f10x_i2c.c ****   assert_param(IS_I2C_ALL_PERIPH(I2Cx));
 641:common/lib.stm32/STM32F10x_StdPeriph_Driver/src/stm32f10x_i2c.c ****   assert_param(IS_I2C_REGISTER(I2C_Register));
 642:common/lib.stm32/STM32F10x_StdPeriph_Driver/src/stm32f10x_i2c.c **** 
 643:common/lib.stm32/STM32F10x_StdPeriph_Driver/src/stm32f10x_i2c.c ****   tmp = (uint32_t) I2Cx;
 1310              		.loc 1 643 9
 1311 0010 7B68     		ldr	r3, [r7, #4]
 1312              		.loc 1 643 7
 1313 0012 FB60     		str	r3, [r7, #12]
 644:common/lib.stm32/STM32F10x_StdPeriph_Driver/src/stm32f10x_i2c.c ****   tmp += I2C_Register;
 1314              		.loc 1 644 7
 1315 0014 FA78     		ldrb	r2, [r7, #3]	@ zero_extendqisi2
 1316 0016 FB68     		ldr	r3, [r7, #12]
 1317 0018 1344     		add	r3, r3, r2
 1318 001a FB60     		str	r3, [r7, #12]
 645:common/lib.stm32/STM32F10x_StdPeriph_Driver/src/stm32f10x_i2c.c **** 
 646:common/lib.stm32/STM32F10x_StdPeriph_Driver/src/stm32f10x_i2c.c ****   /* Return the selected register value */
 647:common/lib.stm32/STM32F10x_StdPeriph_Driver/src/stm32f10x_i2c.c ****   return (*(__IO uint16_t *) tmp);
 1319              		.loc 1 647 12
 1320 001c FB68     		ldr	r3, [r7, #12]
 1321              		.loc 1 647 11
 1322 001e 1B88     		ldrh	r3, [r3]	@ movhi
 1323 0020 9BB2     		uxth	r3, r3
 648:common/lib.stm32/STM32F10x_StdPeriph_Driver/src/stm32f10x_i2c.c **** }
 1324              		.loc 1 648 1
 1325 0022 1846     		mov	r0, r3
 1326 0024 1437     		adds	r7, r7, #20
 1327              	.LCFI97:
 1328              		.cfi_def_cfa_offset 4
 1329 0026 BD46     		mov	sp, r7
 1330              	.LCFI98:
 1331              		.cfi_def_cfa_register 13
 1332              		@ sp needed
 1333 0028 80BC     		pop	{r7}
 1334              	.LCFI99:
 1335              		.cfi_restore 7
 1336              		.cfi_def_cfa_offset 0
 1337 002a 7047     		bx	lr
 1338              		.cfi_endproc
 1339              	.LFE43:
 1341              		.section	.text.I2C_SoftwareResetCmd,"ax",%progbits
 1342              		.align	1
 1343              		.global	I2C_SoftwareResetCmd
 1344              		.syntax unified
 1345              		.thumb
 1346              		.thumb_func
 1348              	I2C_SoftwareResetCmd:
 1349              	.LFB44:
 649:common/lib.stm32/STM32F10x_StdPeriph_Driver/src/stm32f10x_i2c.c **** 
 650:common/lib.stm32/STM32F10x_StdPeriph_Driver/src/stm32f10x_i2c.c **** /**
 651:common/lib.stm32/STM32F10x_StdPeriph_Driver/src/stm32f10x_i2c.c ****   * @brief  Enables or disables the specified I2C software reset.
 652:common/lib.stm32/STM32F10x_StdPeriph_Driver/src/stm32f10x_i2c.c ****   * @param  I2Cx: where x can be 1 or 2 to select the I2C peripheral.
 653:common/lib.stm32/STM32F10x_StdPeriph_Driver/src/stm32f10x_i2c.c ****   * @param  NewState: new state of the I2C software reset.
 654:common/lib.stm32/STM32F10x_StdPeriph_Driver/src/stm32f10x_i2c.c ****   *   This parameter can be: ENABLE or DISABLE.
 655:common/lib.stm32/STM32F10x_StdPeriph_Driver/src/stm32f10x_i2c.c ****   * @retval None
 656:common/lib.stm32/STM32F10x_StdPeriph_Driver/src/stm32f10x_i2c.c ****   */
 657:common/lib.stm32/STM32F10x_StdPeriph_Driver/src/stm32f10x_i2c.c **** void I2C_SoftwareResetCmd(I2C_TypeDef* I2Cx, FunctionalState NewState)
 658:common/lib.stm32/STM32F10x_StdPeriph_Driver/src/stm32f10x_i2c.c **** {
 1350              		.loc 1 658 1
 1351              		.cfi_startproc
 1352              		@ args = 0, pretend = 0, frame = 8
 1353              		@ frame_needed = 1, uses_anonymous_args = 0
 1354              		@ link register save eliminated.
 1355 0000 80B4     		push	{r7}
 1356              	.LCFI100:
 1357              		.cfi_def_cfa_offset 4
 1358              		.cfi_offset 7, -4
 1359 0002 83B0     		sub	sp, sp, #12
 1360              	.LCFI101:
 1361              		.cfi_def_cfa_offset 16
 1362 0004 00AF     		add	r7, sp, #0
 1363              	.LCFI102:
 1364              		.cfi_def_cfa_register 7
 1365 0006 7860     		str	r0, [r7, #4]
 1366 0008 0B46     		mov	r3, r1
 1367 000a FB70     		strb	r3, [r7, #3]
 659:common/lib.stm32/STM32F10x_StdPeriph_Driver/src/stm32f10x_i2c.c ****   /* Check the parameters */
 660:common/lib.stm32/STM32F10x_StdPeriph_Driver/src/stm32f10x_i2c.c ****   assert_param(IS_I2C_ALL_PERIPH(I2Cx));
 661:common/lib.stm32/STM32F10x_StdPeriph_Driver/src/stm32f10x_i2c.c ****   assert_param(IS_FUNCTIONAL_STATE(NewState));
 662:common/lib.stm32/STM32F10x_StdPeriph_Driver/src/stm32f10x_i2c.c ****   if (NewState != DISABLE)
 1368              		.loc 1 662 6
 1369 000c FB78     		ldrb	r3, [r7, #3]	@ zero_extendqisi2
 1370 000e 002B     		cmp	r3, #0
 1371 0010 0AD0     		beq	.L63
 663:common/lib.stm32/STM32F10x_StdPeriph_Driver/src/stm32f10x_i2c.c ****   {
 664:common/lib.stm32/STM32F10x_StdPeriph_Driver/src/stm32f10x_i2c.c ****     /* Peripheral under reset */
 665:common/lib.stm32/STM32F10x_StdPeriph_Driver/src/stm32f10x_i2c.c ****     I2Cx->CR1 |= CR1_SWRST_Set;
 1372              		.loc 1 665 15
 1373 0012 7B68     		ldr	r3, [r7, #4]
 1374 0014 1B88     		ldrh	r3, [r3]	@ movhi
 1375 0016 9BB2     		uxth	r3, r3
 1376 0018 6FEA4343 		mvn	r3, r3, lsl #17
 1377 001c 6FEA5343 		mvn	r3, r3, lsr #17
 1378 0020 9AB2     		uxth	r2, r3
 1379 0022 7B68     		ldr	r3, [r7, #4]
 1380 0024 1A80     		strh	r2, [r3]	@ movhi
 666:common/lib.stm32/STM32F10x_StdPeriph_Driver/src/stm32f10x_i2c.c ****   }
 667:common/lib.stm32/STM32F10x_StdPeriph_Driver/src/stm32f10x_i2c.c ****   else
 668:common/lib.stm32/STM32F10x_StdPeriph_Driver/src/stm32f10x_i2c.c ****   {
 669:common/lib.stm32/STM32F10x_StdPeriph_Driver/src/stm32f10x_i2c.c ****     /* Peripheral not under reset */
 670:common/lib.stm32/STM32F10x_StdPeriph_Driver/src/stm32f10x_i2c.c ****     I2Cx->CR1 &= CR1_SWRST_Reset;
 671:common/lib.stm32/STM32F10x_StdPeriph_Driver/src/stm32f10x_i2c.c ****   }
 672:common/lib.stm32/STM32F10x_StdPeriph_Driver/src/stm32f10x_i2c.c **** }
 1381              		.loc 1 672 1
 1382 0026 07E0     		b	.L65
 1383              	.L63:
 670:common/lib.stm32/STM32F10x_StdPeriph_Driver/src/stm32f10x_i2c.c ****   }
 1384              		.loc 1 670 15
 1385 0028 7B68     		ldr	r3, [r7, #4]
 1386 002a 1B88     		ldrh	r3, [r3]	@ movhi
 1387 002c 9BB2     		uxth	r3, r3
 1388 002e C3F30E03 		ubfx	r3, r3, #0, #15
 1389 0032 9AB2     		uxth	r2, r3
 1390 0034 7B68     		ldr	r3, [r7, #4]
 1391 0036 1A80     		strh	r2, [r3]	@ movhi
 1392              	.L65:
 1393              		.loc 1 672 1
 1394 0038 00BF     		nop
 1395 003a 0C37     		adds	r7, r7, #12
 1396              	.LCFI103:
 1397              		.cfi_def_cfa_offset 4
 1398 003c BD46     		mov	sp, r7
 1399              	.LCFI104:
 1400              		.cfi_def_cfa_register 13
 1401              		@ sp needed
 1402 003e 80BC     		pop	{r7}
 1403              	.LCFI105:
 1404              		.cfi_restore 7
 1405              		.cfi_def_cfa_offset 0
 1406 0040 7047     		bx	lr
 1407              		.cfi_endproc
 1408              	.LFE44:
 1410              		.section	.text.I2C_SMBusAlertConfig,"ax",%progbits
 1411              		.align	1
 1412              		.global	I2C_SMBusAlertConfig
 1413              		.syntax unified
 1414              		.thumb
 1415              		.thumb_func
 1417              	I2C_SMBusAlertConfig:
 1418              	.LFB45:
 673:common/lib.stm32/STM32F10x_StdPeriph_Driver/src/stm32f10x_i2c.c **** 
 674:common/lib.stm32/STM32F10x_StdPeriph_Driver/src/stm32f10x_i2c.c **** /**
 675:common/lib.stm32/STM32F10x_StdPeriph_Driver/src/stm32f10x_i2c.c ****   * @brief  Drives the SMBusAlert pin high or low for the specified I2C.
 676:common/lib.stm32/STM32F10x_StdPeriph_Driver/src/stm32f10x_i2c.c ****   * @param  I2Cx: where x can be 1 or 2 to select the I2C peripheral.
 677:common/lib.stm32/STM32F10x_StdPeriph_Driver/src/stm32f10x_i2c.c ****   * @param  I2C_SMBusAlert: specifies SMBAlert pin level. 
 678:common/lib.stm32/STM32F10x_StdPeriph_Driver/src/stm32f10x_i2c.c ****   *   This parameter can be one of the following values:
 679:common/lib.stm32/STM32F10x_StdPeriph_Driver/src/stm32f10x_i2c.c ****   *     @arg I2C_SMBusAlert_Low: SMBAlert pin driven low
 680:common/lib.stm32/STM32F10x_StdPeriph_Driver/src/stm32f10x_i2c.c ****   *     @arg I2C_SMBusAlert_High: SMBAlert pin driven high
 681:common/lib.stm32/STM32F10x_StdPeriph_Driver/src/stm32f10x_i2c.c ****   * @retval None
 682:common/lib.stm32/STM32F10x_StdPeriph_Driver/src/stm32f10x_i2c.c ****   */
 683:common/lib.stm32/STM32F10x_StdPeriph_Driver/src/stm32f10x_i2c.c **** void I2C_SMBusAlertConfig(I2C_TypeDef* I2Cx, uint16_t I2C_SMBusAlert)
 684:common/lib.stm32/STM32F10x_StdPeriph_Driver/src/stm32f10x_i2c.c **** {
 1419              		.loc 1 684 1
 1420              		.cfi_startproc
 1421              		@ args = 0, pretend = 0, frame = 8
 1422              		@ frame_needed = 1, uses_anonymous_args = 0
 1423              		@ link register save eliminated.
 1424 0000 80B4     		push	{r7}
 1425              	.LCFI106:
 1426              		.cfi_def_cfa_offset 4
 1427              		.cfi_offset 7, -4
 1428 0002 83B0     		sub	sp, sp, #12
 1429              	.LCFI107:
 1430              		.cfi_def_cfa_offset 16
 1431 0004 00AF     		add	r7, sp, #0
 1432              	.LCFI108:
 1433              		.cfi_def_cfa_register 7
 1434 0006 7860     		str	r0, [r7, #4]
 1435 0008 0B46     		mov	r3, r1
 1436 000a 7B80     		strh	r3, [r7, #2]	@ movhi
 685:common/lib.stm32/STM32F10x_StdPeriph_Driver/src/stm32f10x_i2c.c ****   /* Check the parameters */
 686:common/lib.stm32/STM32F10x_StdPeriph_Driver/src/stm32f10x_i2c.c ****   assert_param(IS_I2C_ALL_PERIPH(I2Cx));
 687:common/lib.stm32/STM32F10x_StdPeriph_Driver/src/stm32f10x_i2c.c ****   assert_param(IS_I2C_SMBUS_ALERT(I2C_SMBusAlert));
 688:common/lib.stm32/STM32F10x_StdPeriph_Driver/src/stm32f10x_i2c.c ****   if (I2C_SMBusAlert == I2C_SMBusAlert_Low)
 1437              		.loc 1 688 6
 1438 000c 7B88     		ldrh	r3, [r7, #2]
 1439 000e B3F5005F 		cmp	r3, #8192
 1440 0012 08D1     		bne	.L67
 689:common/lib.stm32/STM32F10x_StdPeriph_Driver/src/stm32f10x_i2c.c ****   {
 690:common/lib.stm32/STM32F10x_StdPeriph_Driver/src/stm32f10x_i2c.c ****     /* Drive the SMBusAlert pin Low */
 691:common/lib.stm32/STM32F10x_StdPeriph_Driver/src/stm32f10x_i2c.c ****     I2Cx->CR1 |= I2C_SMBusAlert_Low;
 1441              		.loc 1 691 15
 1442 0014 7B68     		ldr	r3, [r7, #4]
 1443 0016 1B88     		ldrh	r3, [r3]	@ movhi
 1444 0018 9BB2     		uxth	r3, r3
 1445 001a 43F40053 		orr	r3, r3, #8192
 1446 001e 9AB2     		uxth	r2, r3
 1447 0020 7B68     		ldr	r3, [r7, #4]
 1448 0022 1A80     		strh	r2, [r3]	@ movhi
 692:common/lib.stm32/STM32F10x_StdPeriph_Driver/src/stm32f10x_i2c.c ****   }
 693:common/lib.stm32/STM32F10x_StdPeriph_Driver/src/stm32f10x_i2c.c ****   else
 694:common/lib.stm32/STM32F10x_StdPeriph_Driver/src/stm32f10x_i2c.c ****   {
 695:common/lib.stm32/STM32F10x_StdPeriph_Driver/src/stm32f10x_i2c.c ****     /* Drive the SMBusAlert pin High  */
 696:common/lib.stm32/STM32F10x_StdPeriph_Driver/src/stm32f10x_i2c.c ****     I2Cx->CR1 &= I2C_SMBusAlert_High;
 697:common/lib.stm32/STM32F10x_StdPeriph_Driver/src/stm32f10x_i2c.c ****   }
 698:common/lib.stm32/STM32F10x_StdPeriph_Driver/src/stm32f10x_i2c.c **** }
 1449              		.loc 1 698 1
 1450 0024 07E0     		b	.L69
 1451              	.L67:
 696:common/lib.stm32/STM32F10x_StdPeriph_Driver/src/stm32f10x_i2c.c ****   }
 1452              		.loc 1 696 15
 1453 0026 7B68     		ldr	r3, [r7, #4]
 1454 0028 1B88     		ldrh	r3, [r3]	@ movhi
 1455 002a 9BB2     		uxth	r3, r3
 1456 002c 23F40053 		bic	r3, r3, #8192
 1457 0030 9AB2     		uxth	r2, r3
 1458 0032 7B68     		ldr	r3, [r7, #4]
 1459 0034 1A80     		strh	r2, [r3]	@ movhi
 1460              	.L69:
 1461              		.loc 1 698 1
 1462 0036 00BF     		nop
 1463 0038 0C37     		adds	r7, r7, #12
 1464              	.LCFI109:
 1465              		.cfi_def_cfa_offset 4
 1466 003a BD46     		mov	sp, r7
 1467              	.LCFI110:
 1468              		.cfi_def_cfa_register 13
 1469              		@ sp needed
 1470 003c 80BC     		pop	{r7}
 1471              	.LCFI111:
 1472              		.cfi_restore 7
 1473              		.cfi_def_cfa_offset 0
 1474 003e 7047     		bx	lr
 1475              		.cfi_endproc
 1476              	.LFE45:
 1478              		.section	.text.I2C_TransmitPEC,"ax",%progbits
 1479              		.align	1
 1480              		.global	I2C_TransmitPEC
 1481              		.syntax unified
 1482              		.thumb
 1483              		.thumb_func
 1485              	I2C_TransmitPEC:
 1486              	.LFB46:
 699:common/lib.stm32/STM32F10x_StdPeriph_Driver/src/stm32f10x_i2c.c **** 
 700:common/lib.stm32/STM32F10x_StdPeriph_Driver/src/stm32f10x_i2c.c **** /**
 701:common/lib.stm32/STM32F10x_StdPeriph_Driver/src/stm32f10x_i2c.c ****   * @brief  Enables or disables the specified I2C PEC transfer.
 702:common/lib.stm32/STM32F10x_StdPeriph_Driver/src/stm32f10x_i2c.c ****   * @param  I2Cx: where x can be 1 or 2 to select the I2C peripheral.
 703:common/lib.stm32/STM32F10x_StdPeriph_Driver/src/stm32f10x_i2c.c ****   * @param  NewState: new state of the I2C PEC transmission.
 704:common/lib.stm32/STM32F10x_StdPeriph_Driver/src/stm32f10x_i2c.c ****   *   This parameter can be: ENABLE or DISABLE.
 705:common/lib.stm32/STM32F10x_StdPeriph_Driver/src/stm32f10x_i2c.c ****   * @retval None
 706:common/lib.stm32/STM32F10x_StdPeriph_Driver/src/stm32f10x_i2c.c ****   */
 707:common/lib.stm32/STM32F10x_StdPeriph_Driver/src/stm32f10x_i2c.c **** void I2C_TransmitPEC(I2C_TypeDef* I2Cx, FunctionalState NewState)
 708:common/lib.stm32/STM32F10x_StdPeriph_Driver/src/stm32f10x_i2c.c **** {
 1487              		.loc 1 708 1
 1488              		.cfi_startproc
 1489              		@ args = 0, pretend = 0, frame = 8
 1490              		@ frame_needed = 1, uses_anonymous_args = 0
 1491              		@ link register save eliminated.
 1492 0000 80B4     		push	{r7}
 1493              	.LCFI112:
 1494              		.cfi_def_cfa_offset 4
 1495              		.cfi_offset 7, -4
 1496 0002 83B0     		sub	sp, sp, #12
 1497              	.LCFI113:
 1498              		.cfi_def_cfa_offset 16
 1499 0004 00AF     		add	r7, sp, #0
 1500              	.LCFI114:
 1501              		.cfi_def_cfa_register 7
 1502 0006 7860     		str	r0, [r7, #4]
 1503 0008 0B46     		mov	r3, r1
 1504 000a FB70     		strb	r3, [r7, #3]
 709:common/lib.stm32/STM32F10x_StdPeriph_Driver/src/stm32f10x_i2c.c ****   /* Check the parameters */
 710:common/lib.stm32/STM32F10x_StdPeriph_Driver/src/stm32f10x_i2c.c ****   assert_param(IS_I2C_ALL_PERIPH(I2Cx));
 711:common/lib.stm32/STM32F10x_StdPeriph_Driver/src/stm32f10x_i2c.c ****   assert_param(IS_FUNCTIONAL_STATE(NewState));
 712:common/lib.stm32/STM32F10x_StdPeriph_Driver/src/stm32f10x_i2c.c ****   if (NewState != DISABLE)
 1505              		.loc 1 712 6
 1506 000c FB78     		ldrb	r3, [r7, #3]	@ zero_extendqisi2
 1507 000e 002B     		cmp	r3, #0
 1508 0010 08D0     		beq	.L71
 713:common/lib.stm32/STM32F10x_StdPeriph_Driver/src/stm32f10x_i2c.c ****   {
 714:common/lib.stm32/STM32F10x_StdPeriph_Driver/src/stm32f10x_i2c.c ****     /* Enable the selected I2C PEC transmission */
 715:common/lib.stm32/STM32F10x_StdPeriph_Driver/src/stm32f10x_i2c.c ****     I2Cx->CR1 |= CR1_PEC_Set;
 1509              		.loc 1 715 15
 1510 0012 7B68     		ldr	r3, [r7, #4]
 1511 0014 1B88     		ldrh	r3, [r3]	@ movhi
 1512 0016 9BB2     		uxth	r3, r3
 1513 0018 43F48053 		orr	r3, r3, #4096
 1514 001c 9AB2     		uxth	r2, r3
 1515 001e 7B68     		ldr	r3, [r7, #4]
 1516 0020 1A80     		strh	r2, [r3]	@ movhi
 716:common/lib.stm32/STM32F10x_StdPeriph_Driver/src/stm32f10x_i2c.c ****   }
 717:common/lib.stm32/STM32F10x_StdPeriph_Driver/src/stm32f10x_i2c.c ****   else
 718:common/lib.stm32/STM32F10x_StdPeriph_Driver/src/stm32f10x_i2c.c ****   {
 719:common/lib.stm32/STM32F10x_StdPeriph_Driver/src/stm32f10x_i2c.c ****     /* Disable the selected I2C PEC transmission */
 720:common/lib.stm32/STM32F10x_StdPeriph_Driver/src/stm32f10x_i2c.c ****     I2Cx->CR1 &= CR1_PEC_Reset;
 721:common/lib.stm32/STM32F10x_StdPeriph_Driver/src/stm32f10x_i2c.c ****   }
 722:common/lib.stm32/STM32F10x_StdPeriph_Driver/src/stm32f10x_i2c.c **** }
 1517              		.loc 1 722 1
 1518 0022 07E0     		b	.L73
 1519              	.L71:
 720:common/lib.stm32/STM32F10x_StdPeriph_Driver/src/stm32f10x_i2c.c ****   }
 1520              		.loc 1 720 15
 1521 0024 7B68     		ldr	r3, [r7, #4]
 1522 0026 1B88     		ldrh	r3, [r3]	@ movhi
 1523 0028 9BB2     		uxth	r3, r3
 1524 002a 23F48053 		bic	r3, r3, #4096
 1525 002e 9AB2     		uxth	r2, r3
 1526 0030 7B68     		ldr	r3, [r7, #4]
 1527 0032 1A80     		strh	r2, [r3]	@ movhi
 1528              	.L73:
 1529              		.loc 1 722 1
 1530 0034 00BF     		nop
 1531 0036 0C37     		adds	r7, r7, #12
 1532              	.LCFI115:
 1533              		.cfi_def_cfa_offset 4
 1534 0038 BD46     		mov	sp, r7
 1535              	.LCFI116:
 1536              		.cfi_def_cfa_register 13
 1537              		@ sp needed
 1538 003a 80BC     		pop	{r7}
 1539              	.LCFI117:
 1540              		.cfi_restore 7
 1541              		.cfi_def_cfa_offset 0
 1542 003c 7047     		bx	lr
 1543              		.cfi_endproc
 1544              	.LFE46:
 1546              		.section	.text.I2C_PECPositionConfig,"ax",%progbits
 1547              		.align	1
 1548              		.global	I2C_PECPositionConfig
 1549              		.syntax unified
 1550              		.thumb
 1551              		.thumb_func
 1553              	I2C_PECPositionConfig:
 1554              	.LFB47:
 723:common/lib.stm32/STM32F10x_StdPeriph_Driver/src/stm32f10x_i2c.c **** 
 724:common/lib.stm32/STM32F10x_StdPeriph_Driver/src/stm32f10x_i2c.c **** /**
 725:common/lib.stm32/STM32F10x_StdPeriph_Driver/src/stm32f10x_i2c.c ****   * @brief  Selects the specified I2C PEC position.
 726:common/lib.stm32/STM32F10x_StdPeriph_Driver/src/stm32f10x_i2c.c ****   * @param  I2Cx: where x can be 1 or 2 to select the I2C peripheral.
 727:common/lib.stm32/STM32F10x_StdPeriph_Driver/src/stm32f10x_i2c.c ****   * @param  I2C_PECPosition: specifies the PEC position. 
 728:common/lib.stm32/STM32F10x_StdPeriph_Driver/src/stm32f10x_i2c.c ****   *   This parameter can be one of the following values:
 729:common/lib.stm32/STM32F10x_StdPeriph_Driver/src/stm32f10x_i2c.c ****   *     @arg I2C_PECPosition_Next: indicates that the next byte is PEC
 730:common/lib.stm32/STM32F10x_StdPeriph_Driver/src/stm32f10x_i2c.c ****   *     @arg I2C_PECPosition_Current: indicates that current byte is PEC
 731:common/lib.stm32/STM32F10x_StdPeriph_Driver/src/stm32f10x_i2c.c ****   * @retval None
 732:common/lib.stm32/STM32F10x_StdPeriph_Driver/src/stm32f10x_i2c.c ****   */
 733:common/lib.stm32/STM32F10x_StdPeriph_Driver/src/stm32f10x_i2c.c **** void I2C_PECPositionConfig(I2C_TypeDef* I2Cx, uint16_t I2C_PECPosition)
 734:common/lib.stm32/STM32F10x_StdPeriph_Driver/src/stm32f10x_i2c.c **** {
 1555              		.loc 1 734 1
 1556              		.cfi_startproc
 1557              		@ args = 0, pretend = 0, frame = 8
 1558              		@ frame_needed = 1, uses_anonymous_args = 0
 1559              		@ link register save eliminated.
 1560 0000 80B4     		push	{r7}
 1561              	.LCFI118:
 1562              		.cfi_def_cfa_offset 4
 1563              		.cfi_offset 7, -4
 1564 0002 83B0     		sub	sp, sp, #12
 1565              	.LCFI119:
 1566              		.cfi_def_cfa_offset 16
 1567 0004 00AF     		add	r7, sp, #0
 1568              	.LCFI120:
 1569              		.cfi_def_cfa_register 7
 1570 0006 7860     		str	r0, [r7, #4]
 1571 0008 0B46     		mov	r3, r1
 1572 000a 7B80     		strh	r3, [r7, #2]	@ movhi
 735:common/lib.stm32/STM32F10x_StdPeriph_Driver/src/stm32f10x_i2c.c ****   /* Check the parameters */
 736:common/lib.stm32/STM32F10x_StdPeriph_Driver/src/stm32f10x_i2c.c ****   assert_param(IS_I2C_ALL_PERIPH(I2Cx));
 737:common/lib.stm32/STM32F10x_StdPeriph_Driver/src/stm32f10x_i2c.c ****   assert_param(IS_I2C_PEC_POSITION(I2C_PECPosition));
 738:common/lib.stm32/STM32F10x_StdPeriph_Driver/src/stm32f10x_i2c.c ****   if (I2C_PECPosition == I2C_PECPosition_Next)
 1573              		.loc 1 738 6
 1574 000c 7B88     		ldrh	r3, [r7, #2]
 1575 000e B3F5006F 		cmp	r3, #2048
 1576 0012 08D1     		bne	.L75
 739:common/lib.stm32/STM32F10x_StdPeriph_Driver/src/stm32f10x_i2c.c ****   {
 740:common/lib.stm32/STM32F10x_StdPeriph_Driver/src/stm32f10x_i2c.c ****     /* Next byte in shift register is PEC */
 741:common/lib.stm32/STM32F10x_StdPeriph_Driver/src/stm32f10x_i2c.c ****     I2Cx->CR1 |= I2C_PECPosition_Next;
 1577              		.loc 1 741 15
 1578 0014 7B68     		ldr	r3, [r7, #4]
 1579 0016 1B88     		ldrh	r3, [r3]	@ movhi
 1580 0018 9BB2     		uxth	r3, r3
 1581 001a 43F40063 		orr	r3, r3, #2048
 1582 001e 9AB2     		uxth	r2, r3
 1583 0020 7B68     		ldr	r3, [r7, #4]
 1584 0022 1A80     		strh	r2, [r3]	@ movhi
 742:common/lib.stm32/STM32F10x_StdPeriph_Driver/src/stm32f10x_i2c.c ****   }
 743:common/lib.stm32/STM32F10x_StdPeriph_Driver/src/stm32f10x_i2c.c ****   else
 744:common/lib.stm32/STM32F10x_StdPeriph_Driver/src/stm32f10x_i2c.c ****   {
 745:common/lib.stm32/STM32F10x_StdPeriph_Driver/src/stm32f10x_i2c.c ****     /* Current byte in shift register is PEC */
 746:common/lib.stm32/STM32F10x_StdPeriph_Driver/src/stm32f10x_i2c.c ****     I2Cx->CR1 &= I2C_PECPosition_Current;
 747:common/lib.stm32/STM32F10x_StdPeriph_Driver/src/stm32f10x_i2c.c ****   }
 748:common/lib.stm32/STM32F10x_StdPeriph_Driver/src/stm32f10x_i2c.c **** }
 1585              		.loc 1 748 1
 1586 0024 07E0     		b	.L77
 1587              	.L75:
 746:common/lib.stm32/STM32F10x_StdPeriph_Driver/src/stm32f10x_i2c.c ****   }
 1588              		.loc 1 746 15
 1589 0026 7B68     		ldr	r3, [r7, #4]
 1590 0028 1B88     		ldrh	r3, [r3]	@ movhi
 1591 002a 9BB2     		uxth	r3, r3
 1592 002c 23F40063 		bic	r3, r3, #2048
 1593 0030 9AB2     		uxth	r2, r3
 1594 0032 7B68     		ldr	r3, [r7, #4]
 1595 0034 1A80     		strh	r2, [r3]	@ movhi
 1596              	.L77:
 1597              		.loc 1 748 1
 1598 0036 00BF     		nop
 1599 0038 0C37     		adds	r7, r7, #12
 1600              	.LCFI121:
 1601              		.cfi_def_cfa_offset 4
 1602 003a BD46     		mov	sp, r7
 1603              	.LCFI122:
 1604              		.cfi_def_cfa_register 13
 1605              		@ sp needed
 1606 003c 80BC     		pop	{r7}
 1607              	.LCFI123:
 1608              		.cfi_restore 7
 1609              		.cfi_def_cfa_offset 0
 1610 003e 7047     		bx	lr
 1611              		.cfi_endproc
 1612              	.LFE47:
 1614              		.section	.text.I2C_CalculatePEC,"ax",%progbits
 1615              		.align	1
 1616              		.global	I2C_CalculatePEC
 1617              		.syntax unified
 1618              		.thumb
 1619              		.thumb_func
 1621              	I2C_CalculatePEC:
 1622              	.LFB48:
 749:common/lib.stm32/STM32F10x_StdPeriph_Driver/src/stm32f10x_i2c.c **** 
 750:common/lib.stm32/STM32F10x_StdPeriph_Driver/src/stm32f10x_i2c.c **** /**
 751:common/lib.stm32/STM32F10x_StdPeriph_Driver/src/stm32f10x_i2c.c ****   * @brief  Enables or disables the PEC value calculation of the transfered bytes.
 752:common/lib.stm32/STM32F10x_StdPeriph_Driver/src/stm32f10x_i2c.c ****   * @param  I2Cx: where x can be 1 or 2 to select the I2C peripheral.
 753:common/lib.stm32/STM32F10x_StdPeriph_Driver/src/stm32f10x_i2c.c ****   * @param  NewState: new state of the I2Cx PEC value calculation.
 754:common/lib.stm32/STM32F10x_StdPeriph_Driver/src/stm32f10x_i2c.c ****   *   This parameter can be: ENABLE or DISABLE.
 755:common/lib.stm32/STM32F10x_StdPeriph_Driver/src/stm32f10x_i2c.c ****   * @retval None
 756:common/lib.stm32/STM32F10x_StdPeriph_Driver/src/stm32f10x_i2c.c ****   */
 757:common/lib.stm32/STM32F10x_StdPeriph_Driver/src/stm32f10x_i2c.c **** void I2C_CalculatePEC(I2C_TypeDef* I2Cx, FunctionalState NewState)
 758:common/lib.stm32/STM32F10x_StdPeriph_Driver/src/stm32f10x_i2c.c **** {
 1623              		.loc 1 758 1
 1624              		.cfi_startproc
 1625              		@ args = 0, pretend = 0, frame = 8
 1626              		@ frame_needed = 1, uses_anonymous_args = 0
 1627              		@ link register save eliminated.
 1628 0000 80B4     		push	{r7}
 1629              	.LCFI124:
 1630              		.cfi_def_cfa_offset 4
 1631              		.cfi_offset 7, -4
 1632 0002 83B0     		sub	sp, sp, #12
 1633              	.LCFI125:
 1634              		.cfi_def_cfa_offset 16
 1635 0004 00AF     		add	r7, sp, #0
 1636              	.LCFI126:
 1637              		.cfi_def_cfa_register 7
 1638 0006 7860     		str	r0, [r7, #4]
 1639 0008 0B46     		mov	r3, r1
 1640 000a FB70     		strb	r3, [r7, #3]
 759:common/lib.stm32/STM32F10x_StdPeriph_Driver/src/stm32f10x_i2c.c ****   /* Check the parameters */
 760:common/lib.stm32/STM32F10x_StdPeriph_Driver/src/stm32f10x_i2c.c ****   assert_param(IS_I2C_ALL_PERIPH(I2Cx));
 761:common/lib.stm32/STM32F10x_StdPeriph_Driver/src/stm32f10x_i2c.c ****   assert_param(IS_FUNCTIONAL_STATE(NewState));
 762:common/lib.stm32/STM32F10x_StdPeriph_Driver/src/stm32f10x_i2c.c ****   if (NewState != DISABLE)
 1641              		.loc 1 762 6
 1642 000c FB78     		ldrb	r3, [r7, #3]	@ zero_extendqisi2
 1643 000e 002B     		cmp	r3, #0
 1644 0010 08D0     		beq	.L79
 763:common/lib.stm32/STM32F10x_StdPeriph_Driver/src/stm32f10x_i2c.c ****   {
 764:common/lib.stm32/STM32F10x_StdPeriph_Driver/src/stm32f10x_i2c.c ****     /* Enable the selected I2C PEC calculation */
 765:common/lib.stm32/STM32F10x_StdPeriph_Driver/src/stm32f10x_i2c.c ****     I2Cx->CR1 |= CR1_ENPEC_Set;
 1645              		.loc 1 765 15
 1646 0012 7B68     		ldr	r3, [r7, #4]
 1647 0014 1B88     		ldrh	r3, [r3]	@ movhi
 1648 0016 9BB2     		uxth	r3, r3
 1649 0018 43F02003 		orr	r3, r3, #32
 1650 001c 9AB2     		uxth	r2, r3
 1651 001e 7B68     		ldr	r3, [r7, #4]
 1652 0020 1A80     		strh	r2, [r3]	@ movhi
 766:common/lib.stm32/STM32F10x_StdPeriph_Driver/src/stm32f10x_i2c.c ****   }
 767:common/lib.stm32/STM32F10x_StdPeriph_Driver/src/stm32f10x_i2c.c ****   else
 768:common/lib.stm32/STM32F10x_StdPeriph_Driver/src/stm32f10x_i2c.c ****   {
 769:common/lib.stm32/STM32F10x_StdPeriph_Driver/src/stm32f10x_i2c.c ****     /* Disable the selected I2C PEC calculation */
 770:common/lib.stm32/STM32F10x_StdPeriph_Driver/src/stm32f10x_i2c.c ****     I2Cx->CR1 &= CR1_ENPEC_Reset;
 771:common/lib.stm32/STM32F10x_StdPeriph_Driver/src/stm32f10x_i2c.c ****   }
 772:common/lib.stm32/STM32F10x_StdPeriph_Driver/src/stm32f10x_i2c.c **** }
 1653              		.loc 1 772 1
 1654 0022 07E0     		b	.L81
 1655              	.L79:
 770:common/lib.stm32/STM32F10x_StdPeriph_Driver/src/stm32f10x_i2c.c ****   }
 1656              		.loc 1 770 15
 1657 0024 7B68     		ldr	r3, [r7, #4]
 1658 0026 1B88     		ldrh	r3, [r3]	@ movhi
 1659 0028 9BB2     		uxth	r3, r3
 1660 002a 23F02003 		bic	r3, r3, #32
 1661 002e 9AB2     		uxth	r2, r3
 1662 0030 7B68     		ldr	r3, [r7, #4]
 1663 0032 1A80     		strh	r2, [r3]	@ movhi
 1664              	.L81:
 1665              		.loc 1 772 1
 1666 0034 00BF     		nop
 1667 0036 0C37     		adds	r7, r7, #12
 1668              	.LCFI127:
 1669              		.cfi_def_cfa_offset 4
 1670 0038 BD46     		mov	sp, r7
 1671              	.LCFI128:
 1672              		.cfi_def_cfa_register 13
 1673              		@ sp needed
 1674 003a 80BC     		pop	{r7}
 1675              	.LCFI129:
 1676              		.cfi_restore 7
 1677              		.cfi_def_cfa_offset 0
 1678 003c 7047     		bx	lr
 1679              		.cfi_endproc
 1680              	.LFE48:
 1682              		.section	.text.I2C_GetPEC,"ax",%progbits
 1683              		.align	1
 1684              		.global	I2C_GetPEC
 1685              		.syntax unified
 1686              		.thumb
 1687              		.thumb_func
 1689              	I2C_GetPEC:
 1690              	.LFB49:
 773:common/lib.stm32/STM32F10x_StdPeriph_Driver/src/stm32f10x_i2c.c **** 
 774:common/lib.stm32/STM32F10x_StdPeriph_Driver/src/stm32f10x_i2c.c **** /**
 775:common/lib.stm32/STM32F10x_StdPeriph_Driver/src/stm32f10x_i2c.c ****   * @brief  Returns the PEC value for the specified I2C.
 776:common/lib.stm32/STM32F10x_StdPeriph_Driver/src/stm32f10x_i2c.c ****   * @param  I2Cx: where x can be 1 or 2 to select the I2C peripheral.
 777:common/lib.stm32/STM32F10x_StdPeriph_Driver/src/stm32f10x_i2c.c ****   * @retval The PEC value.
 778:common/lib.stm32/STM32F10x_StdPeriph_Driver/src/stm32f10x_i2c.c ****   */
 779:common/lib.stm32/STM32F10x_StdPeriph_Driver/src/stm32f10x_i2c.c **** uint8_t I2C_GetPEC(I2C_TypeDef* I2Cx)
 780:common/lib.stm32/STM32F10x_StdPeriph_Driver/src/stm32f10x_i2c.c **** {
 1691              		.loc 1 780 1
 1692              		.cfi_startproc
 1693              		@ args = 0, pretend = 0, frame = 8
 1694              		@ frame_needed = 1, uses_anonymous_args = 0
 1695              		@ link register save eliminated.
 1696 0000 80B4     		push	{r7}
 1697              	.LCFI130:
 1698              		.cfi_def_cfa_offset 4
 1699              		.cfi_offset 7, -4
 1700 0002 83B0     		sub	sp, sp, #12
 1701              	.LCFI131:
 1702              		.cfi_def_cfa_offset 16
 1703 0004 00AF     		add	r7, sp, #0
 1704              	.LCFI132:
 1705              		.cfi_def_cfa_register 7
 1706 0006 7860     		str	r0, [r7, #4]
 781:common/lib.stm32/STM32F10x_StdPeriph_Driver/src/stm32f10x_i2c.c ****   /* Check the parameters */
 782:common/lib.stm32/STM32F10x_StdPeriph_Driver/src/stm32f10x_i2c.c ****   assert_param(IS_I2C_ALL_PERIPH(I2Cx));
 783:common/lib.stm32/STM32F10x_StdPeriph_Driver/src/stm32f10x_i2c.c ****   /* Return the selected I2C PEC value */
 784:common/lib.stm32/STM32F10x_StdPeriph_Driver/src/stm32f10x_i2c.c ****   return ((I2Cx->SR2) >> 8);
 1707              		.loc 1 784 16
 1708 0008 7B68     		ldr	r3, [r7, #4]
 1709 000a 1B8B     		ldrh	r3, [r3, #24]	@ movhi
 1710 000c 9BB2     		uxth	r3, r3
 1711              		.loc 1 784 23
 1712 000e 1B0A     		lsrs	r3, r3, #8
 1713 0010 9BB2     		uxth	r3, r3
 1714 0012 DBB2     		uxtb	r3, r3
 785:common/lib.stm32/STM32F10x_StdPeriph_Driver/src/stm32f10x_i2c.c **** }
 1715              		.loc 1 785 1
 1716 0014 1846     		mov	r0, r3
 1717 0016 0C37     		adds	r7, r7, #12
 1718              	.LCFI133:
 1719              		.cfi_def_cfa_offset 4
 1720 0018 BD46     		mov	sp, r7
 1721              	.LCFI134:
 1722              		.cfi_def_cfa_register 13
 1723              		@ sp needed
 1724 001a 80BC     		pop	{r7}
 1725              	.LCFI135:
 1726              		.cfi_restore 7
 1727              		.cfi_def_cfa_offset 0
 1728 001c 7047     		bx	lr
 1729              		.cfi_endproc
 1730              	.LFE49:
 1732              		.section	.text.I2C_ARPCmd,"ax",%progbits
 1733              		.align	1
 1734              		.global	I2C_ARPCmd
 1735              		.syntax unified
 1736              		.thumb
 1737              		.thumb_func
 1739              	I2C_ARPCmd:
 1740              	.LFB50:
 786:common/lib.stm32/STM32F10x_StdPeriph_Driver/src/stm32f10x_i2c.c **** 
 787:common/lib.stm32/STM32F10x_StdPeriph_Driver/src/stm32f10x_i2c.c **** /**
 788:common/lib.stm32/STM32F10x_StdPeriph_Driver/src/stm32f10x_i2c.c ****   * @brief  Enables or disables the specified I2C ARP.
 789:common/lib.stm32/STM32F10x_StdPeriph_Driver/src/stm32f10x_i2c.c ****   * @param  I2Cx: where x can be 1 or 2 to select the I2C peripheral.
 790:common/lib.stm32/STM32F10x_StdPeriph_Driver/src/stm32f10x_i2c.c ****   * @param  NewState: new state of the I2Cx ARP. 
 791:common/lib.stm32/STM32F10x_StdPeriph_Driver/src/stm32f10x_i2c.c ****   *   This parameter can be: ENABLE or DISABLE.
 792:common/lib.stm32/STM32F10x_StdPeriph_Driver/src/stm32f10x_i2c.c ****   * @retval None
 793:common/lib.stm32/STM32F10x_StdPeriph_Driver/src/stm32f10x_i2c.c ****   */
 794:common/lib.stm32/STM32F10x_StdPeriph_Driver/src/stm32f10x_i2c.c **** void I2C_ARPCmd(I2C_TypeDef* I2Cx, FunctionalState NewState)
 795:common/lib.stm32/STM32F10x_StdPeriph_Driver/src/stm32f10x_i2c.c **** {
 1741              		.loc 1 795 1
 1742              		.cfi_startproc
 1743              		@ args = 0, pretend = 0, frame = 8
 1744              		@ frame_needed = 1, uses_anonymous_args = 0
 1745              		@ link register save eliminated.
 1746 0000 80B4     		push	{r7}
 1747              	.LCFI136:
 1748              		.cfi_def_cfa_offset 4
 1749              		.cfi_offset 7, -4
 1750 0002 83B0     		sub	sp, sp, #12
 1751              	.LCFI137:
 1752              		.cfi_def_cfa_offset 16
 1753 0004 00AF     		add	r7, sp, #0
 1754              	.LCFI138:
 1755              		.cfi_def_cfa_register 7
 1756 0006 7860     		str	r0, [r7, #4]
 1757 0008 0B46     		mov	r3, r1
 1758 000a FB70     		strb	r3, [r7, #3]
 796:common/lib.stm32/STM32F10x_StdPeriph_Driver/src/stm32f10x_i2c.c ****   /* Check the parameters */
 797:common/lib.stm32/STM32F10x_StdPeriph_Driver/src/stm32f10x_i2c.c ****   assert_param(IS_I2C_ALL_PERIPH(I2Cx));
 798:common/lib.stm32/STM32F10x_StdPeriph_Driver/src/stm32f10x_i2c.c ****   assert_param(IS_FUNCTIONAL_STATE(NewState));
 799:common/lib.stm32/STM32F10x_StdPeriph_Driver/src/stm32f10x_i2c.c ****   if (NewState != DISABLE)
 1759              		.loc 1 799 6
 1760 000c FB78     		ldrb	r3, [r7, #3]	@ zero_extendqisi2
 1761 000e 002B     		cmp	r3, #0
 1762 0010 08D0     		beq	.L85
 800:common/lib.stm32/STM32F10x_StdPeriph_Driver/src/stm32f10x_i2c.c ****   {
 801:common/lib.stm32/STM32F10x_StdPeriph_Driver/src/stm32f10x_i2c.c ****     /* Enable the selected I2C ARP */
 802:common/lib.stm32/STM32F10x_StdPeriph_Driver/src/stm32f10x_i2c.c ****     I2Cx->CR1 |= CR1_ENARP_Set;
 1763              		.loc 1 802 15
 1764 0012 7B68     		ldr	r3, [r7, #4]
 1765 0014 1B88     		ldrh	r3, [r3]	@ movhi
 1766 0016 9BB2     		uxth	r3, r3
 1767 0018 43F01003 		orr	r3, r3, #16
 1768 001c 9AB2     		uxth	r2, r3
 1769 001e 7B68     		ldr	r3, [r7, #4]
 1770 0020 1A80     		strh	r2, [r3]	@ movhi
 803:common/lib.stm32/STM32F10x_StdPeriph_Driver/src/stm32f10x_i2c.c ****   }
 804:common/lib.stm32/STM32F10x_StdPeriph_Driver/src/stm32f10x_i2c.c ****   else
 805:common/lib.stm32/STM32F10x_StdPeriph_Driver/src/stm32f10x_i2c.c ****   {
 806:common/lib.stm32/STM32F10x_StdPeriph_Driver/src/stm32f10x_i2c.c ****     /* Disable the selected I2C ARP */
 807:common/lib.stm32/STM32F10x_StdPeriph_Driver/src/stm32f10x_i2c.c ****     I2Cx->CR1 &= CR1_ENARP_Reset;
 808:common/lib.stm32/STM32F10x_StdPeriph_Driver/src/stm32f10x_i2c.c ****   }
 809:common/lib.stm32/STM32F10x_StdPeriph_Driver/src/stm32f10x_i2c.c **** }
 1771              		.loc 1 809 1
 1772 0022 07E0     		b	.L87
 1773              	.L85:
 807:common/lib.stm32/STM32F10x_StdPeriph_Driver/src/stm32f10x_i2c.c ****   }
 1774              		.loc 1 807 15
 1775 0024 7B68     		ldr	r3, [r7, #4]
 1776 0026 1B88     		ldrh	r3, [r3]	@ movhi
 1777 0028 9BB2     		uxth	r3, r3
 1778 002a 23F01003 		bic	r3, r3, #16
 1779 002e 9AB2     		uxth	r2, r3
 1780 0030 7B68     		ldr	r3, [r7, #4]
 1781 0032 1A80     		strh	r2, [r3]	@ movhi
 1782              	.L87:
 1783              		.loc 1 809 1
 1784 0034 00BF     		nop
 1785 0036 0C37     		adds	r7, r7, #12
 1786              	.LCFI139:
 1787              		.cfi_def_cfa_offset 4
 1788 0038 BD46     		mov	sp, r7
 1789              	.LCFI140:
 1790              		.cfi_def_cfa_register 13
 1791              		@ sp needed
 1792 003a 80BC     		pop	{r7}
 1793              	.LCFI141:
 1794              		.cfi_restore 7
 1795              		.cfi_def_cfa_offset 0
 1796 003c 7047     		bx	lr
 1797              		.cfi_endproc
 1798              	.LFE50:
 1800              		.section	.text.I2C_StretchClockCmd,"ax",%progbits
 1801              		.align	1
 1802              		.global	I2C_StretchClockCmd
 1803              		.syntax unified
 1804              		.thumb
 1805              		.thumb_func
 1807              	I2C_StretchClockCmd:
 1808              	.LFB51:
 810:common/lib.stm32/STM32F10x_StdPeriph_Driver/src/stm32f10x_i2c.c **** 
 811:common/lib.stm32/STM32F10x_StdPeriph_Driver/src/stm32f10x_i2c.c **** /**
 812:common/lib.stm32/STM32F10x_StdPeriph_Driver/src/stm32f10x_i2c.c ****   * @brief  Enables or disables the specified I2C Clock stretching.
 813:common/lib.stm32/STM32F10x_StdPeriph_Driver/src/stm32f10x_i2c.c ****   * @param  I2Cx: where x can be 1 or 2 to select the I2C peripheral.
 814:common/lib.stm32/STM32F10x_StdPeriph_Driver/src/stm32f10x_i2c.c ****   * @param  NewState: new state of the I2Cx Clock stretching.
 815:common/lib.stm32/STM32F10x_StdPeriph_Driver/src/stm32f10x_i2c.c ****   *   This parameter can be: ENABLE or DISABLE.
 816:common/lib.stm32/STM32F10x_StdPeriph_Driver/src/stm32f10x_i2c.c ****   * @retval None
 817:common/lib.stm32/STM32F10x_StdPeriph_Driver/src/stm32f10x_i2c.c ****   */
 818:common/lib.stm32/STM32F10x_StdPeriph_Driver/src/stm32f10x_i2c.c **** void I2C_StretchClockCmd(I2C_TypeDef* I2Cx, FunctionalState NewState)
 819:common/lib.stm32/STM32F10x_StdPeriph_Driver/src/stm32f10x_i2c.c **** {
 1809              		.loc 1 819 1
 1810              		.cfi_startproc
 1811              		@ args = 0, pretend = 0, frame = 8
 1812              		@ frame_needed = 1, uses_anonymous_args = 0
 1813              		@ link register save eliminated.
 1814 0000 80B4     		push	{r7}
 1815              	.LCFI142:
 1816              		.cfi_def_cfa_offset 4
 1817              		.cfi_offset 7, -4
 1818 0002 83B0     		sub	sp, sp, #12
 1819              	.LCFI143:
 1820              		.cfi_def_cfa_offset 16
 1821 0004 00AF     		add	r7, sp, #0
 1822              	.LCFI144:
 1823              		.cfi_def_cfa_register 7
 1824 0006 7860     		str	r0, [r7, #4]
 1825 0008 0B46     		mov	r3, r1
 1826 000a FB70     		strb	r3, [r7, #3]
 820:common/lib.stm32/STM32F10x_StdPeriph_Driver/src/stm32f10x_i2c.c ****   /* Check the parameters */
 821:common/lib.stm32/STM32F10x_StdPeriph_Driver/src/stm32f10x_i2c.c ****   assert_param(IS_I2C_ALL_PERIPH(I2Cx));
 822:common/lib.stm32/STM32F10x_StdPeriph_Driver/src/stm32f10x_i2c.c ****   assert_param(IS_FUNCTIONAL_STATE(NewState));
 823:common/lib.stm32/STM32F10x_StdPeriph_Driver/src/stm32f10x_i2c.c ****   if (NewState == DISABLE)
 1827              		.loc 1 823 6
 1828 000c FB78     		ldrb	r3, [r7, #3]	@ zero_extendqisi2
 1829 000e 002B     		cmp	r3, #0
 1830 0010 08D1     		bne	.L89
 824:common/lib.stm32/STM32F10x_StdPeriph_Driver/src/stm32f10x_i2c.c ****   {
 825:common/lib.stm32/STM32F10x_StdPeriph_Driver/src/stm32f10x_i2c.c ****     /* Enable the selected I2C Clock stretching */
 826:common/lib.stm32/STM32F10x_StdPeriph_Driver/src/stm32f10x_i2c.c ****     I2Cx->CR1 |= CR1_NOSTRETCH_Set;
 1831              		.loc 1 826 15
 1832 0012 7B68     		ldr	r3, [r7, #4]
 1833 0014 1B88     		ldrh	r3, [r3]	@ movhi
 1834 0016 9BB2     		uxth	r3, r3
 1835 0018 43F08003 		orr	r3, r3, #128
 1836 001c 9AB2     		uxth	r2, r3
 1837 001e 7B68     		ldr	r3, [r7, #4]
 1838 0020 1A80     		strh	r2, [r3]	@ movhi
 827:common/lib.stm32/STM32F10x_StdPeriph_Driver/src/stm32f10x_i2c.c ****   }
 828:common/lib.stm32/STM32F10x_StdPeriph_Driver/src/stm32f10x_i2c.c ****   else
 829:common/lib.stm32/STM32F10x_StdPeriph_Driver/src/stm32f10x_i2c.c ****   {
 830:common/lib.stm32/STM32F10x_StdPeriph_Driver/src/stm32f10x_i2c.c ****     /* Disable the selected I2C Clock stretching */
 831:common/lib.stm32/STM32F10x_StdPeriph_Driver/src/stm32f10x_i2c.c ****     I2Cx->CR1 &= CR1_NOSTRETCH_Reset;
 832:common/lib.stm32/STM32F10x_StdPeriph_Driver/src/stm32f10x_i2c.c ****   }
 833:common/lib.stm32/STM32F10x_StdPeriph_Driver/src/stm32f10x_i2c.c **** }
 1839              		.loc 1 833 1
 1840 0022 07E0     		b	.L91
 1841              	.L89:
 831:common/lib.stm32/STM32F10x_StdPeriph_Driver/src/stm32f10x_i2c.c ****   }
 1842              		.loc 1 831 15
 1843 0024 7B68     		ldr	r3, [r7, #4]
 1844 0026 1B88     		ldrh	r3, [r3]	@ movhi
 1845 0028 9BB2     		uxth	r3, r3
 1846 002a 23F08003 		bic	r3, r3, #128
 1847 002e 9AB2     		uxth	r2, r3
 1848 0030 7B68     		ldr	r3, [r7, #4]
 1849 0032 1A80     		strh	r2, [r3]	@ movhi
 1850              	.L91:
 1851              		.loc 1 833 1
 1852 0034 00BF     		nop
 1853 0036 0C37     		adds	r7, r7, #12
 1854              	.LCFI145:
 1855              		.cfi_def_cfa_offset 4
 1856 0038 BD46     		mov	sp, r7
 1857              	.LCFI146:
 1858              		.cfi_def_cfa_register 13
 1859              		@ sp needed
 1860 003a 80BC     		pop	{r7}
 1861              	.LCFI147:
 1862              		.cfi_restore 7
 1863              		.cfi_def_cfa_offset 0
 1864 003c 7047     		bx	lr
 1865              		.cfi_endproc
 1866              	.LFE51:
 1868              		.section	.text.I2C_FastModeDutyCycleConfig,"ax",%progbits
 1869              		.align	1
 1870              		.global	I2C_FastModeDutyCycleConfig
 1871              		.syntax unified
 1872              		.thumb
 1873              		.thumb_func
 1875              	I2C_FastModeDutyCycleConfig:
 1876              	.LFB52:
 834:common/lib.stm32/STM32F10x_StdPeriph_Driver/src/stm32f10x_i2c.c **** 
 835:common/lib.stm32/STM32F10x_StdPeriph_Driver/src/stm32f10x_i2c.c **** /**
 836:common/lib.stm32/STM32F10x_StdPeriph_Driver/src/stm32f10x_i2c.c ****   * @brief  Selects the specified I2C fast mode duty cycle.
 837:common/lib.stm32/STM32F10x_StdPeriph_Driver/src/stm32f10x_i2c.c ****   * @param  I2Cx: where x can be 1 or 2 to select the I2C peripheral.
 838:common/lib.stm32/STM32F10x_StdPeriph_Driver/src/stm32f10x_i2c.c ****   * @param  I2C_DutyCycle: specifies the fast mode duty cycle.
 839:common/lib.stm32/STM32F10x_StdPeriph_Driver/src/stm32f10x_i2c.c ****   *   This parameter can be one of the following values:
 840:common/lib.stm32/STM32F10x_StdPeriph_Driver/src/stm32f10x_i2c.c ****   *     @arg I2C_DutyCycle_2: I2C fast mode Tlow/Thigh = 2
 841:common/lib.stm32/STM32F10x_StdPeriph_Driver/src/stm32f10x_i2c.c ****   *     @arg I2C_DutyCycle_16_9: I2C fast mode Tlow/Thigh = 16/9
 842:common/lib.stm32/STM32F10x_StdPeriph_Driver/src/stm32f10x_i2c.c ****   * @retval None
 843:common/lib.stm32/STM32F10x_StdPeriph_Driver/src/stm32f10x_i2c.c ****   */
 844:common/lib.stm32/STM32F10x_StdPeriph_Driver/src/stm32f10x_i2c.c **** void I2C_FastModeDutyCycleConfig(I2C_TypeDef* I2Cx, uint16_t I2C_DutyCycle)
 845:common/lib.stm32/STM32F10x_StdPeriph_Driver/src/stm32f10x_i2c.c **** {
 1877              		.loc 1 845 1
 1878              		.cfi_startproc
 1879              		@ args = 0, pretend = 0, frame = 8
 1880              		@ frame_needed = 1, uses_anonymous_args = 0
 1881              		@ link register save eliminated.
 1882 0000 80B4     		push	{r7}
 1883              	.LCFI148:
 1884              		.cfi_def_cfa_offset 4
 1885              		.cfi_offset 7, -4
 1886 0002 83B0     		sub	sp, sp, #12
 1887              	.LCFI149:
 1888              		.cfi_def_cfa_offset 16
 1889 0004 00AF     		add	r7, sp, #0
 1890              	.LCFI150:
 1891              		.cfi_def_cfa_register 7
 1892 0006 7860     		str	r0, [r7, #4]
 1893 0008 0B46     		mov	r3, r1
 1894 000a 7B80     		strh	r3, [r7, #2]	@ movhi
 846:common/lib.stm32/STM32F10x_StdPeriph_Driver/src/stm32f10x_i2c.c ****   /* Check the parameters */
 847:common/lib.stm32/STM32F10x_StdPeriph_Driver/src/stm32f10x_i2c.c ****   assert_param(IS_I2C_ALL_PERIPH(I2Cx));
 848:common/lib.stm32/STM32F10x_StdPeriph_Driver/src/stm32f10x_i2c.c ****   assert_param(IS_I2C_DUTY_CYCLE(I2C_DutyCycle));
 849:common/lib.stm32/STM32F10x_StdPeriph_Driver/src/stm32f10x_i2c.c ****   if (I2C_DutyCycle != I2C_DutyCycle_16_9)
 1895              		.loc 1 849 6
 1896 000c 7B88     		ldrh	r3, [r7, #2]
 1897 000e B3F5804F 		cmp	r3, #16384
 1898 0012 08D0     		beq	.L93
 850:common/lib.stm32/STM32F10x_StdPeriph_Driver/src/stm32f10x_i2c.c ****   {
 851:common/lib.stm32/STM32F10x_StdPeriph_Driver/src/stm32f10x_i2c.c ****     /* I2C fast mode Tlow/Thigh=2 */
 852:common/lib.stm32/STM32F10x_StdPeriph_Driver/src/stm32f10x_i2c.c ****     I2Cx->CCR &= I2C_DutyCycle_2;
 1899              		.loc 1 852 15
 1900 0014 7B68     		ldr	r3, [r7, #4]
 1901 0016 9B8B     		ldrh	r3, [r3, #28]	@ movhi
 1902 0018 9BB2     		uxth	r3, r3
 1903 001a 23F48043 		bic	r3, r3, #16384
 1904 001e 9AB2     		uxth	r2, r3
 1905 0020 7B68     		ldr	r3, [r7, #4]
 1906 0022 9A83     		strh	r2, [r3, #28]	@ movhi
 853:common/lib.stm32/STM32F10x_StdPeriph_Driver/src/stm32f10x_i2c.c ****   }
 854:common/lib.stm32/STM32F10x_StdPeriph_Driver/src/stm32f10x_i2c.c ****   else
 855:common/lib.stm32/STM32F10x_StdPeriph_Driver/src/stm32f10x_i2c.c ****   {
 856:common/lib.stm32/STM32F10x_StdPeriph_Driver/src/stm32f10x_i2c.c ****     /* I2C fast mode Tlow/Thigh=16/9 */
 857:common/lib.stm32/STM32F10x_StdPeriph_Driver/src/stm32f10x_i2c.c ****     I2Cx->CCR |= I2C_DutyCycle_16_9;
 858:common/lib.stm32/STM32F10x_StdPeriph_Driver/src/stm32f10x_i2c.c ****   }
 859:common/lib.stm32/STM32F10x_StdPeriph_Driver/src/stm32f10x_i2c.c **** }
 1907              		.loc 1 859 1
 1908 0024 07E0     		b	.L95
 1909              	.L93:
 857:common/lib.stm32/STM32F10x_StdPeriph_Driver/src/stm32f10x_i2c.c ****   }
 1910              		.loc 1 857 15
 1911 0026 7B68     		ldr	r3, [r7, #4]
 1912 0028 9B8B     		ldrh	r3, [r3, #28]	@ movhi
 1913 002a 9BB2     		uxth	r3, r3
 1914 002c 43F48043 		orr	r3, r3, #16384
 1915 0030 9AB2     		uxth	r2, r3
 1916 0032 7B68     		ldr	r3, [r7, #4]
 1917 0034 9A83     		strh	r2, [r3, #28]	@ movhi
 1918              	.L95:
 1919              		.loc 1 859 1
 1920 0036 00BF     		nop
 1921 0038 0C37     		adds	r7, r7, #12
 1922              	.LCFI151:
 1923              		.cfi_def_cfa_offset 4
 1924 003a BD46     		mov	sp, r7
 1925              	.LCFI152:
 1926              		.cfi_def_cfa_register 13
 1927              		@ sp needed
 1928 003c 80BC     		pop	{r7}
 1929              	.LCFI153:
 1930              		.cfi_restore 7
 1931              		.cfi_def_cfa_offset 0
 1932 003e 7047     		bx	lr
 1933              		.cfi_endproc
 1934              	.LFE52:
 1936              		.section	.text.I2C_GetLastEvent,"ax",%progbits
 1937              		.align	1
 1938              		.global	I2C_GetLastEvent
 1939              		.syntax unified
 1940              		.thumb
 1941              		.thumb_func
 1943              	I2C_GetLastEvent:
 1944              	.LFB53:
 860:common/lib.stm32/STM32F10x_StdPeriph_Driver/src/stm32f10x_i2c.c **** 
 861:common/lib.stm32/STM32F10x_StdPeriph_Driver/src/stm32f10x_i2c.c **** /**
 862:common/lib.stm32/STM32F10x_StdPeriph_Driver/src/stm32f10x_i2c.c ****   * @brief  Returns the last I2Cx Event.
 863:common/lib.stm32/STM32F10x_StdPeriph_Driver/src/stm32f10x_i2c.c ****   * @param  I2Cx: where x can be 1 or 2 to select the I2C peripheral.
 864:common/lib.stm32/STM32F10x_StdPeriph_Driver/src/stm32f10x_i2c.c ****   * @retval The last event
 865:common/lib.stm32/STM32F10x_StdPeriph_Driver/src/stm32f10x_i2c.c ****   */
 866:common/lib.stm32/STM32F10x_StdPeriph_Driver/src/stm32f10x_i2c.c **** uint32_t I2C_GetLastEvent(I2C_TypeDef* I2Cx)
 867:common/lib.stm32/STM32F10x_StdPeriph_Driver/src/stm32f10x_i2c.c **** {
 1945              		.loc 1 867 1
 1946              		.cfi_startproc
 1947              		@ args = 0, pretend = 0, frame = 24
 1948              		@ frame_needed = 1, uses_anonymous_args = 0
 1949              		@ link register save eliminated.
 1950 0000 80B4     		push	{r7}
 1951              	.LCFI154:
 1952              		.cfi_def_cfa_offset 4
 1953              		.cfi_offset 7, -4
 1954 0002 87B0     		sub	sp, sp, #28
 1955              	.LCFI155:
 1956              		.cfi_def_cfa_offset 32
 1957 0004 00AF     		add	r7, sp, #0
 1958              	.LCFI156:
 1959              		.cfi_def_cfa_register 7
 1960 0006 7860     		str	r0, [r7, #4]
 868:common/lib.stm32/STM32F10x_StdPeriph_Driver/src/stm32f10x_i2c.c ****   uint32_t lastevent = 0;
 1961              		.loc 1 868 12
 1962 0008 0023     		movs	r3, #0
 1963 000a 7B61     		str	r3, [r7, #20]
 869:common/lib.stm32/STM32F10x_StdPeriph_Driver/src/stm32f10x_i2c.c ****   uint32_t flag1 = 0, flag2 = 0;
 1964              		.loc 1 869 12
 1965 000c 0023     		movs	r3, #0
 1966 000e 3B61     		str	r3, [r7, #16]
 1967              		.loc 1 869 23
 1968 0010 0023     		movs	r3, #0
 1969 0012 FB60     		str	r3, [r7, #12]
 870:common/lib.stm32/STM32F10x_StdPeriph_Driver/src/stm32f10x_i2c.c ****   /* Check the parameters */
 871:common/lib.stm32/STM32F10x_StdPeriph_Driver/src/stm32f10x_i2c.c ****   assert_param(IS_I2C_ALL_PERIPH(I2Cx));
 872:common/lib.stm32/STM32F10x_StdPeriph_Driver/src/stm32f10x_i2c.c ****   /* Read the I2Cx status register */
 873:common/lib.stm32/STM32F10x_StdPeriph_Driver/src/stm32f10x_i2c.c ****   flag1 = I2Cx->SR1;
 1970              		.loc 1 873 15
 1971 0014 7B68     		ldr	r3, [r7, #4]
 1972 0016 9B8A     		ldrh	r3, [r3, #20]	@ movhi
 1973 0018 9BB2     		uxth	r3, r3
 1974              		.loc 1 873 9
 1975 001a 3B61     		str	r3, [r7, #16]
 874:common/lib.stm32/STM32F10x_StdPeriph_Driver/src/stm32f10x_i2c.c ****   flag2 = I2Cx->SR2;
 1976              		.loc 1 874 15
 1977 001c 7B68     		ldr	r3, [r7, #4]
 1978 001e 1B8B     		ldrh	r3, [r3, #24]	@ movhi
 1979 0020 9BB2     		uxth	r3, r3
 1980              		.loc 1 874 9
 1981 0022 FB60     		str	r3, [r7, #12]
 875:common/lib.stm32/STM32F10x_StdPeriph_Driver/src/stm32f10x_i2c.c ****   flag2 = flag2 << 16;
 1982              		.loc 1 875 9
 1983 0024 FB68     		ldr	r3, [r7, #12]
 1984 0026 1B04     		lsls	r3, r3, #16
 1985 0028 FB60     		str	r3, [r7, #12]
 876:common/lib.stm32/STM32F10x_StdPeriph_Driver/src/stm32f10x_i2c.c ****   /* Get the last event value from I2C status register */
 877:common/lib.stm32/STM32F10x_StdPeriph_Driver/src/stm32f10x_i2c.c ****   lastevent = (flag1 | flag2) & FLAG_Mask;
 1986              		.loc 1 877 22
 1987 002a 3A69     		ldr	r2, [r7, #16]
 1988 002c FB68     		ldr	r3, [r7, #12]
 1989 002e 1343     		orrs	r3, r3, r2
 1990              		.loc 1 877 13
 1991 0030 23F07F43 		bic	r3, r3, #-16777216
 1992 0034 7B61     		str	r3, [r7, #20]
 878:common/lib.stm32/STM32F10x_StdPeriph_Driver/src/stm32f10x_i2c.c ****   /* Return status */
 879:common/lib.stm32/STM32F10x_StdPeriph_Driver/src/stm32f10x_i2c.c ****   return lastevent;
 1993              		.loc 1 879 10
 1994 0036 7B69     		ldr	r3, [r7, #20]
 880:common/lib.stm32/STM32F10x_StdPeriph_Driver/src/stm32f10x_i2c.c **** }
 1995              		.loc 1 880 1
 1996 0038 1846     		mov	r0, r3
 1997 003a 1C37     		adds	r7, r7, #28
 1998              	.LCFI157:
 1999              		.cfi_def_cfa_offset 4
 2000 003c BD46     		mov	sp, r7
 2001              	.LCFI158:
 2002              		.cfi_def_cfa_register 13
 2003              		@ sp needed
 2004 003e 80BC     		pop	{r7}
 2005              	.LCFI159:
 2006              		.cfi_restore 7
 2007              		.cfi_def_cfa_offset 0
 2008 0040 7047     		bx	lr
 2009              		.cfi_endproc
 2010              	.LFE53:
 2012              		.section	.text.I2C_CheckEvent,"ax",%progbits
 2013              		.align	1
 2014              		.global	I2C_CheckEvent
 2015              		.syntax unified
 2016              		.thumb
 2017              		.thumb_func
 2019              	I2C_CheckEvent:
 2020              	.LFB54:
 881:common/lib.stm32/STM32F10x_StdPeriph_Driver/src/stm32f10x_i2c.c **** 
 882:common/lib.stm32/STM32F10x_StdPeriph_Driver/src/stm32f10x_i2c.c **** /**
 883:common/lib.stm32/STM32F10x_StdPeriph_Driver/src/stm32f10x_i2c.c ****   * @brief  Checks whether the last I2Cx Event is equal to the one passed
 884:common/lib.stm32/STM32F10x_StdPeriph_Driver/src/stm32f10x_i2c.c ****   *   as parameter.
 885:common/lib.stm32/STM32F10x_StdPeriph_Driver/src/stm32f10x_i2c.c ****   * @param  I2Cx: where x can be 1 or 2 to select the I2C peripheral.
 886:common/lib.stm32/STM32F10x_StdPeriph_Driver/src/stm32f10x_i2c.c ****   * @param  I2C_EVENT: specifies the event to be checked. 
 887:common/lib.stm32/STM32F10x_StdPeriph_Driver/src/stm32f10x_i2c.c ****   *   This parameter can be one of the following values:
 888:common/lib.stm32/STM32F10x_StdPeriph_Driver/src/stm32f10x_i2c.c ****   *     @arg I2C_EVENT_SLAVE_ADDRESS_MATCHED   : EV1
 889:common/lib.stm32/STM32F10x_StdPeriph_Driver/src/stm32f10x_i2c.c ****   *     @arg I2C_EVENT_SLAVE_BYTE_RECEIVED     : EV2
 890:common/lib.stm32/STM32F10x_StdPeriph_Driver/src/stm32f10x_i2c.c ****   *     @arg I2C_EVENT_SLAVE_BYTE_TRANSMITTED  : EV3
 891:common/lib.stm32/STM32F10x_StdPeriph_Driver/src/stm32f10x_i2c.c ****   *     @arg I2C_EVENT_SLAVE_ACK_FAILURE       : EV3-2
 892:common/lib.stm32/STM32F10x_StdPeriph_Driver/src/stm32f10x_i2c.c ****   *     @arg I2C_EVENT_MASTER_MODE_SELECT      : EV5
 893:common/lib.stm32/STM32F10x_StdPeriph_Driver/src/stm32f10x_i2c.c ****   *     @arg I2C_EVENT_MASTER_MODE_SELECTED    : EV6
 894:common/lib.stm32/STM32F10x_StdPeriph_Driver/src/stm32f10x_i2c.c ****   *     @arg I2C_EVENT_MASTER_BYTE_RECEIVED    : EV7
 895:common/lib.stm32/STM32F10x_StdPeriph_Driver/src/stm32f10x_i2c.c ****   *     @arg I2C_EVENT_MASTER_BYTE_TRANSMITTED : EV8
 896:common/lib.stm32/STM32F10x_StdPeriph_Driver/src/stm32f10x_i2c.c ****   *     @arg I2C_EVENT_MASTER_MODE_ADDRESS10   : EV9
 897:common/lib.stm32/STM32F10x_StdPeriph_Driver/src/stm32f10x_i2c.c ****   *     @arg I2C_EVENT_SLAVE_STOP_DETECTED     : EV4
 898:common/lib.stm32/STM32F10x_StdPeriph_Driver/src/stm32f10x_i2c.c ****   * @retval An ErrorStatus enumuration value:
 899:common/lib.stm32/STM32F10x_StdPeriph_Driver/src/stm32f10x_i2c.c ****   * - SUCCESS: Last event is equal to the I2C_EVENT
 900:common/lib.stm32/STM32F10x_StdPeriph_Driver/src/stm32f10x_i2c.c ****   * - ERROR: Last event is different from the I2C_EVENT
 901:common/lib.stm32/STM32F10x_StdPeriph_Driver/src/stm32f10x_i2c.c ****   */
 902:common/lib.stm32/STM32F10x_StdPeriph_Driver/src/stm32f10x_i2c.c **** ErrorStatus I2C_CheckEvent(I2C_TypeDef* I2Cx, uint32_t I2C_EVENT)
 903:common/lib.stm32/STM32F10x_StdPeriph_Driver/src/stm32f10x_i2c.c **** {
 2021              		.loc 1 903 1
 2022              		.cfi_startproc
 2023              		@ args = 0, pretend = 0, frame = 24
 2024              		@ frame_needed = 1, uses_anonymous_args = 0
 2025              		@ link register save eliminated.
 2026 0000 80B4     		push	{r7}
 2027              	.LCFI160:
 2028              		.cfi_def_cfa_offset 4
 2029              		.cfi_offset 7, -4
 2030 0002 87B0     		sub	sp, sp, #28
 2031              	.LCFI161:
 2032              		.cfi_def_cfa_offset 32
 2033 0004 00AF     		add	r7, sp, #0
 2034              	.LCFI162:
 2035              		.cfi_def_cfa_register 7
 2036 0006 7860     		str	r0, [r7, #4]
 2037 0008 3960     		str	r1, [r7]
 904:common/lib.stm32/STM32F10x_StdPeriph_Driver/src/stm32f10x_i2c.c ****   uint32_t lastevent = 0;
 2038              		.loc 1 904 12
 2039 000a 0023     		movs	r3, #0
 2040 000c 3B61     		str	r3, [r7, #16]
 905:common/lib.stm32/STM32F10x_StdPeriph_Driver/src/stm32f10x_i2c.c ****   uint32_t flag1 = 0, flag2 = 0;
 2041              		.loc 1 905 12
 2042 000e 0023     		movs	r3, #0
 2043 0010 FB60     		str	r3, [r7, #12]
 2044              		.loc 1 905 23
 2045 0012 0023     		movs	r3, #0
 2046 0014 BB60     		str	r3, [r7, #8]
 906:common/lib.stm32/STM32F10x_StdPeriph_Driver/src/stm32f10x_i2c.c ****   ErrorStatus status = ERROR;
 2047              		.loc 1 906 15
 2048 0016 0023     		movs	r3, #0
 2049 0018 FB75     		strb	r3, [r7, #23]
 907:common/lib.stm32/STM32F10x_StdPeriph_Driver/src/stm32f10x_i2c.c ****   /* Check the parameters */
 908:common/lib.stm32/STM32F10x_StdPeriph_Driver/src/stm32f10x_i2c.c ****   assert_param(IS_I2C_ALL_PERIPH(I2Cx));
 909:common/lib.stm32/STM32F10x_StdPeriph_Driver/src/stm32f10x_i2c.c ****   assert_param(IS_I2C_EVENT(I2C_EVENT));
 910:common/lib.stm32/STM32F10x_StdPeriph_Driver/src/stm32f10x_i2c.c ****   /* Read the I2Cx status register */
 911:common/lib.stm32/STM32F10x_StdPeriph_Driver/src/stm32f10x_i2c.c ****   flag1 = I2Cx->SR1;
 2050              		.loc 1 911 15
 2051 001a 7B68     		ldr	r3, [r7, #4]
 2052 001c 9B8A     		ldrh	r3, [r3, #20]	@ movhi
 2053 001e 9BB2     		uxth	r3, r3
 2054              		.loc 1 911 9
 2055 0020 FB60     		str	r3, [r7, #12]
 912:common/lib.stm32/STM32F10x_StdPeriph_Driver/src/stm32f10x_i2c.c ****   flag2 = I2Cx->SR2;
 2056              		.loc 1 912 15
 2057 0022 7B68     		ldr	r3, [r7, #4]
 2058 0024 1B8B     		ldrh	r3, [r3, #24]	@ movhi
 2059 0026 9BB2     		uxth	r3, r3
 2060              		.loc 1 912 9
 2061 0028 BB60     		str	r3, [r7, #8]
 913:common/lib.stm32/STM32F10x_StdPeriph_Driver/src/stm32f10x_i2c.c ****   flag2 = flag2 << 16;
 2062              		.loc 1 913 9
 2063 002a BB68     		ldr	r3, [r7, #8]
 2064 002c 1B04     		lsls	r3, r3, #16
 2065 002e BB60     		str	r3, [r7, #8]
 914:common/lib.stm32/STM32F10x_StdPeriph_Driver/src/stm32f10x_i2c.c ****   /* Get the last event value from I2C status register */
 915:common/lib.stm32/STM32F10x_StdPeriph_Driver/src/stm32f10x_i2c.c ****   lastevent = (flag1 | flag2) & I2C_EVENT;//FLAG_Mask;
 2066              		.loc 1 915 22
 2067 0030 FA68     		ldr	r2, [r7, #12]
 2068 0032 BB68     		ldr	r3, [r7, #8]
 2069 0034 1343     		orrs	r3, r3, r2
 2070              		.loc 1 915 13
 2071 0036 3A68     		ldr	r2, [r7]
 2072 0038 1340     		ands	r3, r3, r2
 2073 003a 3B61     		str	r3, [r7, #16]
 916:common/lib.stm32/STM32F10x_StdPeriph_Driver/src/stm32f10x_i2c.c ****   /* Check whether the last event is equal to I2C_EVENT */
 917:common/lib.stm32/STM32F10x_StdPeriph_Driver/src/stm32f10x_i2c.c ****   if (lastevent == I2C_EVENT )
 2074              		.loc 1 917 6
 2075 003c 3A69     		ldr	r2, [r7, #16]
 2076 003e 3B68     		ldr	r3, [r7]
 2077 0040 9A42     		cmp	r2, r3
 2078 0042 02D1     		bne	.L99
 918:common/lib.stm32/STM32F10x_StdPeriph_Driver/src/stm32f10x_i2c.c ****   {
 919:common/lib.stm32/STM32F10x_StdPeriph_Driver/src/stm32f10x_i2c.c ****     /* SUCCESS: last event is equal to I2C_EVENT */
 920:common/lib.stm32/STM32F10x_StdPeriph_Driver/src/stm32f10x_i2c.c ****     status = SUCCESS;
 2079              		.loc 1 920 12
 2080 0044 0123     		movs	r3, #1
 2081 0046 FB75     		strb	r3, [r7, #23]
 2082 0048 01E0     		b	.L100
 2083              	.L99:
 921:common/lib.stm32/STM32F10x_StdPeriph_Driver/src/stm32f10x_i2c.c ****   }
 922:common/lib.stm32/STM32F10x_StdPeriph_Driver/src/stm32f10x_i2c.c ****   else
 923:common/lib.stm32/STM32F10x_StdPeriph_Driver/src/stm32f10x_i2c.c ****   {
 924:common/lib.stm32/STM32F10x_StdPeriph_Driver/src/stm32f10x_i2c.c ****     /* ERROR: last event is different from I2C_EVENT */
 925:common/lib.stm32/STM32F10x_StdPeriph_Driver/src/stm32f10x_i2c.c ****     status = ERROR;
 2084              		.loc 1 925 12
 2085 004a 0023     		movs	r3, #0
 2086 004c FB75     		strb	r3, [r7, #23]
 2087              	.L100:
 926:common/lib.stm32/STM32F10x_StdPeriph_Driver/src/stm32f10x_i2c.c ****   }
 927:common/lib.stm32/STM32F10x_StdPeriph_Driver/src/stm32f10x_i2c.c ****   /* Return status */
 928:common/lib.stm32/STM32F10x_StdPeriph_Driver/src/stm32f10x_i2c.c ****   return status;
 2088              		.loc 1 928 10
 2089 004e FB7D     		ldrb	r3, [r7, #23]	@ zero_extendqisi2
 929:common/lib.stm32/STM32F10x_StdPeriph_Driver/src/stm32f10x_i2c.c **** }
 2090              		.loc 1 929 1
 2091 0050 1846     		mov	r0, r3
 2092 0052 1C37     		adds	r7, r7, #28
 2093              	.LCFI163:
 2094              		.cfi_def_cfa_offset 4
 2095 0054 BD46     		mov	sp, r7
 2096              	.LCFI164:
 2097              		.cfi_def_cfa_register 13
 2098              		@ sp needed
 2099 0056 80BC     		pop	{r7}
 2100              	.LCFI165:
 2101              		.cfi_restore 7
 2102              		.cfi_def_cfa_offset 0
 2103 0058 7047     		bx	lr
 2104              		.cfi_endproc
 2105              	.LFE54:
 2107              		.section	.text.I2C_GetFlagStatus,"ax",%progbits
 2108              		.align	1
 2109              		.global	I2C_GetFlagStatus
 2110              		.syntax unified
 2111              		.thumb
 2112              		.thumb_func
 2114              	I2C_GetFlagStatus:
 2115              	.LFB55:
 930:common/lib.stm32/STM32F10x_StdPeriph_Driver/src/stm32f10x_i2c.c **** 
 931:common/lib.stm32/STM32F10x_StdPeriph_Driver/src/stm32f10x_i2c.c **** /**
 932:common/lib.stm32/STM32F10x_StdPeriph_Driver/src/stm32f10x_i2c.c ****   * @brief  Checks whether the specified I2C flag is set or not.
 933:common/lib.stm32/STM32F10x_StdPeriph_Driver/src/stm32f10x_i2c.c ****   * @param  I2Cx: where x can be 1 or 2 to select the I2C peripheral.
 934:common/lib.stm32/STM32F10x_StdPeriph_Driver/src/stm32f10x_i2c.c ****   * @param  I2C_FLAG: specifies the flag to check. 
 935:common/lib.stm32/STM32F10x_StdPeriph_Driver/src/stm32f10x_i2c.c ****   *   This parameter can be one of the following values:
 936:common/lib.stm32/STM32F10x_StdPeriph_Driver/src/stm32f10x_i2c.c ****   *     @arg I2C_FLAG_DUALF: Dual flag (Slave mode)
 937:common/lib.stm32/STM32F10x_StdPeriph_Driver/src/stm32f10x_i2c.c ****   *     @arg I2C_FLAG_SMBHOST: SMBus host header (Slave mode)
 938:common/lib.stm32/STM32F10x_StdPeriph_Driver/src/stm32f10x_i2c.c ****   *     @arg I2C_FLAG_SMBDEFAULT: SMBus default header (Slave mode)
 939:common/lib.stm32/STM32F10x_StdPeriph_Driver/src/stm32f10x_i2c.c ****   *     @arg I2C_FLAG_GENCALL: General call header flag (Slave mode)
 940:common/lib.stm32/STM32F10x_StdPeriph_Driver/src/stm32f10x_i2c.c ****   *     @arg I2C_FLAG_TRA: Transmitter/Receiver flag
 941:common/lib.stm32/STM32F10x_StdPeriph_Driver/src/stm32f10x_i2c.c ****   *     @arg I2C_FLAG_BUSY: Bus busy flag
 942:common/lib.stm32/STM32F10x_StdPeriph_Driver/src/stm32f10x_i2c.c ****   *     @arg I2C_FLAG_MSL: Master/Slave flag
 943:common/lib.stm32/STM32F10x_StdPeriph_Driver/src/stm32f10x_i2c.c ****   *     @arg I2C_FLAG_SMBALERT: SMBus Alert flag
 944:common/lib.stm32/STM32F10x_StdPeriph_Driver/src/stm32f10x_i2c.c ****   *     @arg I2C_FLAG_TIMEOUT: Timeout or Tlow error flag
 945:common/lib.stm32/STM32F10x_StdPeriph_Driver/src/stm32f10x_i2c.c ****   *     @arg I2C_FLAG_PECERR: PEC error in reception flag
 946:common/lib.stm32/STM32F10x_StdPeriph_Driver/src/stm32f10x_i2c.c ****   *     @arg I2C_FLAG_OVR: Overrun/Underrun flag (Slave mode)
 947:common/lib.stm32/STM32F10x_StdPeriph_Driver/src/stm32f10x_i2c.c ****   *     @arg I2C_FLAG_AF: Acknowledge failure flag
 948:common/lib.stm32/STM32F10x_StdPeriph_Driver/src/stm32f10x_i2c.c ****   *     @arg I2C_FLAG_ARLO: Arbitration lost flag (Master mode)
 949:common/lib.stm32/STM32F10x_StdPeriph_Driver/src/stm32f10x_i2c.c ****   *     @arg I2C_FLAG_BERR: Bus error flag
 950:common/lib.stm32/STM32F10x_StdPeriph_Driver/src/stm32f10x_i2c.c ****   *     @arg I2C_FLAG_TXE: Data register empty flag (Transmitter)
 951:common/lib.stm32/STM32F10x_StdPeriph_Driver/src/stm32f10x_i2c.c ****   *     @arg I2C_FLAG_RXNE: Data register not empty (Receiver) flag
 952:common/lib.stm32/STM32F10x_StdPeriph_Driver/src/stm32f10x_i2c.c ****   *     @arg I2C_FLAG_STOPF: Stop detection flag (Slave mode)
 953:common/lib.stm32/STM32F10x_StdPeriph_Driver/src/stm32f10x_i2c.c ****   *     @arg I2C_FLAG_ADD10: 10-bit header sent flag (Master mode)
 954:common/lib.stm32/STM32F10x_StdPeriph_Driver/src/stm32f10x_i2c.c ****   *     @arg I2C_FLAG_BTF: Byte transfer finished flag
 955:common/lib.stm32/STM32F10x_StdPeriph_Driver/src/stm32f10x_i2c.c ****   *     @arg I2C_FLAG_ADDR: Address sent flag (Master mode) ADSL
 956:common/lib.stm32/STM32F10x_StdPeriph_Driver/src/stm32f10x_i2c.c ****   *   Address matched flag (Slave mode)ENDAD
 957:common/lib.stm32/STM32F10x_StdPeriph_Driver/src/stm32f10x_i2c.c ****   *     @arg I2C_FLAG_SB: Start bit flag (Master mode)
 958:common/lib.stm32/STM32F10x_StdPeriph_Driver/src/stm32f10x_i2c.c ****   * @retval The new state of I2C_FLAG (SET or RESET).
 959:common/lib.stm32/STM32F10x_StdPeriph_Driver/src/stm32f10x_i2c.c ****   */
 960:common/lib.stm32/STM32F10x_StdPeriph_Driver/src/stm32f10x_i2c.c **** FlagStatus I2C_GetFlagStatus(I2C_TypeDef* I2Cx, uint32_t I2C_FLAG)
 961:common/lib.stm32/STM32F10x_StdPeriph_Driver/src/stm32f10x_i2c.c **** {
 2116              		.loc 1 961 1
 2117              		.cfi_startproc
 2118              		@ args = 0, pretend = 0, frame = 24
 2119              		@ frame_needed = 1, uses_anonymous_args = 0
 2120              		@ link register save eliminated.
 2121 0000 80B4     		push	{r7}
 2122              	.LCFI166:
 2123              		.cfi_def_cfa_offset 4
 2124              		.cfi_offset 7, -4
 2125 0002 87B0     		sub	sp, sp, #28
 2126              	.LCFI167:
 2127              		.cfi_def_cfa_offset 32
 2128 0004 00AF     		add	r7, sp, #0
 2129              	.LCFI168:
 2130              		.cfi_def_cfa_register 7
 2131 0006 7860     		str	r0, [r7, #4]
 2132 0008 3960     		str	r1, [r7]
 962:common/lib.stm32/STM32F10x_StdPeriph_Driver/src/stm32f10x_i2c.c ****   FlagStatus bitstatus = RESET;
 2133              		.loc 1 962 14
 2134 000a 0023     		movs	r3, #0
 2135 000c FB75     		strb	r3, [r7, #23]
 963:common/lib.stm32/STM32F10x_StdPeriph_Driver/src/stm32f10x_i2c.c ****   __IO uint32_t i2creg = 0, i2cxbase = 0;
 2136              		.loc 1 963 17
 2137 000e 0023     		movs	r3, #0
 2138 0010 3B61     		str	r3, [r7, #16]
 2139              		.loc 1 963 29
 2140 0012 0023     		movs	r3, #0
 2141 0014 FB60     		str	r3, [r7, #12]
 964:common/lib.stm32/STM32F10x_StdPeriph_Driver/src/stm32f10x_i2c.c **** 
 965:common/lib.stm32/STM32F10x_StdPeriph_Driver/src/stm32f10x_i2c.c ****   /* Check the parameters */
 966:common/lib.stm32/STM32F10x_StdPeriph_Driver/src/stm32f10x_i2c.c ****   assert_param(IS_I2C_ALL_PERIPH(I2Cx));
 967:common/lib.stm32/STM32F10x_StdPeriph_Driver/src/stm32f10x_i2c.c ****   assert_param(IS_I2C_GET_FLAG(I2C_FLAG));
 968:common/lib.stm32/STM32F10x_StdPeriph_Driver/src/stm32f10x_i2c.c **** 
 969:common/lib.stm32/STM32F10x_StdPeriph_Driver/src/stm32f10x_i2c.c ****   /* Get the I2Cx peripheral base address */
 970:common/lib.stm32/STM32F10x_StdPeriph_Driver/src/stm32f10x_i2c.c ****   i2cxbase = (uint32_t)I2Cx;
 2142              		.loc 1 970 14
 2143 0016 7B68     		ldr	r3, [r7, #4]
 2144              		.loc 1 970 12
 2145 0018 FB60     		str	r3, [r7, #12]
 971:common/lib.stm32/STM32F10x_StdPeriph_Driver/src/stm32f10x_i2c.c ****   
 972:common/lib.stm32/STM32F10x_StdPeriph_Driver/src/stm32f10x_i2c.c ****   /* Read flag register index */
 973:common/lib.stm32/STM32F10x_StdPeriph_Driver/src/stm32f10x_i2c.c ****   i2creg = I2C_FLAG >> 28;
 2146              		.loc 1 973 21
 2147 001a 3B68     		ldr	r3, [r7]
 2148 001c 1B0F     		lsrs	r3, r3, #28
 2149              		.loc 1 973 10
 2150 001e 3B61     		str	r3, [r7, #16]
 974:common/lib.stm32/STM32F10x_StdPeriph_Driver/src/stm32f10x_i2c.c ****   
 975:common/lib.stm32/STM32F10x_StdPeriph_Driver/src/stm32f10x_i2c.c ****   /* Get bit[23:0] of the flag */
 976:common/lib.stm32/STM32F10x_StdPeriph_Driver/src/stm32f10x_i2c.c ****   I2C_FLAG &= FLAG_Mask;
 2151              		.loc 1 976 12
 2152 0020 3B68     		ldr	r3, [r7]
 2153 0022 23F07F43 		bic	r3, r3, #-16777216
 2154 0026 3B60     		str	r3, [r7]
 977:common/lib.stm32/STM32F10x_StdPeriph_Driver/src/stm32f10x_i2c.c ****   
 978:common/lib.stm32/STM32F10x_StdPeriph_Driver/src/stm32f10x_i2c.c ****   if(i2creg != 0)
 2155              		.loc 1 978 13
 2156 0028 3B69     		ldr	r3, [r7, #16]
 2157              		.loc 1 978 5
 2158 002a 002B     		cmp	r3, #0
 2159 002c 03D0     		beq	.L103
 979:common/lib.stm32/STM32F10x_StdPeriph_Driver/src/stm32f10x_i2c.c ****   {
 980:common/lib.stm32/STM32F10x_StdPeriph_Driver/src/stm32f10x_i2c.c ****     /* Get the I2Cx SR1 register address */
 981:common/lib.stm32/STM32F10x_StdPeriph_Driver/src/stm32f10x_i2c.c ****     i2cxbase += 0x14;
 2160              		.loc 1 981 14
 2161 002e FB68     		ldr	r3, [r7, #12]
 2162 0030 1433     		adds	r3, r3, #20
 2163 0032 FB60     		str	r3, [r7, #12]
 2164 0034 05E0     		b	.L104
 2165              	.L103:
 982:common/lib.stm32/STM32F10x_StdPeriph_Driver/src/stm32f10x_i2c.c ****   }
 983:common/lib.stm32/STM32F10x_StdPeriph_Driver/src/stm32f10x_i2c.c ****   else
 984:common/lib.stm32/STM32F10x_StdPeriph_Driver/src/stm32f10x_i2c.c ****   {
 985:common/lib.stm32/STM32F10x_StdPeriph_Driver/src/stm32f10x_i2c.c ****     /* Flag in I2Cx SR2 Register */
 986:common/lib.stm32/STM32F10x_StdPeriph_Driver/src/stm32f10x_i2c.c ****     I2C_FLAG = (uint32_t)(I2C_FLAG >> 16);
 2166              		.loc 1 986 14
 2167 0036 3B68     		ldr	r3, [r7]
 2168 0038 1B0C     		lsrs	r3, r3, #16
 2169 003a 3B60     		str	r3, [r7]
 987:common/lib.stm32/STM32F10x_StdPeriph_Driver/src/stm32f10x_i2c.c ****     /* Get the I2Cx SR2 register address */
 988:common/lib.stm32/STM32F10x_StdPeriph_Driver/src/stm32f10x_i2c.c ****     i2cxbase += 0x18;
 2170              		.loc 1 988 14
 2171 003c FB68     		ldr	r3, [r7, #12]
 2172 003e 1833     		adds	r3, r3, #24
 2173 0040 FB60     		str	r3, [r7, #12]
 2174              	.L104:
 989:common/lib.stm32/STM32F10x_StdPeriph_Driver/src/stm32f10x_i2c.c ****   }
 990:common/lib.stm32/STM32F10x_StdPeriph_Driver/src/stm32f10x_i2c.c ****   
 991:common/lib.stm32/STM32F10x_StdPeriph_Driver/src/stm32f10x_i2c.c ****   if(((*(__IO uint32_t *)i2cxbase) & I2C_FLAG) != (uint32_t)RESET)
 2175              		.loc 1 991 9
 2176 0042 FB68     		ldr	r3, [r7, #12]
 2177              		.loc 1 991 8
 2178 0044 1A68     		ldr	r2, [r3]
 2179              		.loc 1 991 36
 2180 0046 3B68     		ldr	r3, [r7]
 2181 0048 1340     		ands	r3, r3, r2
 2182              		.loc 1 991 5
 2183 004a 002B     		cmp	r3, #0
 2184 004c 02D0     		beq	.L105
 992:common/lib.stm32/STM32F10x_StdPeriph_Driver/src/stm32f10x_i2c.c ****   {
 993:common/lib.stm32/STM32F10x_StdPeriph_Driver/src/stm32f10x_i2c.c ****     /* I2C_FLAG is set */
 994:common/lib.stm32/STM32F10x_StdPeriph_Driver/src/stm32f10x_i2c.c ****     bitstatus = SET;
 2185              		.loc 1 994 15
 2186 004e 0123     		movs	r3, #1
 2187 0050 FB75     		strb	r3, [r7, #23]
 2188 0052 01E0     		b	.L106
 2189              	.L105:
 995:common/lib.stm32/STM32F10x_StdPeriph_Driver/src/stm32f10x_i2c.c ****   }
 996:common/lib.stm32/STM32F10x_StdPeriph_Driver/src/stm32f10x_i2c.c ****   else
 997:common/lib.stm32/STM32F10x_StdPeriph_Driver/src/stm32f10x_i2c.c ****   {
 998:common/lib.stm32/STM32F10x_StdPeriph_Driver/src/stm32f10x_i2c.c ****     /* I2C_FLAG is reset */
 999:common/lib.stm32/STM32F10x_StdPeriph_Driver/src/stm32f10x_i2c.c ****     bitstatus = RESET;
 2190              		.loc 1 999 15
 2191 0054 0023     		movs	r3, #0
 2192 0056 FB75     		strb	r3, [r7, #23]
 2193              	.L106:
1000:common/lib.stm32/STM32F10x_StdPeriph_Driver/src/stm32f10x_i2c.c ****   }
1001:common/lib.stm32/STM32F10x_StdPeriph_Driver/src/stm32f10x_i2c.c ****   
1002:common/lib.stm32/STM32F10x_StdPeriph_Driver/src/stm32f10x_i2c.c ****   /* Return the I2C_FLAG status */
1003:common/lib.stm32/STM32F10x_StdPeriph_Driver/src/stm32f10x_i2c.c ****   return  bitstatus;
 2194              		.loc 1 1003 11
 2195 0058 FB7D     		ldrb	r3, [r7, #23]	@ zero_extendqisi2
1004:common/lib.stm32/STM32F10x_StdPeriph_Driver/src/stm32f10x_i2c.c **** }
 2196              		.loc 1 1004 1
 2197 005a 1846     		mov	r0, r3
 2198 005c 1C37     		adds	r7, r7, #28
 2199              	.LCFI169:
 2200              		.cfi_def_cfa_offset 4
 2201 005e BD46     		mov	sp, r7
 2202              	.LCFI170:
 2203              		.cfi_def_cfa_register 13
 2204              		@ sp needed
 2205 0060 80BC     		pop	{r7}
 2206              	.LCFI171:
 2207              		.cfi_restore 7
 2208              		.cfi_def_cfa_offset 0
 2209 0062 7047     		bx	lr
 2210              		.cfi_endproc
 2211              	.LFE55:
 2213              		.section	.text.I2C_ClearFlag,"ax",%progbits
 2214              		.align	1
 2215              		.global	I2C_ClearFlag
 2216              		.syntax unified
 2217              		.thumb
 2218              		.thumb_func
 2220              	I2C_ClearFlag:
 2221              	.LFB56:
1005:common/lib.stm32/STM32F10x_StdPeriph_Driver/src/stm32f10x_i2c.c **** 
1006:common/lib.stm32/STM32F10x_StdPeriph_Driver/src/stm32f10x_i2c.c **** /**
1007:common/lib.stm32/STM32F10x_StdPeriph_Driver/src/stm32f10x_i2c.c ****   * @brief  Clears the I2Cx's pending flags.
1008:common/lib.stm32/STM32F10x_StdPeriph_Driver/src/stm32f10x_i2c.c ****   * @param  I2Cx: where x can be 1 or 2 to select the I2C peripheral.
1009:common/lib.stm32/STM32F10x_StdPeriph_Driver/src/stm32f10x_i2c.c ****   * @param  I2C_FLAG: specifies the flag to clear. 
1010:common/lib.stm32/STM32F10x_StdPeriph_Driver/src/stm32f10x_i2c.c ****   *   This parameter can be any combination of the following values:
1011:common/lib.stm32/STM32F10x_StdPeriph_Driver/src/stm32f10x_i2c.c ****   *     @arg I2C_FLAG_SMBALERT: SMBus Alert flag
1012:common/lib.stm32/STM32F10x_StdPeriph_Driver/src/stm32f10x_i2c.c ****   *     @arg I2C_FLAG_TIMEOUT: Timeout or Tlow error flag
1013:common/lib.stm32/STM32F10x_StdPeriph_Driver/src/stm32f10x_i2c.c ****   *     @arg I2C_FLAG_PECERR: PEC error in reception flag
1014:common/lib.stm32/STM32F10x_StdPeriph_Driver/src/stm32f10x_i2c.c ****   *     @arg I2C_FLAG_OVR: Overrun/Underrun flag (Slave mode)
1015:common/lib.stm32/STM32F10x_StdPeriph_Driver/src/stm32f10x_i2c.c ****   *     @arg I2C_FLAG_AF: Acknowledge failure flag
1016:common/lib.stm32/STM32F10x_StdPeriph_Driver/src/stm32f10x_i2c.c ****   *     @arg I2C_FLAG_ARLO: Arbitration lost flag (Master mode)
1017:common/lib.stm32/STM32F10x_StdPeriph_Driver/src/stm32f10x_i2c.c ****   *     @arg I2C_FLAG_BERR: Bus error flag
1018:common/lib.stm32/STM32F10x_StdPeriph_Driver/src/stm32f10x_i2c.c ****   *   
1019:common/lib.stm32/STM32F10x_StdPeriph_Driver/src/stm32f10x_i2c.c ****   * @note
1020:common/lib.stm32/STM32F10x_StdPeriph_Driver/src/stm32f10x_i2c.c ****   *   - STOPF (STOP detection) is cleared by software sequence: a read operation 
1021:common/lib.stm32/STM32F10x_StdPeriph_Driver/src/stm32f10x_i2c.c ****   *     to I2C_SR1 register (I2C_GetFlagStatus()) followed by a write operation 
1022:common/lib.stm32/STM32F10x_StdPeriph_Driver/src/stm32f10x_i2c.c ****   *     to I2C_CR1 register (I2C_Cmd() to re-enable the I2C peripheral).
1023:common/lib.stm32/STM32F10x_StdPeriph_Driver/src/stm32f10x_i2c.c ****   *   - ADD10 (10-bit header sent) is cleared by software sequence: a read 
1024:common/lib.stm32/STM32F10x_StdPeriph_Driver/src/stm32f10x_i2c.c ****   *     operation to I2C_SR1 (I2C_GetFlagStatus()) followed by writing the 
1025:common/lib.stm32/STM32F10x_StdPeriph_Driver/src/stm32f10x_i2c.c ****   *     second byte of the address in DR register.
1026:common/lib.stm32/STM32F10x_StdPeriph_Driver/src/stm32f10x_i2c.c ****   *   - BTF (Byte Transfer Finished) is cleared by software sequence: a read 
1027:common/lib.stm32/STM32F10x_StdPeriph_Driver/src/stm32f10x_i2c.c ****   *     operation to I2C_SR1 register (I2C_GetFlagStatus()) followed by a 
1028:common/lib.stm32/STM32F10x_StdPeriph_Driver/src/stm32f10x_i2c.c ****   *     read/write to I2C_DR register (I2C_SendData()).
1029:common/lib.stm32/STM32F10x_StdPeriph_Driver/src/stm32f10x_i2c.c ****   *   - ADDR (Address sent) is cleared by software sequence: a read operation to 
1030:common/lib.stm32/STM32F10x_StdPeriph_Driver/src/stm32f10x_i2c.c ****   *     I2C_SR1 register (I2C_GetFlagStatus()) followed by a read operation to 
1031:common/lib.stm32/STM32F10x_StdPeriph_Driver/src/stm32f10x_i2c.c ****   *     I2C_SR2 register ((void)(I2Cx->SR2)).
1032:common/lib.stm32/STM32F10x_StdPeriph_Driver/src/stm32f10x_i2c.c ****   *   - SB (Start Bit) is cleared software sequence: a read operation to I2C_SR1
1033:common/lib.stm32/STM32F10x_StdPeriph_Driver/src/stm32f10x_i2c.c ****   *     register (I2C_GetFlagStatus()) followed by a write operation to I2C_DR
1034:common/lib.stm32/STM32F10x_StdPeriph_Driver/src/stm32f10x_i2c.c ****   *     register  (I2C_SendData()).
1035:common/lib.stm32/STM32F10x_StdPeriph_Driver/src/stm32f10x_i2c.c ****   * @retval None
1036:common/lib.stm32/STM32F10x_StdPeriph_Driver/src/stm32f10x_i2c.c ****   */
1037:common/lib.stm32/STM32F10x_StdPeriph_Driver/src/stm32f10x_i2c.c **** void I2C_ClearFlag(I2C_TypeDef* I2Cx, uint32_t I2C_FLAG)
1038:common/lib.stm32/STM32F10x_StdPeriph_Driver/src/stm32f10x_i2c.c **** {
 2222              		.loc 1 1038 1
 2223              		.cfi_startproc
 2224              		@ args = 0, pretend = 0, frame = 16
 2225              		@ frame_needed = 1, uses_anonymous_args = 0
 2226              		@ link register save eliminated.
 2227 0000 80B4     		push	{r7}
 2228              	.LCFI172:
 2229              		.cfi_def_cfa_offset 4
 2230              		.cfi_offset 7, -4
 2231 0002 85B0     		sub	sp, sp, #20
 2232              	.LCFI173:
 2233              		.cfi_def_cfa_offset 24
 2234 0004 00AF     		add	r7, sp, #0
 2235              	.LCFI174:
 2236              		.cfi_def_cfa_register 7
 2237 0006 7860     		str	r0, [r7, #4]
 2238 0008 3960     		str	r1, [r7]
1039:common/lib.stm32/STM32F10x_StdPeriph_Driver/src/stm32f10x_i2c.c ****   uint32_t flagpos = 0;
 2239              		.loc 1 1039 12
 2240 000a 0023     		movs	r3, #0
 2241 000c FB60     		str	r3, [r7, #12]
1040:common/lib.stm32/STM32F10x_StdPeriph_Driver/src/stm32f10x_i2c.c ****   /* Check the parameters */
1041:common/lib.stm32/STM32F10x_StdPeriph_Driver/src/stm32f10x_i2c.c ****   assert_param(IS_I2C_ALL_PERIPH(I2Cx));
1042:common/lib.stm32/STM32F10x_StdPeriph_Driver/src/stm32f10x_i2c.c ****   assert_param(IS_I2C_CLEAR_FLAG(I2C_FLAG));
1043:common/lib.stm32/STM32F10x_StdPeriph_Driver/src/stm32f10x_i2c.c ****   /* Get the I2C flag position */
1044:common/lib.stm32/STM32F10x_StdPeriph_Driver/src/stm32f10x_i2c.c ****   flagpos = I2C_FLAG & FLAG_Mask;
 2242              		.loc 1 1044 11
 2243 000e 3B68     		ldr	r3, [r7]
 2244 0010 23F07F43 		bic	r3, r3, #-16777216
 2245 0014 FB60     		str	r3, [r7, #12]
1045:common/lib.stm32/STM32F10x_StdPeriph_Driver/src/stm32f10x_i2c.c ****   /* Clear the selected I2C flag */
1046:common/lib.stm32/STM32F10x_StdPeriph_Driver/src/stm32f10x_i2c.c ****   I2Cx->SR1 = (uint16_t)~flagpos;
 2246              		.loc 1 1046 15
 2247 0016 FB68     		ldr	r3, [r7, #12]
 2248 0018 9BB2     		uxth	r3, r3
 2249 001a DB43     		mvns	r3, r3
 2250 001c 9AB2     		uxth	r2, r3
 2251              		.loc 1 1046 13
 2252 001e 7B68     		ldr	r3, [r7, #4]
 2253 0020 9A82     		strh	r2, [r3, #20]	@ movhi
1047:common/lib.stm32/STM32F10x_StdPeriph_Driver/src/stm32f10x_i2c.c **** }
 2254              		.loc 1 1047 1
 2255 0022 00BF     		nop
 2256 0024 1437     		adds	r7, r7, #20
 2257              	.LCFI175:
 2258              		.cfi_def_cfa_offset 4
 2259 0026 BD46     		mov	sp, r7
 2260              	.LCFI176:
 2261              		.cfi_def_cfa_register 13
 2262              		@ sp needed
 2263 0028 80BC     		pop	{r7}
 2264              	.LCFI177:
 2265              		.cfi_restore 7
 2266              		.cfi_def_cfa_offset 0
 2267 002a 7047     		bx	lr
 2268              		.cfi_endproc
 2269              	.LFE56:
 2271              		.section	.text.I2C_GetITStatus,"ax",%progbits
 2272              		.align	1
 2273              		.global	I2C_GetITStatus
 2274              		.syntax unified
 2275              		.thumb
 2276              		.thumb_func
 2278              	I2C_GetITStatus:
 2279              	.LFB57:
1048:common/lib.stm32/STM32F10x_StdPeriph_Driver/src/stm32f10x_i2c.c **** 
1049:common/lib.stm32/STM32F10x_StdPeriph_Driver/src/stm32f10x_i2c.c **** /**
1050:common/lib.stm32/STM32F10x_StdPeriph_Driver/src/stm32f10x_i2c.c ****   * @brief  Checks whether the specified I2C interrupt has occurred or not.
1051:common/lib.stm32/STM32F10x_StdPeriph_Driver/src/stm32f10x_i2c.c ****   * @param  I2Cx: where x can be 1 or 2 to select the I2C peripheral.
1052:common/lib.stm32/STM32F10x_StdPeriph_Driver/src/stm32f10x_i2c.c ****   * @param  I2C_IT: specifies the interrupt source to check. 
1053:common/lib.stm32/STM32F10x_StdPeriph_Driver/src/stm32f10x_i2c.c ****   *   This parameter can be one of the following values:
1054:common/lib.stm32/STM32F10x_StdPeriph_Driver/src/stm32f10x_i2c.c ****   *     @arg I2C_IT_SMBALERT: SMBus Alert flag
1055:common/lib.stm32/STM32F10x_StdPeriph_Driver/src/stm32f10x_i2c.c ****   *     @arg I2C_IT_TIMEOUT: Timeout or Tlow error flag
1056:common/lib.stm32/STM32F10x_StdPeriph_Driver/src/stm32f10x_i2c.c ****   *     @arg I2C_IT_PECERR: PEC error in reception flag
1057:common/lib.stm32/STM32F10x_StdPeriph_Driver/src/stm32f10x_i2c.c ****   *     @arg I2C_IT_OVR: Overrun/Underrun flag (Slave mode)
1058:common/lib.stm32/STM32F10x_StdPeriph_Driver/src/stm32f10x_i2c.c ****   *     @arg I2C_IT_AF: Acknowledge failure flag
1059:common/lib.stm32/STM32F10x_StdPeriph_Driver/src/stm32f10x_i2c.c ****   *     @arg I2C_IT_ARLO: Arbitration lost flag (Master mode)
1060:common/lib.stm32/STM32F10x_StdPeriph_Driver/src/stm32f10x_i2c.c ****   *     @arg I2C_IT_BERR: Bus error flag
1061:common/lib.stm32/STM32F10x_StdPeriph_Driver/src/stm32f10x_i2c.c ****   *     @arg I2C_IT_TXE: Data register empty flag (Transmitter)
1062:common/lib.stm32/STM32F10x_StdPeriph_Driver/src/stm32f10x_i2c.c ****   *     @arg I2C_IT_RXNE: Data register not empty (Receiver) flag
1063:common/lib.stm32/STM32F10x_StdPeriph_Driver/src/stm32f10x_i2c.c ****   *     @arg I2C_IT_STOPF: Stop detection flag (Slave mode)
1064:common/lib.stm32/STM32F10x_StdPeriph_Driver/src/stm32f10x_i2c.c ****   *     @arg I2C_IT_ADD10: 10-bit header sent flag (Master mode)
1065:common/lib.stm32/STM32F10x_StdPeriph_Driver/src/stm32f10x_i2c.c ****   *     @arg I2C_IT_BTF: Byte transfer finished flag
1066:common/lib.stm32/STM32F10x_StdPeriph_Driver/src/stm32f10x_i2c.c ****   *     @arg I2C_IT_ADDR: Address sent flag (Master mode) ADSL
1067:common/lib.stm32/STM32F10x_StdPeriph_Driver/src/stm32f10x_i2c.c ****   *                       Address matched flag (Slave mode)ENDAD
1068:common/lib.stm32/STM32F10x_StdPeriph_Driver/src/stm32f10x_i2c.c ****   *     @arg I2C_IT_SB: Start bit flag (Master mode)
1069:common/lib.stm32/STM32F10x_StdPeriph_Driver/src/stm32f10x_i2c.c ****   * @retval The new state of I2C_IT (SET or RESET).
1070:common/lib.stm32/STM32F10x_StdPeriph_Driver/src/stm32f10x_i2c.c ****   */
1071:common/lib.stm32/STM32F10x_StdPeriph_Driver/src/stm32f10x_i2c.c **** ITStatus I2C_GetITStatus(I2C_TypeDef* I2Cx, uint32_t I2C_IT)
1072:common/lib.stm32/STM32F10x_StdPeriph_Driver/src/stm32f10x_i2c.c **** {
 2280              		.loc 1 1072 1
 2281              		.cfi_startproc
 2282              		@ args = 0, pretend = 0, frame = 16
 2283              		@ frame_needed = 1, uses_anonymous_args = 0
 2284              		@ link register save eliminated.
 2285 0000 80B4     		push	{r7}
 2286              	.LCFI178:
 2287              		.cfi_def_cfa_offset 4
 2288              		.cfi_offset 7, -4
 2289 0002 85B0     		sub	sp, sp, #20
 2290              	.LCFI179:
 2291              		.cfi_def_cfa_offset 24
 2292 0004 00AF     		add	r7, sp, #0
 2293              	.LCFI180:
 2294              		.cfi_def_cfa_register 7
 2295 0006 7860     		str	r0, [r7, #4]
 2296 0008 3960     		str	r1, [r7]
1073:common/lib.stm32/STM32F10x_StdPeriph_Driver/src/stm32f10x_i2c.c ****   ITStatus bitstatus = RESET;
 2297              		.loc 1 1073 12
 2298 000a 0023     		movs	r3, #0
 2299 000c FB73     		strb	r3, [r7, #15]
1074:common/lib.stm32/STM32F10x_StdPeriph_Driver/src/stm32f10x_i2c.c ****   uint32_t enablestatus = 0;
 2300              		.loc 1 1074 12
 2301 000e 0023     		movs	r3, #0
 2302 0010 BB60     		str	r3, [r7, #8]
1075:common/lib.stm32/STM32F10x_StdPeriph_Driver/src/stm32f10x_i2c.c ****   /* Check the parameters */
1076:common/lib.stm32/STM32F10x_StdPeriph_Driver/src/stm32f10x_i2c.c ****   assert_param(IS_I2C_ALL_PERIPH(I2Cx));
1077:common/lib.stm32/STM32F10x_StdPeriph_Driver/src/stm32f10x_i2c.c ****   assert_param(IS_I2C_GET_IT(I2C_IT));
1078:common/lib.stm32/STM32F10x_StdPeriph_Driver/src/stm32f10x_i2c.c ****   /* Check if the interrupt source is enabled or not */
1079:common/lib.stm32/STM32F10x_StdPeriph_Driver/src/stm32f10x_i2c.c ****   enablestatus = (uint32_t)(((I2C_IT & ITEN_Mask) >> 16) & (I2Cx->CR2)) ;
 2303              		.loc 1 1079 51
 2304 0012 3B68     		ldr	r3, [r7]
 2305 0014 1B0C     		lsrs	r3, r3, #16
 2306              		.loc 1 1079 65
 2307 0016 7A68     		ldr	r2, [r7, #4]
 2308 0018 9288     		ldrh	r2, [r2, #4]	@ movhi
 2309 001a 92B2     		uxth	r2, r2
 2310              		.loc 1 1079 18
 2311 001c 1340     		ands	r3, r3, r2
 2312              		.loc 1 1079 16
 2313 001e 03F4E063 		and	r3, r3, #1792
 2314 0022 BB60     		str	r3, [r7, #8]
1080:common/lib.stm32/STM32F10x_StdPeriph_Driver/src/stm32f10x_i2c.c ****   /* Get bit[23:0] of the flag */
1081:common/lib.stm32/STM32F10x_StdPeriph_Driver/src/stm32f10x_i2c.c ****   I2C_IT &= FLAG_Mask;
 2315              		.loc 1 1081 10
 2316 0024 3B68     		ldr	r3, [r7]
 2317 0026 23F07F43 		bic	r3, r3, #-16777216
 2318 002a 3B60     		str	r3, [r7]
1082:common/lib.stm32/STM32F10x_StdPeriph_Driver/src/stm32f10x_i2c.c ****   /* Check the status of the specified I2C flag */
1083:common/lib.stm32/STM32F10x_StdPeriph_Driver/src/stm32f10x_i2c.c ****   if (((I2Cx->SR1 & I2C_IT) != (uint32_t)RESET) && enablestatus)
 2319              		.loc 1 1083 13
 2320 002c 7B68     		ldr	r3, [r7, #4]
 2321 002e 9B8A     		ldrh	r3, [r3, #20]	@ movhi
 2322 0030 9BB2     		uxth	r3, r3
 2323 0032 1A46     		mov	r2, r3
 2324              		.loc 1 1083 19
 2325 0034 3B68     		ldr	r3, [r7]
 2326 0036 1340     		ands	r3, r3, r2
 2327              		.loc 1 1083 6
 2328 0038 002B     		cmp	r3, #0
 2329 003a 05D0     		beq	.L110
 2330              		.loc 1 1083 49 discriminator 1
 2331 003c BB68     		ldr	r3, [r7, #8]
 2332 003e 002B     		cmp	r3, #0
 2333 0040 02D0     		beq	.L110
1084:common/lib.stm32/STM32F10x_StdPeriph_Driver/src/stm32f10x_i2c.c ****   {
1085:common/lib.stm32/STM32F10x_StdPeriph_Driver/src/stm32f10x_i2c.c ****     /* I2C_IT is set */
1086:common/lib.stm32/STM32F10x_StdPeriph_Driver/src/stm32f10x_i2c.c ****     bitstatus = SET;
 2334              		.loc 1 1086 15
 2335 0042 0123     		movs	r3, #1
 2336 0044 FB73     		strb	r3, [r7, #15]
 2337 0046 01E0     		b	.L111
 2338              	.L110:
1087:common/lib.stm32/STM32F10x_StdPeriph_Driver/src/stm32f10x_i2c.c ****   }
1088:common/lib.stm32/STM32F10x_StdPeriph_Driver/src/stm32f10x_i2c.c ****   else
1089:common/lib.stm32/STM32F10x_StdPeriph_Driver/src/stm32f10x_i2c.c ****   {
1090:common/lib.stm32/STM32F10x_StdPeriph_Driver/src/stm32f10x_i2c.c ****     /* I2C_IT is reset */
1091:common/lib.stm32/STM32F10x_StdPeriph_Driver/src/stm32f10x_i2c.c ****     bitstatus = RESET;
 2339              		.loc 1 1091 15
 2340 0048 0023     		movs	r3, #0
 2341 004a FB73     		strb	r3, [r7, #15]
 2342              	.L111:
1092:common/lib.stm32/STM32F10x_StdPeriph_Driver/src/stm32f10x_i2c.c ****   }
1093:common/lib.stm32/STM32F10x_StdPeriph_Driver/src/stm32f10x_i2c.c ****   /* Return the I2C_IT status */
1094:common/lib.stm32/STM32F10x_StdPeriph_Driver/src/stm32f10x_i2c.c ****   return  bitstatus;
 2343              		.loc 1 1094 11
 2344 004c FB7B     		ldrb	r3, [r7, #15]	@ zero_extendqisi2
1095:common/lib.stm32/STM32F10x_StdPeriph_Driver/src/stm32f10x_i2c.c **** }
 2345              		.loc 1 1095 1
 2346 004e 1846     		mov	r0, r3
 2347 0050 1437     		adds	r7, r7, #20
 2348              	.LCFI181:
 2349              		.cfi_def_cfa_offset 4
 2350 0052 BD46     		mov	sp, r7
 2351              	.LCFI182:
 2352              		.cfi_def_cfa_register 13
 2353              		@ sp needed
 2354 0054 80BC     		pop	{r7}
 2355              	.LCFI183:
 2356              		.cfi_restore 7
 2357              		.cfi_def_cfa_offset 0
 2358 0056 7047     		bx	lr
 2359              		.cfi_endproc
 2360              	.LFE57:
 2362              		.section	.text.I2C_ClearITPendingBit,"ax",%progbits
 2363              		.align	1
 2364              		.global	I2C_ClearITPendingBit
 2365              		.syntax unified
 2366              		.thumb
 2367              		.thumb_func
 2369              	I2C_ClearITPendingBit:
 2370              	.LFB58:
1096:common/lib.stm32/STM32F10x_StdPeriph_Driver/src/stm32f10x_i2c.c **** 
1097:common/lib.stm32/STM32F10x_StdPeriph_Driver/src/stm32f10x_i2c.c **** /**
1098:common/lib.stm32/STM32F10x_StdPeriph_Driver/src/stm32f10x_i2c.c ****   * @brief  Clears the I2Cxs interrupt pending bits.
1099:common/lib.stm32/STM32F10x_StdPeriph_Driver/src/stm32f10x_i2c.c ****   * @param  I2Cx: where x can be 1 or 2 to select the I2C peripheral.
1100:common/lib.stm32/STM32F10x_StdPeriph_Driver/src/stm32f10x_i2c.c ****   * @param  I2C_IT: specifies the interrupt pending bit to clear. 
1101:common/lib.stm32/STM32F10x_StdPeriph_Driver/src/stm32f10x_i2c.c ****   *   This parameter can be any combination of the following values:
1102:common/lib.stm32/STM32F10x_StdPeriph_Driver/src/stm32f10x_i2c.c ****   *     @arg I2C_IT_SMBALERT: SMBus Alert interrupt
1103:common/lib.stm32/STM32F10x_StdPeriph_Driver/src/stm32f10x_i2c.c ****   *     @arg I2C_IT_TIMEOUT: Timeout or Tlow error interrupt
1104:common/lib.stm32/STM32F10x_StdPeriph_Driver/src/stm32f10x_i2c.c ****   *     @arg I2C_IT_PECERR: PEC error in reception  interrupt
1105:common/lib.stm32/STM32F10x_StdPeriph_Driver/src/stm32f10x_i2c.c ****   *     @arg I2C_IT_OVR: Overrun/Underrun interrupt (Slave mode)
1106:common/lib.stm32/STM32F10x_StdPeriph_Driver/src/stm32f10x_i2c.c ****   *     @arg I2C_IT_AF: Acknowledge failure interrupt
1107:common/lib.stm32/STM32F10x_StdPeriph_Driver/src/stm32f10x_i2c.c ****   *     @arg I2C_IT_ARLO: Arbitration lost interrupt (Master mode)
1108:common/lib.stm32/STM32F10x_StdPeriph_Driver/src/stm32f10x_i2c.c ****   *     @arg I2C_IT_BERR: Bus error interrupt
1109:common/lib.stm32/STM32F10x_StdPeriph_Driver/src/stm32f10x_i2c.c ****   *   
1110:common/lib.stm32/STM32F10x_StdPeriph_Driver/src/stm32f10x_i2c.c ****   * @note
1111:common/lib.stm32/STM32F10x_StdPeriph_Driver/src/stm32f10x_i2c.c ****   *   - STOPF (STOP detection) is cleared by software sequence: a read operation 
1112:common/lib.stm32/STM32F10x_StdPeriph_Driver/src/stm32f10x_i2c.c ****   *     to I2C_SR1 register (I2C_GetITStatus()) followed by a write operation to 
1113:common/lib.stm32/STM32F10x_StdPeriph_Driver/src/stm32f10x_i2c.c ****   *     I2C_CR1 register (I2C_Cmd() to re-enable the I2C peripheral).
1114:common/lib.stm32/STM32F10x_StdPeriph_Driver/src/stm32f10x_i2c.c ****   *   - ADD10 (10-bit header sent) is cleared by software sequence: a read 
1115:common/lib.stm32/STM32F10x_StdPeriph_Driver/src/stm32f10x_i2c.c ****   *     operation to I2C_SR1 (I2C_GetITStatus()) followed by writing the second 
1116:common/lib.stm32/STM32F10x_StdPeriph_Driver/src/stm32f10x_i2c.c ****   *     byte of the address in I2C_DR register.
1117:common/lib.stm32/STM32F10x_StdPeriph_Driver/src/stm32f10x_i2c.c ****   *   - BTF (Byte Transfer Finished) is cleared by software sequence: a read 
1118:common/lib.stm32/STM32F10x_StdPeriph_Driver/src/stm32f10x_i2c.c ****   *     operation to I2C_SR1 register (I2C_GetITStatus()) followed by a 
1119:common/lib.stm32/STM32F10x_StdPeriph_Driver/src/stm32f10x_i2c.c ****   *     read/write to I2C_DR register (I2C_SendData()).
1120:common/lib.stm32/STM32F10x_StdPeriph_Driver/src/stm32f10x_i2c.c ****   *   - ADDR (Address sent) is cleared by software sequence: a read operation to 
1121:common/lib.stm32/STM32F10x_StdPeriph_Driver/src/stm32f10x_i2c.c ****   *     I2C_SR1 register (I2C_GetITStatus()) followed by a read operation to 
1122:common/lib.stm32/STM32F10x_StdPeriph_Driver/src/stm32f10x_i2c.c ****   *     I2C_SR2 register ((void)(I2Cx->SR2)).
1123:common/lib.stm32/STM32F10x_StdPeriph_Driver/src/stm32f10x_i2c.c ****   *   - SB (Start Bit) is cleared by software sequence: a read operation to 
1124:common/lib.stm32/STM32F10x_StdPeriph_Driver/src/stm32f10x_i2c.c ****   *     I2C_SR1 register (I2C_GetITStatus()) followed by a write operation to 
1125:common/lib.stm32/STM32F10x_StdPeriph_Driver/src/stm32f10x_i2c.c ****   *     I2C_DR register (I2C_SendData()).
1126:common/lib.stm32/STM32F10x_StdPeriph_Driver/src/stm32f10x_i2c.c ****   * @retval None
1127:common/lib.stm32/STM32F10x_StdPeriph_Driver/src/stm32f10x_i2c.c ****   */
1128:common/lib.stm32/STM32F10x_StdPeriph_Driver/src/stm32f10x_i2c.c **** void I2C_ClearITPendingBit(I2C_TypeDef* I2Cx, uint32_t I2C_IT)
1129:common/lib.stm32/STM32F10x_StdPeriph_Driver/src/stm32f10x_i2c.c **** {
 2371              		.loc 1 1129 1
 2372              		.cfi_startproc
 2373              		@ args = 0, pretend = 0, frame = 16
 2374              		@ frame_needed = 1, uses_anonymous_args = 0
 2375              		@ link register save eliminated.
 2376 0000 80B4     		push	{r7}
 2377              	.LCFI184:
 2378              		.cfi_def_cfa_offset 4
 2379              		.cfi_offset 7, -4
 2380 0002 85B0     		sub	sp, sp, #20
 2381              	.LCFI185:
 2382              		.cfi_def_cfa_offset 24
 2383 0004 00AF     		add	r7, sp, #0
 2384              	.LCFI186:
 2385              		.cfi_def_cfa_register 7
 2386 0006 7860     		str	r0, [r7, #4]
 2387 0008 3960     		str	r1, [r7]
1130:common/lib.stm32/STM32F10x_StdPeriph_Driver/src/stm32f10x_i2c.c ****   uint32_t flagpos = 0;
 2388              		.loc 1 1130 12
 2389 000a 0023     		movs	r3, #0
 2390 000c FB60     		str	r3, [r7, #12]
1131:common/lib.stm32/STM32F10x_StdPeriph_Driver/src/stm32f10x_i2c.c ****   /* Check the parameters */
1132:common/lib.stm32/STM32F10x_StdPeriph_Driver/src/stm32f10x_i2c.c ****   assert_param(IS_I2C_ALL_PERIPH(I2Cx));
1133:common/lib.stm32/STM32F10x_StdPeriph_Driver/src/stm32f10x_i2c.c ****   assert_param(IS_I2C_CLEAR_IT(I2C_IT));
1134:common/lib.stm32/STM32F10x_StdPeriph_Driver/src/stm32f10x_i2c.c ****   /* Get the I2C flag position */
1135:common/lib.stm32/STM32F10x_StdPeriph_Driver/src/stm32f10x_i2c.c ****   flagpos = I2C_IT & FLAG_Mask;
 2391              		.loc 1 1135 11
 2392 000e 3B68     		ldr	r3, [r7]
 2393 0010 23F07F43 		bic	r3, r3, #-16777216
 2394 0014 FB60     		str	r3, [r7, #12]
1136:common/lib.stm32/STM32F10x_StdPeriph_Driver/src/stm32f10x_i2c.c ****   /* Clear the selected I2C flag */
1137:common/lib.stm32/STM32F10x_StdPeriph_Driver/src/stm32f10x_i2c.c ****   I2Cx->SR1 = (uint16_t)~flagpos;
 2395              		.loc 1 1137 15
 2396 0016 FB68     		ldr	r3, [r7, #12]
 2397 0018 9BB2     		uxth	r3, r3
 2398 001a DB43     		mvns	r3, r3
 2399 001c 9AB2     		uxth	r2, r3
 2400              		.loc 1 1137 13
 2401 001e 7B68     		ldr	r3, [r7, #4]
 2402 0020 9A82     		strh	r2, [r3, #20]	@ movhi
1138:common/lib.stm32/STM32F10x_StdPeriph_Driver/src/stm32f10x_i2c.c **** }
 2403              		.loc 1 1138 1
 2404 0022 00BF     		nop
 2405 0024 1437     		adds	r7, r7, #20
 2406              	.LCFI187:
 2407              		.cfi_def_cfa_offset 4
 2408 0026 BD46     		mov	sp, r7
 2409              	.LCFI188:
 2410              		.cfi_def_cfa_register 13
 2411              		@ sp needed
 2412 0028 80BC     		pop	{r7}
 2413              	.LCFI189:
 2414              		.cfi_restore 7
 2415              		.cfi_def_cfa_offset 0
 2416 002a 7047     		bx	lr
 2417              		.cfi_endproc
 2418              	.LFE58:
 2420              		.text
 2421              	.Letext0:
 2422              		.file 2 "c:\\program files (x86)\\gnu arm embedded toolchain\\10 2021.10\\arm-none-eabi\\include\\
 2423              		.file 3 "c:\\program files (x86)\\gnu arm embedded toolchain\\10 2021.10\\arm-none-eabi\\include\\
 2424              		.file 4 "common/lib.stm32/CMSIS/Core/CM3/stm32f10x.h"
 2425              		.file 5 "common/lib.stm32/STM32F10x_StdPeriph_Driver/inc/stm32f10x_rcc.h"
 2426              		.file 6 "common/lib.stm32/STM32F10x_StdPeriph_Driver/inc/stm32f10x_i2c.h"