   1              		.cpu cortex-m3
   2              		.arch armv7-m
   3              		.fpu softvfp
   4              		.eabi_attribute 20, 1
   5              		.eabi_attribute 21, 1
   6              		.eabi_attribute 23, 3
   7              		.eabi_attribute 24, 1
   8              		.eabi_attribute 25, 1
   9              		.eabi_attribute 26, 1
  10              		.eabi_attribute 30, 6
  11              		.eabi_attribute 34, 1
  12              		.eabi_attribute 18, 4
  13              		.file	"stm32f10x_tim.c"
  14              		.text
  15              	.Ltext0:
  16              		.cfi_sections	.debug_frame
  17              		.section	.text.TIM_DeInit,"ax",%progbits
  18              		.align	1
  19              		.global	TIM_DeInit
  20              		.syntax unified
  21              		.thumb
  22              		.thumb_func
  24              	TIM_DeInit:
  25              	.LFB27:
  26              		.file 1 "common/lib.stm32/STM32F10x_StdPeriph_Driver/src/stm32f10x_tim.c"
   1:common/lib.stm32/STM32F10x_StdPeriph_Driver/src/stm32f10x_tim.c **** /**
   2:common/lib.stm32/STM32F10x_StdPeriph_Driver/src/stm32f10x_tim.c ****   ******************************************************************************
   3:common/lib.stm32/STM32F10x_StdPeriph_Driver/src/stm32f10x_tim.c ****   * @file    stm32f10x_tim.c
   4:common/lib.stm32/STM32F10x_StdPeriph_Driver/src/stm32f10x_tim.c ****   * @author  MCD Application Team
   5:common/lib.stm32/STM32F10x_StdPeriph_Driver/src/stm32f10x_tim.c ****   * @version V3.1.2
   6:common/lib.stm32/STM32F10x_StdPeriph_Driver/src/stm32f10x_tim.c ****   * @date    09/28/2009
   7:common/lib.stm32/STM32F10x_StdPeriph_Driver/src/stm32f10x_tim.c ****   * @brief   This file provides all the TIM firmware functions.
   8:common/lib.stm32/STM32F10x_StdPeriph_Driver/src/stm32f10x_tim.c ****   ******************************************************************************
   9:common/lib.stm32/STM32F10x_StdPeriph_Driver/src/stm32f10x_tim.c ****   * @copy
  10:common/lib.stm32/STM32F10x_StdPeriph_Driver/src/stm32f10x_tim.c ****   *
  11:common/lib.stm32/STM32F10x_StdPeriph_Driver/src/stm32f10x_tim.c ****   * THE PRESENT FIRMWARE WHICH IS FOR GUIDANCE ONLY AIMS AT PROVIDING CUSTOMERS
  12:common/lib.stm32/STM32F10x_StdPeriph_Driver/src/stm32f10x_tim.c ****   * WITH CODING INFORMATION REGARDING THEIR PRODUCTS IN ORDER FOR THEM TO SAVE
  13:common/lib.stm32/STM32F10x_StdPeriph_Driver/src/stm32f10x_tim.c ****   * TIME. AS A RESULT, STMICROELECTRONICS SHALL NOT BE HELD LIABLE FOR ANY
  14:common/lib.stm32/STM32F10x_StdPeriph_Driver/src/stm32f10x_tim.c ****   * DIRECT, INDIRECT OR CONSEQUENTIAL DAMAGES WITH RESPECT TO ANY CLAIMS ARISING
  15:common/lib.stm32/STM32F10x_StdPeriph_Driver/src/stm32f10x_tim.c ****   * FROM THE CONTENT OF SUCH FIRMWARE AND/OR THE USE MADE BY CUSTOMERS OF THE
  16:common/lib.stm32/STM32F10x_StdPeriph_Driver/src/stm32f10x_tim.c ****   * CODING INFORMATION CONTAINED HEREIN IN CONNECTION WITH THEIR PRODUCTS.
  17:common/lib.stm32/STM32F10x_StdPeriph_Driver/src/stm32f10x_tim.c ****   *
  18:common/lib.stm32/STM32F10x_StdPeriph_Driver/src/stm32f10x_tim.c ****   * <h2><center>&copy; COPYRIGHT 2009 STMicroelectronics</center></h2>
  19:common/lib.stm32/STM32F10x_StdPeriph_Driver/src/stm32f10x_tim.c ****   */ 
  20:common/lib.stm32/STM32F10x_StdPeriph_Driver/src/stm32f10x_tim.c **** 
  21:common/lib.stm32/STM32F10x_StdPeriph_Driver/src/stm32f10x_tim.c **** /* Includes ------------------------------------------------------------------*/
  22:common/lib.stm32/STM32F10x_StdPeriph_Driver/src/stm32f10x_tim.c **** #include "stm32f10x_tim.h"
  23:common/lib.stm32/STM32F10x_StdPeriph_Driver/src/stm32f10x_tim.c **** #include "stm32f10x_rcc.h"
  24:common/lib.stm32/STM32F10x_StdPeriph_Driver/src/stm32f10x_tim.c **** 
  25:common/lib.stm32/STM32F10x_StdPeriph_Driver/src/stm32f10x_tim.c **** /** @addtogroup STM32F10x_StdPeriph_Driver
  26:common/lib.stm32/STM32F10x_StdPeriph_Driver/src/stm32f10x_tim.c ****   * @{
  27:common/lib.stm32/STM32F10x_StdPeriph_Driver/src/stm32f10x_tim.c ****   */
  28:common/lib.stm32/STM32F10x_StdPeriph_Driver/src/stm32f10x_tim.c **** 
  29:common/lib.stm32/STM32F10x_StdPeriph_Driver/src/stm32f10x_tim.c **** /** @defgroup TIM 
  30:common/lib.stm32/STM32F10x_StdPeriph_Driver/src/stm32f10x_tim.c ****   * @brief TIM driver modules
  31:common/lib.stm32/STM32F10x_StdPeriph_Driver/src/stm32f10x_tim.c ****   * @{
  32:common/lib.stm32/STM32F10x_StdPeriph_Driver/src/stm32f10x_tim.c ****   */
  33:common/lib.stm32/STM32F10x_StdPeriph_Driver/src/stm32f10x_tim.c **** 
  34:common/lib.stm32/STM32F10x_StdPeriph_Driver/src/stm32f10x_tim.c **** /** @defgroup TIM_Private_TypesDefinitions
  35:common/lib.stm32/STM32F10x_StdPeriph_Driver/src/stm32f10x_tim.c ****   * @{
  36:common/lib.stm32/STM32F10x_StdPeriph_Driver/src/stm32f10x_tim.c ****   */
  37:common/lib.stm32/STM32F10x_StdPeriph_Driver/src/stm32f10x_tim.c **** 
  38:common/lib.stm32/STM32F10x_StdPeriph_Driver/src/stm32f10x_tim.c **** /**
  39:common/lib.stm32/STM32F10x_StdPeriph_Driver/src/stm32f10x_tim.c ****   * @}
  40:common/lib.stm32/STM32F10x_StdPeriph_Driver/src/stm32f10x_tim.c ****   */
  41:common/lib.stm32/STM32F10x_StdPeriph_Driver/src/stm32f10x_tim.c **** 
  42:common/lib.stm32/STM32F10x_StdPeriph_Driver/src/stm32f10x_tim.c **** /** @defgroup TIM_Private_Defines
  43:common/lib.stm32/STM32F10x_StdPeriph_Driver/src/stm32f10x_tim.c ****   * @{
  44:common/lib.stm32/STM32F10x_StdPeriph_Driver/src/stm32f10x_tim.c ****   */
  45:common/lib.stm32/STM32F10x_StdPeriph_Driver/src/stm32f10x_tim.c **** 
  46:common/lib.stm32/STM32F10x_StdPeriph_Driver/src/stm32f10x_tim.c **** /* ---------------------- TIM registers bit mask ------------------------ */
  47:common/lib.stm32/STM32F10x_StdPeriph_Driver/src/stm32f10x_tim.c **** #define CR1_CEN_Set                 ((uint16_t)0x0001)
  48:common/lib.stm32/STM32F10x_StdPeriph_Driver/src/stm32f10x_tim.c **** #define CR1_CEN_Reset               ((uint16_t)0x03FE)
  49:common/lib.stm32/STM32F10x_StdPeriph_Driver/src/stm32f10x_tim.c **** #define CR1_UDIS_Set                ((uint16_t)0x0002)
  50:common/lib.stm32/STM32F10x_StdPeriph_Driver/src/stm32f10x_tim.c **** #define CR1_UDIS_Reset              ((uint16_t)0x03FD)
  51:common/lib.stm32/STM32F10x_StdPeriph_Driver/src/stm32f10x_tim.c **** #define CR1_URS_Set                 ((uint16_t)0x0004)
  52:common/lib.stm32/STM32F10x_StdPeriph_Driver/src/stm32f10x_tim.c **** #define CR1_URS_Reset               ((uint16_t)0x03FB)
  53:common/lib.stm32/STM32F10x_StdPeriph_Driver/src/stm32f10x_tim.c **** #define CR1_OPM_Reset               ((uint16_t)0x03F7)
  54:common/lib.stm32/STM32F10x_StdPeriph_Driver/src/stm32f10x_tim.c **** #define CR1_CounterMode_Mask        ((uint16_t)0x038F)
  55:common/lib.stm32/STM32F10x_StdPeriph_Driver/src/stm32f10x_tim.c **** #define CR1_ARPE_Set                ((uint16_t)0x0080)
  56:common/lib.stm32/STM32F10x_StdPeriph_Driver/src/stm32f10x_tim.c **** #define CR1_ARPE_Reset              ((uint16_t)0x037F)
  57:common/lib.stm32/STM32F10x_StdPeriph_Driver/src/stm32f10x_tim.c **** #define CR1_CKD_Mask                ((uint16_t)0x00FF)
  58:common/lib.stm32/STM32F10x_StdPeriph_Driver/src/stm32f10x_tim.c **** #define CR2_CCPC_Set                ((uint16_t)0x0001)
  59:common/lib.stm32/STM32F10x_StdPeriph_Driver/src/stm32f10x_tim.c **** #define CR2_CCPC_Reset              ((uint16_t)0xFFFE)
  60:common/lib.stm32/STM32F10x_StdPeriph_Driver/src/stm32f10x_tim.c **** #define CR2_CCUS_Set                ((uint16_t)0x0004)
  61:common/lib.stm32/STM32F10x_StdPeriph_Driver/src/stm32f10x_tim.c **** #define CR2_CCUS_Reset              ((uint16_t)0xFFFB)
  62:common/lib.stm32/STM32F10x_StdPeriph_Driver/src/stm32f10x_tim.c **** #define CR2_CCDS_Set                ((uint16_t)0x0008)
  63:common/lib.stm32/STM32F10x_StdPeriph_Driver/src/stm32f10x_tim.c **** #define CR2_CCDS_Reset              ((uint16_t)0xFFF7)
  64:common/lib.stm32/STM32F10x_StdPeriph_Driver/src/stm32f10x_tim.c **** #define CR2_MMS_Mask                ((uint16_t)0xFF8F)
  65:common/lib.stm32/STM32F10x_StdPeriph_Driver/src/stm32f10x_tim.c **** #define CR2_TI1S_Set                ((uint16_t)0x0080)
  66:common/lib.stm32/STM32F10x_StdPeriph_Driver/src/stm32f10x_tim.c **** #define CR2_TI1S_Reset              ((uint16_t)0xFF7F)
  67:common/lib.stm32/STM32F10x_StdPeriph_Driver/src/stm32f10x_tim.c **** #define CR2_OIS1_Reset              ((uint16_t)0x7EFF)
  68:common/lib.stm32/STM32F10x_StdPeriph_Driver/src/stm32f10x_tim.c **** #define CR2_OIS1N_Reset             ((uint16_t)0x7DFF)
  69:common/lib.stm32/STM32F10x_StdPeriph_Driver/src/stm32f10x_tim.c **** #define CR2_OIS2_Reset              ((uint16_t)0x7BFF)
  70:common/lib.stm32/STM32F10x_StdPeriph_Driver/src/stm32f10x_tim.c **** #define CR2_OIS2N_Reset             ((uint16_t)0x77FF)
  71:common/lib.stm32/STM32F10x_StdPeriph_Driver/src/stm32f10x_tim.c **** #define CR2_OIS3_Reset              ((uint16_t)0x6FFF)
  72:common/lib.stm32/STM32F10x_StdPeriph_Driver/src/stm32f10x_tim.c **** #define CR2_OIS3N_Reset             ((uint16_t)0x5FFF)
  73:common/lib.stm32/STM32F10x_StdPeriph_Driver/src/stm32f10x_tim.c **** #define CR2_OIS4_Reset              ((uint16_t)0x3FFF)
  74:common/lib.stm32/STM32F10x_StdPeriph_Driver/src/stm32f10x_tim.c **** #define SMCR_SMS_Mask               ((uint16_t)0xFFF8)
  75:common/lib.stm32/STM32F10x_StdPeriph_Driver/src/stm32f10x_tim.c **** #define SMCR_ETR_Mask               ((uint16_t)0x00FF)
  76:common/lib.stm32/STM32F10x_StdPeriph_Driver/src/stm32f10x_tim.c **** #define SMCR_TS_Mask                ((uint16_t)0xFF8F)
  77:common/lib.stm32/STM32F10x_StdPeriph_Driver/src/stm32f10x_tim.c **** #define SMCR_MSM_Reset              ((uint16_t)0xFF7F)
  78:common/lib.stm32/STM32F10x_StdPeriph_Driver/src/stm32f10x_tim.c **** #define SMCR_ECE_Set                ((uint16_t)0x4000)
  79:common/lib.stm32/STM32F10x_StdPeriph_Driver/src/stm32f10x_tim.c **** #define CCMR_CC13S_Mask             ((uint16_t)0xFFFC)
  80:common/lib.stm32/STM32F10x_StdPeriph_Driver/src/stm32f10x_tim.c **** #define CCMR_CC24S_Mask             ((uint16_t)0xFCFF)
  81:common/lib.stm32/STM32F10x_StdPeriph_Driver/src/stm32f10x_tim.c **** #define CCMR_TI13Direct_Set         ((uint16_t)0x0001)
  82:common/lib.stm32/STM32F10x_StdPeriph_Driver/src/stm32f10x_tim.c **** #define CCMR_TI24Direct_Set         ((uint16_t)0x0100)
  83:common/lib.stm32/STM32F10x_StdPeriph_Driver/src/stm32f10x_tim.c **** #define CCMR_OC13FE_Reset           ((uint16_t)0xFFFB)
  84:common/lib.stm32/STM32F10x_StdPeriph_Driver/src/stm32f10x_tim.c **** #define CCMR_OC24FE_Reset           ((uint16_t)0xFBFF)
  85:common/lib.stm32/STM32F10x_StdPeriph_Driver/src/stm32f10x_tim.c **** #define CCMR_OC13PE_Reset           ((uint16_t)0xFFF7)
  86:common/lib.stm32/STM32F10x_StdPeriph_Driver/src/stm32f10x_tim.c **** #define CCMR_OC24PE_Reset           ((uint16_t)0xF7FF)
  87:common/lib.stm32/STM32F10x_StdPeriph_Driver/src/stm32f10x_tim.c **** #define CCMR_OC13M_Mask             ((uint16_t)0xFF8F)
  88:common/lib.stm32/STM32F10x_StdPeriph_Driver/src/stm32f10x_tim.c **** #define CCMR_OC24M_Mask             ((uint16_t)0x8FFF) 
  89:common/lib.stm32/STM32F10x_StdPeriph_Driver/src/stm32f10x_tim.c **** #define CCMR_OC13CE_Reset           ((uint16_t)0xFF7F)
  90:common/lib.stm32/STM32F10x_StdPeriph_Driver/src/stm32f10x_tim.c **** #define CCMR_OC24CE_Reset           ((uint16_t)0x7FFF)
  91:common/lib.stm32/STM32F10x_StdPeriph_Driver/src/stm32f10x_tim.c **** #define CCMR_IC13PSC_Mask           ((uint16_t)0xFFF3)
  92:common/lib.stm32/STM32F10x_StdPeriph_Driver/src/stm32f10x_tim.c **** #define CCMR_IC24PSC_Mask           ((uint16_t)0xF3FF)
  93:common/lib.stm32/STM32F10x_StdPeriph_Driver/src/stm32f10x_tim.c **** #define CCMR_IC13F_Mask             ((uint16_t)0xFF0F)
  94:common/lib.stm32/STM32F10x_StdPeriph_Driver/src/stm32f10x_tim.c **** #define CCMR_IC24F_Mask             ((uint16_t)0x0FFF)
  95:common/lib.stm32/STM32F10x_StdPeriph_Driver/src/stm32f10x_tim.c **** #define CCMR_Offset                 ((uint16_t)0x0018)
  96:common/lib.stm32/STM32F10x_StdPeriph_Driver/src/stm32f10x_tim.c **** #define CCER_CCE_Set                ((uint16_t)0x0001)
  97:common/lib.stm32/STM32F10x_StdPeriph_Driver/src/stm32f10x_tim.c **** #define	CCER_CCNE_Set               ((uint16_t)0x0004)
  98:common/lib.stm32/STM32F10x_StdPeriph_Driver/src/stm32f10x_tim.c **** #define CCER_CC1P_Reset             ((uint16_t)0xFFFD)
  99:common/lib.stm32/STM32F10x_StdPeriph_Driver/src/stm32f10x_tim.c **** #define CCER_CC2P_Reset             ((uint16_t)0xFFDF)
 100:common/lib.stm32/STM32F10x_StdPeriph_Driver/src/stm32f10x_tim.c **** #define CCER_CC3P_Reset             ((uint16_t)0xFDFF)
 101:common/lib.stm32/STM32F10x_StdPeriph_Driver/src/stm32f10x_tim.c **** #define CCER_CC4P_Reset             ((uint16_t)0xDFFF)
 102:common/lib.stm32/STM32F10x_StdPeriph_Driver/src/stm32f10x_tim.c **** #define CCER_CC1NP_Reset            ((uint16_t)0xFFF7)
 103:common/lib.stm32/STM32F10x_StdPeriph_Driver/src/stm32f10x_tim.c **** #define CCER_CC2NP_Reset            ((uint16_t)0xFF7F)
 104:common/lib.stm32/STM32F10x_StdPeriph_Driver/src/stm32f10x_tim.c **** #define CCER_CC3NP_Reset            ((uint16_t)0xF7FF)
 105:common/lib.stm32/STM32F10x_StdPeriph_Driver/src/stm32f10x_tim.c **** #define CCER_CC1E_Set               ((uint16_t)0x0001)
 106:common/lib.stm32/STM32F10x_StdPeriph_Driver/src/stm32f10x_tim.c **** #define CCER_CC1E_Reset             ((uint16_t)0xFFFE)
 107:common/lib.stm32/STM32F10x_StdPeriph_Driver/src/stm32f10x_tim.c **** #define CCER_CC1NE_Reset            ((uint16_t)0xFFFB)
 108:common/lib.stm32/STM32F10x_StdPeriph_Driver/src/stm32f10x_tim.c **** #define CCER_CC2E_Set               ((uint16_t)0x0010)
 109:common/lib.stm32/STM32F10x_StdPeriph_Driver/src/stm32f10x_tim.c **** #define CCER_CC2E_Reset             ((uint16_t)0xFFEF)
 110:common/lib.stm32/STM32F10x_StdPeriph_Driver/src/stm32f10x_tim.c **** #define CCER_CC2NE_Reset            ((uint16_t)0xFFBF)
 111:common/lib.stm32/STM32F10x_StdPeriph_Driver/src/stm32f10x_tim.c **** #define CCER_CC3E_Set               ((uint16_t)0x0100)
 112:common/lib.stm32/STM32F10x_StdPeriph_Driver/src/stm32f10x_tim.c **** #define CCER_CC3E_Reset             ((uint16_t)0xFEFF)
 113:common/lib.stm32/STM32F10x_StdPeriph_Driver/src/stm32f10x_tim.c **** #define CCER_CC3NE_Reset            ((uint16_t)0xFBFF)
 114:common/lib.stm32/STM32F10x_StdPeriph_Driver/src/stm32f10x_tim.c **** #define CCER_CC4E_Set               ((uint16_t)0x1000)
 115:common/lib.stm32/STM32F10x_StdPeriph_Driver/src/stm32f10x_tim.c **** #define CCER_CC4E_Reset             ((uint16_t)0xEFFF)
 116:common/lib.stm32/STM32F10x_StdPeriph_Driver/src/stm32f10x_tim.c **** #define BDTR_MOE_Set                ((uint16_t)0x8000)
 117:common/lib.stm32/STM32F10x_StdPeriph_Driver/src/stm32f10x_tim.c **** #define BDTR_MOE_Reset              ((uint16_t)0x7FFF)
 118:common/lib.stm32/STM32F10x_StdPeriph_Driver/src/stm32f10x_tim.c **** /**
 119:common/lib.stm32/STM32F10x_StdPeriph_Driver/src/stm32f10x_tim.c ****   * @}
 120:common/lib.stm32/STM32F10x_StdPeriph_Driver/src/stm32f10x_tim.c ****   */
 121:common/lib.stm32/STM32F10x_StdPeriph_Driver/src/stm32f10x_tim.c **** 
 122:common/lib.stm32/STM32F10x_StdPeriph_Driver/src/stm32f10x_tim.c **** /** @defgroup TIM_Private_Macros
 123:common/lib.stm32/STM32F10x_StdPeriph_Driver/src/stm32f10x_tim.c ****   * @{
 124:common/lib.stm32/STM32F10x_StdPeriph_Driver/src/stm32f10x_tim.c ****   */
 125:common/lib.stm32/STM32F10x_StdPeriph_Driver/src/stm32f10x_tim.c **** 
 126:common/lib.stm32/STM32F10x_StdPeriph_Driver/src/stm32f10x_tim.c **** /**
 127:common/lib.stm32/STM32F10x_StdPeriph_Driver/src/stm32f10x_tim.c ****   * @}
 128:common/lib.stm32/STM32F10x_StdPeriph_Driver/src/stm32f10x_tim.c ****   */
 129:common/lib.stm32/STM32F10x_StdPeriph_Driver/src/stm32f10x_tim.c **** 
 130:common/lib.stm32/STM32F10x_StdPeriph_Driver/src/stm32f10x_tim.c **** /** @defgroup TIM_Private_Variables
 131:common/lib.stm32/STM32F10x_StdPeriph_Driver/src/stm32f10x_tim.c ****   * @{
 132:common/lib.stm32/STM32F10x_StdPeriph_Driver/src/stm32f10x_tim.c ****   */
 133:common/lib.stm32/STM32F10x_StdPeriph_Driver/src/stm32f10x_tim.c **** 
 134:common/lib.stm32/STM32F10x_StdPeriph_Driver/src/stm32f10x_tim.c **** /**
 135:common/lib.stm32/STM32F10x_StdPeriph_Driver/src/stm32f10x_tim.c ****   * @}
 136:common/lib.stm32/STM32F10x_StdPeriph_Driver/src/stm32f10x_tim.c ****   */
 137:common/lib.stm32/STM32F10x_StdPeriph_Driver/src/stm32f10x_tim.c **** 
 138:common/lib.stm32/STM32F10x_StdPeriph_Driver/src/stm32f10x_tim.c **** /** @defgroup TIM_Private_FunctionPrototypes
 139:common/lib.stm32/STM32F10x_StdPeriph_Driver/src/stm32f10x_tim.c ****   * @{
 140:common/lib.stm32/STM32F10x_StdPeriph_Driver/src/stm32f10x_tim.c ****   */
 141:common/lib.stm32/STM32F10x_StdPeriph_Driver/src/stm32f10x_tim.c **** 
 142:common/lib.stm32/STM32F10x_StdPeriph_Driver/src/stm32f10x_tim.c **** static void TI1_Config(TIM_TypeDef* TIMx, uint16_t TIM_ICPolarity, uint16_t TIM_ICSelection,
 143:common/lib.stm32/STM32F10x_StdPeriph_Driver/src/stm32f10x_tim.c ****                        uint16_t TIM_ICFilter);
 144:common/lib.stm32/STM32F10x_StdPeriph_Driver/src/stm32f10x_tim.c **** static void TI2_Config(TIM_TypeDef* TIMx, uint16_t TIM_ICPolarity, uint16_t TIM_ICSelection,
 145:common/lib.stm32/STM32F10x_StdPeriph_Driver/src/stm32f10x_tim.c ****                        uint16_t TIM_ICFilter);
 146:common/lib.stm32/STM32F10x_StdPeriph_Driver/src/stm32f10x_tim.c **** static void TI3_Config(TIM_TypeDef* TIMx, uint16_t TIM_ICPolarity, uint16_t TIM_ICSelection,
 147:common/lib.stm32/STM32F10x_StdPeriph_Driver/src/stm32f10x_tim.c ****                        uint16_t TIM_ICFilter);
 148:common/lib.stm32/STM32F10x_StdPeriph_Driver/src/stm32f10x_tim.c **** static void TI4_Config(TIM_TypeDef* TIMx, uint16_t TIM_ICPolarity, uint16_t TIM_ICSelection,
 149:common/lib.stm32/STM32F10x_StdPeriph_Driver/src/stm32f10x_tim.c ****                        uint16_t TIM_ICFilter);
 150:common/lib.stm32/STM32F10x_StdPeriph_Driver/src/stm32f10x_tim.c **** /**
 151:common/lib.stm32/STM32F10x_StdPeriph_Driver/src/stm32f10x_tim.c ****   * @}
 152:common/lib.stm32/STM32F10x_StdPeriph_Driver/src/stm32f10x_tim.c ****   */
 153:common/lib.stm32/STM32F10x_StdPeriph_Driver/src/stm32f10x_tim.c **** 
 154:common/lib.stm32/STM32F10x_StdPeriph_Driver/src/stm32f10x_tim.c **** /** @defgroup TIM_Private_Macros
 155:common/lib.stm32/STM32F10x_StdPeriph_Driver/src/stm32f10x_tim.c ****   * @{
 156:common/lib.stm32/STM32F10x_StdPeriph_Driver/src/stm32f10x_tim.c ****   */
 157:common/lib.stm32/STM32F10x_StdPeriph_Driver/src/stm32f10x_tim.c **** 
 158:common/lib.stm32/STM32F10x_StdPeriph_Driver/src/stm32f10x_tim.c **** /**
 159:common/lib.stm32/STM32F10x_StdPeriph_Driver/src/stm32f10x_tim.c ****   * @}
 160:common/lib.stm32/STM32F10x_StdPeriph_Driver/src/stm32f10x_tim.c ****   */
 161:common/lib.stm32/STM32F10x_StdPeriph_Driver/src/stm32f10x_tim.c **** 
 162:common/lib.stm32/STM32F10x_StdPeriph_Driver/src/stm32f10x_tim.c **** /** @defgroup TIM_Private_Variables
 163:common/lib.stm32/STM32F10x_StdPeriph_Driver/src/stm32f10x_tim.c ****   * @{
 164:common/lib.stm32/STM32F10x_StdPeriph_Driver/src/stm32f10x_tim.c ****   */
 165:common/lib.stm32/STM32F10x_StdPeriph_Driver/src/stm32f10x_tim.c **** 
 166:common/lib.stm32/STM32F10x_StdPeriph_Driver/src/stm32f10x_tim.c **** /**
 167:common/lib.stm32/STM32F10x_StdPeriph_Driver/src/stm32f10x_tim.c ****   * @}
 168:common/lib.stm32/STM32F10x_StdPeriph_Driver/src/stm32f10x_tim.c ****   */
 169:common/lib.stm32/STM32F10x_StdPeriph_Driver/src/stm32f10x_tim.c **** 
 170:common/lib.stm32/STM32F10x_StdPeriph_Driver/src/stm32f10x_tim.c **** /** @defgroup TIM_Private_FunctionPrototypes
 171:common/lib.stm32/STM32F10x_StdPeriph_Driver/src/stm32f10x_tim.c ****   * @{
 172:common/lib.stm32/STM32F10x_StdPeriph_Driver/src/stm32f10x_tim.c ****   */
 173:common/lib.stm32/STM32F10x_StdPeriph_Driver/src/stm32f10x_tim.c **** 
 174:common/lib.stm32/STM32F10x_StdPeriph_Driver/src/stm32f10x_tim.c **** /**
 175:common/lib.stm32/STM32F10x_StdPeriph_Driver/src/stm32f10x_tim.c ****   * @}
 176:common/lib.stm32/STM32F10x_StdPeriph_Driver/src/stm32f10x_tim.c ****   */
 177:common/lib.stm32/STM32F10x_StdPeriph_Driver/src/stm32f10x_tim.c **** 
 178:common/lib.stm32/STM32F10x_StdPeriph_Driver/src/stm32f10x_tim.c **** /** @defgroup TIM_Private_Functions
 179:common/lib.stm32/STM32F10x_StdPeriph_Driver/src/stm32f10x_tim.c ****   * @{
 180:common/lib.stm32/STM32F10x_StdPeriph_Driver/src/stm32f10x_tim.c ****   */
 181:common/lib.stm32/STM32F10x_StdPeriph_Driver/src/stm32f10x_tim.c **** 
 182:common/lib.stm32/STM32F10x_StdPeriph_Driver/src/stm32f10x_tim.c **** /**
 183:common/lib.stm32/STM32F10x_StdPeriph_Driver/src/stm32f10x_tim.c ****   * @brief  Deinitializes the TIMx peripheral registers to their default reset values.
 184:common/lib.stm32/STM32F10x_StdPeriph_Driver/src/stm32f10x_tim.c ****   * @param  TIMx: where x can be 1 to 8 to select the TIM peripheral.
 185:common/lib.stm32/STM32F10x_StdPeriph_Driver/src/stm32f10x_tim.c ****   * @retval None
 186:common/lib.stm32/STM32F10x_StdPeriph_Driver/src/stm32f10x_tim.c ****   */
 187:common/lib.stm32/STM32F10x_StdPeriph_Driver/src/stm32f10x_tim.c **** void TIM_DeInit(TIM_TypeDef* TIMx)
 188:common/lib.stm32/STM32F10x_StdPeriph_Driver/src/stm32f10x_tim.c **** {
  27              		.loc 1 188 1
  28              		.cfi_startproc
  29              		@ args = 0, pretend = 0, frame = 8
  30              		@ frame_needed = 1, uses_anonymous_args = 0
  31 0000 80B5     		push	{r7, lr}
  32              	.LCFI0:
  33              		.cfi_def_cfa_offset 8
  34              		.cfi_offset 7, -8
  35              		.cfi_offset 14, -4
  36 0002 82B0     		sub	sp, sp, #8
  37              	.LCFI1:
  38              		.cfi_def_cfa_offset 16
  39 0004 00AF     		add	r7, sp, #0
  40              	.LCFI2:
  41              		.cfi_def_cfa_register 7
  42 0006 7860     		str	r0, [r7, #4]
 189:common/lib.stm32/STM32F10x_StdPeriph_Driver/src/stm32f10x_tim.c ****   /* Check the parameters */
 190:common/lib.stm32/STM32F10x_StdPeriph_Driver/src/stm32f10x_tim.c ****   assert_param(IS_TIM_ALL_PERIPH(TIMx)); 
 191:common/lib.stm32/STM32F10x_StdPeriph_Driver/src/stm32f10x_tim.c ****  
 192:common/lib.stm32/STM32F10x_StdPeriph_Driver/src/stm32f10x_tim.c ****   if (TIMx == TIM1)
  43              		.loc 1 192 6
  44 0008 7B68     		ldr	r3, [r7, #4]
  45 000a 374A     		ldr	r2, .L11
  46 000c 9342     		cmp	r3, r2
  47 000e 0AD1     		bne	.L2
 193:common/lib.stm32/STM32F10x_StdPeriph_Driver/src/stm32f10x_tim.c ****   {
 194:common/lib.stm32/STM32F10x_StdPeriph_Driver/src/stm32f10x_tim.c ****     RCC_APB2PeriphResetCmd(RCC_APB2Periph_TIM1, ENABLE);
  48              		.loc 1 194 5
  49 0010 0121     		movs	r1, #1
  50 0012 4FF40060 		mov	r0, #2048
  51 0016 354B     		ldr	r3, .L11+4
  52 0018 9847     		blx	r3
  53              	.LVL0:
 195:common/lib.stm32/STM32F10x_StdPeriph_Driver/src/stm32f10x_tim.c ****     RCC_APB2PeriphResetCmd(RCC_APB2Periph_TIM1, DISABLE);  
  54              		.loc 1 195 5
  55 001a 0021     		movs	r1, #0
  56 001c 4FF40060 		mov	r0, #2048
  57 0020 324B     		ldr	r3, .L11+4
  58 0022 9847     		blx	r3
  59              	.LVL1:
 196:common/lib.stm32/STM32F10x_StdPeriph_Driver/src/stm32f10x_tim.c ****   }     
 197:common/lib.stm32/STM32F10x_StdPeriph_Driver/src/stm32f10x_tim.c ****   else if (TIMx == TIM2)
 198:common/lib.stm32/STM32F10x_StdPeriph_Driver/src/stm32f10x_tim.c ****   {
 199:common/lib.stm32/STM32F10x_StdPeriph_Driver/src/stm32f10x_tim.c ****     RCC_APB1PeriphResetCmd(RCC_APB1Periph_TIM2, ENABLE);
 200:common/lib.stm32/STM32F10x_StdPeriph_Driver/src/stm32f10x_tim.c ****     RCC_APB1PeriphResetCmd(RCC_APB1Periph_TIM2, DISABLE);
 201:common/lib.stm32/STM32F10x_StdPeriph_Driver/src/stm32f10x_tim.c ****   }
 202:common/lib.stm32/STM32F10x_StdPeriph_Driver/src/stm32f10x_tim.c ****   else if (TIMx == TIM3)
 203:common/lib.stm32/STM32F10x_StdPeriph_Driver/src/stm32f10x_tim.c ****   {
 204:common/lib.stm32/STM32F10x_StdPeriph_Driver/src/stm32f10x_tim.c ****     RCC_APB1PeriphResetCmd(RCC_APB1Periph_TIM3, ENABLE);
 205:common/lib.stm32/STM32F10x_StdPeriph_Driver/src/stm32f10x_tim.c ****     RCC_APB1PeriphResetCmd(RCC_APB1Periph_TIM3, DISABLE);
 206:common/lib.stm32/STM32F10x_StdPeriph_Driver/src/stm32f10x_tim.c ****   }
 207:common/lib.stm32/STM32F10x_StdPeriph_Driver/src/stm32f10x_tim.c ****   else if (TIMx == TIM4)
 208:common/lib.stm32/STM32F10x_StdPeriph_Driver/src/stm32f10x_tim.c ****   {
 209:common/lib.stm32/STM32F10x_StdPeriph_Driver/src/stm32f10x_tim.c ****     RCC_APB1PeriphResetCmd(RCC_APB1Periph_TIM4, ENABLE);
 210:common/lib.stm32/STM32F10x_StdPeriph_Driver/src/stm32f10x_tim.c ****     RCC_APB1PeriphResetCmd(RCC_APB1Periph_TIM4, DISABLE);
 211:common/lib.stm32/STM32F10x_StdPeriph_Driver/src/stm32f10x_tim.c ****   } 
 212:common/lib.stm32/STM32F10x_StdPeriph_Driver/src/stm32f10x_tim.c ****   else if (TIMx == TIM5)
 213:common/lib.stm32/STM32F10x_StdPeriph_Driver/src/stm32f10x_tim.c ****   {
 214:common/lib.stm32/STM32F10x_StdPeriph_Driver/src/stm32f10x_tim.c ****     RCC_APB1PeriphResetCmd(RCC_APB1Periph_TIM5, ENABLE);
 215:common/lib.stm32/STM32F10x_StdPeriph_Driver/src/stm32f10x_tim.c ****     RCC_APB1PeriphResetCmd(RCC_APB1Periph_TIM5, DISABLE);
 216:common/lib.stm32/STM32F10x_StdPeriph_Driver/src/stm32f10x_tim.c ****   } 
 217:common/lib.stm32/STM32F10x_StdPeriph_Driver/src/stm32f10x_tim.c ****   else if (TIMx == TIM6)
 218:common/lib.stm32/STM32F10x_StdPeriph_Driver/src/stm32f10x_tim.c ****   {
 219:common/lib.stm32/STM32F10x_StdPeriph_Driver/src/stm32f10x_tim.c ****     RCC_APB1PeriphResetCmd(RCC_APB1Periph_TIM6, ENABLE);
 220:common/lib.stm32/STM32F10x_StdPeriph_Driver/src/stm32f10x_tim.c ****     RCC_APB1PeriphResetCmd(RCC_APB1Periph_TIM6, DISABLE);
 221:common/lib.stm32/STM32F10x_StdPeriph_Driver/src/stm32f10x_tim.c ****   } 
 222:common/lib.stm32/STM32F10x_StdPeriph_Driver/src/stm32f10x_tim.c ****   else if (TIMx == TIM7)
 223:common/lib.stm32/STM32F10x_StdPeriph_Driver/src/stm32f10x_tim.c ****   {
 224:common/lib.stm32/STM32F10x_StdPeriph_Driver/src/stm32f10x_tim.c ****     RCC_APB1PeriphResetCmd(RCC_APB1Periph_TIM7, ENABLE);
 225:common/lib.stm32/STM32F10x_StdPeriph_Driver/src/stm32f10x_tim.c ****     RCC_APB1PeriphResetCmd(RCC_APB1Periph_TIM7, DISABLE);
 226:common/lib.stm32/STM32F10x_StdPeriph_Driver/src/stm32f10x_tim.c ****   } 
 227:common/lib.stm32/STM32F10x_StdPeriph_Driver/src/stm32f10x_tim.c ****   else
 228:common/lib.stm32/STM32F10x_StdPeriph_Driver/src/stm32f10x_tim.c ****   {
 229:common/lib.stm32/STM32F10x_StdPeriph_Driver/src/stm32f10x_tim.c ****     if (TIMx == TIM8)
 230:common/lib.stm32/STM32F10x_StdPeriph_Driver/src/stm32f10x_tim.c ****     {
 231:common/lib.stm32/STM32F10x_StdPeriph_Driver/src/stm32f10x_tim.c ****       RCC_APB2PeriphResetCmd(RCC_APB2Periph_TIM8, ENABLE);
 232:common/lib.stm32/STM32F10x_StdPeriph_Driver/src/stm32f10x_tim.c ****       RCC_APB2PeriphResetCmd(RCC_APB2Periph_TIM8, DISABLE);
 233:common/lib.stm32/STM32F10x_StdPeriph_Driver/src/stm32f10x_tim.c ****     }  
 234:common/lib.stm32/STM32F10x_StdPeriph_Driver/src/stm32f10x_tim.c ****   }
 235:common/lib.stm32/STM32F10x_StdPeriph_Driver/src/stm32f10x_tim.c **** }
  60              		.loc 1 235 1
  61 0024 5BE0     		b	.L10
  62              	.L2:
 197:common/lib.stm32/STM32F10x_StdPeriph_Driver/src/stm32f10x_tim.c ****   {
  63              		.loc 1 197 11
  64 0026 7B68     		ldr	r3, [r7, #4]
  65 0028 B3F1804F 		cmp	r3, #1073741824
  66 002c 08D1     		bne	.L4
 199:common/lib.stm32/STM32F10x_StdPeriph_Driver/src/stm32f10x_tim.c ****     RCC_APB1PeriphResetCmd(RCC_APB1Periph_TIM2, DISABLE);
  67              		.loc 1 199 5
  68 002e 0121     		movs	r1, #1
  69 0030 0120     		movs	r0, #1
  70 0032 2F4B     		ldr	r3, .L11+8
  71 0034 9847     		blx	r3
  72              	.LVL2:
 200:common/lib.stm32/STM32F10x_StdPeriph_Driver/src/stm32f10x_tim.c ****   }
  73              		.loc 1 200 5
  74 0036 0021     		movs	r1, #0
  75 0038 0120     		movs	r0, #1
  76 003a 2D4B     		ldr	r3, .L11+8
  77 003c 9847     		blx	r3
  78              	.LVL3:
  79              		.loc 1 235 1
  80 003e 4EE0     		b	.L10
  81              	.L4:
 202:common/lib.stm32/STM32F10x_StdPeriph_Driver/src/stm32f10x_tim.c ****   {
  82              		.loc 1 202 11
  83 0040 7B68     		ldr	r3, [r7, #4]
  84 0042 2C4A     		ldr	r2, .L11+12
  85 0044 9342     		cmp	r3, r2
  86 0046 08D1     		bne	.L5
 204:common/lib.stm32/STM32F10x_StdPeriph_Driver/src/stm32f10x_tim.c ****     RCC_APB1PeriphResetCmd(RCC_APB1Periph_TIM3, DISABLE);
  87              		.loc 1 204 5
  88 0048 0121     		movs	r1, #1
  89 004a 0220     		movs	r0, #2
  90 004c 284B     		ldr	r3, .L11+8
  91 004e 9847     		blx	r3
  92              	.LVL4:
 205:common/lib.stm32/STM32F10x_StdPeriph_Driver/src/stm32f10x_tim.c ****   }
  93              		.loc 1 205 5
  94 0050 0021     		movs	r1, #0
  95 0052 0220     		movs	r0, #2
  96 0054 264B     		ldr	r3, .L11+8
  97 0056 9847     		blx	r3
  98              	.LVL5:
  99              		.loc 1 235 1
 100 0058 41E0     		b	.L10
 101              	.L5:
 207:common/lib.stm32/STM32F10x_StdPeriph_Driver/src/stm32f10x_tim.c ****   {
 102              		.loc 1 207 11
 103 005a 7B68     		ldr	r3, [r7, #4]
 104 005c 264A     		ldr	r2, .L11+16
 105 005e 9342     		cmp	r3, r2
 106 0060 08D1     		bne	.L6
 209:common/lib.stm32/STM32F10x_StdPeriph_Driver/src/stm32f10x_tim.c ****     RCC_APB1PeriphResetCmd(RCC_APB1Periph_TIM4, DISABLE);
 107              		.loc 1 209 5
 108 0062 0121     		movs	r1, #1
 109 0064 0420     		movs	r0, #4
 110 0066 224B     		ldr	r3, .L11+8
 111 0068 9847     		blx	r3
 112              	.LVL6:
 210:common/lib.stm32/STM32F10x_StdPeriph_Driver/src/stm32f10x_tim.c ****   } 
 113              		.loc 1 210 5
 114 006a 0021     		movs	r1, #0
 115 006c 0420     		movs	r0, #4
 116 006e 204B     		ldr	r3, .L11+8
 117 0070 9847     		blx	r3
 118              	.LVL7:
 119              		.loc 1 235 1
 120 0072 34E0     		b	.L10
 121              	.L6:
 212:common/lib.stm32/STM32F10x_StdPeriph_Driver/src/stm32f10x_tim.c ****   {
 122              		.loc 1 212 11
 123 0074 7B68     		ldr	r3, [r7, #4]
 124 0076 214A     		ldr	r2, .L11+20
 125 0078 9342     		cmp	r3, r2
 126 007a 08D1     		bne	.L7
 214:common/lib.stm32/STM32F10x_StdPeriph_Driver/src/stm32f10x_tim.c ****     RCC_APB1PeriphResetCmd(RCC_APB1Periph_TIM5, DISABLE);
 127              		.loc 1 214 5
 128 007c 0121     		movs	r1, #1
 129 007e 0820     		movs	r0, #8
 130 0080 1B4B     		ldr	r3, .L11+8
 131 0082 9847     		blx	r3
 132              	.LVL8:
 215:common/lib.stm32/STM32F10x_StdPeriph_Driver/src/stm32f10x_tim.c ****   } 
 133              		.loc 1 215 5
 134 0084 0021     		movs	r1, #0
 135 0086 0820     		movs	r0, #8
 136 0088 194B     		ldr	r3, .L11+8
 137 008a 9847     		blx	r3
 138              	.LVL9:
 139              		.loc 1 235 1
 140 008c 27E0     		b	.L10
 141              	.L7:
 217:common/lib.stm32/STM32F10x_StdPeriph_Driver/src/stm32f10x_tim.c ****   {
 142              		.loc 1 217 11
 143 008e 7B68     		ldr	r3, [r7, #4]
 144 0090 1B4A     		ldr	r2, .L11+24
 145 0092 9342     		cmp	r3, r2
 146 0094 08D1     		bne	.L8
 219:common/lib.stm32/STM32F10x_StdPeriph_Driver/src/stm32f10x_tim.c ****     RCC_APB1PeriphResetCmd(RCC_APB1Periph_TIM6, DISABLE);
 147              		.loc 1 219 5
 148 0096 0121     		movs	r1, #1
 149 0098 1020     		movs	r0, #16
 150 009a 154B     		ldr	r3, .L11+8
 151 009c 9847     		blx	r3
 152              	.LVL10:
 220:common/lib.stm32/STM32F10x_StdPeriph_Driver/src/stm32f10x_tim.c ****   } 
 153              		.loc 1 220 5
 154 009e 0021     		movs	r1, #0
 155 00a0 1020     		movs	r0, #16
 156 00a2 134B     		ldr	r3, .L11+8
 157 00a4 9847     		blx	r3
 158              	.LVL11:
 159              		.loc 1 235 1
 160 00a6 1AE0     		b	.L10
 161              	.L8:
 222:common/lib.stm32/STM32F10x_StdPeriph_Driver/src/stm32f10x_tim.c ****   {
 162              		.loc 1 222 11
 163 00a8 7B68     		ldr	r3, [r7, #4]
 164 00aa 164A     		ldr	r2, .L11+28
 165 00ac 9342     		cmp	r3, r2
 166 00ae 08D1     		bne	.L9
 224:common/lib.stm32/STM32F10x_StdPeriph_Driver/src/stm32f10x_tim.c ****     RCC_APB1PeriphResetCmd(RCC_APB1Periph_TIM7, DISABLE);
 167              		.loc 1 224 5
 168 00b0 0121     		movs	r1, #1
 169 00b2 2020     		movs	r0, #32
 170 00b4 0E4B     		ldr	r3, .L11+8
 171 00b6 9847     		blx	r3
 172              	.LVL12:
 225:common/lib.stm32/STM32F10x_StdPeriph_Driver/src/stm32f10x_tim.c ****   } 
 173              		.loc 1 225 5
 174 00b8 0021     		movs	r1, #0
 175 00ba 2020     		movs	r0, #32
 176 00bc 0C4B     		ldr	r3, .L11+8
 177 00be 9847     		blx	r3
 178              	.LVL13:
 179              		.loc 1 235 1
 180 00c0 0DE0     		b	.L10
 181              	.L9:
 229:common/lib.stm32/STM32F10x_StdPeriph_Driver/src/stm32f10x_tim.c ****     {
 182              		.loc 1 229 8
 183 00c2 7B68     		ldr	r3, [r7, #4]
 184 00c4 104A     		ldr	r2, .L11+32
 185 00c6 9342     		cmp	r3, r2
 186 00c8 09D1     		bne	.L10
 231:common/lib.stm32/STM32F10x_StdPeriph_Driver/src/stm32f10x_tim.c ****       RCC_APB2PeriphResetCmd(RCC_APB2Periph_TIM8, DISABLE);
 187              		.loc 1 231 7
 188 00ca 0121     		movs	r1, #1
 189 00cc 4FF40050 		mov	r0, #8192
 190 00d0 064B     		ldr	r3, .L11+4
 191 00d2 9847     		blx	r3
 192              	.LVL14:
 232:common/lib.stm32/STM32F10x_StdPeriph_Driver/src/stm32f10x_tim.c ****     }  
 193              		.loc 1 232 7
 194 00d4 0021     		movs	r1, #0
 195 00d6 4FF40050 		mov	r0, #8192
 196 00da 044B     		ldr	r3, .L11+4
 197 00dc 9847     		blx	r3
 198              	.LVL15:
 199              	.L10:
 200              		.loc 1 235 1
 201 00de 00BF     		nop
 202 00e0 0837     		adds	r7, r7, #8
 203              	.LCFI3:
 204              		.cfi_def_cfa_offset 8
 205 00e2 BD46     		mov	sp, r7
 206              	.LCFI4:
 207              		.cfi_def_cfa_register 13
 208              		@ sp needed
 209 00e4 80BD     		pop	{r7, pc}
 210              	.L12:
 211 00e6 00BF     		.align	2
 212              	.L11:
 213 00e8 002C0140 		.word	1073818624
 214 00ec 00000000 		.word	RCC_APB2PeriphResetCmd
 215 00f0 00000000 		.word	RCC_APB1PeriphResetCmd
 216 00f4 00040040 		.word	1073742848
 217 00f8 00080040 		.word	1073743872
 218 00fc 000C0040 		.word	1073744896
 219 0100 00100040 		.word	1073745920
 220 0104 00140040 		.word	1073746944
 221 0108 00340140 		.word	1073820672
 222              		.cfi_endproc
 223              	.LFE27:
 225              		.section	.text.TIM_TimeBaseInit,"ax",%progbits
 226              		.align	1
 227              		.global	TIM_TimeBaseInit
 228              		.syntax unified
 229              		.thumb
 230              		.thumb_func
 232              	TIM_TimeBaseInit:
 233              	.LFB28:
 236:common/lib.stm32/STM32F10x_StdPeriph_Driver/src/stm32f10x_tim.c **** 
 237:common/lib.stm32/STM32F10x_StdPeriph_Driver/src/stm32f10x_tim.c **** /**
 238:common/lib.stm32/STM32F10x_StdPeriph_Driver/src/stm32f10x_tim.c ****   * @brief  Initializes the TIMx Time Base Unit peripheral according to 
 239:common/lib.stm32/STM32F10x_StdPeriph_Driver/src/stm32f10x_tim.c ****   *   the specified parameters in the TIM_TimeBaseInitStruct.
 240:common/lib.stm32/STM32F10x_StdPeriph_Driver/src/stm32f10x_tim.c ****   * @param  TIMx: where x can be 1, 2, 3, 4, 5 or 8 to select the TIM peripheral.
 241:common/lib.stm32/STM32F10x_StdPeriph_Driver/src/stm32f10x_tim.c ****   * @param  TIM_TimeBaseInitStruct: pointer to a TIM_TimeBaseInitTypeDef
 242:common/lib.stm32/STM32F10x_StdPeriph_Driver/src/stm32f10x_tim.c ****   *   structure that contains the configuration information for the specified TIM peripheral.
 243:common/lib.stm32/STM32F10x_StdPeriph_Driver/src/stm32f10x_tim.c ****   * @retval None
 244:common/lib.stm32/STM32F10x_StdPeriph_Driver/src/stm32f10x_tim.c ****   */
 245:common/lib.stm32/STM32F10x_StdPeriph_Driver/src/stm32f10x_tim.c **** void TIM_TimeBaseInit(TIM_TypeDef* TIMx, TIM_TimeBaseInitTypeDef* TIM_TimeBaseInitStruct)
 246:common/lib.stm32/STM32F10x_StdPeriph_Driver/src/stm32f10x_tim.c **** {
 234              		.loc 1 246 1
 235              		.cfi_startproc
 236              		@ args = 0, pretend = 0, frame = 8
 237              		@ frame_needed = 1, uses_anonymous_args = 0
 238              		@ link register save eliminated.
 239 0000 80B4     		push	{r7}
 240              	.LCFI5:
 241              		.cfi_def_cfa_offset 4
 242              		.cfi_offset 7, -4
 243 0002 83B0     		sub	sp, sp, #12
 244              	.LCFI6:
 245              		.cfi_def_cfa_offset 16
 246 0004 00AF     		add	r7, sp, #0
 247              	.LCFI7:
 248              		.cfi_def_cfa_register 7
 249 0006 7860     		str	r0, [r7, #4]
 250 0008 3960     		str	r1, [r7]
 247:common/lib.stm32/STM32F10x_StdPeriph_Driver/src/stm32f10x_tim.c ****   /* Check the parameters */
 248:common/lib.stm32/STM32F10x_StdPeriph_Driver/src/stm32f10x_tim.c ****   assert_param(IS_TIM_123458_PERIPH(TIMx)); 
 249:common/lib.stm32/STM32F10x_StdPeriph_Driver/src/stm32f10x_tim.c ****   assert_param(IS_TIM_COUNTER_MODE(TIM_TimeBaseInitStruct->TIM_CounterMode));
 250:common/lib.stm32/STM32F10x_StdPeriph_Driver/src/stm32f10x_tim.c ****   assert_param(IS_TIM_CKD_DIV(TIM_TimeBaseInitStruct->TIM_ClockDivision));
 251:common/lib.stm32/STM32F10x_StdPeriph_Driver/src/stm32f10x_tim.c ****   /* Select the Counter Mode and set the clock division */
 252:common/lib.stm32/STM32F10x_StdPeriph_Driver/src/stm32f10x_tim.c ****   TIMx->CR1 &= CR1_CKD_Mask & CR1_CounterMode_Mask;
 251              		.loc 1 252 13
 252 000a 7B68     		ldr	r3, [r7, #4]
 253 000c 1B88     		ldrh	r3, [r3]	@ movhi
 254 000e 9BB2     		uxth	r3, r3
 255 0010 03F08F03 		and	r3, r3, #143
 256 0014 9AB2     		uxth	r2, r3
 257 0016 7B68     		ldr	r3, [r7, #4]
 258 0018 1A80     		strh	r2, [r3]	@ movhi
 253:common/lib.stm32/STM32F10x_StdPeriph_Driver/src/stm32f10x_tim.c ****   TIMx->CR1 |= (uint32_t)TIM_TimeBaseInitStruct->TIM_ClockDivision |
 259              		.loc 1 253 13
 260 001a 7B68     		ldr	r3, [r7, #4]
 261 001c 1B88     		ldrh	r3, [r3]	@ movhi
 262 001e 9AB2     		uxth	r2, r3
 263              		.loc 1 253 48
 264 0020 3B68     		ldr	r3, [r7]
 265 0022 D988     		ldrh	r1, [r3, #6]
 254:common/lib.stm32/STM32F10x_StdPeriph_Driver/src/stm32f10x_tim.c ****                 TIM_TimeBaseInitStruct->TIM_CounterMode;
 266              		.loc 1 254 39
 267 0024 3B68     		ldr	r3, [r7]
 268 0026 5B88     		ldrh	r3, [r3, #2]
 253:common/lib.stm32/STM32F10x_StdPeriph_Driver/src/stm32f10x_tim.c ****   TIMx->CR1 |= (uint32_t)TIM_TimeBaseInitStruct->TIM_ClockDivision |
 269              		.loc 1 253 13
 270 0028 0B43     		orrs	r3, r3, r1
 271 002a 9BB2     		uxth	r3, r3
 272 002c 1343     		orrs	r3, r3, r2
 273 002e 9AB2     		uxth	r2, r3
 274 0030 7B68     		ldr	r3, [r7, #4]
 275 0032 1A80     		strh	r2, [r3]	@ movhi
 255:common/lib.stm32/STM32F10x_StdPeriph_Driver/src/stm32f10x_tim.c ****   
 256:common/lib.stm32/STM32F10x_StdPeriph_Driver/src/stm32f10x_tim.c ****   /* Set the Autoreload value */
 257:common/lib.stm32/STM32F10x_StdPeriph_Driver/src/stm32f10x_tim.c ****   TIMx->ARR = TIM_TimeBaseInitStruct->TIM_Period ;
 276              		.loc 1 257 37
 277 0034 3B68     		ldr	r3, [r7]
 278 0036 9A88     		ldrh	r2, [r3, #4]
 279              		.loc 1 257 13
 280 0038 7B68     		ldr	r3, [r7, #4]
 281 003a 9A85     		strh	r2, [r3, #44]	@ movhi
 258:common/lib.stm32/STM32F10x_StdPeriph_Driver/src/stm32f10x_tim.c ****  
 259:common/lib.stm32/STM32F10x_StdPeriph_Driver/src/stm32f10x_tim.c ****   /* Set the Prescaler value */
 260:common/lib.stm32/STM32F10x_StdPeriph_Driver/src/stm32f10x_tim.c ****   TIMx->PSC = TIM_TimeBaseInitStruct->TIM_Prescaler;
 282              		.loc 1 260 37
 283 003c 3B68     		ldr	r3, [r7]
 284 003e 1A88     		ldrh	r2, [r3]
 285              		.loc 1 260 13
 286 0040 7B68     		ldr	r3, [r7, #4]
 287 0042 1A85     		strh	r2, [r3, #40]	@ movhi
 261:common/lib.stm32/STM32F10x_StdPeriph_Driver/src/stm32f10x_tim.c ****     
 262:common/lib.stm32/STM32F10x_StdPeriph_Driver/src/stm32f10x_tim.c ****   if ((((uint32_t) TIMx) == TIM1_BASE) || (((uint32_t) TIMx) == TIM8_BASE))  
 288              		.loc 1 262 6
 289 0044 7B68     		ldr	r3, [r7, #4]
 290 0046 0A4A     		ldr	r2, .L16
 291 0048 9342     		cmp	r3, r2
 292 004a 03D0     		beq	.L14
 293              		.loc 1 262 40 discriminator 1
 294 004c 7B68     		ldr	r3, [r7, #4]
 295 004e 094A     		ldr	r2, .L16+4
 296 0050 9342     		cmp	r3, r2
 297 0052 04D1     		bne	.L15
 298              	.L14:
 263:common/lib.stm32/STM32F10x_StdPeriph_Driver/src/stm32f10x_tim.c ****   {
 264:common/lib.stm32/STM32F10x_StdPeriph_Driver/src/stm32f10x_tim.c ****     /* Set the Repetition Counter value */
 265:common/lib.stm32/STM32F10x_StdPeriph_Driver/src/stm32f10x_tim.c ****     TIMx->RCR = TIM_TimeBaseInitStruct->TIM_RepetitionCounter;
 299              		.loc 1 265 39
 300 0054 3B68     		ldr	r3, [r7]
 301 0056 1B7A     		ldrb	r3, [r3, #8]	@ zero_extendqisi2
 302 0058 9AB2     		uxth	r2, r3
 303              		.loc 1 265 15
 304 005a 7B68     		ldr	r3, [r7, #4]
 305 005c 1A86     		strh	r2, [r3, #48]	@ movhi
 306              	.L15:
 266:common/lib.stm32/STM32F10x_StdPeriph_Driver/src/stm32f10x_tim.c ****   }
 267:common/lib.stm32/STM32F10x_StdPeriph_Driver/src/stm32f10x_tim.c **** 
 268:common/lib.stm32/STM32F10x_StdPeriph_Driver/src/stm32f10x_tim.c ****   /* Generate an update event to reload the Prescaler value immediatly */
 269:common/lib.stm32/STM32F10x_StdPeriph_Driver/src/stm32f10x_tim.c ****   TIMx->EGR = TIM_PSCReloadMode_Immediate;          
 307              		.loc 1 269 13
 308 005e 7B68     		ldr	r3, [r7, #4]
 309 0060 0122     		movs	r2, #1
 310 0062 9A82     		strh	r2, [r3, #20]	@ movhi
 270:common/lib.stm32/STM32F10x_StdPeriph_Driver/src/stm32f10x_tim.c **** }
 311              		.loc 1 270 1
 312 0064 00BF     		nop
 313 0066 0C37     		adds	r7, r7, #12
 314              	.LCFI8:
 315              		.cfi_def_cfa_offset 4
 316 0068 BD46     		mov	sp, r7
 317              	.LCFI9:
 318              		.cfi_def_cfa_register 13
 319              		@ sp needed
 320 006a 80BC     		pop	{r7}
 321              	.LCFI10:
 322              		.cfi_restore 7
 323              		.cfi_def_cfa_offset 0
 324 006c 7047     		bx	lr
 325              	.L17:
 326 006e 00BF     		.align	2
 327              	.L16:
 328 0070 002C0140 		.word	1073818624
 329 0074 00340140 		.word	1073820672
 330              		.cfi_endproc
 331              	.LFE28:
 333              		.section	.text.TIM_OC1Init,"ax",%progbits
 334              		.align	1
 335              		.global	TIM_OC1Init
 336              		.syntax unified
 337              		.thumb
 338              		.thumb_func
 340              	TIM_OC1Init:
 341              	.LFB29:
 271:common/lib.stm32/STM32F10x_StdPeriph_Driver/src/stm32f10x_tim.c **** 
 272:common/lib.stm32/STM32F10x_StdPeriph_Driver/src/stm32f10x_tim.c **** /**
 273:common/lib.stm32/STM32F10x_StdPeriph_Driver/src/stm32f10x_tim.c ****   * @brief  Initializes the TIMx Channel1 according to the specified
 274:common/lib.stm32/STM32F10x_StdPeriph_Driver/src/stm32f10x_tim.c ****   *   parameters in the TIM_OCInitStruct.
 275:common/lib.stm32/STM32F10x_StdPeriph_Driver/src/stm32f10x_tim.c ****   * @param  TIMx: where x can be  1, 2, 3, 4, 5 or 8 to select the TIM peripheral.
 276:common/lib.stm32/STM32F10x_StdPeriph_Driver/src/stm32f10x_tim.c ****   * @param  TIM_OCInitStruct: pointer to a TIM_OCInitTypeDef structure
 277:common/lib.stm32/STM32F10x_StdPeriph_Driver/src/stm32f10x_tim.c ****   *   that contains the configuration information for the specified TIM peripheral.
 278:common/lib.stm32/STM32F10x_StdPeriph_Driver/src/stm32f10x_tim.c ****   * @retval None
 279:common/lib.stm32/STM32F10x_StdPeriph_Driver/src/stm32f10x_tim.c ****   */
 280:common/lib.stm32/STM32F10x_StdPeriph_Driver/src/stm32f10x_tim.c **** void TIM_OC1Init(TIM_TypeDef* TIMx, TIM_OCInitTypeDef* TIM_OCInitStruct)
 281:common/lib.stm32/STM32F10x_StdPeriph_Driver/src/stm32f10x_tim.c **** {
 342              		.loc 1 281 1
 343              		.cfi_startproc
 344              		@ args = 0, pretend = 0, frame = 16
 345              		@ frame_needed = 1, uses_anonymous_args = 0
 346              		@ link register save eliminated.
 347 0000 80B4     		push	{r7}
 348              	.LCFI11:
 349              		.cfi_def_cfa_offset 4
 350              		.cfi_offset 7, -4
 351 0002 85B0     		sub	sp, sp, #20
 352              	.LCFI12:
 353              		.cfi_def_cfa_offset 24
 354 0004 00AF     		add	r7, sp, #0
 355              	.LCFI13:
 356              		.cfi_def_cfa_register 7
 357 0006 7860     		str	r0, [r7, #4]
 358 0008 3960     		str	r1, [r7]
 282:common/lib.stm32/STM32F10x_StdPeriph_Driver/src/stm32f10x_tim.c ****   uint16_t tmpccmrx = 0, tmpccer = 0, tmpcr2 = 0;
 359              		.loc 1 282 12
 360 000a 0023     		movs	r3, #0
 361 000c 7B81     		strh	r3, [r7, #10]	@ movhi
 362              		.loc 1 282 26
 363 000e 0023     		movs	r3, #0
 364 0010 FB81     		strh	r3, [r7, #14]	@ movhi
 365              		.loc 1 282 39
 366 0012 0023     		movs	r3, #0
 367 0014 BB81     		strh	r3, [r7, #12]	@ movhi
 283:common/lib.stm32/STM32F10x_StdPeriph_Driver/src/stm32f10x_tim.c ****    
 284:common/lib.stm32/STM32F10x_StdPeriph_Driver/src/stm32f10x_tim.c ****   /* Check the parameters */
 285:common/lib.stm32/STM32F10x_StdPeriph_Driver/src/stm32f10x_tim.c ****   assert_param(IS_TIM_123458_PERIPH(TIMx)); 
 286:common/lib.stm32/STM32F10x_StdPeriph_Driver/src/stm32f10x_tim.c ****   assert_param(IS_TIM_OC_MODE(TIM_OCInitStruct->TIM_OCMode));
 287:common/lib.stm32/STM32F10x_StdPeriph_Driver/src/stm32f10x_tim.c ****   assert_param(IS_TIM_OUTPUT_STATE(TIM_OCInitStruct->TIM_OutputState));
 288:common/lib.stm32/STM32F10x_StdPeriph_Driver/src/stm32f10x_tim.c ****   assert_param(IS_TIM_OC_POLARITY(TIM_OCInitStruct->TIM_OCPolarity));   
 289:common/lib.stm32/STM32F10x_StdPeriph_Driver/src/stm32f10x_tim.c ****   /* Disable the Channel 1: Reset the CC1E Bit */
 290:common/lib.stm32/STM32F10x_StdPeriph_Driver/src/stm32f10x_tim.c ****   TIMx->CCER &= CCER_CC1E_Reset;
 368              		.loc 1 290 14
 369 0016 7B68     		ldr	r3, [r7, #4]
 370 0018 1B8C     		ldrh	r3, [r3, #32]	@ movhi
 371 001a 9BB2     		uxth	r3, r3
 372 001c 23F00103 		bic	r3, r3, #1
 373 0020 9AB2     		uxth	r2, r3
 374 0022 7B68     		ldr	r3, [r7, #4]
 375 0024 1A84     		strh	r2, [r3, #32]	@ movhi
 291:common/lib.stm32/STM32F10x_StdPeriph_Driver/src/stm32f10x_tim.c ****   
 292:common/lib.stm32/STM32F10x_StdPeriph_Driver/src/stm32f10x_tim.c ****   /* Get the TIMx CCER register value */
 293:common/lib.stm32/STM32F10x_StdPeriph_Driver/src/stm32f10x_tim.c ****   tmpccer = TIMx->CCER;
 376              		.loc 1 293 11
 377 0026 7B68     		ldr	r3, [r7, #4]
 378 0028 1B8C     		ldrh	r3, [r3, #32]	@ movhi
 379 002a FB81     		strh	r3, [r7, #14]	@ movhi
 294:common/lib.stm32/STM32F10x_StdPeriph_Driver/src/stm32f10x_tim.c ****   /* Get the TIMx CR2 register value */
 295:common/lib.stm32/STM32F10x_StdPeriph_Driver/src/stm32f10x_tim.c ****   tmpcr2 =  TIMx->CR2;
 380              		.loc 1 295 10
 381 002c 7B68     		ldr	r3, [r7, #4]
 382 002e 9B88     		ldrh	r3, [r3, #4]	@ movhi
 383 0030 BB81     		strh	r3, [r7, #12]	@ movhi
 296:common/lib.stm32/STM32F10x_StdPeriph_Driver/src/stm32f10x_tim.c ****   
 297:common/lib.stm32/STM32F10x_StdPeriph_Driver/src/stm32f10x_tim.c ****   /* Get the TIMx CCMR1 register value */
 298:common/lib.stm32/STM32F10x_StdPeriph_Driver/src/stm32f10x_tim.c ****   tmpccmrx = TIMx->CCMR1;
 384              		.loc 1 298 12
 385 0032 7B68     		ldr	r3, [r7, #4]
 386 0034 1B8B     		ldrh	r3, [r3, #24]	@ movhi
 387 0036 7B81     		strh	r3, [r7, #10]	@ movhi
 299:common/lib.stm32/STM32F10x_StdPeriph_Driver/src/stm32f10x_tim.c ****     
 300:common/lib.stm32/STM32F10x_StdPeriph_Driver/src/stm32f10x_tim.c ****   /* Reset the Output Compare mode and Capture/Compare selection Bits */
 301:common/lib.stm32/STM32F10x_StdPeriph_Driver/src/stm32f10x_tim.c ****   tmpccmrx &= CCMR_OC13M_Mask & CCMR_CC13S_Mask;
 388              		.loc 1 301 12
 389 0038 7B89     		ldrh	r3, [r7, #10]	@ movhi
 390 003a 23F07303 		bic	r3, r3, #115
 391 003e 7B81     		strh	r3, [r7, #10]	@ movhi
 302:common/lib.stm32/STM32F10x_StdPeriph_Driver/src/stm32f10x_tim.c ****   
 303:common/lib.stm32/STM32F10x_StdPeriph_Driver/src/stm32f10x_tim.c ****   /* Select the Output Compare Mode */
 304:common/lib.stm32/STM32F10x_StdPeriph_Driver/src/stm32f10x_tim.c ****   tmpccmrx |= TIM_OCInitStruct->TIM_OCMode;
 392              		.loc 1 304 31
 393 0040 3B68     		ldr	r3, [r7]
 394 0042 1A88     		ldrh	r2, [r3]
 395              		.loc 1 304 12
 396 0044 7B89     		ldrh	r3, [r7, #10]	@ movhi
 397 0046 1343     		orrs	r3, r3, r2
 398 0048 7B81     		strh	r3, [r7, #10]	@ movhi
 305:common/lib.stm32/STM32F10x_StdPeriph_Driver/src/stm32f10x_tim.c ****   
 306:common/lib.stm32/STM32F10x_StdPeriph_Driver/src/stm32f10x_tim.c ****   /* Reset the Output Polarity level */
 307:common/lib.stm32/STM32F10x_StdPeriph_Driver/src/stm32f10x_tim.c ****   tmpccer &= CCER_CC1P_Reset;
 399              		.loc 1 307 11
 400 004a FB89     		ldrh	r3, [r7, #14]	@ movhi
 401 004c 23F00203 		bic	r3, r3, #2
 402 0050 FB81     		strh	r3, [r7, #14]	@ movhi
 308:common/lib.stm32/STM32F10x_StdPeriph_Driver/src/stm32f10x_tim.c ****   /* Set the Output Compare Polarity */
 309:common/lib.stm32/STM32F10x_StdPeriph_Driver/src/stm32f10x_tim.c ****   tmpccer |= TIM_OCInitStruct->TIM_OCPolarity;
 403              		.loc 1 309 30
 404 0052 3B68     		ldr	r3, [r7]
 405 0054 1A89     		ldrh	r2, [r3, #8]
 406              		.loc 1 309 11
 407 0056 FB89     		ldrh	r3, [r7, #14]	@ movhi
 408 0058 1343     		orrs	r3, r3, r2
 409 005a FB81     		strh	r3, [r7, #14]	@ movhi
 310:common/lib.stm32/STM32F10x_StdPeriph_Driver/src/stm32f10x_tim.c ****   
 311:common/lib.stm32/STM32F10x_StdPeriph_Driver/src/stm32f10x_tim.c ****   /* Set the Output State */
 312:common/lib.stm32/STM32F10x_StdPeriph_Driver/src/stm32f10x_tim.c ****   tmpccer |= TIM_OCInitStruct->TIM_OutputState;
 410              		.loc 1 312 30
 411 005c 3B68     		ldr	r3, [r7]
 412 005e 5A88     		ldrh	r2, [r3, #2]
 413              		.loc 1 312 11
 414 0060 FB89     		ldrh	r3, [r7, #14]	@ movhi
 415 0062 1343     		orrs	r3, r3, r2
 416 0064 FB81     		strh	r3, [r7, #14]	@ movhi
 313:common/lib.stm32/STM32F10x_StdPeriph_Driver/src/stm32f10x_tim.c ****  
 314:common/lib.stm32/STM32F10x_StdPeriph_Driver/src/stm32f10x_tim.c ****   if(((uint32_t) TIMx == TIM1_BASE) || ((uint32_t) TIMx == TIM8_BASE))
 417              		.loc 1 314 5
 418 0066 7B68     		ldr	r3, [r7, #4]
 419 0068 204A     		ldr	r2, .L21
 420 006a 9342     		cmp	r3, r2
 421 006c 03D0     		beq	.L19
 422              		.loc 1 314 37 discriminator 1
 423 006e 7B68     		ldr	r3, [r7, #4]
 424 0070 1F4A     		ldr	r2, .L21+4
 425 0072 9342     		cmp	r3, r2
 426 0074 27D1     		bne	.L20
 427              	.L19:
 315:common/lib.stm32/STM32F10x_StdPeriph_Driver/src/stm32f10x_tim.c ****   {
 316:common/lib.stm32/STM32F10x_StdPeriph_Driver/src/stm32f10x_tim.c ****     assert_param(IS_TIM_OUTPUTN_STATE(TIM_OCInitStruct->TIM_OutputNState));
 317:common/lib.stm32/STM32F10x_StdPeriph_Driver/src/stm32f10x_tim.c ****     assert_param(IS_TIM_OCN_POLARITY(TIM_OCInitStruct->TIM_OCNPolarity));
 318:common/lib.stm32/STM32F10x_StdPeriph_Driver/src/stm32f10x_tim.c ****     assert_param(IS_TIM_OCNIDLE_STATE(TIM_OCInitStruct->TIM_OCNIdleState));
 319:common/lib.stm32/STM32F10x_StdPeriph_Driver/src/stm32f10x_tim.c ****     assert_param(IS_TIM_OCIDLE_STATE(TIM_OCInitStruct->TIM_OCIdleState));
 320:common/lib.stm32/STM32F10x_StdPeriph_Driver/src/stm32f10x_tim.c ****     
 321:common/lib.stm32/STM32F10x_StdPeriph_Driver/src/stm32f10x_tim.c ****     /* Reset the Output N Polarity level */
 322:common/lib.stm32/STM32F10x_StdPeriph_Driver/src/stm32f10x_tim.c ****     tmpccer &= CCER_CC1NP_Reset;
 428              		.loc 1 322 13
 429 0076 FB89     		ldrh	r3, [r7, #14]	@ movhi
 430 0078 23F00803 		bic	r3, r3, #8
 431 007c FB81     		strh	r3, [r7, #14]	@ movhi
 323:common/lib.stm32/STM32F10x_StdPeriph_Driver/src/stm32f10x_tim.c ****     /* Set the Output N Polarity */
 324:common/lib.stm32/STM32F10x_StdPeriph_Driver/src/stm32f10x_tim.c ****     tmpccer |= TIM_OCInitStruct->TIM_OCNPolarity;
 432              		.loc 1 324 32
 433 007e 3B68     		ldr	r3, [r7]
 434 0080 5A89     		ldrh	r2, [r3, #10]
 435              		.loc 1 324 13
 436 0082 FB89     		ldrh	r3, [r7, #14]	@ movhi
 437 0084 1343     		orrs	r3, r3, r2
 438 0086 FB81     		strh	r3, [r7, #14]	@ movhi
 325:common/lib.stm32/STM32F10x_StdPeriph_Driver/src/stm32f10x_tim.c ****     /* Reset the Output N State */
 326:common/lib.stm32/STM32F10x_StdPeriph_Driver/src/stm32f10x_tim.c ****     tmpccer &= CCER_CC1NE_Reset;
 439              		.loc 1 326 13
 440 0088 FB89     		ldrh	r3, [r7, #14]	@ movhi
 441 008a 23F00403 		bic	r3, r3, #4
 442 008e FB81     		strh	r3, [r7, #14]	@ movhi
 327:common/lib.stm32/STM32F10x_StdPeriph_Driver/src/stm32f10x_tim.c ****     
 328:common/lib.stm32/STM32F10x_StdPeriph_Driver/src/stm32f10x_tim.c ****     /* Set the Output N State */
 329:common/lib.stm32/STM32F10x_StdPeriph_Driver/src/stm32f10x_tim.c ****     tmpccer |= TIM_OCInitStruct->TIM_OutputNState;
 443              		.loc 1 329 32
 444 0090 3B68     		ldr	r3, [r7]
 445 0092 9A88     		ldrh	r2, [r3, #4]
 446              		.loc 1 329 13
 447 0094 FB89     		ldrh	r3, [r7, #14]	@ movhi
 448 0096 1343     		orrs	r3, r3, r2
 449 0098 FB81     		strh	r3, [r7, #14]	@ movhi
 330:common/lib.stm32/STM32F10x_StdPeriph_Driver/src/stm32f10x_tim.c ****     /* Reset the Ouput Compare and Output Compare N IDLE State */
 331:common/lib.stm32/STM32F10x_StdPeriph_Driver/src/stm32f10x_tim.c ****     tmpcr2 &= CR2_OIS1_Reset;
 450              		.loc 1 331 12
 451 009a BB89     		ldrh	r3, [r7, #12]	@ movhi
 452 009c 23F48073 		bic	r3, r3, #256
 453 00a0 5B04     		lsls	r3, r3, #17
 454 00a2 5B0C     		lsrs	r3, r3, #17
 455 00a4 BB81     		strh	r3, [r7, #12]	@ movhi
 332:common/lib.stm32/STM32F10x_StdPeriph_Driver/src/stm32f10x_tim.c ****     tmpcr2 &= CR2_OIS1N_Reset;
 456              		.loc 1 332 12
 457 00a6 BB89     		ldrh	r3, [r7, #12]	@ movhi
 458 00a8 23F40073 		bic	r3, r3, #512
 459 00ac 5B04     		lsls	r3, r3, #17
 460 00ae 5B0C     		lsrs	r3, r3, #17
 461 00b0 BB81     		strh	r3, [r7, #12]	@ movhi
 333:common/lib.stm32/STM32F10x_StdPeriph_Driver/src/stm32f10x_tim.c ****     /* Set the Output Idle state */
 334:common/lib.stm32/STM32F10x_StdPeriph_Driver/src/stm32f10x_tim.c ****     tmpcr2 |= TIM_OCInitStruct->TIM_OCIdleState;
 462              		.loc 1 334 31
 463 00b2 3B68     		ldr	r3, [r7]
 464 00b4 9A89     		ldrh	r2, [r3, #12]
 465              		.loc 1 334 12
 466 00b6 BB89     		ldrh	r3, [r7, #12]	@ movhi
 467 00b8 1343     		orrs	r3, r3, r2
 468 00ba BB81     		strh	r3, [r7, #12]	@ movhi
 335:common/lib.stm32/STM32F10x_StdPeriph_Driver/src/stm32f10x_tim.c ****     /* Set the Output N Idle state */
 336:common/lib.stm32/STM32F10x_StdPeriph_Driver/src/stm32f10x_tim.c ****     tmpcr2 |= TIM_OCInitStruct->TIM_OCNIdleState;
 469              		.loc 1 336 31
 470 00bc 3B68     		ldr	r3, [r7]
 471 00be DA89     		ldrh	r2, [r3, #14]
 472              		.loc 1 336 12
 473 00c0 BB89     		ldrh	r3, [r7, #12]	@ movhi
 474 00c2 1343     		orrs	r3, r3, r2
 475 00c4 BB81     		strh	r3, [r7, #12]	@ movhi
 476              	.L20:
 337:common/lib.stm32/STM32F10x_StdPeriph_Driver/src/stm32f10x_tim.c ****   }
 338:common/lib.stm32/STM32F10x_StdPeriph_Driver/src/stm32f10x_tim.c ****   /* Write to TIMx CR2 */
 339:common/lib.stm32/STM32F10x_StdPeriph_Driver/src/stm32f10x_tim.c ****   TIMx->CR2 = tmpcr2;
 477              		.loc 1 339 13
 478 00c6 7B68     		ldr	r3, [r7, #4]
 479 00c8 BA89     		ldrh	r2, [r7, #12]	@ movhi
 480 00ca 9A80     		strh	r2, [r3, #4]	@ movhi
 340:common/lib.stm32/STM32F10x_StdPeriph_Driver/src/stm32f10x_tim.c ****   
 341:common/lib.stm32/STM32F10x_StdPeriph_Driver/src/stm32f10x_tim.c ****   /* Write to TIMx CCMR1 */
 342:common/lib.stm32/STM32F10x_StdPeriph_Driver/src/stm32f10x_tim.c ****   TIMx->CCMR1 = tmpccmrx;
 481              		.loc 1 342 15
 482 00cc 7B68     		ldr	r3, [r7, #4]
 483 00ce 7A89     		ldrh	r2, [r7, #10]	@ movhi
 484 00d0 1A83     		strh	r2, [r3, #24]	@ movhi
 343:common/lib.stm32/STM32F10x_StdPeriph_Driver/src/stm32f10x_tim.c **** 
 344:common/lib.stm32/STM32F10x_StdPeriph_Driver/src/stm32f10x_tim.c ****   /* Set the Capture Compare Register value */
 345:common/lib.stm32/STM32F10x_StdPeriph_Driver/src/stm32f10x_tim.c ****   TIMx->CCR1 = TIM_OCInitStruct->TIM_Pulse;
 485              		.loc 1 345 32
 486 00d2 3B68     		ldr	r3, [r7]
 487 00d4 DA88     		ldrh	r2, [r3, #6]
 488              		.loc 1 345 14
 489 00d6 7B68     		ldr	r3, [r7, #4]
 490 00d8 9A86     		strh	r2, [r3, #52]	@ movhi
 346:common/lib.stm32/STM32F10x_StdPeriph_Driver/src/stm32f10x_tim.c ****   
 347:common/lib.stm32/STM32F10x_StdPeriph_Driver/src/stm32f10x_tim.c ****   /* Write to TIMx CCER */
 348:common/lib.stm32/STM32F10x_StdPeriph_Driver/src/stm32f10x_tim.c ****   TIMx->CCER = tmpccer;
 491              		.loc 1 348 14
 492 00da 7B68     		ldr	r3, [r7, #4]
 493 00dc FA89     		ldrh	r2, [r7, #14]	@ movhi
 494 00de 1A84     		strh	r2, [r3, #32]	@ movhi
 349:common/lib.stm32/STM32F10x_StdPeriph_Driver/src/stm32f10x_tim.c **** }
 495              		.loc 1 349 1
 496 00e0 00BF     		nop
 497 00e2 1437     		adds	r7, r7, #20
 498              	.LCFI14:
 499              		.cfi_def_cfa_offset 4
 500 00e4 BD46     		mov	sp, r7
 501              	.LCFI15:
 502              		.cfi_def_cfa_register 13
 503              		@ sp needed
 504 00e6 80BC     		pop	{r7}
 505              	.LCFI16:
 506              		.cfi_restore 7
 507              		.cfi_def_cfa_offset 0
 508 00e8 7047     		bx	lr
 509              	.L22:
 510 00ea 00BF     		.align	2
 511              	.L21:
 512 00ec 002C0140 		.word	1073818624
 513 00f0 00340140 		.word	1073820672
 514              		.cfi_endproc
 515              	.LFE29:
 517              		.section	.text.TIM_OC2Init,"ax",%progbits
 518              		.align	1
 519              		.global	TIM_OC2Init
 520              		.syntax unified
 521              		.thumb
 522              		.thumb_func
 524              	TIM_OC2Init:
 525              	.LFB30:
 350:common/lib.stm32/STM32F10x_StdPeriph_Driver/src/stm32f10x_tim.c **** 
 351:common/lib.stm32/STM32F10x_StdPeriph_Driver/src/stm32f10x_tim.c **** /**
 352:common/lib.stm32/STM32F10x_StdPeriph_Driver/src/stm32f10x_tim.c ****   * @brief  Initializes the TIMx Channel2 according to the specified
 353:common/lib.stm32/STM32F10x_StdPeriph_Driver/src/stm32f10x_tim.c ****   *   parameters in the TIM_OCInitStruct.
 354:common/lib.stm32/STM32F10x_StdPeriph_Driver/src/stm32f10x_tim.c ****   * @param  TIMx: where x can be  1, 2, 3, 4, 5 or 8 to select the TIM peripheral.
 355:common/lib.stm32/STM32F10x_StdPeriph_Driver/src/stm32f10x_tim.c ****   * @param  TIM_OCInitStruct: pointer to a TIM_OCInitTypeDef structure
 356:common/lib.stm32/STM32F10x_StdPeriph_Driver/src/stm32f10x_tim.c ****   *   that contains the configuration information for the specified TIM peripheral.
 357:common/lib.stm32/STM32F10x_StdPeriph_Driver/src/stm32f10x_tim.c ****   * @retval None
 358:common/lib.stm32/STM32F10x_StdPeriph_Driver/src/stm32f10x_tim.c ****   */
 359:common/lib.stm32/STM32F10x_StdPeriph_Driver/src/stm32f10x_tim.c **** void TIM_OC2Init(TIM_TypeDef* TIMx, TIM_OCInitTypeDef* TIM_OCInitStruct)
 360:common/lib.stm32/STM32F10x_StdPeriph_Driver/src/stm32f10x_tim.c **** {
 526              		.loc 1 360 1
 527              		.cfi_startproc
 528              		@ args = 0, pretend = 0, frame = 16
 529              		@ frame_needed = 1, uses_anonymous_args = 0
 530              		@ link register save eliminated.
 531 0000 80B4     		push	{r7}
 532              	.LCFI17:
 533              		.cfi_def_cfa_offset 4
 534              		.cfi_offset 7, -4
 535 0002 85B0     		sub	sp, sp, #20
 536              	.LCFI18:
 537              		.cfi_def_cfa_offset 24
 538 0004 00AF     		add	r7, sp, #0
 539              	.LCFI19:
 540              		.cfi_def_cfa_register 7
 541 0006 7860     		str	r0, [r7, #4]
 542 0008 3960     		str	r1, [r7]
 361:common/lib.stm32/STM32F10x_StdPeriph_Driver/src/stm32f10x_tim.c ****   uint16_t tmpccmrx = 0, tmpccer = 0, tmpcr2 = 0;
 543              		.loc 1 361 12
 544 000a 0023     		movs	r3, #0
 545 000c 7B81     		strh	r3, [r7, #10]	@ movhi
 546              		.loc 1 361 26
 547 000e 0023     		movs	r3, #0
 548 0010 FB81     		strh	r3, [r7, #14]	@ movhi
 549              		.loc 1 361 39
 550 0012 0023     		movs	r3, #0
 551 0014 BB81     		strh	r3, [r7, #12]	@ movhi
 362:common/lib.stm32/STM32F10x_StdPeriph_Driver/src/stm32f10x_tim.c ****    
 363:common/lib.stm32/STM32F10x_StdPeriph_Driver/src/stm32f10x_tim.c ****   /* Check the parameters */
 364:common/lib.stm32/STM32F10x_StdPeriph_Driver/src/stm32f10x_tim.c ****   assert_param(IS_TIM_123458_PERIPH(TIMx)); 
 365:common/lib.stm32/STM32F10x_StdPeriph_Driver/src/stm32f10x_tim.c ****   assert_param(IS_TIM_OC_MODE(TIM_OCInitStruct->TIM_OCMode));
 366:common/lib.stm32/STM32F10x_StdPeriph_Driver/src/stm32f10x_tim.c ****   assert_param(IS_TIM_OUTPUT_STATE(TIM_OCInitStruct->TIM_OutputState));
 367:common/lib.stm32/STM32F10x_StdPeriph_Driver/src/stm32f10x_tim.c ****   assert_param(IS_TIM_OC_POLARITY(TIM_OCInitStruct->TIM_OCPolarity));   
 368:common/lib.stm32/STM32F10x_StdPeriph_Driver/src/stm32f10x_tim.c ****   /* Disable the Channel 2: Reset the CC2E Bit */
 369:common/lib.stm32/STM32F10x_StdPeriph_Driver/src/stm32f10x_tim.c ****   TIMx->CCER &= CCER_CC2E_Reset;
 552              		.loc 1 369 14
 553 0016 7B68     		ldr	r3, [r7, #4]
 554 0018 1B8C     		ldrh	r3, [r3, #32]	@ movhi
 555 001a 9BB2     		uxth	r3, r3
 556 001c 23F01003 		bic	r3, r3, #16
 557 0020 9AB2     		uxth	r2, r3
 558 0022 7B68     		ldr	r3, [r7, #4]
 559 0024 1A84     		strh	r2, [r3, #32]	@ movhi
 370:common/lib.stm32/STM32F10x_StdPeriph_Driver/src/stm32f10x_tim.c ****   
 371:common/lib.stm32/STM32F10x_StdPeriph_Driver/src/stm32f10x_tim.c ****   /* Get the TIMx CCER register value */  
 372:common/lib.stm32/STM32F10x_StdPeriph_Driver/src/stm32f10x_tim.c ****   tmpccer = TIMx->CCER;
 560              		.loc 1 372 11
 561 0026 7B68     		ldr	r3, [r7, #4]
 562 0028 1B8C     		ldrh	r3, [r3, #32]	@ movhi
 563 002a FB81     		strh	r3, [r7, #14]	@ movhi
 373:common/lib.stm32/STM32F10x_StdPeriph_Driver/src/stm32f10x_tim.c ****   /* Get the TIMx CR2 register value */
 374:common/lib.stm32/STM32F10x_StdPeriph_Driver/src/stm32f10x_tim.c ****   tmpcr2 =  TIMx->CR2;
 564              		.loc 1 374 10
 565 002c 7B68     		ldr	r3, [r7, #4]
 566 002e 9B88     		ldrh	r3, [r3, #4]	@ movhi
 567 0030 BB81     		strh	r3, [r7, #12]	@ movhi
 375:common/lib.stm32/STM32F10x_StdPeriph_Driver/src/stm32f10x_tim.c ****   
 376:common/lib.stm32/STM32F10x_StdPeriph_Driver/src/stm32f10x_tim.c ****   /* Get the TIMx CCMR1 register value */
 377:common/lib.stm32/STM32F10x_StdPeriph_Driver/src/stm32f10x_tim.c ****   tmpccmrx = TIMx->CCMR1;
 568              		.loc 1 377 12
 569 0032 7B68     		ldr	r3, [r7, #4]
 570 0034 1B8B     		ldrh	r3, [r3, #24]	@ movhi
 571 0036 7B81     		strh	r3, [r7, #10]	@ movhi
 378:common/lib.stm32/STM32F10x_StdPeriph_Driver/src/stm32f10x_tim.c **** 
 379:common/lib.stm32/STM32F10x_StdPeriph_Driver/src/stm32f10x_tim.c ****   /* Reset the Output Compare mode and Capture/Compare selection Bits */
 380:common/lib.stm32/STM32F10x_StdPeriph_Driver/src/stm32f10x_tim.c ****   tmpccmrx &= CCMR_OC24M_Mask & CCMR_CC24S_Mask;  
 572              		.loc 1 380 12
 573 0038 7B89     		ldrh	r3, [r7, #10]	@ movhi
 574 003a 23F4E643 		bic	r3, r3, #29440
 575 003e 7B81     		strh	r3, [r7, #10]	@ movhi
 381:common/lib.stm32/STM32F10x_StdPeriph_Driver/src/stm32f10x_tim.c ****   
 382:common/lib.stm32/STM32F10x_StdPeriph_Driver/src/stm32f10x_tim.c ****   /* Select the Output Compare Mode */
 383:common/lib.stm32/STM32F10x_StdPeriph_Driver/src/stm32f10x_tim.c ****   tmpccmrx |= (uint16_t)(TIM_OCInitStruct->TIM_OCMode << 8);
 576              		.loc 1 383 42
 577 0040 3B68     		ldr	r3, [r7]
 578 0042 1B88     		ldrh	r3, [r3]
 579              		.loc 1 383 15
 580 0044 1B02     		lsls	r3, r3, #8
 581 0046 9AB2     		uxth	r2, r3
 582              		.loc 1 383 12
 583 0048 7B89     		ldrh	r3, [r7, #10]	@ movhi
 584 004a 1343     		orrs	r3, r3, r2
 585 004c 7B81     		strh	r3, [r7, #10]	@ movhi
 384:common/lib.stm32/STM32F10x_StdPeriph_Driver/src/stm32f10x_tim.c ****   
 385:common/lib.stm32/STM32F10x_StdPeriph_Driver/src/stm32f10x_tim.c ****   /* Reset the Output Polarity level */
 386:common/lib.stm32/STM32F10x_StdPeriph_Driver/src/stm32f10x_tim.c ****   tmpccer &= CCER_CC2P_Reset;
 586              		.loc 1 386 11
 587 004e FB89     		ldrh	r3, [r7, #14]	@ movhi
 588 0050 23F02003 		bic	r3, r3, #32
 589 0054 FB81     		strh	r3, [r7, #14]	@ movhi
 387:common/lib.stm32/STM32F10x_StdPeriph_Driver/src/stm32f10x_tim.c ****   /* Set the Output Compare Polarity */
 388:common/lib.stm32/STM32F10x_StdPeriph_Driver/src/stm32f10x_tim.c ****   tmpccer |= (uint16_t)(TIM_OCInitStruct->TIM_OCPolarity << 4);
 590              		.loc 1 388 41
 591 0056 3B68     		ldr	r3, [r7]
 592 0058 1B89     		ldrh	r3, [r3, #8]
 593              		.loc 1 388 14
 594 005a 1B01     		lsls	r3, r3, #4
 595 005c 9AB2     		uxth	r2, r3
 596              		.loc 1 388 11
 597 005e FB89     		ldrh	r3, [r7, #14]	@ movhi
 598 0060 1343     		orrs	r3, r3, r2
 599 0062 FB81     		strh	r3, [r7, #14]	@ movhi
 389:common/lib.stm32/STM32F10x_StdPeriph_Driver/src/stm32f10x_tim.c ****   
 390:common/lib.stm32/STM32F10x_StdPeriph_Driver/src/stm32f10x_tim.c ****   /* Set the Output State */
 391:common/lib.stm32/STM32F10x_StdPeriph_Driver/src/stm32f10x_tim.c ****   tmpccer |= (uint16_t)(TIM_OCInitStruct->TIM_OutputState << 4);
 600              		.loc 1 391 41
 601 0064 3B68     		ldr	r3, [r7]
 602 0066 5B88     		ldrh	r3, [r3, #2]
 603              		.loc 1 391 14
 604 0068 1B01     		lsls	r3, r3, #4
 605 006a 9AB2     		uxth	r2, r3
 606              		.loc 1 391 11
 607 006c FB89     		ldrh	r3, [r7, #14]	@ movhi
 608 006e 1343     		orrs	r3, r3, r2
 609 0070 FB81     		strh	r3, [r7, #14]	@ movhi
 392:common/lib.stm32/STM32F10x_StdPeriph_Driver/src/stm32f10x_tim.c ****     
 393:common/lib.stm32/STM32F10x_StdPeriph_Driver/src/stm32f10x_tim.c ****   if(((uint32_t) TIMx == TIM1_BASE) || ((uint32_t) TIMx == TIM8_BASE))
 610              		.loc 1 393 5
 611 0072 7B68     		ldr	r3, [r7, #4]
 612 0074 244A     		ldr	r2, .L26
 613 0076 9342     		cmp	r3, r2
 614 0078 03D0     		beq	.L24
 615              		.loc 1 393 37 discriminator 1
 616 007a 7B68     		ldr	r3, [r7, #4]
 617 007c 234A     		ldr	r2, .L26+4
 618 007e 9342     		cmp	r3, r2
 619 0080 2FD1     		bne	.L25
 620              	.L24:
 394:common/lib.stm32/STM32F10x_StdPeriph_Driver/src/stm32f10x_tim.c ****   {
 395:common/lib.stm32/STM32F10x_StdPeriph_Driver/src/stm32f10x_tim.c ****     assert_param(IS_TIM_OUTPUTN_STATE(TIM_OCInitStruct->TIM_OutputNState));
 396:common/lib.stm32/STM32F10x_StdPeriph_Driver/src/stm32f10x_tim.c ****     assert_param(IS_TIM_OCN_POLARITY(TIM_OCInitStruct->TIM_OCNPolarity));
 397:common/lib.stm32/STM32F10x_StdPeriph_Driver/src/stm32f10x_tim.c ****     assert_param(IS_TIM_OCNIDLE_STATE(TIM_OCInitStruct->TIM_OCNIdleState));
 398:common/lib.stm32/STM32F10x_StdPeriph_Driver/src/stm32f10x_tim.c ****     assert_param(IS_TIM_OCIDLE_STATE(TIM_OCInitStruct->TIM_OCIdleState));
 399:common/lib.stm32/STM32F10x_StdPeriph_Driver/src/stm32f10x_tim.c ****     
 400:common/lib.stm32/STM32F10x_StdPeriph_Driver/src/stm32f10x_tim.c ****     /* Reset the Output N Polarity level */
 401:common/lib.stm32/STM32F10x_StdPeriph_Driver/src/stm32f10x_tim.c ****     tmpccer &= CCER_CC2NP_Reset;
 621              		.loc 1 401 13
 622 0082 FB89     		ldrh	r3, [r7, #14]	@ movhi
 623 0084 23F08003 		bic	r3, r3, #128
 624 0088 FB81     		strh	r3, [r7, #14]	@ movhi
 402:common/lib.stm32/STM32F10x_StdPeriph_Driver/src/stm32f10x_tim.c ****     /* Set the Output N Polarity */
 403:common/lib.stm32/STM32F10x_StdPeriph_Driver/src/stm32f10x_tim.c ****     tmpccer |= (uint16_t)(TIM_OCInitStruct->TIM_OCNPolarity << 4);
 625              		.loc 1 403 43
 626 008a 3B68     		ldr	r3, [r7]
 627 008c 5B89     		ldrh	r3, [r3, #10]
 628              		.loc 1 403 16
 629 008e 1B01     		lsls	r3, r3, #4
 630 0090 9AB2     		uxth	r2, r3
 631              		.loc 1 403 13
 632 0092 FB89     		ldrh	r3, [r7, #14]	@ movhi
 633 0094 1343     		orrs	r3, r3, r2
 634 0096 FB81     		strh	r3, [r7, #14]	@ movhi
 404:common/lib.stm32/STM32F10x_StdPeriph_Driver/src/stm32f10x_tim.c ****     /* Reset the Output N State */
 405:common/lib.stm32/STM32F10x_StdPeriph_Driver/src/stm32f10x_tim.c ****     tmpccer &= CCER_CC2NE_Reset;
 635              		.loc 1 405 13
 636 0098 FB89     		ldrh	r3, [r7, #14]	@ movhi
 637 009a 23F04003 		bic	r3, r3, #64
 638 009e FB81     		strh	r3, [r7, #14]	@ movhi
 406:common/lib.stm32/STM32F10x_StdPeriph_Driver/src/stm32f10x_tim.c ****     
 407:common/lib.stm32/STM32F10x_StdPeriph_Driver/src/stm32f10x_tim.c ****     /* Set the Output N State */
 408:common/lib.stm32/STM32F10x_StdPeriph_Driver/src/stm32f10x_tim.c ****     tmpccer |= (uint16_t)(TIM_OCInitStruct->TIM_OutputNState << 4);
 639              		.loc 1 408 43
 640 00a0 3B68     		ldr	r3, [r7]
 641 00a2 9B88     		ldrh	r3, [r3, #4]
 642              		.loc 1 408 16
 643 00a4 1B01     		lsls	r3, r3, #4
 644 00a6 9AB2     		uxth	r2, r3
 645              		.loc 1 408 13
 646 00a8 FB89     		ldrh	r3, [r7, #14]	@ movhi
 647 00aa 1343     		orrs	r3, r3, r2
 648 00ac FB81     		strh	r3, [r7, #14]	@ movhi
 409:common/lib.stm32/STM32F10x_StdPeriph_Driver/src/stm32f10x_tim.c ****     /* Reset the Ouput Compare and Output Compare N IDLE State */
 410:common/lib.stm32/STM32F10x_StdPeriph_Driver/src/stm32f10x_tim.c ****     tmpcr2 &= CR2_OIS2_Reset;
 649              		.loc 1 410 12
 650 00ae BB89     		ldrh	r3, [r7, #12]	@ movhi
 651 00b0 23F48063 		bic	r3, r3, #1024
 652 00b4 5B04     		lsls	r3, r3, #17
 653 00b6 5B0C     		lsrs	r3, r3, #17
 654 00b8 BB81     		strh	r3, [r7, #12]	@ movhi
 411:common/lib.stm32/STM32F10x_StdPeriph_Driver/src/stm32f10x_tim.c ****     tmpcr2 &= CR2_OIS2N_Reset;
 655              		.loc 1 411 12
 656 00ba BB89     		ldrh	r3, [r7, #12]	@ movhi
 657 00bc 23F40063 		bic	r3, r3, #2048
 658 00c0 5B04     		lsls	r3, r3, #17
 659 00c2 5B0C     		lsrs	r3, r3, #17
 660 00c4 BB81     		strh	r3, [r7, #12]	@ movhi
 412:common/lib.stm32/STM32F10x_StdPeriph_Driver/src/stm32f10x_tim.c ****     /* Set the Output Idle state */
 413:common/lib.stm32/STM32F10x_StdPeriph_Driver/src/stm32f10x_tim.c ****     tmpcr2 |= (uint16_t)(TIM_OCInitStruct->TIM_OCIdleState << 2);
 661              		.loc 1 413 42
 662 00c6 3B68     		ldr	r3, [r7]
 663 00c8 9B89     		ldrh	r3, [r3, #12]
 664              		.loc 1 413 15
 665 00ca 9B00     		lsls	r3, r3, #2
 666 00cc 9AB2     		uxth	r2, r3
 667              		.loc 1 413 12
 668 00ce BB89     		ldrh	r3, [r7, #12]	@ movhi
 669 00d0 1343     		orrs	r3, r3, r2
 670 00d2 BB81     		strh	r3, [r7, #12]	@ movhi
 414:common/lib.stm32/STM32F10x_StdPeriph_Driver/src/stm32f10x_tim.c ****     /* Set the Output N Idle state */
 415:common/lib.stm32/STM32F10x_StdPeriph_Driver/src/stm32f10x_tim.c ****     tmpcr2 |= (uint16_t)(TIM_OCInitStruct->TIM_OCNIdleState << 2);
 671              		.loc 1 415 42
 672 00d4 3B68     		ldr	r3, [r7]
 673 00d6 DB89     		ldrh	r3, [r3, #14]
 674              		.loc 1 415 15
 675 00d8 9B00     		lsls	r3, r3, #2
 676 00da 9AB2     		uxth	r2, r3
 677              		.loc 1 415 12
 678 00dc BB89     		ldrh	r3, [r7, #12]	@ movhi
 679 00de 1343     		orrs	r3, r3, r2
 680 00e0 BB81     		strh	r3, [r7, #12]	@ movhi
 681              	.L25:
 416:common/lib.stm32/STM32F10x_StdPeriph_Driver/src/stm32f10x_tim.c ****   }
 417:common/lib.stm32/STM32F10x_StdPeriph_Driver/src/stm32f10x_tim.c ****   /* Write to TIMx CR2 */
 418:common/lib.stm32/STM32F10x_StdPeriph_Driver/src/stm32f10x_tim.c ****   TIMx->CR2 = tmpcr2;
 682              		.loc 1 418 13
 683 00e2 7B68     		ldr	r3, [r7, #4]
 684 00e4 BA89     		ldrh	r2, [r7, #12]	@ movhi
 685 00e6 9A80     		strh	r2, [r3, #4]	@ movhi
 419:common/lib.stm32/STM32F10x_StdPeriph_Driver/src/stm32f10x_tim.c ****   
 420:common/lib.stm32/STM32F10x_StdPeriph_Driver/src/stm32f10x_tim.c ****   /* Write to TIMx CCMR1 */
 421:common/lib.stm32/STM32F10x_StdPeriph_Driver/src/stm32f10x_tim.c ****   TIMx->CCMR1 = tmpccmrx;
 686              		.loc 1 421 15
 687 00e8 7B68     		ldr	r3, [r7, #4]
 688 00ea 7A89     		ldrh	r2, [r7, #10]	@ movhi
 689 00ec 1A83     		strh	r2, [r3, #24]	@ movhi
 422:common/lib.stm32/STM32F10x_StdPeriph_Driver/src/stm32f10x_tim.c **** 
 423:common/lib.stm32/STM32F10x_StdPeriph_Driver/src/stm32f10x_tim.c ****   /* Set the Capture Compare Register value */
 424:common/lib.stm32/STM32F10x_StdPeriph_Driver/src/stm32f10x_tim.c ****   TIMx->CCR2 = TIM_OCInitStruct->TIM_Pulse;
 690              		.loc 1 424 32
 691 00ee 3B68     		ldr	r3, [r7]
 692 00f0 DA88     		ldrh	r2, [r3, #6]
 693              		.loc 1 424 14
 694 00f2 7B68     		ldr	r3, [r7, #4]
 695 00f4 1A87     		strh	r2, [r3, #56]	@ movhi
 425:common/lib.stm32/STM32F10x_StdPeriph_Driver/src/stm32f10x_tim.c ****   
 426:common/lib.stm32/STM32F10x_StdPeriph_Driver/src/stm32f10x_tim.c ****   /* Write to TIMx CCER */
 427:common/lib.stm32/STM32F10x_StdPeriph_Driver/src/stm32f10x_tim.c ****   TIMx->CCER = tmpccer;
 696              		.loc 1 427 14
 697 00f6 7B68     		ldr	r3, [r7, #4]
 698 00f8 FA89     		ldrh	r2, [r7, #14]	@ movhi
 699 00fa 1A84     		strh	r2, [r3, #32]	@ movhi
 428:common/lib.stm32/STM32F10x_StdPeriph_Driver/src/stm32f10x_tim.c **** }
 700              		.loc 1 428 1
 701 00fc 00BF     		nop
 702 00fe 1437     		adds	r7, r7, #20
 703              	.LCFI20:
 704              		.cfi_def_cfa_offset 4
 705 0100 BD46     		mov	sp, r7
 706              	.LCFI21:
 707              		.cfi_def_cfa_register 13
 708              		@ sp needed
 709 0102 80BC     		pop	{r7}
 710              	.LCFI22:
 711              		.cfi_restore 7
 712              		.cfi_def_cfa_offset 0
 713 0104 7047     		bx	lr
 714              	.L27:
 715 0106 00BF     		.align	2
 716              	.L26:
 717 0108 002C0140 		.word	1073818624
 718 010c 00340140 		.word	1073820672
 719              		.cfi_endproc
 720              	.LFE30:
 722              		.section	.text.TIM_OC3Init,"ax",%progbits
 723              		.align	1
 724              		.global	TIM_OC3Init
 725              		.syntax unified
 726              		.thumb
 727              		.thumb_func
 729              	TIM_OC3Init:
 730              	.LFB31:
 429:common/lib.stm32/STM32F10x_StdPeriph_Driver/src/stm32f10x_tim.c **** 
 430:common/lib.stm32/STM32F10x_StdPeriph_Driver/src/stm32f10x_tim.c **** /**
 431:common/lib.stm32/STM32F10x_StdPeriph_Driver/src/stm32f10x_tim.c ****   * @brief  Initializes the TIMx Channel3 according to the specified
 432:common/lib.stm32/STM32F10x_StdPeriph_Driver/src/stm32f10x_tim.c ****   *   parameters in the TIM_OCInitStruct.
 433:common/lib.stm32/STM32F10x_StdPeriph_Driver/src/stm32f10x_tim.c ****   * @param  TIMx: where x can be  1, 2, 3, 4, 5 or 8 to select the TIM peripheral.
 434:common/lib.stm32/STM32F10x_StdPeriph_Driver/src/stm32f10x_tim.c ****   * @param  TIM_OCInitStruct: pointer to a TIM_OCInitTypeDef structure
 435:common/lib.stm32/STM32F10x_StdPeriph_Driver/src/stm32f10x_tim.c ****   *   that contains the configuration information for the specified TIM peripheral.
 436:common/lib.stm32/STM32F10x_StdPeriph_Driver/src/stm32f10x_tim.c ****   * @retval None
 437:common/lib.stm32/STM32F10x_StdPeriph_Driver/src/stm32f10x_tim.c ****   */
 438:common/lib.stm32/STM32F10x_StdPeriph_Driver/src/stm32f10x_tim.c **** void TIM_OC3Init(TIM_TypeDef* TIMx, TIM_OCInitTypeDef* TIM_OCInitStruct)
 439:common/lib.stm32/STM32F10x_StdPeriph_Driver/src/stm32f10x_tim.c **** {
 731              		.loc 1 439 1
 732              		.cfi_startproc
 733              		@ args = 0, pretend = 0, frame = 16
 734              		@ frame_needed = 1, uses_anonymous_args = 0
 735              		@ link register save eliminated.
 736 0000 80B4     		push	{r7}
 737              	.LCFI23:
 738              		.cfi_def_cfa_offset 4
 739              		.cfi_offset 7, -4
 740 0002 85B0     		sub	sp, sp, #20
 741              	.LCFI24:
 742              		.cfi_def_cfa_offset 24
 743 0004 00AF     		add	r7, sp, #0
 744              	.LCFI25:
 745              		.cfi_def_cfa_register 7
 746 0006 7860     		str	r0, [r7, #4]
 747 0008 3960     		str	r1, [r7]
 440:common/lib.stm32/STM32F10x_StdPeriph_Driver/src/stm32f10x_tim.c ****   uint16_t tmpccmrx = 0, tmpccer = 0, tmpcr2 = 0;
 748              		.loc 1 440 12
 749 000a 0023     		movs	r3, #0
 750 000c 7B81     		strh	r3, [r7, #10]	@ movhi
 751              		.loc 1 440 26
 752 000e 0023     		movs	r3, #0
 753 0010 FB81     		strh	r3, [r7, #14]	@ movhi
 754              		.loc 1 440 39
 755 0012 0023     		movs	r3, #0
 756 0014 BB81     		strh	r3, [r7, #12]	@ movhi
 441:common/lib.stm32/STM32F10x_StdPeriph_Driver/src/stm32f10x_tim.c ****    
 442:common/lib.stm32/STM32F10x_StdPeriph_Driver/src/stm32f10x_tim.c ****   /* Check the parameters */
 443:common/lib.stm32/STM32F10x_StdPeriph_Driver/src/stm32f10x_tim.c ****   assert_param(IS_TIM_123458_PERIPH(TIMx)); 
 444:common/lib.stm32/STM32F10x_StdPeriph_Driver/src/stm32f10x_tim.c ****   assert_param(IS_TIM_OC_MODE(TIM_OCInitStruct->TIM_OCMode));
 445:common/lib.stm32/STM32F10x_StdPeriph_Driver/src/stm32f10x_tim.c ****   assert_param(IS_TIM_OUTPUT_STATE(TIM_OCInitStruct->TIM_OutputState));
 446:common/lib.stm32/STM32F10x_StdPeriph_Driver/src/stm32f10x_tim.c ****   assert_param(IS_TIM_OC_POLARITY(TIM_OCInitStruct->TIM_OCPolarity));   
 447:common/lib.stm32/STM32F10x_StdPeriph_Driver/src/stm32f10x_tim.c ****   /* Disable the Channel 2: Reset the CC2E Bit */
 448:common/lib.stm32/STM32F10x_StdPeriph_Driver/src/stm32f10x_tim.c ****   TIMx->CCER &= CCER_CC3E_Reset;
 757              		.loc 1 448 14
 758 0016 7B68     		ldr	r3, [r7, #4]
 759 0018 1B8C     		ldrh	r3, [r3, #32]	@ movhi
 760 001a 9BB2     		uxth	r3, r3
 761 001c 23F48073 		bic	r3, r3, #256
 762 0020 9AB2     		uxth	r2, r3
 763 0022 7B68     		ldr	r3, [r7, #4]
 764 0024 1A84     		strh	r2, [r3, #32]	@ movhi
 449:common/lib.stm32/STM32F10x_StdPeriph_Driver/src/stm32f10x_tim.c ****   
 450:common/lib.stm32/STM32F10x_StdPeriph_Driver/src/stm32f10x_tim.c ****   /* Get the TIMx CCER register value */
 451:common/lib.stm32/STM32F10x_StdPeriph_Driver/src/stm32f10x_tim.c ****   tmpccer = TIMx->CCER;
 765              		.loc 1 451 11
 766 0026 7B68     		ldr	r3, [r7, #4]
 767 0028 1B8C     		ldrh	r3, [r3, #32]	@ movhi
 768 002a FB81     		strh	r3, [r7, #14]	@ movhi
 452:common/lib.stm32/STM32F10x_StdPeriph_Driver/src/stm32f10x_tim.c ****   /* Get the TIMx CR2 register value */
 453:common/lib.stm32/STM32F10x_StdPeriph_Driver/src/stm32f10x_tim.c ****   tmpcr2 =  TIMx->CR2;
 769              		.loc 1 453 10
 770 002c 7B68     		ldr	r3, [r7, #4]
 771 002e 9B88     		ldrh	r3, [r3, #4]	@ movhi
 772 0030 BB81     		strh	r3, [r7, #12]	@ movhi
 454:common/lib.stm32/STM32F10x_StdPeriph_Driver/src/stm32f10x_tim.c ****   
 455:common/lib.stm32/STM32F10x_StdPeriph_Driver/src/stm32f10x_tim.c ****   /* Get the TIMx CCMR2 register value */
 456:common/lib.stm32/STM32F10x_StdPeriph_Driver/src/stm32f10x_tim.c ****   tmpccmrx = TIMx->CCMR2;
 773              		.loc 1 456 12
 774 0032 7B68     		ldr	r3, [r7, #4]
 775 0034 9B8B     		ldrh	r3, [r3, #28]	@ movhi
 776 0036 7B81     		strh	r3, [r7, #10]	@ movhi
 457:common/lib.stm32/STM32F10x_StdPeriph_Driver/src/stm32f10x_tim.c ****     
 458:common/lib.stm32/STM32F10x_StdPeriph_Driver/src/stm32f10x_tim.c ****   /* Reset the Output Compare mode and Capture/Compare selection Bits */
 459:common/lib.stm32/STM32F10x_StdPeriph_Driver/src/stm32f10x_tim.c ****   tmpccmrx &= CCMR_OC13M_Mask & CCMR_CC13S_Mask;  
 777              		.loc 1 459 12
 778 0038 7B89     		ldrh	r3, [r7, #10]	@ movhi
 779 003a 23F07303 		bic	r3, r3, #115
 780 003e 7B81     		strh	r3, [r7, #10]	@ movhi
 460:common/lib.stm32/STM32F10x_StdPeriph_Driver/src/stm32f10x_tim.c ****   
 461:common/lib.stm32/STM32F10x_StdPeriph_Driver/src/stm32f10x_tim.c ****   /* Select the Output Compare Mode */
 462:common/lib.stm32/STM32F10x_StdPeriph_Driver/src/stm32f10x_tim.c ****   tmpccmrx |= TIM_OCInitStruct->TIM_OCMode;
 781              		.loc 1 462 31
 782 0040 3B68     		ldr	r3, [r7]
 783 0042 1A88     		ldrh	r2, [r3]
 784              		.loc 1 462 12
 785 0044 7B89     		ldrh	r3, [r7, #10]	@ movhi
 786 0046 1343     		orrs	r3, r3, r2
 787 0048 7B81     		strh	r3, [r7, #10]	@ movhi
 463:common/lib.stm32/STM32F10x_StdPeriph_Driver/src/stm32f10x_tim.c ****   
 464:common/lib.stm32/STM32F10x_StdPeriph_Driver/src/stm32f10x_tim.c ****   /* Reset the Output Polarity level */
 465:common/lib.stm32/STM32F10x_StdPeriph_Driver/src/stm32f10x_tim.c ****   tmpccer &= CCER_CC3P_Reset;
 788              		.loc 1 465 11
 789 004a FB89     		ldrh	r3, [r7, #14]	@ movhi
 790 004c 23F40073 		bic	r3, r3, #512
 791 0050 FB81     		strh	r3, [r7, #14]	@ movhi
 466:common/lib.stm32/STM32F10x_StdPeriph_Driver/src/stm32f10x_tim.c ****   /* Set the Output Compare Polarity */
 467:common/lib.stm32/STM32F10x_StdPeriph_Driver/src/stm32f10x_tim.c ****   tmpccer |= (uint16_t)(TIM_OCInitStruct->TIM_OCPolarity << 8);
 792              		.loc 1 467 41
 793 0052 3B68     		ldr	r3, [r7]
 794 0054 1B89     		ldrh	r3, [r3, #8]
 795              		.loc 1 467 14
 796 0056 1B02     		lsls	r3, r3, #8
 797 0058 9AB2     		uxth	r2, r3
 798              		.loc 1 467 11
 799 005a FB89     		ldrh	r3, [r7, #14]	@ movhi
 800 005c 1343     		orrs	r3, r3, r2
 801 005e FB81     		strh	r3, [r7, #14]	@ movhi
 468:common/lib.stm32/STM32F10x_StdPeriph_Driver/src/stm32f10x_tim.c ****   
 469:common/lib.stm32/STM32F10x_StdPeriph_Driver/src/stm32f10x_tim.c ****   /* Set the Output State */
 470:common/lib.stm32/STM32F10x_StdPeriph_Driver/src/stm32f10x_tim.c ****   tmpccer |= (uint16_t)(TIM_OCInitStruct->TIM_OutputState << 8);
 802              		.loc 1 470 41
 803 0060 3B68     		ldr	r3, [r7]
 804 0062 5B88     		ldrh	r3, [r3, #2]
 805              		.loc 1 470 14
 806 0064 1B02     		lsls	r3, r3, #8
 807 0066 9AB2     		uxth	r2, r3
 808              		.loc 1 470 11
 809 0068 FB89     		ldrh	r3, [r7, #14]	@ movhi
 810 006a 1343     		orrs	r3, r3, r2
 811 006c FB81     		strh	r3, [r7, #14]	@ movhi
 471:common/lib.stm32/STM32F10x_StdPeriph_Driver/src/stm32f10x_tim.c ****    
 472:common/lib.stm32/STM32F10x_StdPeriph_Driver/src/stm32f10x_tim.c ****   if(((uint32_t) TIMx == TIM1_BASE) || ((uint32_t) TIMx == TIM8_BASE))
 812              		.loc 1 472 5
 813 006e 7B68     		ldr	r3, [r7, #4]
 814 0070 244A     		ldr	r2, .L31
 815 0072 9342     		cmp	r3, r2
 816 0074 03D0     		beq	.L29
 817              		.loc 1 472 37 discriminator 1
 818 0076 7B68     		ldr	r3, [r7, #4]
 819 0078 234A     		ldr	r2, .L31+4
 820 007a 9342     		cmp	r3, r2
 821 007c 2FD1     		bne	.L30
 822              	.L29:
 473:common/lib.stm32/STM32F10x_StdPeriph_Driver/src/stm32f10x_tim.c ****   {
 474:common/lib.stm32/STM32F10x_StdPeriph_Driver/src/stm32f10x_tim.c ****     assert_param(IS_TIM_OUTPUTN_STATE(TIM_OCInitStruct->TIM_OutputNState));
 475:common/lib.stm32/STM32F10x_StdPeriph_Driver/src/stm32f10x_tim.c ****     assert_param(IS_TIM_OCN_POLARITY(TIM_OCInitStruct->TIM_OCNPolarity));
 476:common/lib.stm32/STM32F10x_StdPeriph_Driver/src/stm32f10x_tim.c ****     assert_param(IS_TIM_OCNIDLE_STATE(TIM_OCInitStruct->TIM_OCNIdleState));
 477:common/lib.stm32/STM32F10x_StdPeriph_Driver/src/stm32f10x_tim.c ****     assert_param(IS_TIM_OCIDLE_STATE(TIM_OCInitStruct->TIM_OCIdleState));
 478:common/lib.stm32/STM32F10x_StdPeriph_Driver/src/stm32f10x_tim.c ****     
 479:common/lib.stm32/STM32F10x_StdPeriph_Driver/src/stm32f10x_tim.c ****     /* Reset the Output N Polarity level */
 480:common/lib.stm32/STM32F10x_StdPeriph_Driver/src/stm32f10x_tim.c ****     tmpccer &= CCER_CC3NP_Reset;
 823              		.loc 1 480 13
 824 007e FB89     		ldrh	r3, [r7, #14]	@ movhi
 825 0080 23F40063 		bic	r3, r3, #2048
 826 0084 FB81     		strh	r3, [r7, #14]	@ movhi
 481:common/lib.stm32/STM32F10x_StdPeriph_Driver/src/stm32f10x_tim.c ****     /* Set the Output N Polarity */
 482:common/lib.stm32/STM32F10x_StdPeriph_Driver/src/stm32f10x_tim.c ****     tmpccer |= (uint16_t)(TIM_OCInitStruct->TIM_OCNPolarity << 8);
 827              		.loc 1 482 43
 828 0086 3B68     		ldr	r3, [r7]
 829 0088 5B89     		ldrh	r3, [r3, #10]
 830              		.loc 1 482 16
 831 008a 1B02     		lsls	r3, r3, #8
 832 008c 9AB2     		uxth	r2, r3
 833              		.loc 1 482 13
 834 008e FB89     		ldrh	r3, [r7, #14]	@ movhi
 835 0090 1343     		orrs	r3, r3, r2
 836 0092 FB81     		strh	r3, [r7, #14]	@ movhi
 483:common/lib.stm32/STM32F10x_StdPeriph_Driver/src/stm32f10x_tim.c ****     /* Reset the Output N State */
 484:common/lib.stm32/STM32F10x_StdPeriph_Driver/src/stm32f10x_tim.c ****     tmpccer &= CCER_CC3NE_Reset;
 837              		.loc 1 484 13
 838 0094 FB89     		ldrh	r3, [r7, #14]	@ movhi
 839 0096 23F48063 		bic	r3, r3, #1024
 840 009a FB81     		strh	r3, [r7, #14]	@ movhi
 485:common/lib.stm32/STM32F10x_StdPeriph_Driver/src/stm32f10x_tim.c ****     
 486:common/lib.stm32/STM32F10x_StdPeriph_Driver/src/stm32f10x_tim.c ****     /* Set the Output N State */
 487:common/lib.stm32/STM32F10x_StdPeriph_Driver/src/stm32f10x_tim.c ****     tmpccer |= (uint16_t)(TIM_OCInitStruct->TIM_OutputNState << 8);
 841              		.loc 1 487 43
 842 009c 3B68     		ldr	r3, [r7]
 843 009e 9B88     		ldrh	r3, [r3, #4]
 844              		.loc 1 487 16
 845 00a0 1B02     		lsls	r3, r3, #8
 846 00a2 9AB2     		uxth	r2, r3
 847              		.loc 1 487 13
 848 00a4 FB89     		ldrh	r3, [r7, #14]	@ movhi
 849 00a6 1343     		orrs	r3, r3, r2
 850 00a8 FB81     		strh	r3, [r7, #14]	@ movhi
 488:common/lib.stm32/STM32F10x_StdPeriph_Driver/src/stm32f10x_tim.c ****     /* Reset the Ouput Compare and Output Compare N IDLE State */
 489:common/lib.stm32/STM32F10x_StdPeriph_Driver/src/stm32f10x_tim.c ****     tmpcr2 &= CR2_OIS3_Reset;
 851              		.loc 1 489 12
 852 00aa BB89     		ldrh	r3, [r7, #12]	@ movhi
 853 00ac 23F48053 		bic	r3, r3, #4096
 854 00b0 5B04     		lsls	r3, r3, #17
 855 00b2 5B0C     		lsrs	r3, r3, #17
 856 00b4 BB81     		strh	r3, [r7, #12]	@ movhi
 490:common/lib.stm32/STM32F10x_StdPeriph_Driver/src/stm32f10x_tim.c ****     tmpcr2 &= CR2_OIS3N_Reset;
 857              		.loc 1 490 12
 858 00b6 BB89     		ldrh	r3, [r7, #12]	@ movhi
 859 00b8 23F40053 		bic	r3, r3, #8192
 860 00bc 5B04     		lsls	r3, r3, #17
 861 00be 5B0C     		lsrs	r3, r3, #17
 862 00c0 BB81     		strh	r3, [r7, #12]	@ movhi
 491:common/lib.stm32/STM32F10x_StdPeriph_Driver/src/stm32f10x_tim.c ****     /* Set the Output Idle state */
 492:common/lib.stm32/STM32F10x_StdPeriph_Driver/src/stm32f10x_tim.c ****     tmpcr2 |= (uint16_t)(TIM_OCInitStruct->TIM_OCIdleState << 4);
 863              		.loc 1 492 42
 864 00c2 3B68     		ldr	r3, [r7]
 865 00c4 9B89     		ldrh	r3, [r3, #12]
 866              		.loc 1 492 15
 867 00c6 1B01     		lsls	r3, r3, #4
 868 00c8 9AB2     		uxth	r2, r3
 869              		.loc 1 492 12
 870 00ca BB89     		ldrh	r3, [r7, #12]	@ movhi
 871 00cc 1343     		orrs	r3, r3, r2
 872 00ce BB81     		strh	r3, [r7, #12]	@ movhi
 493:common/lib.stm32/STM32F10x_StdPeriph_Driver/src/stm32f10x_tim.c ****     /* Set the Output N Idle state */
 494:common/lib.stm32/STM32F10x_StdPeriph_Driver/src/stm32f10x_tim.c ****     tmpcr2 |= (uint16_t)(TIM_OCInitStruct->TIM_OCNIdleState << 4);
 873              		.loc 1 494 42
 874 00d0 3B68     		ldr	r3, [r7]
 875 00d2 DB89     		ldrh	r3, [r3, #14]
 876              		.loc 1 494 15
 877 00d4 1B01     		lsls	r3, r3, #4
 878 00d6 9AB2     		uxth	r2, r3
 879              		.loc 1 494 12
 880 00d8 BB89     		ldrh	r3, [r7, #12]	@ movhi
 881 00da 1343     		orrs	r3, r3, r2
 882 00dc BB81     		strh	r3, [r7, #12]	@ movhi
 883              	.L30:
 495:common/lib.stm32/STM32F10x_StdPeriph_Driver/src/stm32f10x_tim.c ****   }
 496:common/lib.stm32/STM32F10x_StdPeriph_Driver/src/stm32f10x_tim.c ****   /* Write to TIMx CR2 */
 497:common/lib.stm32/STM32F10x_StdPeriph_Driver/src/stm32f10x_tim.c ****   TIMx->CR2 = tmpcr2;
 884              		.loc 1 497 13
 885 00de 7B68     		ldr	r3, [r7, #4]
 886 00e0 BA89     		ldrh	r2, [r7, #12]	@ movhi
 887 00e2 9A80     		strh	r2, [r3, #4]	@ movhi
 498:common/lib.stm32/STM32F10x_StdPeriph_Driver/src/stm32f10x_tim.c ****   
 499:common/lib.stm32/STM32F10x_StdPeriph_Driver/src/stm32f10x_tim.c ****   /* Write to TIMx CCMR2 */
 500:common/lib.stm32/STM32F10x_StdPeriph_Driver/src/stm32f10x_tim.c ****   TIMx->CCMR2 = tmpccmrx;
 888              		.loc 1 500 15
 889 00e4 7B68     		ldr	r3, [r7, #4]
 890 00e6 7A89     		ldrh	r2, [r7, #10]	@ movhi
 891 00e8 9A83     		strh	r2, [r3, #28]	@ movhi
 501:common/lib.stm32/STM32F10x_StdPeriph_Driver/src/stm32f10x_tim.c **** 
 502:common/lib.stm32/STM32F10x_StdPeriph_Driver/src/stm32f10x_tim.c ****   /* Set the Capture Compare Register value */
 503:common/lib.stm32/STM32F10x_StdPeriph_Driver/src/stm32f10x_tim.c ****   TIMx->CCR3 = TIM_OCInitStruct->TIM_Pulse;
 892              		.loc 1 503 32
 893 00ea 3B68     		ldr	r3, [r7]
 894 00ec DA88     		ldrh	r2, [r3, #6]
 895              		.loc 1 503 14
 896 00ee 7B68     		ldr	r3, [r7, #4]
 897 00f0 9A87     		strh	r2, [r3, #60]	@ movhi
 504:common/lib.stm32/STM32F10x_StdPeriph_Driver/src/stm32f10x_tim.c ****   
 505:common/lib.stm32/STM32F10x_StdPeriph_Driver/src/stm32f10x_tim.c ****   /* Write to TIMx CCER */
 506:common/lib.stm32/STM32F10x_StdPeriph_Driver/src/stm32f10x_tim.c ****   TIMx->CCER = tmpccer;
 898              		.loc 1 506 14
 899 00f2 7B68     		ldr	r3, [r7, #4]
 900 00f4 FA89     		ldrh	r2, [r7, #14]	@ movhi
 901 00f6 1A84     		strh	r2, [r3, #32]	@ movhi
 507:common/lib.stm32/STM32F10x_StdPeriph_Driver/src/stm32f10x_tim.c **** }
 902              		.loc 1 507 1
 903 00f8 00BF     		nop
 904 00fa 1437     		adds	r7, r7, #20
 905              	.LCFI26:
 906              		.cfi_def_cfa_offset 4
 907 00fc BD46     		mov	sp, r7
 908              	.LCFI27:
 909              		.cfi_def_cfa_register 13
 910              		@ sp needed
 911 00fe 80BC     		pop	{r7}
 912              	.LCFI28:
 913              		.cfi_restore 7
 914              		.cfi_def_cfa_offset 0
 915 0100 7047     		bx	lr
 916              	.L32:
 917 0102 00BF     		.align	2
 918              	.L31:
 919 0104 002C0140 		.word	1073818624
 920 0108 00340140 		.word	1073820672
 921              		.cfi_endproc
 922              	.LFE31:
 924              		.section	.text.TIM_OC4Init,"ax",%progbits
 925              		.align	1
 926              		.global	TIM_OC4Init
 927              		.syntax unified
 928              		.thumb
 929              		.thumb_func
 931              	TIM_OC4Init:
 932              	.LFB32:
 508:common/lib.stm32/STM32F10x_StdPeriph_Driver/src/stm32f10x_tim.c **** 
 509:common/lib.stm32/STM32F10x_StdPeriph_Driver/src/stm32f10x_tim.c **** /**
 510:common/lib.stm32/STM32F10x_StdPeriph_Driver/src/stm32f10x_tim.c ****   * @brief  Initializes the TIMx Channel4 according to the specified
 511:common/lib.stm32/STM32F10x_StdPeriph_Driver/src/stm32f10x_tim.c ****   *   parameters in the TIM_OCInitStruct.
 512:common/lib.stm32/STM32F10x_StdPeriph_Driver/src/stm32f10x_tim.c ****   * @param  TIMx: where x can be  1, 2, 3, 4, 5 or 8 to select the TIM peripheral.
 513:common/lib.stm32/STM32F10x_StdPeriph_Driver/src/stm32f10x_tim.c ****   * @param  TIM_OCInitStruct: pointer to a TIM_OCInitTypeDef structure
 514:common/lib.stm32/STM32F10x_StdPeriph_Driver/src/stm32f10x_tim.c ****   *   that contains the configuration information for the specified TIM peripheral.
 515:common/lib.stm32/STM32F10x_StdPeriph_Driver/src/stm32f10x_tim.c ****   * @retval None
 516:common/lib.stm32/STM32F10x_StdPeriph_Driver/src/stm32f10x_tim.c ****   */
 517:common/lib.stm32/STM32F10x_StdPeriph_Driver/src/stm32f10x_tim.c **** void TIM_OC4Init(TIM_TypeDef* TIMx, TIM_OCInitTypeDef* TIM_OCInitStruct)
 518:common/lib.stm32/STM32F10x_StdPeriph_Driver/src/stm32f10x_tim.c **** {
 933              		.loc 1 518 1
 934              		.cfi_startproc
 935              		@ args = 0, pretend = 0, frame = 16
 936              		@ frame_needed = 1, uses_anonymous_args = 0
 937              		@ link register save eliminated.
 938 0000 80B4     		push	{r7}
 939              	.LCFI29:
 940              		.cfi_def_cfa_offset 4
 941              		.cfi_offset 7, -4
 942 0002 85B0     		sub	sp, sp, #20
 943              	.LCFI30:
 944              		.cfi_def_cfa_offset 24
 945 0004 00AF     		add	r7, sp, #0
 946              	.LCFI31:
 947              		.cfi_def_cfa_register 7
 948 0006 7860     		str	r0, [r7, #4]
 949 0008 3960     		str	r1, [r7]
 519:common/lib.stm32/STM32F10x_StdPeriph_Driver/src/stm32f10x_tim.c ****   uint16_t tmpccmrx = 0, tmpccer = 0, tmpcr2 = 0;
 950              		.loc 1 519 12
 951 000a 0023     		movs	r3, #0
 952 000c BB81     		strh	r3, [r7, #12]	@ movhi
 953              		.loc 1 519 26
 954 000e 0023     		movs	r3, #0
 955 0010 7B81     		strh	r3, [r7, #10]	@ movhi
 956              		.loc 1 519 39
 957 0012 0023     		movs	r3, #0
 958 0014 FB81     		strh	r3, [r7, #14]	@ movhi
 520:common/lib.stm32/STM32F10x_StdPeriph_Driver/src/stm32f10x_tim.c ****    
 521:common/lib.stm32/STM32F10x_StdPeriph_Driver/src/stm32f10x_tim.c ****   /* Check the parameters */
 522:common/lib.stm32/STM32F10x_StdPeriph_Driver/src/stm32f10x_tim.c ****   assert_param(IS_TIM_123458_PERIPH(TIMx)); 
 523:common/lib.stm32/STM32F10x_StdPeriph_Driver/src/stm32f10x_tim.c ****   assert_param(IS_TIM_OC_MODE(TIM_OCInitStruct->TIM_OCMode));
 524:common/lib.stm32/STM32F10x_StdPeriph_Driver/src/stm32f10x_tim.c ****   assert_param(IS_TIM_OUTPUT_STATE(TIM_OCInitStruct->TIM_OutputState));
 525:common/lib.stm32/STM32F10x_StdPeriph_Driver/src/stm32f10x_tim.c ****   assert_param(IS_TIM_OC_POLARITY(TIM_OCInitStruct->TIM_OCPolarity));   
 526:common/lib.stm32/STM32F10x_StdPeriph_Driver/src/stm32f10x_tim.c ****   /* Disable the Channel 2: Reset the CC4E Bit */
 527:common/lib.stm32/STM32F10x_StdPeriph_Driver/src/stm32f10x_tim.c ****   TIMx->CCER &= CCER_CC4E_Reset;
 959              		.loc 1 527 14
 960 0016 7B68     		ldr	r3, [r7, #4]
 961 0018 1B8C     		ldrh	r3, [r3, #32]	@ movhi
 962 001a 9BB2     		uxth	r3, r3
 963 001c 23F48053 		bic	r3, r3, #4096
 964 0020 9AB2     		uxth	r2, r3
 965 0022 7B68     		ldr	r3, [r7, #4]
 966 0024 1A84     		strh	r2, [r3, #32]	@ movhi
 528:common/lib.stm32/STM32F10x_StdPeriph_Driver/src/stm32f10x_tim.c ****   
 529:common/lib.stm32/STM32F10x_StdPeriph_Driver/src/stm32f10x_tim.c ****   /* Get the TIMx CCER register value */
 530:common/lib.stm32/STM32F10x_StdPeriph_Driver/src/stm32f10x_tim.c ****   tmpccer = TIMx->CCER;
 967              		.loc 1 530 11
 968 0026 7B68     		ldr	r3, [r7, #4]
 969 0028 1B8C     		ldrh	r3, [r3, #32]	@ movhi
 970 002a 7B81     		strh	r3, [r7, #10]	@ movhi
 531:common/lib.stm32/STM32F10x_StdPeriph_Driver/src/stm32f10x_tim.c ****   /* Get the TIMx CR2 register value */
 532:common/lib.stm32/STM32F10x_StdPeriph_Driver/src/stm32f10x_tim.c ****   tmpcr2 =  TIMx->CR2;
 971              		.loc 1 532 10
 972 002c 7B68     		ldr	r3, [r7, #4]
 973 002e 9B88     		ldrh	r3, [r3, #4]	@ movhi
 974 0030 FB81     		strh	r3, [r7, #14]	@ movhi
 533:common/lib.stm32/STM32F10x_StdPeriph_Driver/src/stm32f10x_tim.c ****   
 534:common/lib.stm32/STM32F10x_StdPeriph_Driver/src/stm32f10x_tim.c ****   /* Get the TIMx CCMR2 register value */
 535:common/lib.stm32/STM32F10x_StdPeriph_Driver/src/stm32f10x_tim.c ****   tmpccmrx = TIMx->CCMR2;
 975              		.loc 1 535 12
 976 0032 7B68     		ldr	r3, [r7, #4]
 977 0034 9B8B     		ldrh	r3, [r3, #28]	@ movhi
 978 0036 BB81     		strh	r3, [r7, #12]	@ movhi
 536:common/lib.stm32/STM32F10x_StdPeriph_Driver/src/stm32f10x_tim.c ****     
 537:common/lib.stm32/STM32F10x_StdPeriph_Driver/src/stm32f10x_tim.c ****   /* Reset the Output Compare mode and Capture/Compare selection Bits */
 538:common/lib.stm32/STM32F10x_StdPeriph_Driver/src/stm32f10x_tim.c ****   tmpccmrx &= CCMR_OC24M_Mask & CCMR_CC24S_Mask; 
 979              		.loc 1 538 12
 980 0038 BB89     		ldrh	r3, [r7, #12]	@ movhi
 981 003a 23F4E643 		bic	r3, r3, #29440
 982 003e BB81     		strh	r3, [r7, #12]	@ movhi
 539:common/lib.stm32/STM32F10x_StdPeriph_Driver/src/stm32f10x_tim.c ****    
 540:common/lib.stm32/STM32F10x_StdPeriph_Driver/src/stm32f10x_tim.c ****   /* Select the Output Compare Mode */
 541:common/lib.stm32/STM32F10x_StdPeriph_Driver/src/stm32f10x_tim.c ****   tmpccmrx |= (uint16_t)(TIM_OCInitStruct->TIM_OCMode << 8);
 983              		.loc 1 541 42
 984 0040 3B68     		ldr	r3, [r7]
 985 0042 1B88     		ldrh	r3, [r3]
 986              		.loc 1 541 15
 987 0044 1B02     		lsls	r3, r3, #8
 988 0046 9AB2     		uxth	r2, r3
 989              		.loc 1 541 12
 990 0048 BB89     		ldrh	r3, [r7, #12]	@ movhi
 991 004a 1343     		orrs	r3, r3, r2
 992 004c BB81     		strh	r3, [r7, #12]	@ movhi
 542:common/lib.stm32/STM32F10x_StdPeriph_Driver/src/stm32f10x_tim.c ****   
 543:common/lib.stm32/STM32F10x_StdPeriph_Driver/src/stm32f10x_tim.c ****   /* Reset the Output Polarity level */
 544:common/lib.stm32/STM32F10x_StdPeriph_Driver/src/stm32f10x_tim.c ****   tmpccer &= CCER_CC4P_Reset;
 993              		.loc 1 544 11
 994 004e 7B89     		ldrh	r3, [r7, #10]	@ movhi
 995 0050 23F40053 		bic	r3, r3, #8192
 996 0054 7B81     		strh	r3, [r7, #10]	@ movhi
 545:common/lib.stm32/STM32F10x_StdPeriph_Driver/src/stm32f10x_tim.c ****   /* Set the Output Compare Polarity */
 546:common/lib.stm32/STM32F10x_StdPeriph_Driver/src/stm32f10x_tim.c ****   tmpccer |= (uint16_t)(TIM_OCInitStruct->TIM_OCPolarity << 12);
 997              		.loc 1 546 41
 998 0056 3B68     		ldr	r3, [r7]
 999 0058 1B89     		ldrh	r3, [r3, #8]
 1000              		.loc 1 546 14
 1001 005a 1B03     		lsls	r3, r3, #12
 1002 005c 9AB2     		uxth	r2, r3
 1003              		.loc 1 546 11
 1004 005e 7B89     		ldrh	r3, [r7, #10]	@ movhi
 1005 0060 1343     		orrs	r3, r3, r2
 1006 0062 7B81     		strh	r3, [r7, #10]	@ movhi
 547:common/lib.stm32/STM32F10x_StdPeriph_Driver/src/stm32f10x_tim.c ****   
 548:common/lib.stm32/STM32F10x_StdPeriph_Driver/src/stm32f10x_tim.c ****   /* Set the Output State */
 549:common/lib.stm32/STM32F10x_StdPeriph_Driver/src/stm32f10x_tim.c ****   tmpccer |= (uint16_t)(TIM_OCInitStruct->TIM_OutputState << 12);
 1007              		.loc 1 549 41
 1008 0064 3B68     		ldr	r3, [r7]
 1009 0066 5B88     		ldrh	r3, [r3, #2]
 1010              		.loc 1 549 14
 1011 0068 1B03     		lsls	r3, r3, #12
 1012 006a 9AB2     		uxth	r2, r3
 1013              		.loc 1 549 11
 1014 006c 7B89     		ldrh	r3, [r7, #10]	@ movhi
 1015 006e 1343     		orrs	r3, r3, r2
 1016 0070 7B81     		strh	r3, [r7, #10]	@ movhi
 550:common/lib.stm32/STM32F10x_StdPeriph_Driver/src/stm32f10x_tim.c ****     
 551:common/lib.stm32/STM32F10x_StdPeriph_Driver/src/stm32f10x_tim.c ****   if(((uint32_t) TIMx == TIM1_BASE) || ((uint32_t) TIMx == TIM8_BASE))
 1017              		.loc 1 551 5
 1018 0072 7B68     		ldr	r3, [r7, #4]
 1019 0074 124A     		ldr	r2, .L36
 1020 0076 9342     		cmp	r3, r2
 1021 0078 03D0     		beq	.L34
 1022              		.loc 1 551 37 discriminator 1
 1023 007a 7B68     		ldr	r3, [r7, #4]
 1024 007c 114A     		ldr	r2, .L36+4
 1025 007e 9342     		cmp	r3, r2
 1026 0080 0AD1     		bne	.L35
 1027              	.L34:
 552:common/lib.stm32/STM32F10x_StdPeriph_Driver/src/stm32f10x_tim.c ****   {
 553:common/lib.stm32/STM32F10x_StdPeriph_Driver/src/stm32f10x_tim.c ****     assert_param(IS_TIM_OCIDLE_STATE(TIM_OCInitStruct->TIM_OCIdleState));
 554:common/lib.stm32/STM32F10x_StdPeriph_Driver/src/stm32f10x_tim.c ****     /* Reset the Ouput Compare IDLE State */
 555:common/lib.stm32/STM32F10x_StdPeriph_Driver/src/stm32f10x_tim.c ****     tmpcr2 &= CR2_OIS4_Reset;
 1028              		.loc 1 555 12
 1029 0082 FB89     		ldrh	r3, [r7, #14]	@ movhi
 1030 0084 C3F30D03 		ubfx	r3, r3, #0, #14
 1031 0088 FB81     		strh	r3, [r7, #14]	@ movhi
 556:common/lib.stm32/STM32F10x_StdPeriph_Driver/src/stm32f10x_tim.c ****     /* Set the Output Idle state */
 557:common/lib.stm32/STM32F10x_StdPeriph_Driver/src/stm32f10x_tim.c ****     tmpcr2 |= (uint16_t)(TIM_OCInitStruct->TIM_OCIdleState << 6);
 1032              		.loc 1 557 42
 1033 008a 3B68     		ldr	r3, [r7]
 1034 008c 9B89     		ldrh	r3, [r3, #12]
 1035              		.loc 1 557 15
 1036 008e 9B01     		lsls	r3, r3, #6
 1037 0090 9AB2     		uxth	r2, r3
 1038              		.loc 1 557 12
 1039 0092 FB89     		ldrh	r3, [r7, #14]	@ movhi
 1040 0094 1343     		orrs	r3, r3, r2
 1041 0096 FB81     		strh	r3, [r7, #14]	@ movhi
 1042              	.L35:
 558:common/lib.stm32/STM32F10x_StdPeriph_Driver/src/stm32f10x_tim.c ****   }
 559:common/lib.stm32/STM32F10x_StdPeriph_Driver/src/stm32f10x_tim.c ****   /* Write to TIMx CR2 */
 560:common/lib.stm32/STM32F10x_StdPeriph_Driver/src/stm32f10x_tim.c ****   TIMx->CR2 = tmpcr2;
 1043              		.loc 1 560 13
 1044 0098 7B68     		ldr	r3, [r7, #4]
 1045 009a FA89     		ldrh	r2, [r7, #14]	@ movhi
 1046 009c 9A80     		strh	r2, [r3, #4]	@ movhi
 561:common/lib.stm32/STM32F10x_StdPeriph_Driver/src/stm32f10x_tim.c ****   
 562:common/lib.stm32/STM32F10x_StdPeriph_Driver/src/stm32f10x_tim.c ****   /* Write to TIMx CCMR2 */  
 563:common/lib.stm32/STM32F10x_StdPeriph_Driver/src/stm32f10x_tim.c ****   TIMx->CCMR2 = tmpccmrx;
 1047              		.loc 1 563 15
 1048 009e 7B68     		ldr	r3, [r7, #4]
 1049 00a0 BA89     		ldrh	r2, [r7, #12]	@ movhi
 1050 00a2 9A83     		strh	r2, [r3, #28]	@ movhi
 564:common/lib.stm32/STM32F10x_StdPeriph_Driver/src/stm32f10x_tim.c **** 
 565:common/lib.stm32/STM32F10x_StdPeriph_Driver/src/stm32f10x_tim.c ****   /* Set the Capture Compare Register value */
 566:common/lib.stm32/STM32F10x_StdPeriph_Driver/src/stm32f10x_tim.c ****   TIMx->CCR4 = TIM_OCInitStruct->TIM_Pulse;
 1051              		.loc 1 566 32
 1052 00a4 3B68     		ldr	r3, [r7]
 1053 00a6 DA88     		ldrh	r2, [r3, #6]
 1054              		.loc 1 566 14
 1055 00a8 7B68     		ldr	r3, [r7, #4]
 1056 00aa A3F84020 		strh	r2, [r3, #64]	@ movhi
 567:common/lib.stm32/STM32F10x_StdPeriph_Driver/src/stm32f10x_tim.c ****   
 568:common/lib.stm32/STM32F10x_StdPeriph_Driver/src/stm32f10x_tim.c ****   /* Write to TIMx CCER */
 569:common/lib.stm32/STM32F10x_StdPeriph_Driver/src/stm32f10x_tim.c ****   TIMx->CCER = tmpccer;
 1057              		.loc 1 569 14
 1058 00ae 7B68     		ldr	r3, [r7, #4]
 1059 00b0 7A89     		ldrh	r2, [r7, #10]	@ movhi
 1060 00b2 1A84     		strh	r2, [r3, #32]	@ movhi
 570:common/lib.stm32/STM32F10x_StdPeriph_Driver/src/stm32f10x_tim.c **** }
 1061              		.loc 1 570 1
 1062 00b4 00BF     		nop
 1063 00b6 1437     		adds	r7, r7, #20
 1064              	.LCFI32:
 1065              		.cfi_def_cfa_offset 4
 1066 00b8 BD46     		mov	sp, r7
 1067              	.LCFI33:
 1068              		.cfi_def_cfa_register 13
 1069              		@ sp needed
 1070 00ba 80BC     		pop	{r7}
 1071              	.LCFI34:
 1072              		.cfi_restore 7
 1073              		.cfi_def_cfa_offset 0
 1074 00bc 7047     		bx	lr
 1075              	.L37:
 1076 00be 00BF     		.align	2
 1077              	.L36:
 1078 00c0 002C0140 		.word	1073818624
 1079 00c4 00340140 		.word	1073820672
 1080              		.cfi_endproc
 1081              	.LFE32:
 1083              		.section	.text.TIM_ICInit,"ax",%progbits
 1084              		.align	1
 1085              		.global	TIM_ICInit
 1086              		.syntax unified
 1087              		.thumb
 1088              		.thumb_func
 1090              	TIM_ICInit:
 1091              	.LFB33:
 571:common/lib.stm32/STM32F10x_StdPeriph_Driver/src/stm32f10x_tim.c **** 
 572:common/lib.stm32/STM32F10x_StdPeriph_Driver/src/stm32f10x_tim.c **** /**
 573:common/lib.stm32/STM32F10x_StdPeriph_Driver/src/stm32f10x_tim.c ****   * @brief  Initializes the TIM peripheral according to the specified
 574:common/lib.stm32/STM32F10x_StdPeriph_Driver/src/stm32f10x_tim.c ****   *   parameters in the TIM_ICInitStruct.
 575:common/lib.stm32/STM32F10x_StdPeriph_Driver/src/stm32f10x_tim.c ****   * @param  TIMx: where x can be  1, 2, 3, 4, 5 or 8 to select the TIM peripheral.
 576:common/lib.stm32/STM32F10x_StdPeriph_Driver/src/stm32f10x_tim.c ****   * @param  TIM_ICInitStruct: pointer to a TIM_ICInitTypeDef structure
 577:common/lib.stm32/STM32F10x_StdPeriph_Driver/src/stm32f10x_tim.c ****   *   that contains the configuration information for the specified TIM peripheral.
 578:common/lib.stm32/STM32F10x_StdPeriph_Driver/src/stm32f10x_tim.c ****   * @retval None
 579:common/lib.stm32/STM32F10x_StdPeriph_Driver/src/stm32f10x_tim.c ****   */
 580:common/lib.stm32/STM32F10x_StdPeriph_Driver/src/stm32f10x_tim.c **** void TIM_ICInit(TIM_TypeDef* TIMx, TIM_ICInitTypeDef* TIM_ICInitStruct)
 581:common/lib.stm32/STM32F10x_StdPeriph_Driver/src/stm32f10x_tim.c **** {
 1092              		.loc 1 581 1
 1093              		.cfi_startproc
 1094              		@ args = 0, pretend = 0, frame = 8
 1095              		@ frame_needed = 1, uses_anonymous_args = 0
 1096 0000 90B5     		push	{r4, r7, lr}
 1097              	.LCFI35:
 1098              		.cfi_def_cfa_offset 12
 1099              		.cfi_offset 4, -12
 1100              		.cfi_offset 7, -8
 1101              		.cfi_offset 14, -4
 1102 0002 83B0     		sub	sp, sp, #12
 1103              	.LCFI36:
 1104              		.cfi_def_cfa_offset 24
 1105 0004 00AF     		add	r7, sp, #0
 1106              	.LCFI37:
 1107              		.cfi_def_cfa_register 7
 1108 0006 7860     		str	r0, [r7, #4]
 1109 0008 3960     		str	r1, [r7]
 582:common/lib.stm32/STM32F10x_StdPeriph_Driver/src/stm32f10x_tim.c ****   /* Check the parameters */
 583:common/lib.stm32/STM32F10x_StdPeriph_Driver/src/stm32f10x_tim.c ****   assert_param(IS_TIM_123458_PERIPH(TIMx));
 584:common/lib.stm32/STM32F10x_StdPeriph_Driver/src/stm32f10x_tim.c ****   assert_param(IS_TIM_CHANNEL(TIM_ICInitStruct->TIM_Channel));
 585:common/lib.stm32/STM32F10x_StdPeriph_Driver/src/stm32f10x_tim.c ****   assert_param(IS_TIM_IC_POLARITY(TIM_ICInitStruct->TIM_ICPolarity));
 586:common/lib.stm32/STM32F10x_StdPeriph_Driver/src/stm32f10x_tim.c ****   assert_param(IS_TIM_IC_SELECTION(TIM_ICInitStruct->TIM_ICSelection));
 587:common/lib.stm32/STM32F10x_StdPeriph_Driver/src/stm32f10x_tim.c ****   assert_param(IS_TIM_IC_PRESCALER(TIM_ICInitStruct->TIM_ICPrescaler));
 588:common/lib.stm32/STM32F10x_StdPeriph_Driver/src/stm32f10x_tim.c ****   assert_param(IS_TIM_IC_FILTER(TIM_ICInitStruct->TIM_ICFilter));
 589:common/lib.stm32/STM32F10x_StdPeriph_Driver/src/stm32f10x_tim.c ****   
 590:common/lib.stm32/STM32F10x_StdPeriph_Driver/src/stm32f10x_tim.c ****   if (TIM_ICInitStruct->TIM_Channel == TIM_Channel_1)
 1110              		.loc 1 590 23
 1111 000a 3B68     		ldr	r3, [r7]
 1112 000c 1B88     		ldrh	r3, [r3]
 1113              		.loc 1 590 6
 1114 000e 002B     		cmp	r3, #0
 1115 0010 0FD1     		bne	.L39
 591:common/lib.stm32/STM32F10x_StdPeriph_Driver/src/stm32f10x_tim.c ****   {
 592:common/lib.stm32/STM32F10x_StdPeriph_Driver/src/stm32f10x_tim.c ****     /* TI1 Configuration */
 593:common/lib.stm32/STM32F10x_StdPeriph_Driver/src/stm32f10x_tim.c ****     TI1_Config(TIMx, TIM_ICInitStruct->TIM_ICPolarity,
 1116              		.loc 1 593 5
 1117 0012 3B68     		ldr	r3, [r7]
 1118 0014 5988     		ldrh	r1, [r3, #2]
 1119 0016 3B68     		ldr	r3, [r7]
 1120 0018 9A88     		ldrh	r2, [r3, #4]
 1121 001a 3B68     		ldr	r3, [r7]
 1122 001c 1B89     		ldrh	r3, [r3, #8]
 1123 001e 7868     		ldr	r0, [r7, #4]
 1124 0020 214C     		ldr	r4, .L44
 1125 0022 A047     		blx	r4
 1126              	.LVL16:
 594:common/lib.stm32/STM32F10x_StdPeriph_Driver/src/stm32f10x_tim.c ****                TIM_ICInitStruct->TIM_ICSelection,
 595:common/lib.stm32/STM32F10x_StdPeriph_Driver/src/stm32f10x_tim.c ****                TIM_ICInitStruct->TIM_ICFilter);
 596:common/lib.stm32/STM32F10x_StdPeriph_Driver/src/stm32f10x_tim.c ****     /* Set the Input Capture Prescaler value */
 597:common/lib.stm32/STM32F10x_StdPeriph_Driver/src/stm32f10x_tim.c ****     TIM_SetIC1Prescaler(TIMx, TIM_ICInitStruct->TIM_ICPrescaler);
 1127              		.loc 1 597 5
 1128 0024 3B68     		ldr	r3, [r7]
 1129 0026 DB88     		ldrh	r3, [r3, #6]
 1130 0028 1946     		mov	r1, r3
 1131 002a 7868     		ldr	r0, [r7, #4]
 1132 002c 1F4B     		ldr	r3, .L44+4
 1133 002e 9847     		blx	r3
 1134              	.LVL17:
 598:common/lib.stm32/STM32F10x_StdPeriph_Driver/src/stm32f10x_tim.c ****   }
 599:common/lib.stm32/STM32F10x_StdPeriph_Driver/src/stm32f10x_tim.c ****   else if (TIM_ICInitStruct->TIM_Channel == TIM_Channel_2)
 600:common/lib.stm32/STM32F10x_StdPeriph_Driver/src/stm32f10x_tim.c ****   {
 601:common/lib.stm32/STM32F10x_StdPeriph_Driver/src/stm32f10x_tim.c ****     /* TI2 Configuration */
 602:common/lib.stm32/STM32F10x_StdPeriph_Driver/src/stm32f10x_tim.c ****     TI2_Config(TIMx, TIM_ICInitStruct->TIM_ICPolarity,
 603:common/lib.stm32/STM32F10x_StdPeriph_Driver/src/stm32f10x_tim.c ****                TIM_ICInitStruct->TIM_ICSelection,
 604:common/lib.stm32/STM32F10x_StdPeriph_Driver/src/stm32f10x_tim.c ****                TIM_ICInitStruct->TIM_ICFilter);
 605:common/lib.stm32/STM32F10x_StdPeriph_Driver/src/stm32f10x_tim.c ****     /* Set the Input Capture Prescaler value */
 606:common/lib.stm32/STM32F10x_StdPeriph_Driver/src/stm32f10x_tim.c ****     TIM_SetIC2Prescaler(TIMx, TIM_ICInitStruct->TIM_ICPrescaler);
 607:common/lib.stm32/STM32F10x_StdPeriph_Driver/src/stm32f10x_tim.c ****   }
 608:common/lib.stm32/STM32F10x_StdPeriph_Driver/src/stm32f10x_tim.c ****   else if (TIM_ICInitStruct->TIM_Channel == TIM_Channel_3)
 609:common/lib.stm32/STM32F10x_StdPeriph_Driver/src/stm32f10x_tim.c ****   {
 610:common/lib.stm32/STM32F10x_StdPeriph_Driver/src/stm32f10x_tim.c ****     /* TI3 Configuration */
 611:common/lib.stm32/STM32F10x_StdPeriph_Driver/src/stm32f10x_tim.c ****     TI3_Config(TIMx,  TIM_ICInitStruct->TIM_ICPolarity,
 612:common/lib.stm32/STM32F10x_StdPeriph_Driver/src/stm32f10x_tim.c ****                TIM_ICInitStruct->TIM_ICSelection,
 613:common/lib.stm32/STM32F10x_StdPeriph_Driver/src/stm32f10x_tim.c ****                TIM_ICInitStruct->TIM_ICFilter);
 614:common/lib.stm32/STM32F10x_StdPeriph_Driver/src/stm32f10x_tim.c ****     /* Set the Input Capture Prescaler value */
 615:common/lib.stm32/STM32F10x_StdPeriph_Driver/src/stm32f10x_tim.c ****     TIM_SetIC3Prescaler(TIMx, TIM_ICInitStruct->TIM_ICPrescaler);
 616:common/lib.stm32/STM32F10x_StdPeriph_Driver/src/stm32f10x_tim.c ****   }
 617:common/lib.stm32/STM32F10x_StdPeriph_Driver/src/stm32f10x_tim.c ****   else
 618:common/lib.stm32/STM32F10x_StdPeriph_Driver/src/stm32f10x_tim.c ****   {
 619:common/lib.stm32/STM32F10x_StdPeriph_Driver/src/stm32f10x_tim.c ****     /* TI4 Configuration */
 620:common/lib.stm32/STM32F10x_StdPeriph_Driver/src/stm32f10x_tim.c ****     TI4_Config(TIMx, TIM_ICInitStruct->TIM_ICPolarity,
 621:common/lib.stm32/STM32F10x_StdPeriph_Driver/src/stm32f10x_tim.c ****                TIM_ICInitStruct->TIM_ICSelection,
 622:common/lib.stm32/STM32F10x_StdPeriph_Driver/src/stm32f10x_tim.c ****                TIM_ICInitStruct->TIM_ICFilter);
 623:common/lib.stm32/STM32F10x_StdPeriph_Driver/src/stm32f10x_tim.c ****     /* Set the Input Capture Prescaler value */
 624:common/lib.stm32/STM32F10x_StdPeriph_Driver/src/stm32f10x_tim.c ****     TIM_SetIC4Prescaler(TIMx, TIM_ICInitStruct->TIM_ICPrescaler);
 625:common/lib.stm32/STM32F10x_StdPeriph_Driver/src/stm32f10x_tim.c ****   }
 626:common/lib.stm32/STM32F10x_StdPeriph_Driver/src/stm32f10x_tim.c **** }
 1135              		.loc 1 626 1
 1136 0030 36E0     		b	.L43
 1137              	.L39:
 599:common/lib.stm32/STM32F10x_StdPeriph_Driver/src/stm32f10x_tim.c ****   {
 1138              		.loc 1 599 28
 1139 0032 3B68     		ldr	r3, [r7]
 1140 0034 1B88     		ldrh	r3, [r3]
 599:common/lib.stm32/STM32F10x_StdPeriph_Driver/src/stm32f10x_tim.c ****   {
 1141              		.loc 1 599 11
 1142 0036 042B     		cmp	r3, #4
 1143 0038 0FD1     		bne	.L41
 602:common/lib.stm32/STM32F10x_StdPeriph_Driver/src/stm32f10x_tim.c ****                TIM_ICInitStruct->TIM_ICSelection,
 1144              		.loc 1 602 5
 1145 003a 3B68     		ldr	r3, [r7]
 1146 003c 5988     		ldrh	r1, [r3, #2]
 1147 003e 3B68     		ldr	r3, [r7]
 1148 0040 9A88     		ldrh	r2, [r3, #4]
 1149 0042 3B68     		ldr	r3, [r7]
 1150 0044 1B89     		ldrh	r3, [r3, #8]
 1151 0046 7868     		ldr	r0, [r7, #4]
 1152 0048 194C     		ldr	r4, .L44+8
 1153 004a A047     		blx	r4
 1154              	.LVL18:
 606:common/lib.stm32/STM32F10x_StdPeriph_Driver/src/stm32f10x_tim.c ****   }
 1155              		.loc 1 606 5
 1156 004c 3B68     		ldr	r3, [r7]
 1157 004e DB88     		ldrh	r3, [r3, #6]
 1158 0050 1946     		mov	r1, r3
 1159 0052 7868     		ldr	r0, [r7, #4]
 1160 0054 174B     		ldr	r3, .L44+12
 1161 0056 9847     		blx	r3
 1162              	.LVL19:
 1163              		.loc 1 626 1
 1164 0058 22E0     		b	.L43
 1165              	.L41:
 608:common/lib.stm32/STM32F10x_StdPeriph_Driver/src/stm32f10x_tim.c ****   {
 1166              		.loc 1 608 28
 1167 005a 3B68     		ldr	r3, [r7]
 1168 005c 1B88     		ldrh	r3, [r3]
 608:common/lib.stm32/STM32F10x_StdPeriph_Driver/src/stm32f10x_tim.c ****   {
 1169              		.loc 1 608 11
 1170 005e 082B     		cmp	r3, #8
 1171 0060 0FD1     		bne	.L42
 611:common/lib.stm32/STM32F10x_StdPeriph_Driver/src/stm32f10x_tim.c ****                TIM_ICInitStruct->TIM_ICSelection,
 1172              		.loc 1 611 5
 1173 0062 3B68     		ldr	r3, [r7]
 1174 0064 5988     		ldrh	r1, [r3, #2]
 1175 0066 3B68     		ldr	r3, [r7]
 1176 0068 9A88     		ldrh	r2, [r3, #4]
 1177 006a 3B68     		ldr	r3, [r7]
 1178 006c 1B89     		ldrh	r3, [r3, #8]
 1179 006e 7868     		ldr	r0, [r7, #4]
 1180 0070 114C     		ldr	r4, .L44+16
 1181 0072 A047     		blx	r4
 1182              	.LVL20:
 615:common/lib.stm32/STM32F10x_StdPeriph_Driver/src/stm32f10x_tim.c ****   }
 1183              		.loc 1 615 5
 1184 0074 3B68     		ldr	r3, [r7]
 1185 0076 DB88     		ldrh	r3, [r3, #6]
 1186 0078 1946     		mov	r1, r3
 1187 007a 7868     		ldr	r0, [r7, #4]
 1188 007c 0F4B     		ldr	r3, .L44+20
 1189 007e 9847     		blx	r3
 1190              	.LVL21:
 1191              		.loc 1 626 1
 1192 0080 0EE0     		b	.L43
 1193              	.L42:
 620:common/lib.stm32/STM32F10x_StdPeriph_Driver/src/stm32f10x_tim.c ****                TIM_ICInitStruct->TIM_ICSelection,
 1194              		.loc 1 620 5
 1195 0082 3B68     		ldr	r3, [r7]
 1196 0084 5988     		ldrh	r1, [r3, #2]
 1197 0086 3B68     		ldr	r3, [r7]
 1198 0088 9A88     		ldrh	r2, [r3, #4]
 1199 008a 3B68     		ldr	r3, [r7]
 1200 008c 1B89     		ldrh	r3, [r3, #8]
 1201 008e 7868     		ldr	r0, [r7, #4]
 1202 0090 0B4C     		ldr	r4, .L44+24
 1203 0092 A047     		blx	r4
 1204              	.LVL22:
 624:common/lib.stm32/STM32F10x_StdPeriph_Driver/src/stm32f10x_tim.c ****   }
 1205              		.loc 1 624 5
 1206 0094 3B68     		ldr	r3, [r7]
 1207 0096 DB88     		ldrh	r3, [r3, #6]
 1208 0098 1946     		mov	r1, r3
 1209 009a 7868     		ldr	r0, [r7, #4]
 1210 009c 094B     		ldr	r3, .L44+28
 1211 009e 9847     		blx	r3
 1212              	.LVL23:
 1213              	.L43:
 1214              		.loc 1 626 1
 1215 00a0 00BF     		nop
 1216 00a2 0C37     		adds	r7, r7, #12
 1217              	.LCFI38:
 1218              		.cfi_def_cfa_offset 12
 1219 00a4 BD46     		mov	sp, r7
 1220              	.LCFI39:
 1221              		.cfi_def_cfa_register 13
 1222              		@ sp needed
 1223 00a6 90BD     		pop	{r4, r7, pc}
 1224              	.L45:
 1225              		.align	2
 1226              	.L44:
 1227 00a8 00000000 		.word	TI1_Config
 1228 00ac 00000000 		.word	TIM_SetIC1Prescaler
 1229 00b0 00000000 		.word	TI2_Config
 1230 00b4 00000000 		.word	TIM_SetIC2Prescaler
 1231 00b8 00000000 		.word	TI3_Config
 1232 00bc 00000000 		.word	TIM_SetIC3Prescaler
 1233 00c0 00000000 		.word	TI4_Config
 1234 00c4 00000000 		.word	TIM_SetIC4Prescaler
 1235              		.cfi_endproc
 1236              	.LFE33:
 1238              		.section	.text.TIM_PWMIConfig,"ax",%progbits
 1239              		.align	1
 1240              		.global	TIM_PWMIConfig
 1241              		.syntax unified
 1242              		.thumb
 1243              		.thumb_func
 1245              	TIM_PWMIConfig:
 1246              	.LFB34:
 627:common/lib.stm32/STM32F10x_StdPeriph_Driver/src/stm32f10x_tim.c **** 
 628:common/lib.stm32/STM32F10x_StdPeriph_Driver/src/stm32f10x_tim.c **** /**
 629:common/lib.stm32/STM32F10x_StdPeriph_Driver/src/stm32f10x_tim.c ****   * @brief  Configures the TIM peripheral according to the specified
 630:common/lib.stm32/STM32F10x_StdPeriph_Driver/src/stm32f10x_tim.c ****   *   parameters in the TIM_ICInitStruct to measure an external PWM signal.
 631:common/lib.stm32/STM32F10x_StdPeriph_Driver/src/stm32f10x_tim.c ****   * @param  TIMx: where x can be  1, 2, 3, 4, 5 or 8 to select the TIM peripheral.
 632:common/lib.stm32/STM32F10x_StdPeriph_Driver/src/stm32f10x_tim.c ****   * @param  TIM_ICInitStruct: pointer to a TIM_ICInitTypeDef structure
 633:common/lib.stm32/STM32F10x_StdPeriph_Driver/src/stm32f10x_tim.c ****   *   that contains the configuration information for the specified TIM peripheral.
 634:common/lib.stm32/STM32F10x_StdPeriph_Driver/src/stm32f10x_tim.c ****   * @retval None
 635:common/lib.stm32/STM32F10x_StdPeriph_Driver/src/stm32f10x_tim.c ****   */
 636:common/lib.stm32/STM32F10x_StdPeriph_Driver/src/stm32f10x_tim.c **** void TIM_PWMIConfig(TIM_TypeDef* TIMx, TIM_ICInitTypeDef* TIM_ICInitStruct)
 637:common/lib.stm32/STM32F10x_StdPeriph_Driver/src/stm32f10x_tim.c **** {
 1247              		.loc 1 637 1
 1248              		.cfi_startproc
 1249              		@ args = 0, pretend = 0, frame = 16
 1250              		@ frame_needed = 1, uses_anonymous_args = 0
 1251 0000 90B5     		push	{r4, r7, lr}
 1252              	.LCFI40:
 1253              		.cfi_def_cfa_offset 12
 1254              		.cfi_offset 4, -12
 1255              		.cfi_offset 7, -8
 1256              		.cfi_offset 14, -4
 1257 0002 85B0     		sub	sp, sp, #20
 1258              	.LCFI41:
 1259              		.cfi_def_cfa_offset 32
 1260 0004 00AF     		add	r7, sp, #0
 1261              	.LCFI42:
 1262              		.cfi_def_cfa_register 7
 1263 0006 7860     		str	r0, [r7, #4]
 1264 0008 3960     		str	r1, [r7]
 638:common/lib.stm32/STM32F10x_StdPeriph_Driver/src/stm32f10x_tim.c ****   uint16_t icoppositepolarity = TIM_ICPolarity_Rising;
 1265              		.loc 1 638 12
 1266 000a 0023     		movs	r3, #0
 1267 000c FB81     		strh	r3, [r7, #14]	@ movhi
 639:common/lib.stm32/STM32F10x_StdPeriph_Driver/src/stm32f10x_tim.c ****   uint16_t icoppositeselection = TIM_ICSelection_DirectTI;
 1268              		.loc 1 639 12
 1269 000e 0123     		movs	r3, #1
 1270 0010 BB81     		strh	r3, [r7, #12]	@ movhi
 640:common/lib.stm32/STM32F10x_StdPeriph_Driver/src/stm32f10x_tim.c ****   /* Check the parameters */
 641:common/lib.stm32/STM32F10x_StdPeriph_Driver/src/stm32f10x_tim.c ****   assert_param(IS_TIM_123458_PERIPH(TIMx));
 642:common/lib.stm32/STM32F10x_StdPeriph_Driver/src/stm32f10x_tim.c ****   /* Select the Opposite Input Polarity */
 643:common/lib.stm32/STM32F10x_StdPeriph_Driver/src/stm32f10x_tim.c ****   if (TIM_ICInitStruct->TIM_ICPolarity == TIM_ICPolarity_Rising)
 1271              		.loc 1 643 23
 1272 0012 3B68     		ldr	r3, [r7]
 1273 0014 5B88     		ldrh	r3, [r3, #2]
 1274              		.loc 1 643 6
 1275 0016 002B     		cmp	r3, #0
 1276 0018 02D1     		bne	.L47
 644:common/lib.stm32/STM32F10x_StdPeriph_Driver/src/stm32f10x_tim.c ****   {
 645:common/lib.stm32/STM32F10x_StdPeriph_Driver/src/stm32f10x_tim.c ****     icoppositepolarity = TIM_ICPolarity_Falling;
 1277              		.loc 1 645 24
 1278 001a 0223     		movs	r3, #2
 1279 001c FB81     		strh	r3, [r7, #14]	@ movhi
 1280 001e 01E0     		b	.L48
 1281              	.L47:
 646:common/lib.stm32/STM32F10x_StdPeriph_Driver/src/stm32f10x_tim.c ****   }
 647:common/lib.stm32/STM32F10x_StdPeriph_Driver/src/stm32f10x_tim.c ****   else
 648:common/lib.stm32/STM32F10x_StdPeriph_Driver/src/stm32f10x_tim.c ****   {
 649:common/lib.stm32/STM32F10x_StdPeriph_Driver/src/stm32f10x_tim.c ****     icoppositepolarity = TIM_ICPolarity_Rising;
 1282              		.loc 1 649 24
 1283 0020 0023     		movs	r3, #0
 1284 0022 FB81     		strh	r3, [r7, #14]	@ movhi
 1285              	.L48:
 650:common/lib.stm32/STM32F10x_StdPeriph_Driver/src/stm32f10x_tim.c ****   }
 651:common/lib.stm32/STM32F10x_StdPeriph_Driver/src/stm32f10x_tim.c ****   /* Select the Opposite Input */
 652:common/lib.stm32/STM32F10x_StdPeriph_Driver/src/stm32f10x_tim.c ****   if (TIM_ICInitStruct->TIM_ICSelection == TIM_ICSelection_DirectTI)
 1286              		.loc 1 652 23
 1287 0024 3B68     		ldr	r3, [r7]
 1288 0026 9B88     		ldrh	r3, [r3, #4]
 1289              		.loc 1 652 6
 1290 0028 012B     		cmp	r3, #1
 1291 002a 02D1     		bne	.L49
 653:common/lib.stm32/STM32F10x_StdPeriph_Driver/src/stm32f10x_tim.c ****   {
 654:common/lib.stm32/STM32F10x_StdPeriph_Driver/src/stm32f10x_tim.c ****     icoppositeselection = TIM_ICSelection_IndirectTI;
 1292              		.loc 1 654 25
 1293 002c 0223     		movs	r3, #2
 1294 002e BB81     		strh	r3, [r7, #12]	@ movhi
 1295 0030 01E0     		b	.L50
 1296              	.L49:
 655:common/lib.stm32/STM32F10x_StdPeriph_Driver/src/stm32f10x_tim.c ****   }
 656:common/lib.stm32/STM32F10x_StdPeriph_Driver/src/stm32f10x_tim.c ****   else
 657:common/lib.stm32/STM32F10x_StdPeriph_Driver/src/stm32f10x_tim.c ****   {
 658:common/lib.stm32/STM32F10x_StdPeriph_Driver/src/stm32f10x_tim.c ****     icoppositeselection = TIM_ICSelection_DirectTI;
 1297              		.loc 1 658 25
 1298 0032 0123     		movs	r3, #1
 1299 0034 BB81     		strh	r3, [r7, #12]	@ movhi
 1300              	.L50:
 659:common/lib.stm32/STM32F10x_StdPeriph_Driver/src/stm32f10x_tim.c ****   }
 660:common/lib.stm32/STM32F10x_StdPeriph_Driver/src/stm32f10x_tim.c ****   if (TIM_ICInitStruct->TIM_Channel == TIM_Channel_1)
 1301              		.loc 1 660 23
 1302 0036 3B68     		ldr	r3, [r7]
 1303 0038 1B88     		ldrh	r3, [r3]
 1304              		.loc 1 660 6
 1305 003a 002B     		cmp	r3, #0
 1306 003c 1CD1     		bne	.L51
 661:common/lib.stm32/STM32F10x_StdPeriph_Driver/src/stm32f10x_tim.c ****   {
 662:common/lib.stm32/STM32F10x_StdPeriph_Driver/src/stm32f10x_tim.c ****     /* TI1 Configuration */
 663:common/lib.stm32/STM32F10x_StdPeriph_Driver/src/stm32f10x_tim.c ****     TI1_Config(TIMx, TIM_ICInitStruct->TIM_ICPolarity, TIM_ICInitStruct->TIM_ICSelection,
 1307              		.loc 1 663 5
 1308 003e 3B68     		ldr	r3, [r7]
 1309 0040 5988     		ldrh	r1, [r3, #2]
 1310 0042 3B68     		ldr	r3, [r7]
 1311 0044 9A88     		ldrh	r2, [r3, #4]
 1312 0046 3B68     		ldr	r3, [r7]
 1313 0048 1B89     		ldrh	r3, [r3, #8]
 1314 004a 7868     		ldr	r0, [r7, #4]
 1315 004c 1A4C     		ldr	r4, .L54
 1316 004e A047     		blx	r4
 1317              	.LVL24:
 664:common/lib.stm32/STM32F10x_StdPeriph_Driver/src/stm32f10x_tim.c ****                TIM_ICInitStruct->TIM_ICFilter);
 665:common/lib.stm32/STM32F10x_StdPeriph_Driver/src/stm32f10x_tim.c ****     /* Set the Input Capture Prescaler value */
 666:common/lib.stm32/STM32F10x_StdPeriph_Driver/src/stm32f10x_tim.c ****     TIM_SetIC1Prescaler(TIMx, TIM_ICInitStruct->TIM_ICPrescaler);
 1318              		.loc 1 666 5
 1319 0050 3B68     		ldr	r3, [r7]
 1320 0052 DB88     		ldrh	r3, [r3, #6]
 1321 0054 1946     		mov	r1, r3
 1322 0056 7868     		ldr	r0, [r7, #4]
 1323 0058 184B     		ldr	r3, .L54+4
 1324 005a 9847     		blx	r3
 1325              	.LVL25:
 667:common/lib.stm32/STM32F10x_StdPeriph_Driver/src/stm32f10x_tim.c ****     /* TI2 Configuration */
 668:common/lib.stm32/STM32F10x_StdPeriph_Driver/src/stm32f10x_tim.c ****     TI2_Config(TIMx, icoppositepolarity, icoppositeselection, TIM_ICInitStruct->TIM_ICFilter);
 1326              		.loc 1 668 5
 1327 005c 3B68     		ldr	r3, [r7]
 1328 005e 1B89     		ldrh	r3, [r3, #8]
 1329 0060 BA89     		ldrh	r2, [r7, #12]
 1330 0062 F989     		ldrh	r1, [r7, #14]
 1331 0064 7868     		ldr	r0, [r7, #4]
 1332 0066 164C     		ldr	r4, .L54+8
 1333 0068 A047     		blx	r4
 1334              	.LVL26:
 669:common/lib.stm32/STM32F10x_StdPeriph_Driver/src/stm32f10x_tim.c ****     /* Set the Input Capture Prescaler value */
 670:common/lib.stm32/STM32F10x_StdPeriph_Driver/src/stm32f10x_tim.c ****     TIM_SetIC2Prescaler(TIMx, TIM_ICInitStruct->TIM_ICPrescaler);
 1335              		.loc 1 670 5
 1336 006a 3B68     		ldr	r3, [r7]
 1337 006c DB88     		ldrh	r3, [r3, #6]
 1338 006e 1946     		mov	r1, r3
 1339 0070 7868     		ldr	r0, [r7, #4]
 1340 0072 144B     		ldr	r3, .L54+12
 1341 0074 9847     		blx	r3
 1342              	.LVL27:
 671:common/lib.stm32/STM32F10x_StdPeriph_Driver/src/stm32f10x_tim.c ****   }
 672:common/lib.stm32/STM32F10x_StdPeriph_Driver/src/stm32f10x_tim.c ****   else
 673:common/lib.stm32/STM32F10x_StdPeriph_Driver/src/stm32f10x_tim.c ****   { 
 674:common/lib.stm32/STM32F10x_StdPeriph_Driver/src/stm32f10x_tim.c ****     /* TI2 Configuration */
 675:common/lib.stm32/STM32F10x_StdPeriph_Driver/src/stm32f10x_tim.c ****     TI2_Config(TIMx, TIM_ICInitStruct->TIM_ICPolarity, TIM_ICInitStruct->TIM_ICSelection,
 676:common/lib.stm32/STM32F10x_StdPeriph_Driver/src/stm32f10x_tim.c ****                TIM_ICInitStruct->TIM_ICFilter);
 677:common/lib.stm32/STM32F10x_StdPeriph_Driver/src/stm32f10x_tim.c ****     /* Set the Input Capture Prescaler value */
 678:common/lib.stm32/STM32F10x_StdPeriph_Driver/src/stm32f10x_tim.c ****     TIM_SetIC2Prescaler(TIMx, TIM_ICInitStruct->TIM_ICPrescaler);
 679:common/lib.stm32/STM32F10x_StdPeriph_Driver/src/stm32f10x_tim.c ****     /* TI1 Configuration */
 680:common/lib.stm32/STM32F10x_StdPeriph_Driver/src/stm32f10x_tim.c ****     TI1_Config(TIMx, icoppositepolarity, icoppositeselection, TIM_ICInitStruct->TIM_ICFilter);
 681:common/lib.stm32/STM32F10x_StdPeriph_Driver/src/stm32f10x_tim.c ****     /* Set the Input Capture Prescaler value */
 682:common/lib.stm32/STM32F10x_StdPeriph_Driver/src/stm32f10x_tim.c ****     TIM_SetIC1Prescaler(TIMx, TIM_ICInitStruct->TIM_ICPrescaler);
 683:common/lib.stm32/STM32F10x_StdPeriph_Driver/src/stm32f10x_tim.c ****   }
 684:common/lib.stm32/STM32F10x_StdPeriph_Driver/src/stm32f10x_tim.c **** }
 1343              		.loc 1 684 1
 1344 0076 1BE0     		b	.L53
 1345              	.L51:
 675:common/lib.stm32/STM32F10x_StdPeriph_Driver/src/stm32f10x_tim.c ****                TIM_ICInitStruct->TIM_ICFilter);
 1346              		.loc 1 675 5
 1347 0078 3B68     		ldr	r3, [r7]
 1348 007a 5988     		ldrh	r1, [r3, #2]
 1349 007c 3B68     		ldr	r3, [r7]
 1350 007e 9A88     		ldrh	r2, [r3, #4]
 1351 0080 3B68     		ldr	r3, [r7]
 1352 0082 1B89     		ldrh	r3, [r3, #8]
 1353 0084 7868     		ldr	r0, [r7, #4]
 1354 0086 0E4C     		ldr	r4, .L54+8
 1355 0088 A047     		blx	r4
 1356              	.LVL28:
 678:common/lib.stm32/STM32F10x_StdPeriph_Driver/src/stm32f10x_tim.c ****     /* TI1 Configuration */
 1357              		.loc 1 678 5
 1358 008a 3B68     		ldr	r3, [r7]
 1359 008c DB88     		ldrh	r3, [r3, #6]
 1360 008e 1946     		mov	r1, r3
 1361 0090 7868     		ldr	r0, [r7, #4]
 1362 0092 0C4B     		ldr	r3, .L54+12
 1363 0094 9847     		blx	r3
 1364              	.LVL29:
 680:common/lib.stm32/STM32F10x_StdPeriph_Driver/src/stm32f10x_tim.c ****     /* Set the Input Capture Prescaler value */
 1365              		.loc 1 680 5
 1366 0096 3B68     		ldr	r3, [r7]
 1367 0098 1B89     		ldrh	r3, [r3, #8]
 1368 009a BA89     		ldrh	r2, [r7, #12]
 1369 009c F989     		ldrh	r1, [r7, #14]
 1370 009e 7868     		ldr	r0, [r7, #4]
 1371 00a0 054C     		ldr	r4, .L54
 1372 00a2 A047     		blx	r4
 1373              	.LVL30:
 682:common/lib.stm32/STM32F10x_StdPeriph_Driver/src/stm32f10x_tim.c ****   }
 1374              		.loc 1 682 5
 1375 00a4 3B68     		ldr	r3, [r7]
 1376 00a6 DB88     		ldrh	r3, [r3, #6]
 1377 00a8 1946     		mov	r1, r3
 1378 00aa 7868     		ldr	r0, [r7, #4]
 1379 00ac 034B     		ldr	r3, .L54+4
 1380 00ae 9847     		blx	r3
 1381              	.LVL31:
 1382              	.L53:
 1383              		.loc 1 684 1
 1384 00b0 00BF     		nop
 1385 00b2 1437     		adds	r7, r7, #20
 1386              	.LCFI43:
 1387              		.cfi_def_cfa_offset 12
 1388 00b4 BD46     		mov	sp, r7
 1389              	.LCFI44:
 1390              		.cfi_def_cfa_register 13
 1391              		@ sp needed
 1392 00b6 90BD     		pop	{r4, r7, pc}
 1393              	.L55:
 1394              		.align	2
 1395              	.L54:
 1396 00b8 00000000 		.word	TI1_Config
 1397 00bc 00000000 		.word	TIM_SetIC1Prescaler
 1398 00c0 00000000 		.word	TI2_Config
 1399 00c4 00000000 		.word	TIM_SetIC2Prescaler
 1400              		.cfi_endproc
 1401              	.LFE34:
 1403              		.section	.text.TIM_BDTRConfig,"ax",%progbits
 1404              		.align	1
 1405              		.global	TIM_BDTRConfig
 1406              		.syntax unified
 1407              		.thumb
 1408              		.thumb_func
 1410              	TIM_BDTRConfig:
 1411              	.LFB35:
 685:common/lib.stm32/STM32F10x_StdPeriph_Driver/src/stm32f10x_tim.c **** 
 686:common/lib.stm32/STM32F10x_StdPeriph_Driver/src/stm32f10x_tim.c **** /**
 687:common/lib.stm32/STM32F10x_StdPeriph_Driver/src/stm32f10x_tim.c ****   * @brief  Configures the: Break feature, dead time, Lock level, the OSSI,
 688:common/lib.stm32/STM32F10x_StdPeriph_Driver/src/stm32f10x_tim.c ****   *   the OSSR State and the AOE(automatic output enable).
 689:common/lib.stm32/STM32F10x_StdPeriph_Driver/src/stm32f10x_tim.c ****   * @param  TIMx: where x can be  1 or 8 to select the TIM 
 690:common/lib.stm32/STM32F10x_StdPeriph_Driver/src/stm32f10x_tim.c ****   * @param  TIM_BDTRInitStruct: pointer to a TIM_BDTRInitTypeDef structure that
 691:common/lib.stm32/STM32F10x_StdPeriph_Driver/src/stm32f10x_tim.c ****   *   contains the BDTR Register configuration  information for the TIM peripheral.
 692:common/lib.stm32/STM32F10x_StdPeriph_Driver/src/stm32f10x_tim.c ****   * @retval None
 693:common/lib.stm32/STM32F10x_StdPeriph_Driver/src/stm32f10x_tim.c ****   */
 694:common/lib.stm32/STM32F10x_StdPeriph_Driver/src/stm32f10x_tim.c **** void TIM_BDTRConfig(TIM_TypeDef* TIMx, TIM_BDTRInitTypeDef *TIM_BDTRInitStruct)
 695:common/lib.stm32/STM32F10x_StdPeriph_Driver/src/stm32f10x_tim.c **** {
 1412              		.loc 1 695 1
 1413              		.cfi_startproc
 1414              		@ args = 0, pretend = 0, frame = 8
 1415              		@ frame_needed = 1, uses_anonymous_args = 0
 1416              		@ link register save eliminated.
 1417 0000 80B4     		push	{r7}
 1418              	.LCFI45:
 1419              		.cfi_def_cfa_offset 4
 1420              		.cfi_offset 7, -4
 1421 0002 83B0     		sub	sp, sp, #12
 1422              	.LCFI46:
 1423              		.cfi_def_cfa_offset 16
 1424 0004 00AF     		add	r7, sp, #0
 1425              	.LCFI47:
 1426              		.cfi_def_cfa_register 7
 1427 0006 7860     		str	r0, [r7, #4]
 1428 0008 3960     		str	r1, [r7]
 696:common/lib.stm32/STM32F10x_StdPeriph_Driver/src/stm32f10x_tim.c ****   /* Check the parameters */
 697:common/lib.stm32/STM32F10x_StdPeriph_Driver/src/stm32f10x_tim.c ****   assert_param(IS_TIM_18_PERIPH(TIMx));
 698:common/lib.stm32/STM32F10x_StdPeriph_Driver/src/stm32f10x_tim.c ****   assert_param(IS_TIM_OSSR_STATE(TIM_BDTRInitStruct->TIM_OSSRState));
 699:common/lib.stm32/STM32F10x_StdPeriph_Driver/src/stm32f10x_tim.c ****   assert_param(IS_TIM_OSSI_STATE(TIM_BDTRInitStruct->TIM_OSSIState));
 700:common/lib.stm32/STM32F10x_StdPeriph_Driver/src/stm32f10x_tim.c ****   assert_param(IS_TIM_LOCK_LEVEL(TIM_BDTRInitStruct->TIM_LOCKLevel));
 701:common/lib.stm32/STM32F10x_StdPeriph_Driver/src/stm32f10x_tim.c ****   assert_param(IS_TIM_BREAK_STATE(TIM_BDTRInitStruct->TIM_Break));
 702:common/lib.stm32/STM32F10x_StdPeriph_Driver/src/stm32f10x_tim.c ****   assert_param(IS_TIM_BREAK_POLARITY(TIM_BDTRInitStruct->TIM_BreakPolarity));
 703:common/lib.stm32/STM32F10x_StdPeriph_Driver/src/stm32f10x_tim.c ****   assert_param(IS_TIM_AUTOMATIC_OUTPUT_STATE(TIM_BDTRInitStruct->TIM_AutomaticOutput));
 704:common/lib.stm32/STM32F10x_StdPeriph_Driver/src/stm32f10x_tim.c ****   /* Set the Lock level, the Break enable Bit and the Ploarity, the OSSR State,
 705:common/lib.stm32/STM32F10x_StdPeriph_Driver/src/stm32f10x_tim.c ****      the OSSI State, the dead time value and the Automatic Output Enable Bit */
 706:common/lib.stm32/STM32F10x_StdPeriph_Driver/src/stm32f10x_tim.c ****   TIMx->BDTR = (uint32_t)TIM_BDTRInitStruct->TIM_OSSRState | TIM_BDTRInitStruct->TIM_OSSIState |
 1429              		.loc 1 706 44
 1430 000a 3B68     		ldr	r3, [r7]
 1431 000c 1A88     		ldrh	r2, [r3]
 1432              		.loc 1 706 80
 1433 000e 3B68     		ldr	r3, [r7]
 1434 0010 5B88     		ldrh	r3, [r3, #2]
 1435              		.loc 1 706 14
 1436 0012 1343     		orrs	r3, r3, r2
 1437 0014 9AB2     		uxth	r2, r3
 707:common/lib.stm32/STM32F10x_StdPeriph_Driver/src/stm32f10x_tim.c ****              TIM_BDTRInitStruct->TIM_LOCKLevel | TIM_BDTRInitStruct->TIM_DeadTime |
 1438              		.loc 1 707 32
 1439 0016 3B68     		ldr	r3, [r7]
 1440 0018 9B88     		ldrh	r3, [r3, #4]
 706:common/lib.stm32/STM32F10x_StdPeriph_Driver/src/stm32f10x_tim.c ****              TIM_BDTRInitStruct->TIM_LOCKLevel | TIM_BDTRInitStruct->TIM_DeadTime |
 1441              		.loc 1 706 14
 1442 001a 1343     		orrs	r3, r3, r2
 1443 001c 9AB2     		uxth	r2, r3
 1444              		.loc 1 707 68
 1445 001e 3B68     		ldr	r3, [r7]
 1446 0020 DB88     		ldrh	r3, [r3, #6]
 706:common/lib.stm32/STM32F10x_StdPeriph_Driver/src/stm32f10x_tim.c ****              TIM_BDTRInitStruct->TIM_LOCKLevel | TIM_BDTRInitStruct->TIM_DeadTime |
 1447              		.loc 1 706 14
 1448 0022 1343     		orrs	r3, r3, r2
 1449 0024 9AB2     		uxth	r2, r3
 708:common/lib.stm32/STM32F10x_StdPeriph_Driver/src/stm32f10x_tim.c ****              TIM_BDTRInitStruct->TIM_Break | TIM_BDTRInitStruct->TIM_BreakPolarity |
 1450              		.loc 1 708 32
 1451 0026 3B68     		ldr	r3, [r7]
 1452 0028 1B89     		ldrh	r3, [r3, #8]
 706:common/lib.stm32/STM32F10x_StdPeriph_Driver/src/stm32f10x_tim.c ****              TIM_BDTRInitStruct->TIM_LOCKLevel | TIM_BDTRInitStruct->TIM_DeadTime |
 1453              		.loc 1 706 14
 1454 002a 1343     		orrs	r3, r3, r2
 1455 002c 9AB2     		uxth	r2, r3
 1456              		.loc 1 708 64
 1457 002e 3B68     		ldr	r3, [r7]
 1458 0030 5B89     		ldrh	r3, [r3, #10]
 706:common/lib.stm32/STM32F10x_StdPeriph_Driver/src/stm32f10x_tim.c ****              TIM_BDTRInitStruct->TIM_LOCKLevel | TIM_BDTRInitStruct->TIM_DeadTime |
 1459              		.loc 1 706 14
 1460 0032 1343     		orrs	r3, r3, r2
 1461 0034 9AB2     		uxth	r2, r3
 709:common/lib.stm32/STM32F10x_StdPeriph_Driver/src/stm32f10x_tim.c ****              TIM_BDTRInitStruct->TIM_AutomaticOutput;
 1462              		.loc 1 709 32
 1463 0036 3B68     		ldr	r3, [r7]
 1464 0038 9B89     		ldrh	r3, [r3, #12]
 706:common/lib.stm32/STM32F10x_StdPeriph_Driver/src/stm32f10x_tim.c ****              TIM_BDTRInitStruct->TIM_LOCKLevel | TIM_BDTRInitStruct->TIM_DeadTime |
 1465              		.loc 1 706 14
 1466 003a 1343     		orrs	r3, r3, r2
 1467 003c 9AB2     		uxth	r2, r3
 1468 003e 7B68     		ldr	r3, [r7, #4]
 1469 0040 A3F84420 		strh	r2, [r3, #68]	@ movhi
 710:common/lib.stm32/STM32F10x_StdPeriph_Driver/src/stm32f10x_tim.c **** }
 1470              		.loc 1 710 1
 1471 0044 00BF     		nop
 1472 0046 0C37     		adds	r7, r7, #12
 1473              	.LCFI48:
 1474              		.cfi_def_cfa_offset 4
 1475 0048 BD46     		mov	sp, r7
 1476              	.LCFI49:
 1477              		.cfi_def_cfa_register 13
 1478              		@ sp needed
 1479 004a 80BC     		pop	{r7}
 1480              	.LCFI50:
 1481              		.cfi_restore 7
 1482              		.cfi_def_cfa_offset 0
 1483 004c 7047     		bx	lr
 1484              		.cfi_endproc
 1485              	.LFE35:
 1487              		.section	.text.TIM_TimeBaseStructInit,"ax",%progbits
 1488              		.align	1
 1489              		.global	TIM_TimeBaseStructInit
 1490              		.syntax unified
 1491              		.thumb
 1492              		.thumb_func
 1494              	TIM_TimeBaseStructInit:
 1495              	.LFB36:
 711:common/lib.stm32/STM32F10x_StdPeriph_Driver/src/stm32f10x_tim.c **** 
 712:common/lib.stm32/STM32F10x_StdPeriph_Driver/src/stm32f10x_tim.c **** /**
 713:common/lib.stm32/STM32F10x_StdPeriph_Driver/src/stm32f10x_tim.c ****   * @brief  Fills each TIM_TimeBaseInitStruct member with its default value.
 714:common/lib.stm32/STM32F10x_StdPeriph_Driver/src/stm32f10x_tim.c ****   * @param  TIM_TimeBaseInitStruct : pointer to a TIM_TimeBaseInitTypeDef
 715:common/lib.stm32/STM32F10x_StdPeriph_Driver/src/stm32f10x_tim.c ****   *   structure which will be initialized.
 716:common/lib.stm32/STM32F10x_StdPeriph_Driver/src/stm32f10x_tim.c ****   * @retval None
 717:common/lib.stm32/STM32F10x_StdPeriph_Driver/src/stm32f10x_tim.c ****   */
 718:common/lib.stm32/STM32F10x_StdPeriph_Driver/src/stm32f10x_tim.c **** void TIM_TimeBaseStructInit(TIM_TimeBaseInitTypeDef* TIM_TimeBaseInitStruct)
 719:common/lib.stm32/STM32F10x_StdPeriph_Driver/src/stm32f10x_tim.c **** {
 1496              		.loc 1 719 1
 1497              		.cfi_startproc
 1498              		@ args = 0, pretend = 0, frame = 8
 1499              		@ frame_needed = 1, uses_anonymous_args = 0
 1500              		@ link register save eliminated.
 1501 0000 80B4     		push	{r7}
 1502              	.LCFI51:
 1503              		.cfi_def_cfa_offset 4
 1504              		.cfi_offset 7, -4
 1505 0002 83B0     		sub	sp, sp, #12
 1506              	.LCFI52:
 1507              		.cfi_def_cfa_offset 16
 1508 0004 00AF     		add	r7, sp, #0
 1509              	.LCFI53:
 1510              		.cfi_def_cfa_register 7
 1511 0006 7860     		str	r0, [r7, #4]
 720:common/lib.stm32/STM32F10x_StdPeriph_Driver/src/stm32f10x_tim.c ****   /* Set the default configuration */
 721:common/lib.stm32/STM32F10x_StdPeriph_Driver/src/stm32f10x_tim.c ****   TIM_TimeBaseInitStruct->TIM_Period = 0xFFFF;
 1512              		.loc 1 721 38
 1513 0008 7B68     		ldr	r3, [r7, #4]
 1514 000a 4FF6FF72 		movw	r2, #65535
 1515 000e 9A80     		strh	r2, [r3, #4]	@ movhi
 722:common/lib.stm32/STM32F10x_StdPeriph_Driver/src/stm32f10x_tim.c ****   TIM_TimeBaseInitStruct->TIM_Prescaler = 0x0000;
 1516              		.loc 1 722 41
 1517 0010 7B68     		ldr	r3, [r7, #4]
 1518 0012 0022     		movs	r2, #0
 1519 0014 1A80     		strh	r2, [r3]	@ movhi
 723:common/lib.stm32/STM32F10x_StdPeriph_Driver/src/stm32f10x_tim.c ****   TIM_TimeBaseInitStruct->TIM_ClockDivision = TIM_CKD_DIV1;
 1520              		.loc 1 723 45
 1521 0016 7B68     		ldr	r3, [r7, #4]
 1522 0018 0022     		movs	r2, #0
 1523 001a DA80     		strh	r2, [r3, #6]	@ movhi
 724:common/lib.stm32/STM32F10x_StdPeriph_Driver/src/stm32f10x_tim.c ****   TIM_TimeBaseInitStruct->TIM_CounterMode = TIM_CounterMode_Up;
 1524              		.loc 1 724 43
 1525 001c 7B68     		ldr	r3, [r7, #4]
 1526 001e 0022     		movs	r2, #0
 1527 0020 5A80     		strh	r2, [r3, #2]	@ movhi
 725:common/lib.stm32/STM32F10x_StdPeriph_Driver/src/stm32f10x_tim.c ****   TIM_TimeBaseInitStruct->TIM_RepetitionCounter = 0x0000;
 1528              		.loc 1 725 49
 1529 0022 7B68     		ldr	r3, [r7, #4]
 1530 0024 0022     		movs	r2, #0
 1531 0026 1A72     		strb	r2, [r3, #8]
 726:common/lib.stm32/STM32F10x_StdPeriph_Driver/src/stm32f10x_tim.c **** }
 1532              		.loc 1 726 1
 1533 0028 00BF     		nop
 1534 002a 0C37     		adds	r7, r7, #12
 1535              	.LCFI54:
 1536              		.cfi_def_cfa_offset 4
 1537 002c BD46     		mov	sp, r7
 1538              	.LCFI55:
 1539              		.cfi_def_cfa_register 13
 1540              		@ sp needed
 1541 002e 80BC     		pop	{r7}
 1542              	.LCFI56:
 1543              		.cfi_restore 7
 1544              		.cfi_def_cfa_offset 0
 1545 0030 7047     		bx	lr
 1546              		.cfi_endproc
 1547              	.LFE36:
 1549              		.section	.text.TIM_OCStructInit,"ax",%progbits
 1550              		.align	1
 1551              		.global	TIM_OCStructInit
 1552              		.syntax unified
 1553              		.thumb
 1554              		.thumb_func
 1556              	TIM_OCStructInit:
 1557              	.LFB37:
 727:common/lib.stm32/STM32F10x_StdPeriph_Driver/src/stm32f10x_tim.c **** 
 728:common/lib.stm32/STM32F10x_StdPeriph_Driver/src/stm32f10x_tim.c **** /**
 729:common/lib.stm32/STM32F10x_StdPeriph_Driver/src/stm32f10x_tim.c ****   * @brief  Fills each TIM_OCInitStruct member with its default value.
 730:common/lib.stm32/STM32F10x_StdPeriph_Driver/src/stm32f10x_tim.c ****   * @param  TIM_OCInitStruct : pointer to a TIM_OCInitTypeDef structure which will
 731:common/lib.stm32/STM32F10x_StdPeriph_Driver/src/stm32f10x_tim.c ****   *   be initialized.
 732:common/lib.stm32/STM32F10x_StdPeriph_Driver/src/stm32f10x_tim.c ****   * @retval None
 733:common/lib.stm32/STM32F10x_StdPeriph_Driver/src/stm32f10x_tim.c ****   */
 734:common/lib.stm32/STM32F10x_StdPeriph_Driver/src/stm32f10x_tim.c **** void TIM_OCStructInit(TIM_OCInitTypeDef* TIM_OCInitStruct)
 735:common/lib.stm32/STM32F10x_StdPeriph_Driver/src/stm32f10x_tim.c **** {
 1558              		.loc 1 735 1
 1559              		.cfi_startproc
 1560              		@ args = 0, pretend = 0, frame = 8
 1561              		@ frame_needed = 1, uses_anonymous_args = 0
 1562              		@ link register save eliminated.
 1563 0000 80B4     		push	{r7}
 1564              	.LCFI57:
 1565              		.cfi_def_cfa_offset 4
 1566              		.cfi_offset 7, -4
 1567 0002 83B0     		sub	sp, sp, #12
 1568              	.LCFI58:
 1569              		.cfi_def_cfa_offset 16
 1570 0004 00AF     		add	r7, sp, #0
 1571              	.LCFI59:
 1572              		.cfi_def_cfa_register 7
 1573 0006 7860     		str	r0, [r7, #4]
 736:common/lib.stm32/STM32F10x_StdPeriph_Driver/src/stm32f10x_tim.c ****   /* Set the default configuration */
 737:common/lib.stm32/STM32F10x_StdPeriph_Driver/src/stm32f10x_tim.c ****   TIM_OCInitStruct->TIM_OCMode = TIM_OCMode_Timing;
 1574              		.loc 1 737 32
 1575 0008 7B68     		ldr	r3, [r7, #4]
 1576 000a 0022     		movs	r2, #0
 1577 000c 1A80     		strh	r2, [r3]	@ movhi
 738:common/lib.stm32/STM32F10x_StdPeriph_Driver/src/stm32f10x_tim.c ****   TIM_OCInitStruct->TIM_OutputState = TIM_OutputState_Disable;
 1578              		.loc 1 738 37
 1579 000e 7B68     		ldr	r3, [r7, #4]
 1580 0010 0022     		movs	r2, #0
 1581 0012 5A80     		strh	r2, [r3, #2]	@ movhi
 739:common/lib.stm32/STM32F10x_StdPeriph_Driver/src/stm32f10x_tim.c ****   TIM_OCInitStruct->TIM_OutputNState = TIM_OutputNState_Disable;
 1582              		.loc 1 739 38
 1583 0014 7B68     		ldr	r3, [r7, #4]
 1584 0016 0022     		movs	r2, #0
 1585 0018 9A80     		strh	r2, [r3, #4]	@ movhi
 740:common/lib.stm32/STM32F10x_StdPeriph_Driver/src/stm32f10x_tim.c ****   TIM_OCInitStruct->TIM_Pulse = 0x0000;
 1586              		.loc 1 740 31
 1587 001a 7B68     		ldr	r3, [r7, #4]
 1588 001c 0022     		movs	r2, #0
 1589 001e DA80     		strh	r2, [r3, #6]	@ movhi
 741:common/lib.stm32/STM32F10x_StdPeriph_Driver/src/stm32f10x_tim.c ****   TIM_OCInitStruct->TIM_OCPolarity = TIM_OCPolarity_High;
 1590              		.loc 1 741 36
 1591 0020 7B68     		ldr	r3, [r7, #4]
 1592 0022 0022     		movs	r2, #0
 1593 0024 1A81     		strh	r2, [r3, #8]	@ movhi
 742:common/lib.stm32/STM32F10x_StdPeriph_Driver/src/stm32f10x_tim.c ****   TIM_OCInitStruct->TIM_OCNPolarity = TIM_OCPolarity_High;
 1594              		.loc 1 742 37
 1595 0026 7B68     		ldr	r3, [r7, #4]
 1596 0028 0022     		movs	r2, #0
 1597 002a 5A81     		strh	r2, [r3, #10]	@ movhi
 743:common/lib.stm32/STM32F10x_StdPeriph_Driver/src/stm32f10x_tim.c ****   TIM_OCInitStruct->TIM_OCIdleState = TIM_OCIdleState_Reset;
 1598              		.loc 1 743 37
 1599 002c 7B68     		ldr	r3, [r7, #4]
 1600 002e 0022     		movs	r2, #0
 1601 0030 9A81     		strh	r2, [r3, #12]	@ movhi
 744:common/lib.stm32/STM32F10x_StdPeriph_Driver/src/stm32f10x_tim.c ****   TIM_OCInitStruct->TIM_OCNIdleState = TIM_OCNIdleState_Reset;
 1602              		.loc 1 744 38
 1603 0032 7B68     		ldr	r3, [r7, #4]
 1604 0034 0022     		movs	r2, #0
 1605 0036 DA81     		strh	r2, [r3, #14]	@ movhi
 745:common/lib.stm32/STM32F10x_StdPeriph_Driver/src/stm32f10x_tim.c **** }
 1606              		.loc 1 745 1
 1607 0038 00BF     		nop
 1608 003a 0C37     		adds	r7, r7, #12
 1609              	.LCFI60:
 1610              		.cfi_def_cfa_offset 4
 1611 003c BD46     		mov	sp, r7
 1612              	.LCFI61:
 1613              		.cfi_def_cfa_register 13
 1614              		@ sp needed
 1615 003e 80BC     		pop	{r7}
 1616              	.LCFI62:
 1617              		.cfi_restore 7
 1618              		.cfi_def_cfa_offset 0
 1619 0040 7047     		bx	lr
 1620              		.cfi_endproc
 1621              	.LFE37:
 1623              		.section	.text.TIM_ICStructInit,"ax",%progbits
 1624              		.align	1
 1625              		.global	TIM_ICStructInit
 1626              		.syntax unified
 1627              		.thumb
 1628              		.thumb_func
 1630              	TIM_ICStructInit:
 1631              	.LFB38:
 746:common/lib.stm32/STM32F10x_StdPeriph_Driver/src/stm32f10x_tim.c **** 
 747:common/lib.stm32/STM32F10x_StdPeriph_Driver/src/stm32f10x_tim.c **** /**
 748:common/lib.stm32/STM32F10x_StdPeriph_Driver/src/stm32f10x_tim.c ****   * @brief  Fills each TIM_ICInitStruct member with its default value.
 749:common/lib.stm32/STM32F10x_StdPeriph_Driver/src/stm32f10x_tim.c ****   * @param  TIM_ICInitStruct : pointer to a TIM_ICInitTypeDef structure which will
 750:common/lib.stm32/STM32F10x_StdPeriph_Driver/src/stm32f10x_tim.c ****   *   be initialized.
 751:common/lib.stm32/STM32F10x_StdPeriph_Driver/src/stm32f10x_tim.c ****   * @retval None
 752:common/lib.stm32/STM32F10x_StdPeriph_Driver/src/stm32f10x_tim.c ****   */
 753:common/lib.stm32/STM32F10x_StdPeriph_Driver/src/stm32f10x_tim.c **** void TIM_ICStructInit(TIM_ICInitTypeDef* TIM_ICInitStruct)
 754:common/lib.stm32/STM32F10x_StdPeriph_Driver/src/stm32f10x_tim.c **** {
 1632              		.loc 1 754 1
 1633              		.cfi_startproc
 1634              		@ args = 0, pretend = 0, frame = 8
 1635              		@ frame_needed = 1, uses_anonymous_args = 0
 1636              		@ link register save eliminated.
 1637 0000 80B4     		push	{r7}
 1638              	.LCFI63:
 1639              		.cfi_def_cfa_offset 4
 1640              		.cfi_offset 7, -4
 1641 0002 83B0     		sub	sp, sp, #12
 1642              	.LCFI64:
 1643              		.cfi_def_cfa_offset 16
 1644 0004 00AF     		add	r7, sp, #0
 1645              	.LCFI65:
 1646              		.cfi_def_cfa_register 7
 1647 0006 7860     		str	r0, [r7, #4]
 755:common/lib.stm32/STM32F10x_StdPeriph_Driver/src/stm32f10x_tim.c ****   /* Set the default configuration */
 756:common/lib.stm32/STM32F10x_StdPeriph_Driver/src/stm32f10x_tim.c ****   TIM_ICInitStruct->TIM_Channel = TIM_Channel_1;
 1648              		.loc 1 756 33
 1649 0008 7B68     		ldr	r3, [r7, #4]
 1650 000a 0022     		movs	r2, #0
 1651 000c 1A80     		strh	r2, [r3]	@ movhi
 757:common/lib.stm32/STM32F10x_StdPeriph_Driver/src/stm32f10x_tim.c ****   TIM_ICInitStruct->TIM_ICPolarity = TIM_ICPolarity_Rising;
 1652              		.loc 1 757 36
 1653 000e 7B68     		ldr	r3, [r7, #4]
 1654 0010 0022     		movs	r2, #0
 1655 0012 5A80     		strh	r2, [r3, #2]	@ movhi
 758:common/lib.stm32/STM32F10x_StdPeriph_Driver/src/stm32f10x_tim.c ****   TIM_ICInitStruct->TIM_ICSelection = TIM_ICSelection_DirectTI;
 1656              		.loc 1 758 37
 1657 0014 7B68     		ldr	r3, [r7, #4]
 1658 0016 0122     		movs	r2, #1
 1659 0018 9A80     		strh	r2, [r3, #4]	@ movhi
 759:common/lib.stm32/STM32F10x_StdPeriph_Driver/src/stm32f10x_tim.c ****   TIM_ICInitStruct->TIM_ICPrescaler = TIM_ICPSC_DIV1;
 1660              		.loc 1 759 37
 1661 001a 7B68     		ldr	r3, [r7, #4]
 1662 001c 0022     		movs	r2, #0
 1663 001e DA80     		strh	r2, [r3, #6]	@ movhi
 760:common/lib.stm32/STM32F10x_StdPeriph_Driver/src/stm32f10x_tim.c ****   TIM_ICInitStruct->TIM_ICFilter = 0x00;
 1664              		.loc 1 760 34
 1665 0020 7B68     		ldr	r3, [r7, #4]
 1666 0022 0022     		movs	r2, #0
 1667 0024 1A81     		strh	r2, [r3, #8]	@ movhi
 761:common/lib.stm32/STM32F10x_StdPeriph_Driver/src/stm32f10x_tim.c **** }
 1668              		.loc 1 761 1
 1669 0026 00BF     		nop
 1670 0028 0C37     		adds	r7, r7, #12
 1671              	.LCFI66:
 1672              		.cfi_def_cfa_offset 4
 1673 002a BD46     		mov	sp, r7
 1674              	.LCFI67:
 1675              		.cfi_def_cfa_register 13
 1676              		@ sp needed
 1677 002c 80BC     		pop	{r7}
 1678              	.LCFI68:
 1679              		.cfi_restore 7
 1680              		.cfi_def_cfa_offset 0
 1681 002e 7047     		bx	lr
 1682              		.cfi_endproc
 1683              	.LFE38:
 1685              		.section	.text.TIM_BDTRStructInit,"ax",%progbits
 1686              		.align	1
 1687              		.global	TIM_BDTRStructInit
 1688              		.syntax unified
 1689              		.thumb
 1690              		.thumb_func
 1692              	TIM_BDTRStructInit:
 1693              	.LFB39:
 762:common/lib.stm32/STM32F10x_StdPeriph_Driver/src/stm32f10x_tim.c **** 
 763:common/lib.stm32/STM32F10x_StdPeriph_Driver/src/stm32f10x_tim.c **** /**
 764:common/lib.stm32/STM32F10x_StdPeriph_Driver/src/stm32f10x_tim.c ****   * @brief  Fills each TIM_BDTRInitStruct member with its default value.
 765:common/lib.stm32/STM32F10x_StdPeriph_Driver/src/stm32f10x_tim.c ****   * @param  TIM_BDTRInitStruct: pointer to a TIM_BDTRInitTypeDef structure which
 766:common/lib.stm32/STM32F10x_StdPeriph_Driver/src/stm32f10x_tim.c ****   *   will be initialized.
 767:common/lib.stm32/STM32F10x_StdPeriph_Driver/src/stm32f10x_tim.c ****   * @retval None
 768:common/lib.stm32/STM32F10x_StdPeriph_Driver/src/stm32f10x_tim.c ****   */
 769:common/lib.stm32/STM32F10x_StdPeriph_Driver/src/stm32f10x_tim.c **** void TIM_BDTRStructInit(TIM_BDTRInitTypeDef* TIM_BDTRInitStruct)
 770:common/lib.stm32/STM32F10x_StdPeriph_Driver/src/stm32f10x_tim.c **** {
 1694              		.loc 1 770 1
 1695              		.cfi_startproc
 1696              		@ args = 0, pretend = 0, frame = 8
 1697              		@ frame_needed = 1, uses_anonymous_args = 0
 1698              		@ link register save eliminated.
 1699 0000 80B4     		push	{r7}
 1700              	.LCFI69:
 1701              		.cfi_def_cfa_offset 4
 1702              		.cfi_offset 7, -4
 1703 0002 83B0     		sub	sp, sp, #12
 1704              	.LCFI70:
 1705              		.cfi_def_cfa_offset 16
 1706 0004 00AF     		add	r7, sp, #0
 1707              	.LCFI71:
 1708              		.cfi_def_cfa_register 7
 1709 0006 7860     		str	r0, [r7, #4]
 771:common/lib.stm32/STM32F10x_StdPeriph_Driver/src/stm32f10x_tim.c ****   /* Set the default configuration */
 772:common/lib.stm32/STM32F10x_StdPeriph_Driver/src/stm32f10x_tim.c ****   TIM_BDTRInitStruct->TIM_OSSRState = TIM_OSSRState_Disable;
 1710              		.loc 1 772 37
 1711 0008 7B68     		ldr	r3, [r7, #4]
 1712 000a 0022     		movs	r2, #0
 1713 000c 1A80     		strh	r2, [r3]	@ movhi
 773:common/lib.stm32/STM32F10x_StdPeriph_Driver/src/stm32f10x_tim.c ****   TIM_BDTRInitStruct->TIM_OSSIState = TIM_OSSIState_Disable;
 1714              		.loc 1 773 37
 1715 000e 7B68     		ldr	r3, [r7, #4]
 1716 0010 0022     		movs	r2, #0
 1717 0012 5A80     		strh	r2, [r3, #2]	@ movhi
 774:common/lib.stm32/STM32F10x_StdPeriph_Driver/src/stm32f10x_tim.c ****   TIM_BDTRInitStruct->TIM_LOCKLevel = TIM_LOCKLevel_OFF;
 1718              		.loc 1 774 37
 1719 0014 7B68     		ldr	r3, [r7, #4]
 1720 0016 0022     		movs	r2, #0
 1721 0018 9A80     		strh	r2, [r3, #4]	@ movhi
 775:common/lib.stm32/STM32F10x_StdPeriph_Driver/src/stm32f10x_tim.c ****   TIM_BDTRInitStruct->TIM_DeadTime = 0x00;
 1722              		.loc 1 775 36
 1723 001a 7B68     		ldr	r3, [r7, #4]
 1724 001c 0022     		movs	r2, #0
 1725 001e DA80     		strh	r2, [r3, #6]	@ movhi
 776:common/lib.stm32/STM32F10x_StdPeriph_Driver/src/stm32f10x_tim.c ****   TIM_BDTRInitStruct->TIM_Break = TIM_Break_Disable;
 1726              		.loc 1 776 33
 1727 0020 7B68     		ldr	r3, [r7, #4]
 1728 0022 0022     		movs	r2, #0
 1729 0024 1A81     		strh	r2, [r3, #8]	@ movhi
 777:common/lib.stm32/STM32F10x_StdPeriph_Driver/src/stm32f10x_tim.c ****   TIM_BDTRInitStruct->TIM_BreakPolarity = TIM_BreakPolarity_Low;
 1730              		.loc 1 777 41
 1731 0026 7B68     		ldr	r3, [r7, #4]
 1732 0028 0022     		movs	r2, #0
 1733 002a 5A81     		strh	r2, [r3, #10]	@ movhi
 778:common/lib.stm32/STM32F10x_StdPeriph_Driver/src/stm32f10x_tim.c ****   TIM_BDTRInitStruct->TIM_AutomaticOutput = TIM_AutomaticOutput_Disable;
 1734              		.loc 1 778 43
 1735 002c 7B68     		ldr	r3, [r7, #4]
 1736 002e 0022     		movs	r2, #0
 1737 0030 9A81     		strh	r2, [r3, #12]	@ movhi
 779:common/lib.stm32/STM32F10x_StdPeriph_Driver/src/stm32f10x_tim.c **** }
 1738              		.loc 1 779 1
 1739 0032 00BF     		nop
 1740 0034 0C37     		adds	r7, r7, #12
 1741              	.LCFI72:
 1742              		.cfi_def_cfa_offset 4
 1743 0036 BD46     		mov	sp, r7
 1744              	.LCFI73:
 1745              		.cfi_def_cfa_register 13
 1746              		@ sp needed
 1747 0038 80BC     		pop	{r7}
 1748              	.LCFI74:
 1749              		.cfi_restore 7
 1750              		.cfi_def_cfa_offset 0
 1751 003a 7047     		bx	lr
 1752              		.cfi_endproc
 1753              	.LFE39:
 1755              		.section	.text.TIM_Cmd,"ax",%progbits
 1756              		.align	1
 1757              		.global	TIM_Cmd
 1758              		.syntax unified
 1759              		.thumb
 1760              		.thumb_func
 1762              	TIM_Cmd:
 1763              	.LFB40:
 780:common/lib.stm32/STM32F10x_StdPeriph_Driver/src/stm32f10x_tim.c **** 
 781:common/lib.stm32/STM32F10x_StdPeriph_Driver/src/stm32f10x_tim.c **** /**
 782:common/lib.stm32/STM32F10x_StdPeriph_Driver/src/stm32f10x_tim.c ****   * @brief  Enables or disables the specified TIM peripheral.
 783:common/lib.stm32/STM32F10x_StdPeriph_Driver/src/stm32f10x_tim.c ****   * @param  TIMx: where x can be 1 to 8 to select the TIMx peripheral.
 784:common/lib.stm32/STM32F10x_StdPeriph_Driver/src/stm32f10x_tim.c ****   * @param  NewState: new state of the TIMx peripheral.
 785:common/lib.stm32/STM32F10x_StdPeriph_Driver/src/stm32f10x_tim.c ****   *   This parameter can be: ENABLE or DISABLE.
 786:common/lib.stm32/STM32F10x_StdPeriph_Driver/src/stm32f10x_tim.c ****   * @retval None
 787:common/lib.stm32/STM32F10x_StdPeriph_Driver/src/stm32f10x_tim.c ****   */
 788:common/lib.stm32/STM32F10x_StdPeriph_Driver/src/stm32f10x_tim.c **** void TIM_Cmd(TIM_TypeDef* TIMx, FunctionalState NewState)
 789:common/lib.stm32/STM32F10x_StdPeriph_Driver/src/stm32f10x_tim.c **** {
 1764              		.loc 1 789 1
 1765              		.cfi_startproc
 1766              		@ args = 0, pretend = 0, frame = 8
 1767              		@ frame_needed = 1, uses_anonymous_args = 0
 1768              		@ link register save eliminated.
 1769 0000 80B4     		push	{r7}
 1770              	.LCFI75:
 1771              		.cfi_def_cfa_offset 4
 1772              		.cfi_offset 7, -4
 1773 0002 83B0     		sub	sp, sp, #12
 1774              	.LCFI76:
 1775              		.cfi_def_cfa_offset 16
 1776 0004 00AF     		add	r7, sp, #0
 1777              	.LCFI77:
 1778              		.cfi_def_cfa_register 7
 1779 0006 7860     		str	r0, [r7, #4]
 1780 0008 0B46     		mov	r3, r1
 1781 000a FB70     		strb	r3, [r7, #3]
 790:common/lib.stm32/STM32F10x_StdPeriph_Driver/src/stm32f10x_tim.c ****   /* Check the parameters */
 791:common/lib.stm32/STM32F10x_StdPeriph_Driver/src/stm32f10x_tim.c ****   assert_param(IS_TIM_ALL_PERIPH(TIMx));
 792:common/lib.stm32/STM32F10x_StdPeriph_Driver/src/stm32f10x_tim.c ****   assert_param(IS_FUNCTIONAL_STATE(NewState));
 793:common/lib.stm32/STM32F10x_StdPeriph_Driver/src/stm32f10x_tim.c ****   
 794:common/lib.stm32/STM32F10x_StdPeriph_Driver/src/stm32f10x_tim.c ****   if (NewState != DISABLE)
 1782              		.loc 1 794 6
 1783 000c FB78     		ldrb	r3, [r7, #3]	@ zero_extendqisi2
 1784 000e 002B     		cmp	r3, #0
 1785 0010 08D0     		beq	.L62
 795:common/lib.stm32/STM32F10x_StdPeriph_Driver/src/stm32f10x_tim.c ****   {
 796:common/lib.stm32/STM32F10x_StdPeriph_Driver/src/stm32f10x_tim.c ****     /* Enable the TIM Counter */
 797:common/lib.stm32/STM32F10x_StdPeriph_Driver/src/stm32f10x_tim.c ****     TIMx->CR1 |= CR1_CEN_Set;
 1786              		.loc 1 797 15
 1787 0012 7B68     		ldr	r3, [r7, #4]
 1788 0014 1B88     		ldrh	r3, [r3]	@ movhi
 1789 0016 9BB2     		uxth	r3, r3
 1790 0018 43F00103 		orr	r3, r3, #1
 1791 001c 9AB2     		uxth	r2, r3
 1792 001e 7B68     		ldr	r3, [r7, #4]
 1793 0020 1A80     		strh	r2, [r3]	@ movhi
 798:common/lib.stm32/STM32F10x_StdPeriph_Driver/src/stm32f10x_tim.c ****   }
 799:common/lib.stm32/STM32F10x_StdPeriph_Driver/src/stm32f10x_tim.c ****   else
 800:common/lib.stm32/STM32F10x_StdPeriph_Driver/src/stm32f10x_tim.c ****   {
 801:common/lib.stm32/STM32F10x_StdPeriph_Driver/src/stm32f10x_tim.c ****     /* Disable the TIM Counter */
 802:common/lib.stm32/STM32F10x_StdPeriph_Driver/src/stm32f10x_tim.c ****     TIMx->CR1 &= CR1_CEN_Reset;
 803:common/lib.stm32/STM32F10x_StdPeriph_Driver/src/stm32f10x_tim.c ****   }
 804:common/lib.stm32/STM32F10x_StdPeriph_Driver/src/stm32f10x_tim.c **** }
 1794              		.loc 1 804 1
 1795 0022 08E0     		b	.L64
 1796              	.L62:
 802:common/lib.stm32/STM32F10x_StdPeriph_Driver/src/stm32f10x_tim.c ****   }
 1797              		.loc 1 802 15
 1798 0024 7B68     		ldr	r3, [r7, #4]
 1799 0026 1B88     		ldrh	r3, [r3]	@ movhi
 1800 0028 9AB2     		uxth	r2, r3
 1801 002a 40F2FE33 		movw	r3, #1022
 1802 002e 1340     		ands	r3, r3, r2
 1803 0030 9AB2     		uxth	r2, r3
 1804 0032 7B68     		ldr	r3, [r7, #4]
 1805 0034 1A80     		strh	r2, [r3]	@ movhi
 1806              	.L64:
 1807              		.loc 1 804 1
 1808 0036 00BF     		nop
 1809 0038 0C37     		adds	r7, r7, #12
 1810              	.LCFI78:
 1811              		.cfi_def_cfa_offset 4
 1812 003a BD46     		mov	sp, r7
 1813              	.LCFI79:
 1814              		.cfi_def_cfa_register 13
 1815              		@ sp needed
 1816 003c 80BC     		pop	{r7}
 1817              	.LCFI80:
 1818              		.cfi_restore 7
 1819              		.cfi_def_cfa_offset 0
 1820 003e 7047     		bx	lr
 1821              		.cfi_endproc
 1822              	.LFE40:
 1824              		.section	.text.TIM_CtrlPWMOutputs,"ax",%progbits
 1825              		.align	1
 1826              		.global	TIM_CtrlPWMOutputs
 1827              		.syntax unified
 1828              		.thumb
 1829              		.thumb_func
 1831              	TIM_CtrlPWMOutputs:
 1832              	.LFB41:
 805:common/lib.stm32/STM32F10x_StdPeriph_Driver/src/stm32f10x_tim.c **** 
 806:common/lib.stm32/STM32F10x_StdPeriph_Driver/src/stm32f10x_tim.c **** /**
 807:common/lib.stm32/STM32F10x_StdPeriph_Driver/src/stm32f10x_tim.c ****   * @brief  Enables or disables the TIM peripheral Main Outputs.
 808:common/lib.stm32/STM32F10x_StdPeriph_Driver/src/stm32f10x_tim.c ****   * @param  TIMx: where x can be 1 or 8 to select the TIMx peripheral.
 809:common/lib.stm32/STM32F10x_StdPeriph_Driver/src/stm32f10x_tim.c ****   * @param  NewState: new state of the TIM peripheral Main Outputs.
 810:common/lib.stm32/STM32F10x_StdPeriph_Driver/src/stm32f10x_tim.c ****   *   This parameter can be: ENABLE or DISABLE.
 811:common/lib.stm32/STM32F10x_StdPeriph_Driver/src/stm32f10x_tim.c ****   * @retval None
 812:common/lib.stm32/STM32F10x_StdPeriph_Driver/src/stm32f10x_tim.c ****   */
 813:common/lib.stm32/STM32F10x_StdPeriph_Driver/src/stm32f10x_tim.c **** void TIM_CtrlPWMOutputs(TIM_TypeDef* TIMx, FunctionalState NewState)
 814:common/lib.stm32/STM32F10x_StdPeriph_Driver/src/stm32f10x_tim.c **** {
 1833              		.loc 1 814 1
 1834              		.cfi_startproc
 1835              		@ args = 0, pretend = 0, frame = 8
 1836              		@ frame_needed = 1, uses_anonymous_args = 0
 1837              		@ link register save eliminated.
 1838 0000 80B4     		push	{r7}
 1839              	.LCFI81:
 1840              		.cfi_def_cfa_offset 4
 1841              		.cfi_offset 7, -4
 1842 0002 83B0     		sub	sp, sp, #12
 1843              	.LCFI82:
 1844              		.cfi_def_cfa_offset 16
 1845 0004 00AF     		add	r7, sp, #0
 1846              	.LCFI83:
 1847              		.cfi_def_cfa_register 7
 1848 0006 7860     		str	r0, [r7, #4]
 1849 0008 0B46     		mov	r3, r1
 1850 000a FB70     		strb	r3, [r7, #3]
 815:common/lib.stm32/STM32F10x_StdPeriph_Driver/src/stm32f10x_tim.c ****   /* Check the parameters */
 816:common/lib.stm32/STM32F10x_StdPeriph_Driver/src/stm32f10x_tim.c ****   assert_param(IS_TIM_18_PERIPH(TIMx));
 817:common/lib.stm32/STM32F10x_StdPeriph_Driver/src/stm32f10x_tim.c ****   assert_param(IS_FUNCTIONAL_STATE(NewState));
 818:common/lib.stm32/STM32F10x_StdPeriph_Driver/src/stm32f10x_tim.c ****   if (NewState != DISABLE)
 1851              		.loc 1 818 6
 1852 000c FB78     		ldrb	r3, [r7, #3]	@ zero_extendqisi2
 1853 000e 002B     		cmp	r3, #0
 1854 0010 0CD0     		beq	.L66
 819:common/lib.stm32/STM32F10x_StdPeriph_Driver/src/stm32f10x_tim.c ****   {
 820:common/lib.stm32/STM32F10x_StdPeriph_Driver/src/stm32f10x_tim.c ****     /* Enable the TIM Main Output */
 821:common/lib.stm32/STM32F10x_StdPeriph_Driver/src/stm32f10x_tim.c ****     TIMx->BDTR |= BDTR_MOE_Set;
 1855              		.loc 1 821 16
 1856 0012 7B68     		ldr	r3, [r7, #4]
 1857 0014 B3F84430 		ldrh	r3, [r3, #68]	@ movhi
 1858 0018 9BB2     		uxth	r3, r3
 1859 001a 6FEA4343 		mvn	r3, r3, lsl #17
 1860 001e 6FEA5343 		mvn	r3, r3, lsr #17
 1861 0022 9AB2     		uxth	r2, r3
 1862 0024 7B68     		ldr	r3, [r7, #4]
 1863 0026 A3F84420 		strh	r2, [r3, #68]	@ movhi
 822:common/lib.stm32/STM32F10x_StdPeriph_Driver/src/stm32f10x_tim.c ****   }
 823:common/lib.stm32/STM32F10x_StdPeriph_Driver/src/stm32f10x_tim.c ****   else
 824:common/lib.stm32/STM32F10x_StdPeriph_Driver/src/stm32f10x_tim.c ****   {
 825:common/lib.stm32/STM32F10x_StdPeriph_Driver/src/stm32f10x_tim.c ****     /* Disable the TIM Main Output */
 826:common/lib.stm32/STM32F10x_StdPeriph_Driver/src/stm32f10x_tim.c ****     TIMx->BDTR &= BDTR_MOE_Reset;
 827:common/lib.stm32/STM32F10x_StdPeriph_Driver/src/stm32f10x_tim.c ****   }  
 828:common/lib.stm32/STM32F10x_StdPeriph_Driver/src/stm32f10x_tim.c **** }
 1864              		.loc 1 828 1
 1865 002a 09E0     		b	.L68
 1866              	.L66:
 826:common/lib.stm32/STM32F10x_StdPeriph_Driver/src/stm32f10x_tim.c ****   }  
 1867              		.loc 1 826 16
 1868 002c 7B68     		ldr	r3, [r7, #4]
 1869 002e B3F84430 		ldrh	r3, [r3, #68]	@ movhi
 1870 0032 9BB2     		uxth	r3, r3
 1871 0034 C3F30E03 		ubfx	r3, r3, #0, #15
 1872 0038 9AB2     		uxth	r2, r3
 1873 003a 7B68     		ldr	r3, [r7, #4]
 1874 003c A3F84420 		strh	r2, [r3, #68]	@ movhi
 1875              	.L68:
 1876              		.loc 1 828 1
 1877 0040 00BF     		nop
 1878 0042 0C37     		adds	r7, r7, #12
 1879              	.LCFI84:
 1880              		.cfi_def_cfa_offset 4
 1881 0044 BD46     		mov	sp, r7
 1882              	.LCFI85:
 1883              		.cfi_def_cfa_register 13
 1884              		@ sp needed
 1885 0046 80BC     		pop	{r7}
 1886              	.LCFI86:
 1887              		.cfi_restore 7
 1888              		.cfi_def_cfa_offset 0
 1889 0048 7047     		bx	lr
 1890              		.cfi_endproc
 1891              	.LFE41:
 1893              		.section	.text.TIM_ITConfig,"ax",%progbits
 1894              		.align	1
 1895              		.global	TIM_ITConfig
 1896              		.syntax unified
 1897              		.thumb
 1898              		.thumb_func
 1900              	TIM_ITConfig:
 1901              	.LFB42:
 829:common/lib.stm32/STM32F10x_StdPeriph_Driver/src/stm32f10x_tim.c **** 
 830:common/lib.stm32/STM32F10x_StdPeriph_Driver/src/stm32f10x_tim.c **** /**
 831:common/lib.stm32/STM32F10x_StdPeriph_Driver/src/stm32f10x_tim.c ****   * @brief  Enables or disables the specified TIM interrupts.
 832:common/lib.stm32/STM32F10x_StdPeriph_Driver/src/stm32f10x_tim.c ****   * @param  TIMx: where x can be 1 to 8 to select the TIMx peripheral.
 833:common/lib.stm32/STM32F10x_StdPeriph_Driver/src/stm32f10x_tim.c ****   * @param  TIM_IT: specifies the TIM interrupts sources to be enabled or disabled.
 834:common/lib.stm32/STM32F10x_StdPeriph_Driver/src/stm32f10x_tim.c ****   *   This parameter can be any combination of the following values:
 835:common/lib.stm32/STM32F10x_StdPeriph_Driver/src/stm32f10x_tim.c ****   *     @arg TIM_IT_Update: TIM update Interrupt source
 836:common/lib.stm32/STM32F10x_StdPeriph_Driver/src/stm32f10x_tim.c ****   *     @arg TIM_IT_CC1: TIM Capture Compare 1 Interrupt source
 837:common/lib.stm32/STM32F10x_StdPeriph_Driver/src/stm32f10x_tim.c ****   *     @arg TIM_IT_CC2: TIM Capture Compare 2 Interrupt source
 838:common/lib.stm32/STM32F10x_StdPeriph_Driver/src/stm32f10x_tim.c ****   *     @arg TIM_IT_CC3: TIM Capture Compare 3 Interrupt source
 839:common/lib.stm32/STM32F10x_StdPeriph_Driver/src/stm32f10x_tim.c ****   *     @arg TIM_IT_CC4: TIM Capture Compare 4 Interrupt source
 840:common/lib.stm32/STM32F10x_StdPeriph_Driver/src/stm32f10x_tim.c ****   *     @arg TIM_IT_COM: TIM Commutation Interrupt source
 841:common/lib.stm32/STM32F10x_StdPeriph_Driver/src/stm32f10x_tim.c ****   *     @arg TIM_IT_Trigger: TIM Trigger Interrupt source
 842:common/lib.stm32/STM32F10x_StdPeriph_Driver/src/stm32f10x_tim.c ****   *     @arg TIM_IT_Break: TIM Break Interrupt source
 843:common/lib.stm32/STM32F10x_StdPeriph_Driver/src/stm32f10x_tim.c ****   * @note 
 844:common/lib.stm32/STM32F10x_StdPeriph_Driver/src/stm32f10x_tim.c ****   *   - TIM6 and TIM7 can only generate an update interrupt. 
 845:common/lib.stm32/STM32F10x_StdPeriph_Driver/src/stm32f10x_tim.c ****   *   - TIM_IT_COM and TIM_IT_Break are used only with TIM1 and TIM8.  
 846:common/lib.stm32/STM32F10x_StdPeriph_Driver/src/stm32f10x_tim.c ****   * @param  NewState: new state of the TIM interrupts.
 847:common/lib.stm32/STM32F10x_StdPeriph_Driver/src/stm32f10x_tim.c ****   *   This parameter can be: ENABLE or DISABLE.
 848:common/lib.stm32/STM32F10x_StdPeriph_Driver/src/stm32f10x_tim.c ****   * @retval None
 849:common/lib.stm32/STM32F10x_StdPeriph_Driver/src/stm32f10x_tim.c ****   */
 850:common/lib.stm32/STM32F10x_StdPeriph_Driver/src/stm32f10x_tim.c **** void TIM_ITConfig(TIM_TypeDef* TIMx, uint16_t TIM_IT, FunctionalState NewState)
 851:common/lib.stm32/STM32F10x_StdPeriph_Driver/src/stm32f10x_tim.c **** {  
 1902              		.loc 1 851 1
 1903              		.cfi_startproc
 1904              		@ args = 0, pretend = 0, frame = 8
 1905              		@ frame_needed = 1, uses_anonymous_args = 0
 1906              		@ link register save eliminated.
 1907 0000 80B4     		push	{r7}
 1908              	.LCFI87:
 1909              		.cfi_def_cfa_offset 4
 1910              		.cfi_offset 7, -4
 1911 0002 83B0     		sub	sp, sp, #12
 1912              	.LCFI88:
 1913              		.cfi_def_cfa_offset 16
 1914 0004 00AF     		add	r7, sp, #0
 1915              	.LCFI89:
 1916              		.cfi_def_cfa_register 7
 1917 0006 7860     		str	r0, [r7, #4]
 1918 0008 0B46     		mov	r3, r1
 1919 000a 7B80     		strh	r3, [r7, #2]	@ movhi
 1920 000c 1346     		mov	r3, r2
 1921 000e 7B70     		strb	r3, [r7, #1]
 852:common/lib.stm32/STM32F10x_StdPeriph_Driver/src/stm32f10x_tim.c ****   /* Check the parameters */
 853:common/lib.stm32/STM32F10x_StdPeriph_Driver/src/stm32f10x_tim.c ****   assert_param(IS_TIM_ALL_PERIPH(TIMx));
 854:common/lib.stm32/STM32F10x_StdPeriph_Driver/src/stm32f10x_tim.c ****   assert_param(IS_TIM_IT(TIM_IT));
 855:common/lib.stm32/STM32F10x_StdPeriph_Driver/src/stm32f10x_tim.c ****   assert_param(IS_FUNCTIONAL_STATE(NewState));
 856:common/lib.stm32/STM32F10x_StdPeriph_Driver/src/stm32f10x_tim.c ****   
 857:common/lib.stm32/STM32F10x_StdPeriph_Driver/src/stm32f10x_tim.c ****   if (NewState != DISABLE)
 1922              		.loc 1 857 6
 1923 0010 7B78     		ldrb	r3, [r7, #1]	@ zero_extendqisi2
 1924 0012 002B     		cmp	r3, #0
 1925 0014 08D0     		beq	.L70
 858:common/lib.stm32/STM32F10x_StdPeriph_Driver/src/stm32f10x_tim.c ****   {
 859:common/lib.stm32/STM32F10x_StdPeriph_Driver/src/stm32f10x_tim.c ****     /* Enable the Interrupt sources */
 860:common/lib.stm32/STM32F10x_StdPeriph_Driver/src/stm32f10x_tim.c ****     TIMx->DIER |= TIM_IT;
 1926              		.loc 1 860 16
 1927 0016 7B68     		ldr	r3, [r7, #4]
 1928 0018 9B89     		ldrh	r3, [r3, #12]	@ movhi
 1929 001a 9AB2     		uxth	r2, r3
 1930 001c 7B88     		ldrh	r3, [r7, #2]	@ movhi
 1931 001e 1343     		orrs	r3, r3, r2
 1932 0020 9AB2     		uxth	r2, r3
 1933 0022 7B68     		ldr	r3, [r7, #4]
 1934 0024 9A81     		strh	r2, [r3, #12]	@ movhi
 861:common/lib.stm32/STM32F10x_StdPeriph_Driver/src/stm32f10x_tim.c ****   }
 862:common/lib.stm32/STM32F10x_StdPeriph_Driver/src/stm32f10x_tim.c ****   else
 863:common/lib.stm32/STM32F10x_StdPeriph_Driver/src/stm32f10x_tim.c ****   {
 864:common/lib.stm32/STM32F10x_StdPeriph_Driver/src/stm32f10x_tim.c ****     /* Disable the Interrupt sources */
 865:common/lib.stm32/STM32F10x_StdPeriph_Driver/src/stm32f10x_tim.c ****     TIMx->DIER &= (uint16_t)~TIM_IT;
 866:common/lib.stm32/STM32F10x_StdPeriph_Driver/src/stm32f10x_tim.c ****   }
 867:common/lib.stm32/STM32F10x_StdPeriph_Driver/src/stm32f10x_tim.c **** }
 1935              		.loc 1 867 1
 1936 0026 09E0     		b	.L72
 1937              	.L70:
 865:common/lib.stm32/STM32F10x_StdPeriph_Driver/src/stm32f10x_tim.c ****   }
 1938              		.loc 1 865 16
 1939 0028 7B68     		ldr	r3, [r7, #4]
 1940 002a 9B89     		ldrh	r3, [r3, #12]	@ movhi
 1941 002c 9AB2     		uxth	r2, r3
 865:common/lib.stm32/STM32F10x_StdPeriph_Driver/src/stm32f10x_tim.c ****   }
 1942              		.loc 1 865 19
 1943 002e 7B88     		ldrh	r3, [r7, #2]	@ movhi
 1944 0030 DB43     		mvns	r3, r3
 1945 0032 9BB2     		uxth	r3, r3
 865:common/lib.stm32/STM32F10x_StdPeriph_Driver/src/stm32f10x_tim.c ****   }
 1946              		.loc 1 865 16
 1947 0034 1340     		ands	r3, r3, r2
 1948 0036 9AB2     		uxth	r2, r3
 1949 0038 7B68     		ldr	r3, [r7, #4]
 1950 003a 9A81     		strh	r2, [r3, #12]	@ movhi
 1951              	.L72:
 1952              		.loc 1 867 1
 1953 003c 00BF     		nop
 1954 003e 0C37     		adds	r7, r7, #12
 1955              	.LCFI90:
 1956              		.cfi_def_cfa_offset 4
 1957 0040 BD46     		mov	sp, r7
 1958              	.LCFI91:
 1959              		.cfi_def_cfa_register 13
 1960              		@ sp needed
 1961 0042 80BC     		pop	{r7}
 1962              	.LCFI92:
 1963              		.cfi_restore 7
 1964              		.cfi_def_cfa_offset 0
 1965 0044 7047     		bx	lr
 1966              		.cfi_endproc
 1967              	.LFE42:
 1969              		.section	.text.TIM_GenerateEvent,"ax",%progbits
 1970              		.align	1
 1971              		.global	TIM_GenerateEvent
 1972              		.syntax unified
 1973              		.thumb
 1974              		.thumb_func
 1976              	TIM_GenerateEvent:
 1977              	.LFB43:
 868:common/lib.stm32/STM32F10x_StdPeriph_Driver/src/stm32f10x_tim.c **** 
 869:common/lib.stm32/STM32F10x_StdPeriph_Driver/src/stm32f10x_tim.c **** /**
 870:common/lib.stm32/STM32F10x_StdPeriph_Driver/src/stm32f10x_tim.c ****   * @brief  Configures the TIMx event to be generate by software.
 871:common/lib.stm32/STM32F10x_StdPeriph_Driver/src/stm32f10x_tim.c ****   * @param  TIMx: where x can be 1 to 8 to select the TIM peripheral.
 872:common/lib.stm32/STM32F10x_StdPeriph_Driver/src/stm32f10x_tim.c ****   * @param  TIM_EventSource: specifies the event source.
 873:common/lib.stm32/STM32F10x_StdPeriph_Driver/src/stm32f10x_tim.c ****   *   This parameter can be one or more of the following values:	   
 874:common/lib.stm32/STM32F10x_StdPeriph_Driver/src/stm32f10x_tim.c ****   *     @arg TIM_EventSource_Update: Timer update Event source
 875:common/lib.stm32/STM32F10x_StdPeriph_Driver/src/stm32f10x_tim.c ****   *     @arg TIM_EventSource_CC1: Timer Capture Compare 1 Event source
 876:common/lib.stm32/STM32F10x_StdPeriph_Driver/src/stm32f10x_tim.c ****   *     @arg TIM_EventSource_CC2: Timer Capture Compare 2 Event source
 877:common/lib.stm32/STM32F10x_StdPeriph_Driver/src/stm32f10x_tim.c ****   *     @arg TIM_EventSource_CC3: Timer Capture Compare 3 Event source
 878:common/lib.stm32/STM32F10x_StdPeriph_Driver/src/stm32f10x_tim.c ****   *     @arg TIM_EventSource_CC4: Timer Capture Compare 4 Event source
 879:common/lib.stm32/STM32F10x_StdPeriph_Driver/src/stm32f10x_tim.c ****   *     @arg TIM_EventSource_COM: Timer COM event source  
 880:common/lib.stm32/STM32F10x_StdPeriph_Driver/src/stm32f10x_tim.c ****   *     @arg TIM_EventSource_Trigger: Timer Trigger Event source
 881:common/lib.stm32/STM32F10x_StdPeriph_Driver/src/stm32f10x_tim.c ****   *     @arg TIM_EventSource_Break: Timer Break event source
 882:common/lib.stm32/STM32F10x_StdPeriph_Driver/src/stm32f10x_tim.c ****   * @note 
 883:common/lib.stm32/STM32F10x_StdPeriph_Driver/src/stm32f10x_tim.c ****   *   - TIM6 and TIM7 can only generate an update event. 
 884:common/lib.stm32/STM32F10x_StdPeriph_Driver/src/stm32f10x_tim.c ****   *   - TIM_EventSource_COM and TIM_EventSource_Break are used only with TIM1 and TIM8.      
 885:common/lib.stm32/STM32F10x_StdPeriph_Driver/src/stm32f10x_tim.c ****   * @retval None
 886:common/lib.stm32/STM32F10x_StdPeriph_Driver/src/stm32f10x_tim.c ****   */
 887:common/lib.stm32/STM32F10x_StdPeriph_Driver/src/stm32f10x_tim.c **** void TIM_GenerateEvent(TIM_TypeDef* TIMx, uint16_t TIM_EventSource)
 888:common/lib.stm32/STM32F10x_StdPeriph_Driver/src/stm32f10x_tim.c **** { 
 1978              		.loc 1 888 1
 1979              		.cfi_startproc
 1980              		@ args = 0, pretend = 0, frame = 8
 1981              		@ frame_needed = 1, uses_anonymous_args = 0
 1982              		@ link register save eliminated.
 1983 0000 80B4     		push	{r7}
 1984              	.LCFI93:
 1985              		.cfi_def_cfa_offset 4
 1986              		.cfi_offset 7, -4
 1987 0002 83B0     		sub	sp, sp, #12
 1988              	.LCFI94:
 1989              		.cfi_def_cfa_offset 16
 1990 0004 00AF     		add	r7, sp, #0
 1991              	.LCFI95:
 1992              		.cfi_def_cfa_register 7
 1993 0006 7860     		str	r0, [r7, #4]
 1994 0008 0B46     		mov	r3, r1
 1995 000a 7B80     		strh	r3, [r7, #2]	@ movhi
 889:common/lib.stm32/STM32F10x_StdPeriph_Driver/src/stm32f10x_tim.c ****   /* Check the parameters */
 890:common/lib.stm32/STM32F10x_StdPeriph_Driver/src/stm32f10x_tim.c ****   assert_param(IS_TIM_ALL_PERIPH(TIMx));
 891:common/lib.stm32/STM32F10x_StdPeriph_Driver/src/stm32f10x_tim.c ****   assert_param(IS_TIM_EVENT_SOURCE(TIM_EventSource));
 892:common/lib.stm32/STM32F10x_StdPeriph_Driver/src/stm32f10x_tim.c ****   
 893:common/lib.stm32/STM32F10x_StdPeriph_Driver/src/stm32f10x_tim.c ****   /* Set the event sources */
 894:common/lib.stm32/STM32F10x_StdPeriph_Driver/src/stm32f10x_tim.c ****   TIMx->EGR = TIM_EventSource;
 1996              		.loc 1 894 13
 1997 000c 7B68     		ldr	r3, [r7, #4]
 1998 000e 7A88     		ldrh	r2, [r7, #2]	@ movhi
 1999 0010 9A82     		strh	r2, [r3, #20]	@ movhi
 895:common/lib.stm32/STM32F10x_StdPeriph_Driver/src/stm32f10x_tim.c **** }
 2000              		.loc 1 895 1
 2001 0012 00BF     		nop
 2002 0014 0C37     		adds	r7, r7, #12
 2003              	.LCFI96:
 2004              		.cfi_def_cfa_offset 4
 2005 0016 BD46     		mov	sp, r7
 2006              	.LCFI97:
 2007              		.cfi_def_cfa_register 13
 2008              		@ sp needed
 2009 0018 80BC     		pop	{r7}
 2010              	.LCFI98:
 2011              		.cfi_restore 7
 2012              		.cfi_def_cfa_offset 0
 2013 001a 7047     		bx	lr
 2014              		.cfi_endproc
 2015              	.LFE43:
 2017              		.section	.text.TIM_DMAConfig,"ax",%progbits
 2018              		.align	1
 2019              		.global	TIM_DMAConfig
 2020              		.syntax unified
 2021              		.thumb
 2022              		.thumb_func
 2024              	TIM_DMAConfig:
 2025              	.LFB44:
 896:common/lib.stm32/STM32F10x_StdPeriph_Driver/src/stm32f10x_tim.c **** 
 897:common/lib.stm32/STM32F10x_StdPeriph_Driver/src/stm32f10x_tim.c **** /**
 898:common/lib.stm32/STM32F10x_StdPeriph_Driver/src/stm32f10x_tim.c ****   * @brief  Configures the TIMxs DMA interface.
 899:common/lib.stm32/STM32F10x_StdPeriph_Driver/src/stm32f10x_tim.c ****   * @param  TIMx: where x can be  1, 2, 3, 4, 5 or 8 to select the TIM peripheral.
 900:common/lib.stm32/STM32F10x_StdPeriph_Driver/src/stm32f10x_tim.c ****   * @param  TIM_DMABase: DMA Base address.
 901:common/lib.stm32/STM32F10x_StdPeriph_Driver/src/stm32f10x_tim.c ****   *   This parameter can be one of the following values:
 902:common/lib.stm32/STM32F10x_StdPeriph_Driver/src/stm32f10x_tim.c ****   *     @arg TIM_DMABase_CR, TIM_DMABase_CR2, TIM_DMABase_SMCR,
 903:common/lib.stm32/STM32F10x_StdPeriph_Driver/src/stm32f10x_tim.c ****   *   TIM_DMABase_DIER, TIM1_DMABase_SR, TIM_DMABase_EGR,
 904:common/lib.stm32/STM32F10x_StdPeriph_Driver/src/stm32f10x_tim.c ****   *   TIM_DMABase_CCMR1, TIM_DMABase_CCMR2, TIM_DMABase_CCER,
 905:common/lib.stm32/STM32F10x_StdPeriph_Driver/src/stm32f10x_tim.c ****   *   TIM_DMABase_CNT, TIM_DMABase_PSC, TIM_DMABase_ARR,
 906:common/lib.stm32/STM32F10x_StdPeriph_Driver/src/stm32f10x_tim.c ****   *   TIM_DMABase_RCR, TIM_DMABase_CCR1, TIM_DMABase_CCR2,
 907:common/lib.stm32/STM32F10x_StdPeriph_Driver/src/stm32f10x_tim.c ****   *   TIM_DMABase_CCR3, TIM_DMABase_CCR4, TIM_DMABase_BDTR,
 908:common/lib.stm32/STM32F10x_StdPeriph_Driver/src/stm32f10x_tim.c ****   *   TIM_DMABase_DCR.
 909:common/lib.stm32/STM32F10x_StdPeriph_Driver/src/stm32f10x_tim.c ****   * @param  TIM_DMABurstLength: DMA Burst length.
 910:common/lib.stm32/STM32F10x_StdPeriph_Driver/src/stm32f10x_tim.c ****   *   This parameter can be one value between:
 911:common/lib.stm32/STM32F10x_StdPeriph_Driver/src/stm32f10x_tim.c ****   *   TIM_DMABurstLength_1Byte and TIM_DMABurstLength_18Bytes.
 912:common/lib.stm32/STM32F10x_StdPeriph_Driver/src/stm32f10x_tim.c ****   * @retval None
 913:common/lib.stm32/STM32F10x_StdPeriph_Driver/src/stm32f10x_tim.c ****   */
 914:common/lib.stm32/STM32F10x_StdPeriph_Driver/src/stm32f10x_tim.c **** void TIM_DMAConfig(TIM_TypeDef* TIMx, uint16_t TIM_DMABase, uint16_t TIM_DMABurstLength)
 915:common/lib.stm32/STM32F10x_StdPeriph_Driver/src/stm32f10x_tim.c **** {
 2026              		.loc 1 915 1
 2027              		.cfi_startproc
 2028              		@ args = 0, pretend = 0, frame = 8
 2029              		@ frame_needed = 1, uses_anonymous_args = 0
 2030              		@ link register save eliminated.
 2031 0000 80B4     		push	{r7}
 2032              	.LCFI99:
 2033              		.cfi_def_cfa_offset 4
 2034              		.cfi_offset 7, -4
 2035 0002 83B0     		sub	sp, sp, #12
 2036              	.LCFI100:
 2037              		.cfi_def_cfa_offset 16
 2038 0004 00AF     		add	r7, sp, #0
 2039              	.LCFI101:
 2040              		.cfi_def_cfa_register 7
 2041 0006 7860     		str	r0, [r7, #4]
 2042 0008 0B46     		mov	r3, r1
 2043 000a 7B80     		strh	r3, [r7, #2]	@ movhi
 2044 000c 1346     		mov	r3, r2	@ movhi
 2045 000e 3B80     		strh	r3, [r7]	@ movhi
 916:common/lib.stm32/STM32F10x_StdPeriph_Driver/src/stm32f10x_tim.c ****   /* Check the parameters */
 917:common/lib.stm32/STM32F10x_StdPeriph_Driver/src/stm32f10x_tim.c ****   assert_param(IS_TIM_123458_PERIPH(TIMx));
 918:common/lib.stm32/STM32F10x_StdPeriph_Driver/src/stm32f10x_tim.c ****   assert_param(IS_TIM_DMA_BASE(TIM_DMABase));
 919:common/lib.stm32/STM32F10x_StdPeriph_Driver/src/stm32f10x_tim.c ****   assert_param(IS_TIM_DMA_LENGTH(TIM_DMABurstLength));
 920:common/lib.stm32/STM32F10x_StdPeriph_Driver/src/stm32f10x_tim.c ****   /* Set the DMA Base and the DMA Burst Length */
 921:common/lib.stm32/STM32F10x_StdPeriph_Driver/src/stm32f10x_tim.c ****   TIMx->DCR = TIM_DMABase | TIM_DMABurstLength;
 2046              		.loc 1 921 13
 2047 0010 7A88     		ldrh	r2, [r7, #2]	@ movhi
 2048 0012 3B88     		ldrh	r3, [r7]	@ movhi
 2049 0014 1343     		orrs	r3, r3, r2
 2050 0016 9AB2     		uxth	r2, r3
 2051 0018 7B68     		ldr	r3, [r7, #4]
 2052 001a A3F84820 		strh	r2, [r3, #72]	@ movhi
 922:common/lib.stm32/STM32F10x_StdPeriph_Driver/src/stm32f10x_tim.c **** }
 2053              		.loc 1 922 1
 2054 001e 00BF     		nop
 2055 0020 0C37     		adds	r7, r7, #12
 2056              	.LCFI102:
 2057              		.cfi_def_cfa_offset 4
 2058 0022 BD46     		mov	sp, r7
 2059              	.LCFI103:
 2060              		.cfi_def_cfa_register 13
 2061              		@ sp needed
 2062 0024 80BC     		pop	{r7}
 2063              	.LCFI104:
 2064              		.cfi_restore 7
 2065              		.cfi_def_cfa_offset 0
 2066 0026 7047     		bx	lr
 2067              		.cfi_endproc
 2068              	.LFE44:
 2070              		.section	.text.TIM_DMACmd,"ax",%progbits
 2071              		.align	1
 2072              		.global	TIM_DMACmd
 2073              		.syntax unified
 2074              		.thumb
 2075              		.thumb_func
 2077              	TIM_DMACmd:
 2078              	.LFB45:
 923:common/lib.stm32/STM32F10x_StdPeriph_Driver/src/stm32f10x_tim.c **** 
 924:common/lib.stm32/STM32F10x_StdPeriph_Driver/src/stm32f10x_tim.c **** /**
 925:common/lib.stm32/STM32F10x_StdPeriph_Driver/src/stm32f10x_tim.c ****   * @brief  Enables or disables the TIMxs DMA Requests.
 926:common/lib.stm32/STM32F10x_StdPeriph_Driver/src/stm32f10x_tim.c ****   * @param  TIMx: where x can be  1 to 8 to select the TIM peripheral. 
 927:common/lib.stm32/STM32F10x_StdPeriph_Driver/src/stm32f10x_tim.c ****   * @param  TIM_DMASource: specifies the DMA Request sources.
 928:common/lib.stm32/STM32F10x_StdPeriph_Driver/src/stm32f10x_tim.c ****   *   This parameter can be any combination of the following values:
 929:common/lib.stm32/STM32F10x_StdPeriph_Driver/src/stm32f10x_tim.c ****   *     @arg TIM_DMA_Update: TIM update Interrupt source
 930:common/lib.stm32/STM32F10x_StdPeriph_Driver/src/stm32f10x_tim.c ****   *     @arg TIM_DMA_CC1: TIM Capture Compare 1 DMA source
 931:common/lib.stm32/STM32F10x_StdPeriph_Driver/src/stm32f10x_tim.c ****   *     @arg TIM_DMA_CC2: TIM Capture Compare 2 DMA source
 932:common/lib.stm32/STM32F10x_StdPeriph_Driver/src/stm32f10x_tim.c ****   *     @arg TIM_DMA_CC3: TIM Capture Compare 3 DMA source
 933:common/lib.stm32/STM32F10x_StdPeriph_Driver/src/stm32f10x_tim.c ****   *     @arg TIM_DMA_CC4: TIM Capture Compare 4 DMA source
 934:common/lib.stm32/STM32F10x_StdPeriph_Driver/src/stm32f10x_tim.c ****   *     @arg TIM_DMA_COM: TIM Commutation DMA source
 935:common/lib.stm32/STM32F10x_StdPeriph_Driver/src/stm32f10x_tim.c ****   *     @arg TIM_DMA_Trigger: TIM Trigger DMA source
 936:common/lib.stm32/STM32F10x_StdPeriph_Driver/src/stm32f10x_tim.c ****   * @param  NewState: new state of the DMA Request sources.
 937:common/lib.stm32/STM32F10x_StdPeriph_Driver/src/stm32f10x_tim.c ****   *   This parameter can be: ENABLE or DISABLE.
 938:common/lib.stm32/STM32F10x_StdPeriph_Driver/src/stm32f10x_tim.c ****   * @retval None
 939:common/lib.stm32/STM32F10x_StdPeriph_Driver/src/stm32f10x_tim.c ****   */
 940:common/lib.stm32/STM32F10x_StdPeriph_Driver/src/stm32f10x_tim.c **** void TIM_DMACmd(TIM_TypeDef* TIMx, uint16_t TIM_DMASource, FunctionalState NewState)
 941:common/lib.stm32/STM32F10x_StdPeriph_Driver/src/stm32f10x_tim.c **** { 
 2079              		.loc 1 941 1
 2080              		.cfi_startproc
 2081              		@ args = 0, pretend = 0, frame = 8
 2082              		@ frame_needed = 1, uses_anonymous_args = 0
 2083              		@ link register save eliminated.
 2084 0000 80B4     		push	{r7}
 2085              	.LCFI105:
 2086              		.cfi_def_cfa_offset 4
 2087              		.cfi_offset 7, -4
 2088 0002 83B0     		sub	sp, sp, #12
 2089              	.LCFI106:
 2090              		.cfi_def_cfa_offset 16
 2091 0004 00AF     		add	r7, sp, #0
 2092              	.LCFI107:
 2093              		.cfi_def_cfa_register 7
 2094 0006 7860     		str	r0, [r7, #4]
 2095 0008 0B46     		mov	r3, r1
 2096 000a 7B80     		strh	r3, [r7, #2]	@ movhi
 2097 000c 1346     		mov	r3, r2
 2098 000e 7B70     		strb	r3, [r7, #1]
 942:common/lib.stm32/STM32F10x_StdPeriph_Driver/src/stm32f10x_tim.c ****   /* Check the parameters */
 943:common/lib.stm32/STM32F10x_StdPeriph_Driver/src/stm32f10x_tim.c ****   assert_param(IS_TIM_ALL_PERIPH(TIMx));
 944:common/lib.stm32/STM32F10x_StdPeriph_Driver/src/stm32f10x_tim.c ****   assert_param(IS_TIM_DMA_SOURCE(TIM_DMASource));
 945:common/lib.stm32/STM32F10x_StdPeriph_Driver/src/stm32f10x_tim.c ****   assert_param(IS_FUNCTIONAL_STATE(NewState));
 946:common/lib.stm32/STM32F10x_StdPeriph_Driver/src/stm32f10x_tim.c ****   
 947:common/lib.stm32/STM32F10x_StdPeriph_Driver/src/stm32f10x_tim.c ****   if (NewState != DISABLE)
 2099              		.loc 1 947 6
 2100 0010 7B78     		ldrb	r3, [r7, #1]	@ zero_extendqisi2
 2101 0012 002B     		cmp	r3, #0
 2102 0014 08D0     		beq	.L76
 948:common/lib.stm32/STM32F10x_StdPeriph_Driver/src/stm32f10x_tim.c ****   {
 949:common/lib.stm32/STM32F10x_StdPeriph_Driver/src/stm32f10x_tim.c ****     /* Enable the DMA sources */
 950:common/lib.stm32/STM32F10x_StdPeriph_Driver/src/stm32f10x_tim.c ****     TIMx->DIER |= TIM_DMASource; 
 2103              		.loc 1 950 16
 2104 0016 7B68     		ldr	r3, [r7, #4]
 2105 0018 9B89     		ldrh	r3, [r3, #12]	@ movhi
 2106 001a 9AB2     		uxth	r2, r3
 2107 001c 7B88     		ldrh	r3, [r7, #2]	@ movhi
 2108 001e 1343     		orrs	r3, r3, r2
 2109 0020 9AB2     		uxth	r2, r3
 2110 0022 7B68     		ldr	r3, [r7, #4]
 2111 0024 9A81     		strh	r2, [r3, #12]	@ movhi
 951:common/lib.stm32/STM32F10x_StdPeriph_Driver/src/stm32f10x_tim.c ****   }
 952:common/lib.stm32/STM32F10x_StdPeriph_Driver/src/stm32f10x_tim.c ****   else
 953:common/lib.stm32/STM32F10x_StdPeriph_Driver/src/stm32f10x_tim.c ****   {
 954:common/lib.stm32/STM32F10x_StdPeriph_Driver/src/stm32f10x_tim.c ****     /* Disable the DMA sources */
 955:common/lib.stm32/STM32F10x_StdPeriph_Driver/src/stm32f10x_tim.c ****     TIMx->DIER &= (uint16_t)~TIM_DMASource;
 956:common/lib.stm32/STM32F10x_StdPeriph_Driver/src/stm32f10x_tim.c ****   }
 957:common/lib.stm32/STM32F10x_StdPeriph_Driver/src/stm32f10x_tim.c **** }
 2112              		.loc 1 957 1
 2113 0026 09E0     		b	.L78
 2114              	.L76:
 955:common/lib.stm32/STM32F10x_StdPeriph_Driver/src/stm32f10x_tim.c ****   }
 2115              		.loc 1 955 16
 2116 0028 7B68     		ldr	r3, [r7, #4]
 2117 002a 9B89     		ldrh	r3, [r3, #12]	@ movhi
 2118 002c 9AB2     		uxth	r2, r3
 955:common/lib.stm32/STM32F10x_StdPeriph_Driver/src/stm32f10x_tim.c ****   }
 2119              		.loc 1 955 19
 2120 002e 7B88     		ldrh	r3, [r7, #2]	@ movhi
 2121 0030 DB43     		mvns	r3, r3
 2122 0032 9BB2     		uxth	r3, r3
 955:common/lib.stm32/STM32F10x_StdPeriph_Driver/src/stm32f10x_tim.c ****   }
 2123              		.loc 1 955 16
 2124 0034 1340     		ands	r3, r3, r2
 2125 0036 9AB2     		uxth	r2, r3
 2126 0038 7B68     		ldr	r3, [r7, #4]
 2127 003a 9A81     		strh	r2, [r3, #12]	@ movhi
 2128              	.L78:
 2129              		.loc 1 957 1
 2130 003c 00BF     		nop
 2131 003e 0C37     		adds	r7, r7, #12
 2132              	.LCFI108:
 2133              		.cfi_def_cfa_offset 4
 2134 0040 BD46     		mov	sp, r7
 2135              	.LCFI109:
 2136              		.cfi_def_cfa_register 13
 2137              		@ sp needed
 2138 0042 80BC     		pop	{r7}
 2139              	.LCFI110:
 2140              		.cfi_restore 7
 2141              		.cfi_def_cfa_offset 0
 2142 0044 7047     		bx	lr
 2143              		.cfi_endproc
 2144              	.LFE45:
 2146              		.section	.text.TIM_InternalClockConfig,"ax",%progbits
 2147              		.align	1
 2148              		.global	TIM_InternalClockConfig
 2149              		.syntax unified
 2150              		.thumb
 2151              		.thumb_func
 2153              	TIM_InternalClockConfig:
 2154              	.LFB46:
 958:common/lib.stm32/STM32F10x_StdPeriph_Driver/src/stm32f10x_tim.c **** 
 959:common/lib.stm32/STM32F10x_StdPeriph_Driver/src/stm32f10x_tim.c **** /**
 960:common/lib.stm32/STM32F10x_StdPeriph_Driver/src/stm32f10x_tim.c ****   * @brief  Configures the TIMx interrnal Clock
 961:common/lib.stm32/STM32F10x_StdPeriph_Driver/src/stm32f10x_tim.c ****   * @param  TIMx: where x can be  1, 2, 3, 4, 5 or 8 to select the TIM peripheral.
 962:common/lib.stm32/STM32F10x_StdPeriph_Driver/src/stm32f10x_tim.c ****   * @retval None
 963:common/lib.stm32/STM32F10x_StdPeriph_Driver/src/stm32f10x_tim.c ****   */
 964:common/lib.stm32/STM32F10x_StdPeriph_Driver/src/stm32f10x_tim.c **** void TIM_InternalClockConfig(TIM_TypeDef* TIMx)
 965:common/lib.stm32/STM32F10x_StdPeriph_Driver/src/stm32f10x_tim.c **** {
 2155              		.loc 1 965 1
 2156              		.cfi_startproc
 2157              		@ args = 0, pretend = 0, frame = 8
 2158              		@ frame_needed = 1, uses_anonymous_args = 0
 2159              		@ link register save eliminated.
 2160 0000 80B4     		push	{r7}
 2161              	.LCFI111:
 2162              		.cfi_def_cfa_offset 4
 2163              		.cfi_offset 7, -4
 2164 0002 83B0     		sub	sp, sp, #12
 2165              	.LCFI112:
 2166              		.cfi_def_cfa_offset 16
 2167 0004 00AF     		add	r7, sp, #0
 2168              	.LCFI113:
 2169              		.cfi_def_cfa_register 7
 2170 0006 7860     		str	r0, [r7, #4]
 966:common/lib.stm32/STM32F10x_StdPeriph_Driver/src/stm32f10x_tim.c ****   /* Check the parameters */
 967:common/lib.stm32/STM32F10x_StdPeriph_Driver/src/stm32f10x_tim.c ****   assert_param(IS_TIM_123458_PERIPH(TIMx));
 968:common/lib.stm32/STM32F10x_StdPeriph_Driver/src/stm32f10x_tim.c ****   /* Disable slave mode to clock the prescaler directly with the internal clock */
 969:common/lib.stm32/STM32F10x_StdPeriph_Driver/src/stm32f10x_tim.c ****   TIMx->SMCR &=  SMCR_SMS_Mask;
 2171              		.loc 1 969 14
 2172 0008 7B68     		ldr	r3, [r7, #4]
 2173 000a 1B89     		ldrh	r3, [r3, #8]	@ movhi
 2174 000c 9BB2     		uxth	r3, r3
 2175 000e 23F00703 		bic	r3, r3, #7
 2176 0012 9AB2     		uxth	r2, r3
 2177 0014 7B68     		ldr	r3, [r7, #4]
 2178 0016 1A81     		strh	r2, [r3, #8]	@ movhi
 970:common/lib.stm32/STM32F10x_StdPeriph_Driver/src/stm32f10x_tim.c **** }
 2179              		.loc 1 970 1
 2180 0018 00BF     		nop
 2181 001a 0C37     		adds	r7, r7, #12
 2182              	.LCFI114:
 2183              		.cfi_def_cfa_offset 4
 2184 001c BD46     		mov	sp, r7
 2185              	.LCFI115:
 2186              		.cfi_def_cfa_register 13
 2187              		@ sp needed
 2188 001e 80BC     		pop	{r7}
 2189              	.LCFI116:
 2190              		.cfi_restore 7
 2191              		.cfi_def_cfa_offset 0
 2192 0020 7047     		bx	lr
 2193              		.cfi_endproc
 2194              	.LFE46:
 2196              		.section	.text.TIM_ITRxExternalClockConfig,"ax",%progbits
 2197              		.align	1
 2198              		.global	TIM_ITRxExternalClockConfig
 2199              		.syntax unified
 2200              		.thumb
 2201              		.thumb_func
 2203              	TIM_ITRxExternalClockConfig:
 2204              	.LFB47:
 971:common/lib.stm32/STM32F10x_StdPeriph_Driver/src/stm32f10x_tim.c **** 
 972:common/lib.stm32/STM32F10x_StdPeriph_Driver/src/stm32f10x_tim.c **** /**
 973:common/lib.stm32/STM32F10x_StdPeriph_Driver/src/stm32f10x_tim.c ****   * @brief  Configures the TIMx Internal Trigger as External Clock
 974:common/lib.stm32/STM32F10x_StdPeriph_Driver/src/stm32f10x_tim.c ****   * @param  TIMx: where x can be  1, 2, 3, 4, 5 or 8 to select the TIM peripheral.
 975:common/lib.stm32/STM32F10x_StdPeriph_Driver/src/stm32f10x_tim.c ****   * @param  TIM_ITRSource: Trigger source.
 976:common/lib.stm32/STM32F10x_StdPeriph_Driver/src/stm32f10x_tim.c ****   *   This parameter can be one of the following values:
 977:common/lib.stm32/STM32F10x_StdPeriph_Driver/src/stm32f10x_tim.c ****   * @param  TIM_TS_ITR0: Internal Trigger 0
 978:common/lib.stm32/STM32F10x_StdPeriph_Driver/src/stm32f10x_tim.c ****   * @param  TIM_TS_ITR1: Internal Trigger 1
 979:common/lib.stm32/STM32F10x_StdPeriph_Driver/src/stm32f10x_tim.c ****   * @param  TIM_TS_ITR2: Internal Trigger 2
 980:common/lib.stm32/STM32F10x_StdPeriph_Driver/src/stm32f10x_tim.c ****   * @param  TIM_TS_ITR3: Internal Trigger 3
 981:common/lib.stm32/STM32F10x_StdPeriph_Driver/src/stm32f10x_tim.c ****   * @retval None
 982:common/lib.stm32/STM32F10x_StdPeriph_Driver/src/stm32f10x_tim.c ****   */
 983:common/lib.stm32/STM32F10x_StdPeriph_Driver/src/stm32f10x_tim.c **** void TIM_ITRxExternalClockConfig(TIM_TypeDef* TIMx, uint16_t TIM_InputTriggerSource)
 984:common/lib.stm32/STM32F10x_StdPeriph_Driver/src/stm32f10x_tim.c **** {
 2205              		.loc 1 984 1
 2206              		.cfi_startproc
 2207              		@ args = 0, pretend = 0, frame = 8
 2208              		@ frame_needed = 1, uses_anonymous_args = 0
 2209 0000 80B5     		push	{r7, lr}
 2210              	.LCFI117:
 2211              		.cfi_def_cfa_offset 8
 2212              		.cfi_offset 7, -8
 2213              		.cfi_offset 14, -4
 2214 0002 82B0     		sub	sp, sp, #8
 2215              	.LCFI118:
 2216              		.cfi_def_cfa_offset 16
 2217 0004 00AF     		add	r7, sp, #0
 2218              	.LCFI119:
 2219              		.cfi_def_cfa_register 7
 2220 0006 7860     		str	r0, [r7, #4]
 2221 0008 0B46     		mov	r3, r1
 2222 000a 7B80     		strh	r3, [r7, #2]	@ movhi
 985:common/lib.stm32/STM32F10x_StdPeriph_Driver/src/stm32f10x_tim.c ****   /* Check the parameters */
 986:common/lib.stm32/STM32F10x_StdPeriph_Driver/src/stm32f10x_tim.c ****   assert_param(IS_TIM_123458_PERIPH(TIMx));
 987:common/lib.stm32/STM32F10x_StdPeriph_Driver/src/stm32f10x_tim.c ****   assert_param(IS_TIM_INTERNAL_TRIGGER_SELECTION(TIM_InputTriggerSource));
 988:common/lib.stm32/STM32F10x_StdPeriph_Driver/src/stm32f10x_tim.c ****   /* Select the Internal Trigger */
 989:common/lib.stm32/STM32F10x_StdPeriph_Driver/src/stm32f10x_tim.c ****   TIM_SelectInputTrigger(TIMx, TIM_InputTriggerSource);
 2223              		.loc 1 989 3
 2224 000c 7B88     		ldrh	r3, [r7, #2]
 2225 000e 1946     		mov	r1, r3
 2226 0010 7868     		ldr	r0, [r7, #4]
 2227 0012 074B     		ldr	r3, .L81
 2228 0014 9847     		blx	r3
 2229              	.LVL32:
 990:common/lib.stm32/STM32F10x_StdPeriph_Driver/src/stm32f10x_tim.c ****   /* Select the External clock mode1 */
 991:common/lib.stm32/STM32F10x_StdPeriph_Driver/src/stm32f10x_tim.c ****   TIMx->SMCR |= TIM_SlaveMode_External1;
 2230              		.loc 1 991 14
 2231 0016 7B68     		ldr	r3, [r7, #4]
 2232 0018 1B89     		ldrh	r3, [r3, #8]	@ movhi
 2233 001a 9BB2     		uxth	r3, r3
 2234 001c 43F00703 		orr	r3, r3, #7
 2235 0020 9AB2     		uxth	r2, r3
 2236 0022 7B68     		ldr	r3, [r7, #4]
 2237 0024 1A81     		strh	r2, [r3, #8]	@ movhi
 992:common/lib.stm32/STM32F10x_StdPeriph_Driver/src/stm32f10x_tim.c **** }
 2238              		.loc 1 992 1
 2239 0026 00BF     		nop
 2240 0028 0837     		adds	r7, r7, #8
 2241              	.LCFI120:
 2242              		.cfi_def_cfa_offset 8
 2243 002a BD46     		mov	sp, r7
 2244              	.LCFI121:
 2245              		.cfi_def_cfa_register 13
 2246              		@ sp needed
 2247 002c 80BD     		pop	{r7, pc}
 2248              	.L82:
 2249 002e 00BF     		.align	2
 2250              	.L81:
 2251 0030 00000000 		.word	TIM_SelectInputTrigger
 2252              		.cfi_endproc
 2253              	.LFE47:
 2255              		.section	.text.TIM_TIxExternalClockConfig,"ax",%progbits
 2256              		.align	1
 2257              		.global	TIM_TIxExternalClockConfig
 2258              		.syntax unified
 2259              		.thumb
 2260              		.thumb_func
 2262              	TIM_TIxExternalClockConfig:
 2263              	.LFB48:
 993:common/lib.stm32/STM32F10x_StdPeriph_Driver/src/stm32f10x_tim.c **** 
 994:common/lib.stm32/STM32F10x_StdPeriph_Driver/src/stm32f10x_tim.c **** /**
 995:common/lib.stm32/STM32F10x_StdPeriph_Driver/src/stm32f10x_tim.c ****   * @brief  Configures the TIMx Trigger as External Clock
 996:common/lib.stm32/STM32F10x_StdPeriph_Driver/src/stm32f10x_tim.c ****   * @param  TIMx: where x can be  1, 2, 3, 4, 5 or 8 to select the TIM peripheral.
 997:common/lib.stm32/STM32F10x_StdPeriph_Driver/src/stm32f10x_tim.c ****   * @param  TIM_TIxExternalCLKSource: Trigger source.
 998:common/lib.stm32/STM32F10x_StdPeriph_Driver/src/stm32f10x_tim.c ****   *   This parameter can be one of the following values:
 999:common/lib.stm32/STM32F10x_StdPeriph_Driver/src/stm32f10x_tim.c ****   *     @arg TIM_TIxExternalCLK1Source_TI1ED: TI1 Edge Detector
1000:common/lib.stm32/STM32F10x_StdPeriph_Driver/src/stm32f10x_tim.c ****   *     @arg TIM_TIxExternalCLK1Source_TI1: Filtered Timer Input 1
1001:common/lib.stm32/STM32F10x_StdPeriph_Driver/src/stm32f10x_tim.c ****   *     @arg TIM_TIxExternalCLK1Source_TI2: Filtered Timer Input 2
1002:common/lib.stm32/STM32F10x_StdPeriph_Driver/src/stm32f10x_tim.c ****   * @param  TIM_ICPolarity: specifies the TIx Polarity.
1003:common/lib.stm32/STM32F10x_StdPeriph_Driver/src/stm32f10x_tim.c ****   *   This parameter can be one of the following values:
1004:common/lib.stm32/STM32F10x_StdPeriph_Driver/src/stm32f10x_tim.c ****   *     @arg TIM_ICPolarity_Rising
1005:common/lib.stm32/STM32F10x_StdPeriph_Driver/src/stm32f10x_tim.c ****   *     @arg TIM_ICPolarity_Falling
1006:common/lib.stm32/STM32F10x_StdPeriph_Driver/src/stm32f10x_tim.c ****   * @param  ICFilter : specifies the filter value.
1007:common/lib.stm32/STM32F10x_StdPeriph_Driver/src/stm32f10x_tim.c ****   *   This parameter must be a value between 0x0 and 0xF.
1008:common/lib.stm32/STM32F10x_StdPeriph_Driver/src/stm32f10x_tim.c ****   * @retval None
1009:common/lib.stm32/STM32F10x_StdPeriph_Driver/src/stm32f10x_tim.c ****   */
1010:common/lib.stm32/STM32F10x_StdPeriph_Driver/src/stm32f10x_tim.c **** void TIM_TIxExternalClockConfig(TIM_TypeDef* TIMx, uint16_t TIM_TIxExternalCLKSource,
1011:common/lib.stm32/STM32F10x_StdPeriph_Driver/src/stm32f10x_tim.c ****                                 uint16_t TIM_ICPolarity, uint16_t ICFilter)
1012:common/lib.stm32/STM32F10x_StdPeriph_Driver/src/stm32f10x_tim.c **** {
 2264              		.loc 1 1012 1
 2265              		.cfi_startproc
 2266              		@ args = 0, pretend = 0, frame = 16
 2267              		@ frame_needed = 1, uses_anonymous_args = 0
 2268 0000 90B5     		push	{r4, r7, lr}
 2269              	.LCFI122:
 2270              		.cfi_def_cfa_offset 12
 2271              		.cfi_offset 4, -12
 2272              		.cfi_offset 7, -8
 2273              		.cfi_offset 14, -4
 2274 0002 85B0     		sub	sp, sp, #20
 2275              	.LCFI123:
 2276              		.cfi_def_cfa_offset 32
 2277 0004 00AF     		add	r7, sp, #0
 2278              	.LCFI124:
 2279              		.cfi_def_cfa_register 7
 2280 0006 F860     		str	r0, [r7, #12]
 2281 0008 0846     		mov	r0, r1
 2282 000a 1146     		mov	r1, r2
 2283 000c 1A46     		mov	r2, r3
 2284 000e 0346     		mov	r3, r0	@ movhi
 2285 0010 7B81     		strh	r3, [r7, #10]	@ movhi
 2286 0012 0B46     		mov	r3, r1	@ movhi
 2287 0014 3B81     		strh	r3, [r7, #8]	@ movhi
 2288 0016 1346     		mov	r3, r2	@ movhi
 2289 0018 FB80     		strh	r3, [r7, #6]	@ movhi
1013:common/lib.stm32/STM32F10x_StdPeriph_Driver/src/stm32f10x_tim.c ****   /* Check the parameters */
1014:common/lib.stm32/STM32F10x_StdPeriph_Driver/src/stm32f10x_tim.c ****   assert_param(IS_TIM_123458_PERIPH(TIMx));
1015:common/lib.stm32/STM32F10x_StdPeriph_Driver/src/stm32f10x_tim.c ****   assert_param(IS_TIM_TIXCLK_SOURCE(TIM_TIxExternalCLKSource));
1016:common/lib.stm32/STM32F10x_StdPeriph_Driver/src/stm32f10x_tim.c ****   assert_param(IS_TIM_IC_POLARITY(TIM_ICPolarity));
1017:common/lib.stm32/STM32F10x_StdPeriph_Driver/src/stm32f10x_tim.c ****   assert_param(IS_TIM_IC_FILTER(ICFilter));
1018:common/lib.stm32/STM32F10x_StdPeriph_Driver/src/stm32f10x_tim.c ****   /* Configure the Timer Input Clock Source */
1019:common/lib.stm32/STM32F10x_StdPeriph_Driver/src/stm32f10x_tim.c ****   if (TIM_TIxExternalCLKSource == TIM_TIxExternalCLK1Source_TI2)
 2290              		.loc 1 1019 6
 2291 001a 7B89     		ldrh	r3, [r7, #10]
 2292 001c 602B     		cmp	r3, #96
 2293 001e 06D1     		bne	.L84
1020:common/lib.stm32/STM32F10x_StdPeriph_Driver/src/stm32f10x_tim.c ****   {
1021:common/lib.stm32/STM32F10x_StdPeriph_Driver/src/stm32f10x_tim.c ****     TI2_Config(TIMx, TIM_ICPolarity, TIM_ICSelection_DirectTI, ICFilter);
 2294              		.loc 1 1021 5
 2295 0020 FB88     		ldrh	r3, [r7, #6]
 2296 0022 3989     		ldrh	r1, [r7, #8]
 2297 0024 0122     		movs	r2, #1
 2298 0026 F868     		ldr	r0, [r7, #12]
 2299 0028 0C4C     		ldr	r4, .L86
 2300 002a A047     		blx	r4
 2301              	.LVL33:
 2302 002c 05E0     		b	.L85
 2303              	.L84:
1022:common/lib.stm32/STM32F10x_StdPeriph_Driver/src/stm32f10x_tim.c ****   }
1023:common/lib.stm32/STM32F10x_StdPeriph_Driver/src/stm32f10x_tim.c ****   else
1024:common/lib.stm32/STM32F10x_StdPeriph_Driver/src/stm32f10x_tim.c ****   {
1025:common/lib.stm32/STM32F10x_StdPeriph_Driver/src/stm32f10x_tim.c ****     TI1_Config(TIMx, TIM_ICPolarity, TIM_ICSelection_DirectTI, ICFilter);
 2304              		.loc 1 1025 5
 2305 002e FB88     		ldrh	r3, [r7, #6]
 2306 0030 3989     		ldrh	r1, [r7, #8]
 2307 0032 0122     		movs	r2, #1
 2308 0034 F868     		ldr	r0, [r7, #12]
 2309 0036 0A4C     		ldr	r4, .L86+4
 2310 0038 A047     		blx	r4
 2311              	.LVL34:
 2312              	.L85:
1026:common/lib.stm32/STM32F10x_StdPeriph_Driver/src/stm32f10x_tim.c ****   }
1027:common/lib.stm32/STM32F10x_StdPeriph_Driver/src/stm32f10x_tim.c ****   /* Select the Trigger source */
1028:common/lib.stm32/STM32F10x_StdPeriph_Driver/src/stm32f10x_tim.c ****   TIM_SelectInputTrigger(TIMx, TIM_TIxExternalCLKSource);
 2313              		.loc 1 1028 3
 2314 003a 7B89     		ldrh	r3, [r7, #10]
 2315 003c 1946     		mov	r1, r3
 2316 003e F868     		ldr	r0, [r7, #12]
 2317 0040 084B     		ldr	r3, .L86+8
 2318 0042 9847     		blx	r3
 2319              	.LVL35:
1029:common/lib.stm32/STM32F10x_StdPeriph_Driver/src/stm32f10x_tim.c ****   /* Select the External clock mode1 */
1030:common/lib.stm32/STM32F10x_StdPeriph_Driver/src/stm32f10x_tim.c ****   TIMx->SMCR |= TIM_SlaveMode_External1;
 2320              		.loc 1 1030 14
 2321 0044 FB68     		ldr	r3, [r7, #12]
 2322 0046 1B89     		ldrh	r3, [r3, #8]	@ movhi
 2323 0048 9BB2     		uxth	r3, r3
 2324 004a 43F00703 		orr	r3, r3, #7
 2325 004e 9AB2     		uxth	r2, r3
 2326 0050 FB68     		ldr	r3, [r7, #12]
 2327 0052 1A81     		strh	r2, [r3, #8]	@ movhi
1031:common/lib.stm32/STM32F10x_StdPeriph_Driver/src/stm32f10x_tim.c **** }
 2328              		.loc 1 1031 1
 2329 0054 00BF     		nop
 2330 0056 1437     		adds	r7, r7, #20
 2331              	.LCFI125:
 2332              		.cfi_def_cfa_offset 12
 2333 0058 BD46     		mov	sp, r7
 2334              	.LCFI126:
 2335              		.cfi_def_cfa_register 13
 2336              		@ sp needed
 2337 005a 90BD     		pop	{r4, r7, pc}
 2338              	.L87:
 2339              		.align	2
 2340              	.L86:
 2341 005c 00000000 		.word	TI2_Config
 2342 0060 00000000 		.word	TI1_Config
 2343 0064 00000000 		.word	TIM_SelectInputTrigger
 2344              		.cfi_endproc
 2345              	.LFE48:
 2347              		.section	.text.TIM_ETRClockMode1Config,"ax",%progbits
 2348              		.align	1
 2349              		.global	TIM_ETRClockMode1Config
 2350              		.syntax unified
 2351              		.thumb
 2352              		.thumb_func
 2354              	TIM_ETRClockMode1Config:
 2355              	.LFB49:
1032:common/lib.stm32/STM32F10x_StdPeriph_Driver/src/stm32f10x_tim.c **** 
1033:common/lib.stm32/STM32F10x_StdPeriph_Driver/src/stm32f10x_tim.c **** /**
1034:common/lib.stm32/STM32F10x_StdPeriph_Driver/src/stm32f10x_tim.c ****   * @brief  Configures the External clock Mode1
1035:common/lib.stm32/STM32F10x_StdPeriph_Driver/src/stm32f10x_tim.c ****   * @param  TIMx: where x can be  1, 2, 3, 4, 5 or 8 to select the TIM peripheral.
1036:common/lib.stm32/STM32F10x_StdPeriph_Driver/src/stm32f10x_tim.c ****   * @param  TIM_ExtTRGPrescaler: The external Trigger Prescaler.
1037:common/lib.stm32/STM32F10x_StdPeriph_Driver/src/stm32f10x_tim.c ****   *   This parameter can be one of the following values:
1038:common/lib.stm32/STM32F10x_StdPeriph_Driver/src/stm32f10x_tim.c ****   *     @arg TIM_ExtTRGPSC_OFF: ETRP Prescaler OFF.
1039:common/lib.stm32/STM32F10x_StdPeriph_Driver/src/stm32f10x_tim.c ****   *     @arg TIM_ExtTRGPSC_DIV2: ETRP frequency divided by 2.
1040:common/lib.stm32/STM32F10x_StdPeriph_Driver/src/stm32f10x_tim.c ****   *     @arg TIM_ExtTRGPSC_DIV4: ETRP frequency divided by 4.
1041:common/lib.stm32/STM32F10x_StdPeriph_Driver/src/stm32f10x_tim.c ****   *     @arg TIM_ExtTRGPSC_DIV8: ETRP frequency divided by 8.
1042:common/lib.stm32/STM32F10x_StdPeriph_Driver/src/stm32f10x_tim.c ****   * @param  TIM_ExtTRGPolarity: The external Trigger Polarity.
1043:common/lib.stm32/STM32F10x_StdPeriph_Driver/src/stm32f10x_tim.c ****   *   This parameter can be one of the following values:
1044:common/lib.stm32/STM32F10x_StdPeriph_Driver/src/stm32f10x_tim.c ****   *     @arg TIM_ExtTRGPolarity_Inverted: active low or falling edge active.
1045:common/lib.stm32/STM32F10x_StdPeriph_Driver/src/stm32f10x_tim.c ****   *     @arg TIM_ExtTRGPolarity_NonInverted: active high or rising edge active.
1046:common/lib.stm32/STM32F10x_StdPeriph_Driver/src/stm32f10x_tim.c ****   * @param  ExtTRGFilter: External Trigger Filter.
1047:common/lib.stm32/STM32F10x_StdPeriph_Driver/src/stm32f10x_tim.c ****   *   This parameter must be a value between 0x00 and 0x0F
1048:common/lib.stm32/STM32F10x_StdPeriph_Driver/src/stm32f10x_tim.c ****   * @retval None
1049:common/lib.stm32/STM32F10x_StdPeriph_Driver/src/stm32f10x_tim.c ****   */
1050:common/lib.stm32/STM32F10x_StdPeriph_Driver/src/stm32f10x_tim.c **** void TIM_ETRClockMode1Config(TIM_TypeDef* TIMx, uint16_t TIM_ExtTRGPrescaler, uint16_t TIM_ExtTRGPo
1051:common/lib.stm32/STM32F10x_StdPeriph_Driver/src/stm32f10x_tim.c ****                              uint16_t ExtTRGFilter)
1052:common/lib.stm32/STM32F10x_StdPeriph_Driver/src/stm32f10x_tim.c **** {
 2356              		.loc 1 1052 1
 2357              		.cfi_startproc
 2358              		@ args = 0, pretend = 0, frame = 24
 2359              		@ frame_needed = 1, uses_anonymous_args = 0
 2360 0000 90B5     		push	{r4, r7, lr}
 2361              	.LCFI127:
 2362              		.cfi_def_cfa_offset 12
 2363              		.cfi_offset 4, -12
 2364              		.cfi_offset 7, -8
 2365              		.cfi_offset 14, -4
 2366 0002 87B0     		sub	sp, sp, #28
 2367              	.LCFI128:
 2368              		.cfi_def_cfa_offset 40
 2369 0004 00AF     		add	r7, sp, #0
 2370              	.LCFI129:
 2371              		.cfi_def_cfa_register 7
 2372 0006 F860     		str	r0, [r7, #12]
 2373 0008 0846     		mov	r0, r1
 2374 000a 1146     		mov	r1, r2
 2375 000c 1A46     		mov	r2, r3
 2376 000e 0346     		mov	r3, r0	@ movhi
 2377 0010 7B81     		strh	r3, [r7, #10]	@ movhi
 2378 0012 0B46     		mov	r3, r1	@ movhi
 2379 0014 3B81     		strh	r3, [r7, #8]	@ movhi
 2380 0016 1346     		mov	r3, r2	@ movhi
 2381 0018 FB80     		strh	r3, [r7, #6]	@ movhi
1053:common/lib.stm32/STM32F10x_StdPeriph_Driver/src/stm32f10x_tim.c ****   uint16_t tmpsmcr = 0;
 2382              		.loc 1 1053 12
 2383 001a 0023     		movs	r3, #0
 2384 001c FB82     		strh	r3, [r7, #22]	@ movhi
1054:common/lib.stm32/STM32F10x_StdPeriph_Driver/src/stm32f10x_tim.c ****   /* Check the parameters */
1055:common/lib.stm32/STM32F10x_StdPeriph_Driver/src/stm32f10x_tim.c ****   assert_param(IS_TIM_123458_PERIPH(TIMx));
1056:common/lib.stm32/STM32F10x_StdPeriph_Driver/src/stm32f10x_tim.c ****   assert_param(IS_TIM_EXT_PRESCALER(TIM_ExtTRGPrescaler));
1057:common/lib.stm32/STM32F10x_StdPeriph_Driver/src/stm32f10x_tim.c ****   assert_param(IS_TIM_EXT_POLARITY(TIM_ExtTRGPolarity));
1058:common/lib.stm32/STM32F10x_StdPeriph_Driver/src/stm32f10x_tim.c ****   assert_param(IS_TIM_EXT_FILTER(ExtTRGFilter));
1059:common/lib.stm32/STM32F10x_StdPeriph_Driver/src/stm32f10x_tim.c ****   /* Configure the ETR Clock source */
1060:common/lib.stm32/STM32F10x_StdPeriph_Driver/src/stm32f10x_tim.c ****   TIM_ETRConfig(TIMx, TIM_ExtTRGPrescaler, TIM_ExtTRGPolarity, ExtTRGFilter);
 2385              		.loc 1 1060 3
 2386 001e FB88     		ldrh	r3, [r7, #6]
 2387 0020 3A89     		ldrh	r2, [r7, #8]
 2388 0022 7989     		ldrh	r1, [r7, #10]
 2389 0024 F868     		ldr	r0, [r7, #12]
 2390 0026 0E4C     		ldr	r4, .L89
 2391 0028 A047     		blx	r4
 2392              	.LVL36:
1061:common/lib.stm32/STM32F10x_StdPeriph_Driver/src/stm32f10x_tim.c ****   
1062:common/lib.stm32/STM32F10x_StdPeriph_Driver/src/stm32f10x_tim.c ****   /* Get the TIMx SMCR register value */
1063:common/lib.stm32/STM32F10x_StdPeriph_Driver/src/stm32f10x_tim.c ****   tmpsmcr = TIMx->SMCR;
 2393              		.loc 1 1063 11
 2394 002a FB68     		ldr	r3, [r7, #12]
 2395 002c 1B89     		ldrh	r3, [r3, #8]	@ movhi
 2396 002e FB82     		strh	r3, [r7, #22]	@ movhi
1064:common/lib.stm32/STM32F10x_StdPeriph_Driver/src/stm32f10x_tim.c ****   /* Reset the SMS Bits */
1065:common/lib.stm32/STM32F10x_StdPeriph_Driver/src/stm32f10x_tim.c ****   tmpsmcr &= SMCR_SMS_Mask;
 2397              		.loc 1 1065 11
 2398 0030 FB8A     		ldrh	r3, [r7, #22]	@ movhi
 2399 0032 23F00703 		bic	r3, r3, #7
 2400 0036 FB82     		strh	r3, [r7, #22]	@ movhi
1066:common/lib.stm32/STM32F10x_StdPeriph_Driver/src/stm32f10x_tim.c ****   /* Select the External clock mode1 */
1067:common/lib.stm32/STM32F10x_StdPeriph_Driver/src/stm32f10x_tim.c ****   tmpsmcr |= TIM_SlaveMode_External1;
 2401              		.loc 1 1067 11
 2402 0038 FB8A     		ldrh	r3, [r7, #22]	@ movhi
 2403 003a 43F00703 		orr	r3, r3, #7
 2404 003e FB82     		strh	r3, [r7, #22]	@ movhi
1068:common/lib.stm32/STM32F10x_StdPeriph_Driver/src/stm32f10x_tim.c ****   /* Select the Trigger selection : ETRF */
1069:common/lib.stm32/STM32F10x_StdPeriph_Driver/src/stm32f10x_tim.c ****   tmpsmcr &= SMCR_TS_Mask;
 2405              		.loc 1 1069 11
 2406 0040 FB8A     		ldrh	r3, [r7, #22]	@ movhi
 2407 0042 23F07003 		bic	r3, r3, #112
 2408 0046 FB82     		strh	r3, [r7, #22]	@ movhi
1070:common/lib.stm32/STM32F10x_StdPeriph_Driver/src/stm32f10x_tim.c ****   tmpsmcr |= TIM_TS_ETRF;
 2409              		.loc 1 1070 11
 2410 0048 FB8A     		ldrh	r3, [r7, #22]	@ movhi
 2411 004a 43F07003 		orr	r3, r3, #112
 2412 004e FB82     		strh	r3, [r7, #22]	@ movhi
1071:common/lib.stm32/STM32F10x_StdPeriph_Driver/src/stm32f10x_tim.c ****   /* Write to TIMx SMCR */
1072:common/lib.stm32/STM32F10x_StdPeriph_Driver/src/stm32f10x_tim.c ****   TIMx->SMCR = tmpsmcr;
 2413              		.loc 1 1072 14
 2414 0050 FB68     		ldr	r3, [r7, #12]
 2415 0052 FA8A     		ldrh	r2, [r7, #22]	@ movhi
 2416 0054 1A81     		strh	r2, [r3, #8]	@ movhi
1073:common/lib.stm32/STM32F10x_StdPeriph_Driver/src/stm32f10x_tim.c **** }
 2417              		.loc 1 1073 1
 2418 0056 00BF     		nop
 2419 0058 1C37     		adds	r7, r7, #28
 2420              	.LCFI130:
 2421              		.cfi_def_cfa_offset 12
 2422 005a BD46     		mov	sp, r7
 2423              	.LCFI131:
 2424              		.cfi_def_cfa_register 13
 2425              		@ sp needed
 2426 005c 90BD     		pop	{r4, r7, pc}
 2427              	.L90:
 2428 005e 00BF     		.align	2
 2429              	.L89:
 2430 0060 00000000 		.word	TIM_ETRConfig
 2431              		.cfi_endproc
 2432              	.LFE49:
 2434              		.section	.text.TIM_ETRClockMode2Config,"ax",%progbits
 2435              		.align	1
 2436              		.global	TIM_ETRClockMode2Config
 2437              		.syntax unified
 2438              		.thumb
 2439              		.thumb_func
 2441              	TIM_ETRClockMode2Config:
 2442              	.LFB50:
1074:common/lib.stm32/STM32F10x_StdPeriph_Driver/src/stm32f10x_tim.c **** 
1075:common/lib.stm32/STM32F10x_StdPeriph_Driver/src/stm32f10x_tim.c **** /**
1076:common/lib.stm32/STM32F10x_StdPeriph_Driver/src/stm32f10x_tim.c ****   * @brief  Configures the External clock Mode2
1077:common/lib.stm32/STM32F10x_StdPeriph_Driver/src/stm32f10x_tim.c ****   * @param  TIMx: where x can be  1, 2, 3, 4, 5 or 8 to select the TIM peripheral.
1078:common/lib.stm32/STM32F10x_StdPeriph_Driver/src/stm32f10x_tim.c ****   * @param  TIM_ExtTRGPrescaler: The external Trigger Prescaler.
1079:common/lib.stm32/STM32F10x_StdPeriph_Driver/src/stm32f10x_tim.c ****   *   This parameter can be one of the following values:
1080:common/lib.stm32/STM32F10x_StdPeriph_Driver/src/stm32f10x_tim.c ****   *     @arg TIM_ExtTRGPSC_OFF: ETRP Prescaler OFF.
1081:common/lib.stm32/STM32F10x_StdPeriph_Driver/src/stm32f10x_tim.c ****   *     @arg TIM_ExtTRGPSC_DIV2: ETRP frequency divided by 2.
1082:common/lib.stm32/STM32F10x_StdPeriph_Driver/src/stm32f10x_tim.c ****   *     @arg TIM_ExtTRGPSC_DIV4: ETRP frequency divided by 4.
1083:common/lib.stm32/STM32F10x_StdPeriph_Driver/src/stm32f10x_tim.c ****   *     @arg TIM_ExtTRGPSC_DIV8: ETRP frequency divided by 8.
1084:common/lib.stm32/STM32F10x_StdPeriph_Driver/src/stm32f10x_tim.c ****   * @param  TIM_ExtTRGPolarity: The external Trigger Polarity.
1085:common/lib.stm32/STM32F10x_StdPeriph_Driver/src/stm32f10x_tim.c ****   *   This parameter can be one of the following values:
1086:common/lib.stm32/STM32F10x_StdPeriph_Driver/src/stm32f10x_tim.c ****   *     @arg TIM_ExtTRGPolarity_Inverted: active low or falling edge active.
1087:common/lib.stm32/STM32F10x_StdPeriph_Driver/src/stm32f10x_tim.c ****   *     @arg TIM_ExtTRGPolarity_NonInverted: active high or rising edge active.
1088:common/lib.stm32/STM32F10x_StdPeriph_Driver/src/stm32f10x_tim.c ****   * @param  ExtTRGFilter: External Trigger Filter.
1089:common/lib.stm32/STM32F10x_StdPeriph_Driver/src/stm32f10x_tim.c ****   *   This parameter must be a value between 0x00 and 0x0F
1090:common/lib.stm32/STM32F10x_StdPeriph_Driver/src/stm32f10x_tim.c ****   * @retval None
1091:common/lib.stm32/STM32F10x_StdPeriph_Driver/src/stm32f10x_tim.c ****   */
1092:common/lib.stm32/STM32F10x_StdPeriph_Driver/src/stm32f10x_tim.c **** void TIM_ETRClockMode2Config(TIM_TypeDef* TIMx, uint16_t TIM_ExtTRGPrescaler, 
1093:common/lib.stm32/STM32F10x_StdPeriph_Driver/src/stm32f10x_tim.c ****                              uint16_t TIM_ExtTRGPolarity, uint16_t ExtTRGFilter)
1094:common/lib.stm32/STM32F10x_StdPeriph_Driver/src/stm32f10x_tim.c **** {
 2443              		.loc 1 1094 1
 2444              		.cfi_startproc
 2445              		@ args = 0, pretend = 0, frame = 16
 2446              		@ frame_needed = 1, uses_anonymous_args = 0
 2447 0000 90B5     		push	{r4, r7, lr}
 2448              	.LCFI132:
 2449              		.cfi_def_cfa_offset 12
 2450              		.cfi_offset 4, -12
 2451              		.cfi_offset 7, -8
 2452              		.cfi_offset 14, -4
 2453 0002 85B0     		sub	sp, sp, #20
 2454              	.LCFI133:
 2455              		.cfi_def_cfa_offset 32
 2456 0004 00AF     		add	r7, sp, #0
 2457              	.LCFI134:
 2458              		.cfi_def_cfa_register 7
 2459 0006 F860     		str	r0, [r7, #12]
 2460 0008 0846     		mov	r0, r1
 2461 000a 1146     		mov	r1, r2
 2462 000c 1A46     		mov	r2, r3
 2463 000e 0346     		mov	r3, r0	@ movhi
 2464 0010 7B81     		strh	r3, [r7, #10]	@ movhi
 2465 0012 0B46     		mov	r3, r1	@ movhi
 2466 0014 3B81     		strh	r3, [r7, #8]	@ movhi
 2467 0016 1346     		mov	r3, r2	@ movhi
 2468 0018 FB80     		strh	r3, [r7, #6]	@ movhi
1095:common/lib.stm32/STM32F10x_StdPeriph_Driver/src/stm32f10x_tim.c ****   /* Check the parameters */
1096:common/lib.stm32/STM32F10x_StdPeriph_Driver/src/stm32f10x_tim.c ****   assert_param(IS_TIM_123458_PERIPH(TIMx));
1097:common/lib.stm32/STM32F10x_StdPeriph_Driver/src/stm32f10x_tim.c ****   assert_param(IS_TIM_EXT_PRESCALER(TIM_ExtTRGPrescaler));
1098:common/lib.stm32/STM32F10x_StdPeriph_Driver/src/stm32f10x_tim.c ****   assert_param(IS_TIM_EXT_POLARITY(TIM_ExtTRGPolarity));
1099:common/lib.stm32/STM32F10x_StdPeriph_Driver/src/stm32f10x_tim.c ****   assert_param(IS_TIM_EXT_FILTER(ExtTRGFilter));
1100:common/lib.stm32/STM32F10x_StdPeriph_Driver/src/stm32f10x_tim.c ****   /* Configure the ETR Clock source */
1101:common/lib.stm32/STM32F10x_StdPeriph_Driver/src/stm32f10x_tim.c ****   TIM_ETRConfig(TIMx, TIM_ExtTRGPrescaler, TIM_ExtTRGPolarity, ExtTRGFilter);
 2469              		.loc 1 1101 3
 2470 001a FB88     		ldrh	r3, [r7, #6]
 2471 001c 3A89     		ldrh	r2, [r7, #8]
 2472 001e 7989     		ldrh	r1, [r7, #10]
 2473 0020 F868     		ldr	r0, [r7, #12]
 2474 0022 074C     		ldr	r4, .L92
 2475 0024 A047     		blx	r4
 2476              	.LVL37:
1102:common/lib.stm32/STM32F10x_StdPeriph_Driver/src/stm32f10x_tim.c ****   /* Enable the External clock mode2 */
1103:common/lib.stm32/STM32F10x_StdPeriph_Driver/src/stm32f10x_tim.c ****   TIMx->SMCR |= SMCR_ECE_Set;
 2477              		.loc 1 1103 14
 2478 0026 FB68     		ldr	r3, [r7, #12]
 2479 0028 1B89     		ldrh	r3, [r3, #8]	@ movhi
 2480 002a 9BB2     		uxth	r3, r3
 2481 002c 43F48043 		orr	r3, r3, #16384
 2482 0030 9AB2     		uxth	r2, r3
 2483 0032 FB68     		ldr	r3, [r7, #12]
 2484 0034 1A81     		strh	r2, [r3, #8]	@ movhi
1104:common/lib.stm32/STM32F10x_StdPeriph_Driver/src/stm32f10x_tim.c **** }
 2485              		.loc 1 1104 1
 2486 0036 00BF     		nop
 2487 0038 1437     		adds	r7, r7, #20
 2488              	.LCFI135:
 2489              		.cfi_def_cfa_offset 12
 2490 003a BD46     		mov	sp, r7
 2491              	.LCFI136:
 2492              		.cfi_def_cfa_register 13
 2493              		@ sp needed
 2494 003c 90BD     		pop	{r4, r7, pc}
 2495              	.L93:
 2496 003e 00BF     		.align	2
 2497              	.L92:
 2498 0040 00000000 		.word	TIM_ETRConfig
 2499              		.cfi_endproc
 2500              	.LFE50:
 2502              		.section	.text.TIM_ETRConfig,"ax",%progbits
 2503              		.align	1
 2504              		.global	TIM_ETRConfig
 2505              		.syntax unified
 2506              		.thumb
 2507              		.thumb_func
 2509              	TIM_ETRConfig:
 2510              	.LFB51:
1105:common/lib.stm32/STM32F10x_StdPeriph_Driver/src/stm32f10x_tim.c **** 
1106:common/lib.stm32/STM32F10x_StdPeriph_Driver/src/stm32f10x_tim.c **** /**
1107:common/lib.stm32/STM32F10x_StdPeriph_Driver/src/stm32f10x_tim.c ****   * @brief  Configures the TIMx External Trigger (ETR).
1108:common/lib.stm32/STM32F10x_StdPeriph_Driver/src/stm32f10x_tim.c ****   * @param  TIMx: where x can be  1, 2, 3, 4, 5 or 8 to select the TIM peripheral.
1109:common/lib.stm32/STM32F10x_StdPeriph_Driver/src/stm32f10x_tim.c ****   * @param  TIM_ExtTRGPrescaler: The external Trigger Prescaler.
1110:common/lib.stm32/STM32F10x_StdPeriph_Driver/src/stm32f10x_tim.c ****   *   This parameter can be one of the following values:
1111:common/lib.stm32/STM32F10x_StdPeriph_Driver/src/stm32f10x_tim.c ****   *     @arg TIM_ExtTRGPSC_OFF: ETRP Prescaler OFF.
1112:common/lib.stm32/STM32F10x_StdPeriph_Driver/src/stm32f10x_tim.c ****   *     @arg TIM_ExtTRGPSC_DIV2: ETRP frequency divided by 2.
1113:common/lib.stm32/STM32F10x_StdPeriph_Driver/src/stm32f10x_tim.c ****   *     @arg TIM_ExtTRGPSC_DIV4: ETRP frequency divided by 4.
1114:common/lib.stm32/STM32F10x_StdPeriph_Driver/src/stm32f10x_tim.c ****   *     @arg TIM_ExtTRGPSC_DIV8: ETRP frequency divided by 8.
1115:common/lib.stm32/STM32F10x_StdPeriph_Driver/src/stm32f10x_tim.c ****   * @param  TIM_ExtTRGPolarity: The external Trigger Polarity.
1116:common/lib.stm32/STM32F10x_StdPeriph_Driver/src/stm32f10x_tim.c ****   *   This parameter can be one of the following values:
1117:common/lib.stm32/STM32F10x_StdPeriph_Driver/src/stm32f10x_tim.c ****   *     @arg TIM_ExtTRGPolarity_Inverted: active low or falling edge active.
1118:common/lib.stm32/STM32F10x_StdPeriph_Driver/src/stm32f10x_tim.c ****   *     @arg TIM_ExtTRGPolarity_NonInverted: active high or rising edge active.
1119:common/lib.stm32/STM32F10x_StdPeriph_Driver/src/stm32f10x_tim.c ****   * @param  ExtTRGFilter: External Trigger Filter.
1120:common/lib.stm32/STM32F10x_StdPeriph_Driver/src/stm32f10x_tim.c ****   *   This parameter must be a value between 0x00 and 0x0F
1121:common/lib.stm32/STM32F10x_StdPeriph_Driver/src/stm32f10x_tim.c ****   * @retval None
1122:common/lib.stm32/STM32F10x_StdPeriph_Driver/src/stm32f10x_tim.c ****   */
1123:common/lib.stm32/STM32F10x_StdPeriph_Driver/src/stm32f10x_tim.c **** void TIM_ETRConfig(TIM_TypeDef* TIMx, uint16_t TIM_ExtTRGPrescaler, uint16_t TIM_ExtTRGPolarity,
1124:common/lib.stm32/STM32F10x_StdPeriph_Driver/src/stm32f10x_tim.c ****                    uint16_t ExtTRGFilter)
1125:common/lib.stm32/STM32F10x_StdPeriph_Driver/src/stm32f10x_tim.c **** {
 2511              		.loc 1 1125 1
 2512              		.cfi_startproc
 2513              		@ args = 0, pretend = 0, frame = 24
 2514              		@ frame_needed = 1, uses_anonymous_args = 0
 2515              		@ link register save eliminated.
 2516 0000 80B4     		push	{r7}
 2517              	.LCFI137:
 2518              		.cfi_def_cfa_offset 4
 2519              		.cfi_offset 7, -4
 2520 0002 87B0     		sub	sp, sp, #28
 2521              	.LCFI138:
 2522              		.cfi_def_cfa_offset 32
 2523 0004 00AF     		add	r7, sp, #0
 2524              	.LCFI139:
 2525              		.cfi_def_cfa_register 7
 2526 0006 F860     		str	r0, [r7, #12]
 2527 0008 0846     		mov	r0, r1
 2528 000a 1146     		mov	r1, r2
 2529 000c 1A46     		mov	r2, r3
 2530 000e 0346     		mov	r3, r0	@ movhi
 2531 0010 7B81     		strh	r3, [r7, #10]	@ movhi
 2532 0012 0B46     		mov	r3, r1	@ movhi
 2533 0014 3B81     		strh	r3, [r7, #8]	@ movhi
 2534 0016 1346     		mov	r3, r2	@ movhi
 2535 0018 FB80     		strh	r3, [r7, #6]	@ movhi
1126:common/lib.stm32/STM32F10x_StdPeriph_Driver/src/stm32f10x_tim.c ****   uint16_t tmpsmcr = 0;
 2536              		.loc 1 1126 12
 2537 001a 0023     		movs	r3, #0
 2538 001c FB82     		strh	r3, [r7, #22]	@ movhi
1127:common/lib.stm32/STM32F10x_StdPeriph_Driver/src/stm32f10x_tim.c ****   /* Check the parameters */
1128:common/lib.stm32/STM32F10x_StdPeriph_Driver/src/stm32f10x_tim.c ****   assert_param(IS_TIM_123458_PERIPH(TIMx));
1129:common/lib.stm32/STM32F10x_StdPeriph_Driver/src/stm32f10x_tim.c ****   assert_param(IS_TIM_EXT_PRESCALER(TIM_ExtTRGPrescaler));
1130:common/lib.stm32/STM32F10x_StdPeriph_Driver/src/stm32f10x_tim.c ****   assert_param(IS_TIM_EXT_POLARITY(TIM_ExtTRGPolarity));
1131:common/lib.stm32/STM32F10x_StdPeriph_Driver/src/stm32f10x_tim.c ****   assert_param(IS_TIM_EXT_FILTER(ExtTRGFilter));
1132:common/lib.stm32/STM32F10x_StdPeriph_Driver/src/stm32f10x_tim.c ****   tmpsmcr = TIMx->SMCR;
 2539              		.loc 1 1132 11
 2540 001e FB68     		ldr	r3, [r7, #12]
 2541 0020 1B89     		ldrh	r3, [r3, #8]	@ movhi
 2542 0022 FB82     		strh	r3, [r7, #22]	@ movhi
1133:common/lib.stm32/STM32F10x_StdPeriph_Driver/src/stm32f10x_tim.c ****   /* Reset the ETR Bits */
1134:common/lib.stm32/STM32F10x_StdPeriph_Driver/src/stm32f10x_tim.c ****   tmpsmcr &= SMCR_ETR_Mask;
 2543              		.loc 1 1134 11
 2544 0024 FB8A     		ldrh	r3, [r7, #22]	@ movhi
 2545 0026 DBB2     		uxtb	r3, r3
 2546 0028 FB82     		strh	r3, [r7, #22]	@ movhi
1135:common/lib.stm32/STM32F10x_StdPeriph_Driver/src/stm32f10x_tim.c ****   /* Set the Prescaler, the Filter value and the Polarity */
1136:common/lib.stm32/STM32F10x_StdPeriph_Driver/src/stm32f10x_tim.c ****   tmpsmcr |= (uint16_t)(TIM_ExtTRGPrescaler | (uint16_t)(TIM_ExtTRGPolarity | (uint16_t)(ExtTRGFilt
 2547              		.loc 1 1136 79
 2548 002a FB88     		ldrh	r3, [r7, #6]	@ movhi
 2549 002c 1B02     		lsls	r3, r3, #8
 2550 002e 9AB2     		uxth	r2, r3
 2551              		.loc 1 1136 47
 2552 0030 3B89     		ldrh	r3, [r7, #8]	@ movhi
 2553 0032 1343     		orrs	r3, r3, r2
 2554 0034 9AB2     		uxth	r2, r3
 2555              		.loc 1 1136 14
 2556 0036 7B89     		ldrh	r3, [r7, #10]	@ movhi
 2557 0038 1343     		orrs	r3, r3, r2
 2558 003a 9AB2     		uxth	r2, r3
 2559              		.loc 1 1136 11
 2560 003c FB8A     		ldrh	r3, [r7, #22]	@ movhi
 2561 003e 1343     		orrs	r3, r3, r2
 2562 0040 FB82     		strh	r3, [r7, #22]	@ movhi
1137:common/lib.stm32/STM32F10x_StdPeriph_Driver/src/stm32f10x_tim.c ****   /* Write to TIMx SMCR */
1138:common/lib.stm32/STM32F10x_StdPeriph_Driver/src/stm32f10x_tim.c ****   TIMx->SMCR = tmpsmcr;
 2563              		.loc 1 1138 14
 2564 0042 FB68     		ldr	r3, [r7, #12]
 2565 0044 FA8A     		ldrh	r2, [r7, #22]	@ movhi
 2566 0046 1A81     		strh	r2, [r3, #8]	@ movhi
1139:common/lib.stm32/STM32F10x_StdPeriph_Driver/src/stm32f10x_tim.c **** }
 2567              		.loc 1 1139 1
 2568 0048 00BF     		nop
 2569 004a 1C37     		adds	r7, r7, #28
 2570              	.LCFI140:
 2571              		.cfi_def_cfa_offset 4
 2572 004c BD46     		mov	sp, r7
 2573              	.LCFI141:
 2574              		.cfi_def_cfa_register 13
 2575              		@ sp needed
 2576 004e 80BC     		pop	{r7}
 2577              	.LCFI142:
 2578              		.cfi_restore 7
 2579              		.cfi_def_cfa_offset 0
 2580 0050 7047     		bx	lr
 2581              		.cfi_endproc
 2582              	.LFE51:
 2584              		.section	.text.TIM_PrescalerConfig,"ax",%progbits
 2585              		.align	1
 2586              		.global	TIM_PrescalerConfig
 2587              		.syntax unified
 2588              		.thumb
 2589              		.thumb_func
 2591              	TIM_PrescalerConfig:
 2592              	.LFB52:
1140:common/lib.stm32/STM32F10x_StdPeriph_Driver/src/stm32f10x_tim.c **** 
1141:common/lib.stm32/STM32F10x_StdPeriph_Driver/src/stm32f10x_tim.c **** /**
1142:common/lib.stm32/STM32F10x_StdPeriph_Driver/src/stm32f10x_tim.c ****   * @brief  Configures the TIMx Prescaler.
1143:common/lib.stm32/STM32F10x_StdPeriph_Driver/src/stm32f10x_tim.c ****   * @param  TIMx: where x can be 1 to 8 to select the TIM peripheral.
1144:common/lib.stm32/STM32F10x_StdPeriph_Driver/src/stm32f10x_tim.c ****   * @param  Prescaler: specifies the Prescaler Register value
1145:common/lib.stm32/STM32F10x_StdPeriph_Driver/src/stm32f10x_tim.c ****   * @param  TIM_PSCReloadMode: specifies the TIM Prescaler Reload mode
1146:common/lib.stm32/STM32F10x_StdPeriph_Driver/src/stm32f10x_tim.c ****   *   This parameter can be one of the following values:
1147:common/lib.stm32/STM32F10x_StdPeriph_Driver/src/stm32f10x_tim.c ****   *     @arg TIM_PSCReloadMode_Update: The Prescaler is loaded at the update event.
1148:common/lib.stm32/STM32F10x_StdPeriph_Driver/src/stm32f10x_tim.c ****   *     @arg TIM_PSCReloadMode_Immediate: The Prescaler is loaded immediatly.
1149:common/lib.stm32/STM32F10x_StdPeriph_Driver/src/stm32f10x_tim.c ****   * @retval None
1150:common/lib.stm32/STM32F10x_StdPeriph_Driver/src/stm32f10x_tim.c ****   */
1151:common/lib.stm32/STM32F10x_StdPeriph_Driver/src/stm32f10x_tim.c **** void TIM_PrescalerConfig(TIM_TypeDef* TIMx, uint16_t Prescaler, uint16_t TIM_PSCReloadMode)
1152:common/lib.stm32/STM32F10x_StdPeriph_Driver/src/stm32f10x_tim.c **** {
 2593              		.loc 1 1152 1
 2594              		.cfi_startproc
 2595              		@ args = 0, pretend = 0, frame = 8
 2596              		@ frame_needed = 1, uses_anonymous_args = 0
 2597              		@ link register save eliminated.
 2598 0000 80B4     		push	{r7}
 2599              	.LCFI143:
 2600              		.cfi_def_cfa_offset 4
 2601              		.cfi_offset 7, -4
 2602 0002 83B0     		sub	sp, sp, #12
 2603              	.LCFI144:
 2604              		.cfi_def_cfa_offset 16
 2605 0004 00AF     		add	r7, sp, #0
 2606              	.LCFI145:
 2607              		.cfi_def_cfa_register 7
 2608 0006 7860     		str	r0, [r7, #4]
 2609 0008 0B46     		mov	r3, r1
 2610 000a 7B80     		strh	r3, [r7, #2]	@ movhi
 2611 000c 1346     		mov	r3, r2	@ movhi
 2612 000e 3B80     		strh	r3, [r7]	@ movhi
1153:common/lib.stm32/STM32F10x_StdPeriph_Driver/src/stm32f10x_tim.c ****   /* Check the parameters */
1154:common/lib.stm32/STM32F10x_StdPeriph_Driver/src/stm32f10x_tim.c ****   assert_param(IS_TIM_ALL_PERIPH(TIMx));
1155:common/lib.stm32/STM32F10x_StdPeriph_Driver/src/stm32f10x_tim.c ****   assert_param(IS_TIM_PRESCALER_RELOAD(TIM_PSCReloadMode));
1156:common/lib.stm32/STM32F10x_StdPeriph_Driver/src/stm32f10x_tim.c ****   /* Set the Prescaler value */
1157:common/lib.stm32/STM32F10x_StdPeriph_Driver/src/stm32f10x_tim.c ****   TIMx->PSC = Prescaler;
 2613              		.loc 1 1157 13
 2614 0010 7B68     		ldr	r3, [r7, #4]
 2615 0012 7A88     		ldrh	r2, [r7, #2]	@ movhi
 2616 0014 1A85     		strh	r2, [r3, #40]	@ movhi
1158:common/lib.stm32/STM32F10x_StdPeriph_Driver/src/stm32f10x_tim.c ****   /* Set or reset the UG Bit */
1159:common/lib.stm32/STM32F10x_StdPeriph_Driver/src/stm32f10x_tim.c ****   TIMx->EGR = TIM_PSCReloadMode;
 2617              		.loc 1 1159 13
 2618 0016 7B68     		ldr	r3, [r7, #4]
 2619 0018 3A88     		ldrh	r2, [r7]	@ movhi
 2620 001a 9A82     		strh	r2, [r3, #20]	@ movhi
1160:common/lib.stm32/STM32F10x_StdPeriph_Driver/src/stm32f10x_tim.c **** }
 2621              		.loc 1 1160 1
 2622 001c 00BF     		nop
 2623 001e 0C37     		adds	r7, r7, #12
 2624              	.LCFI146:
 2625              		.cfi_def_cfa_offset 4
 2626 0020 BD46     		mov	sp, r7
 2627              	.LCFI147:
 2628              		.cfi_def_cfa_register 13
 2629              		@ sp needed
 2630 0022 80BC     		pop	{r7}
 2631              	.LCFI148:
 2632              		.cfi_restore 7
 2633              		.cfi_def_cfa_offset 0
 2634 0024 7047     		bx	lr
 2635              		.cfi_endproc
 2636              	.LFE52:
 2638              		.section	.text.TIM_CounterModeConfig,"ax",%progbits
 2639              		.align	1
 2640              		.global	TIM_CounterModeConfig
 2641              		.syntax unified
 2642              		.thumb
 2643              		.thumb_func
 2645              	TIM_CounterModeConfig:
 2646              	.LFB53:
1161:common/lib.stm32/STM32F10x_StdPeriph_Driver/src/stm32f10x_tim.c **** 
1162:common/lib.stm32/STM32F10x_StdPeriph_Driver/src/stm32f10x_tim.c **** /**
1163:common/lib.stm32/STM32F10x_StdPeriph_Driver/src/stm32f10x_tim.c ****   * @brief  Specifies the TIMx Counter Mode to be used.
1164:common/lib.stm32/STM32F10x_StdPeriph_Driver/src/stm32f10x_tim.c ****   * @param  TIMx: where x can be  1, 2, 3, 4, 5 or 8 to select the TIM peripheral.
1165:common/lib.stm32/STM32F10x_StdPeriph_Driver/src/stm32f10x_tim.c ****   * @param  TIM_CounterMode: specifies the Counter Mode to be used
1166:common/lib.stm32/STM32F10x_StdPeriph_Driver/src/stm32f10x_tim.c ****   *   This parameter can be one of the following values:
1167:common/lib.stm32/STM32F10x_StdPeriph_Driver/src/stm32f10x_tim.c ****   *     @arg TIM_CounterMode_Up: TIM Up Counting Mode
1168:common/lib.stm32/STM32F10x_StdPeriph_Driver/src/stm32f10x_tim.c ****   *     @arg TIM_CounterMode_Down: TIM Down Counting Mode
1169:common/lib.stm32/STM32F10x_StdPeriph_Driver/src/stm32f10x_tim.c ****   *     @arg TIM_CounterMode_CenterAligned1: TIM Center Aligned Mode1
1170:common/lib.stm32/STM32F10x_StdPeriph_Driver/src/stm32f10x_tim.c ****   *     @arg TIM_CounterMode_CenterAligned2: TIM Center Aligned Mode2
1171:common/lib.stm32/STM32F10x_StdPeriph_Driver/src/stm32f10x_tim.c ****   *     @arg TIM_CounterMode_CenterAligned3: TIM Center Aligned Mode3
1172:common/lib.stm32/STM32F10x_StdPeriph_Driver/src/stm32f10x_tim.c ****   * @retval None
1173:common/lib.stm32/STM32F10x_StdPeriph_Driver/src/stm32f10x_tim.c ****   */
1174:common/lib.stm32/STM32F10x_StdPeriph_Driver/src/stm32f10x_tim.c **** void TIM_CounterModeConfig(TIM_TypeDef* TIMx, uint16_t TIM_CounterMode)
1175:common/lib.stm32/STM32F10x_StdPeriph_Driver/src/stm32f10x_tim.c **** {
 2647              		.loc 1 1175 1
 2648              		.cfi_startproc
 2649              		@ args = 0, pretend = 0, frame = 16
 2650              		@ frame_needed = 1, uses_anonymous_args = 0
 2651              		@ link register save eliminated.
 2652 0000 80B4     		push	{r7}
 2653              	.LCFI149:
 2654              		.cfi_def_cfa_offset 4
 2655              		.cfi_offset 7, -4
 2656 0002 85B0     		sub	sp, sp, #20
 2657              	.LCFI150:
 2658              		.cfi_def_cfa_offset 24
 2659 0004 00AF     		add	r7, sp, #0
 2660              	.LCFI151:
 2661              		.cfi_def_cfa_register 7
 2662 0006 7860     		str	r0, [r7, #4]
 2663 0008 0B46     		mov	r3, r1
 2664 000a 7B80     		strh	r3, [r7, #2]	@ movhi
1176:common/lib.stm32/STM32F10x_StdPeriph_Driver/src/stm32f10x_tim.c ****   uint16_t tmpcr1 = 0;
 2665              		.loc 1 1176 12
 2666 000c 0023     		movs	r3, #0
 2667 000e FB81     		strh	r3, [r7, #14]	@ movhi
1177:common/lib.stm32/STM32F10x_StdPeriph_Driver/src/stm32f10x_tim.c ****   /* Check the parameters */
1178:common/lib.stm32/STM32F10x_StdPeriph_Driver/src/stm32f10x_tim.c ****   assert_param(IS_TIM_123458_PERIPH(TIMx));
1179:common/lib.stm32/STM32F10x_StdPeriph_Driver/src/stm32f10x_tim.c ****   assert_param(IS_TIM_COUNTER_MODE(TIM_CounterMode));
1180:common/lib.stm32/STM32F10x_StdPeriph_Driver/src/stm32f10x_tim.c ****   tmpcr1 = TIMx->CR1;
 2668              		.loc 1 1180 10
 2669 0010 7B68     		ldr	r3, [r7, #4]
 2670 0012 1B88     		ldrh	r3, [r3]	@ movhi
 2671 0014 FB81     		strh	r3, [r7, #14]	@ movhi
1181:common/lib.stm32/STM32F10x_StdPeriph_Driver/src/stm32f10x_tim.c ****   /* Reset the CMS and DIR Bits */
1182:common/lib.stm32/STM32F10x_StdPeriph_Driver/src/stm32f10x_tim.c ****   tmpcr1 &= CR1_CounterMode_Mask;
 2672              		.loc 1 1182 10
 2673 0016 FB89     		ldrh	r3, [r7, #14]	@ movhi
 2674 0018 23F07003 		bic	r3, r3, #112
 2675 001c 9B05     		lsls	r3, r3, #22
 2676 001e 9B0D     		lsrs	r3, r3, #22
 2677 0020 FB81     		strh	r3, [r7, #14]	@ movhi
1183:common/lib.stm32/STM32F10x_StdPeriph_Driver/src/stm32f10x_tim.c ****   /* Set the Counter Mode */
1184:common/lib.stm32/STM32F10x_StdPeriph_Driver/src/stm32f10x_tim.c ****   tmpcr1 |= TIM_CounterMode;
 2678              		.loc 1 1184 10
 2679 0022 FA89     		ldrh	r2, [r7, #14]	@ movhi
 2680 0024 7B88     		ldrh	r3, [r7, #2]	@ movhi
 2681 0026 1343     		orrs	r3, r3, r2
 2682 0028 FB81     		strh	r3, [r7, #14]	@ movhi
1185:common/lib.stm32/STM32F10x_StdPeriph_Driver/src/stm32f10x_tim.c ****   /* Write to TIMx CR1 register */
1186:common/lib.stm32/STM32F10x_StdPeriph_Driver/src/stm32f10x_tim.c ****   TIMx->CR1 = tmpcr1;
 2683              		.loc 1 1186 13
 2684 002a 7B68     		ldr	r3, [r7, #4]
 2685 002c FA89     		ldrh	r2, [r7, #14]	@ movhi
 2686 002e 1A80     		strh	r2, [r3]	@ movhi
1187:common/lib.stm32/STM32F10x_StdPeriph_Driver/src/stm32f10x_tim.c **** }
 2687              		.loc 1 1187 1
 2688 0030 00BF     		nop
 2689 0032 1437     		adds	r7, r7, #20
 2690              	.LCFI152:
 2691              		.cfi_def_cfa_offset 4
 2692 0034 BD46     		mov	sp, r7
 2693              	.LCFI153:
 2694              		.cfi_def_cfa_register 13
 2695              		@ sp needed
 2696 0036 80BC     		pop	{r7}
 2697              	.LCFI154:
 2698              		.cfi_restore 7
 2699              		.cfi_def_cfa_offset 0
 2700 0038 7047     		bx	lr
 2701              		.cfi_endproc
 2702              	.LFE53:
 2704              		.section	.text.TIM_SelectInputTrigger,"ax",%progbits
 2705              		.align	1
 2706              		.global	TIM_SelectInputTrigger
 2707              		.syntax unified
 2708              		.thumb
 2709              		.thumb_func
 2711              	TIM_SelectInputTrigger:
 2712              	.LFB54:
1188:common/lib.stm32/STM32F10x_StdPeriph_Driver/src/stm32f10x_tim.c **** 
1189:common/lib.stm32/STM32F10x_StdPeriph_Driver/src/stm32f10x_tim.c **** /**
1190:common/lib.stm32/STM32F10x_StdPeriph_Driver/src/stm32f10x_tim.c ****   * @brief  Selects the Input Trigger source
1191:common/lib.stm32/STM32F10x_StdPeriph_Driver/src/stm32f10x_tim.c ****   * @param  TIMx: where x can be  1, 2, 3, 4, 5 or 8 to select the TIM peripheral.
1192:common/lib.stm32/STM32F10x_StdPeriph_Driver/src/stm32f10x_tim.c ****   * @param  TIM_InputTriggerSource: The Input Trigger source.
1193:common/lib.stm32/STM32F10x_StdPeriph_Driver/src/stm32f10x_tim.c ****   *   This parameter can be one of the following values:
1194:common/lib.stm32/STM32F10x_StdPeriph_Driver/src/stm32f10x_tim.c ****   *     @arg TIM_TS_ITR0: Internal Trigger 0
1195:common/lib.stm32/STM32F10x_StdPeriph_Driver/src/stm32f10x_tim.c ****   *     @arg TIM_TS_ITR1: Internal Trigger 1
1196:common/lib.stm32/STM32F10x_StdPeriph_Driver/src/stm32f10x_tim.c ****   *     @arg TIM_TS_ITR2: Internal Trigger 2
1197:common/lib.stm32/STM32F10x_StdPeriph_Driver/src/stm32f10x_tim.c ****   *     @arg TIM_TS_ITR3: Internal Trigger 3
1198:common/lib.stm32/STM32F10x_StdPeriph_Driver/src/stm32f10x_tim.c ****   *     @arg TIM_TS_TI1F_ED: TI1 Edge Detector
1199:common/lib.stm32/STM32F10x_StdPeriph_Driver/src/stm32f10x_tim.c ****   *     @arg TIM_TS_TI1FP1: Filtered Timer Input 1
1200:common/lib.stm32/STM32F10x_StdPeriph_Driver/src/stm32f10x_tim.c ****   *     @arg TIM_TS_TI2FP2: Filtered Timer Input 2
1201:common/lib.stm32/STM32F10x_StdPeriph_Driver/src/stm32f10x_tim.c ****   *     @arg TIM_TS_ETRF: External Trigger input
1202:common/lib.stm32/STM32F10x_StdPeriph_Driver/src/stm32f10x_tim.c ****   * @retval None
1203:common/lib.stm32/STM32F10x_StdPeriph_Driver/src/stm32f10x_tim.c ****   */
1204:common/lib.stm32/STM32F10x_StdPeriph_Driver/src/stm32f10x_tim.c **** void TIM_SelectInputTrigger(TIM_TypeDef* TIMx, uint16_t TIM_InputTriggerSource)
1205:common/lib.stm32/STM32F10x_StdPeriph_Driver/src/stm32f10x_tim.c **** {
 2713              		.loc 1 1205 1
 2714              		.cfi_startproc
 2715              		@ args = 0, pretend = 0, frame = 16
 2716              		@ frame_needed = 1, uses_anonymous_args = 0
 2717              		@ link register save eliminated.
 2718 0000 80B4     		push	{r7}
 2719              	.LCFI155:
 2720              		.cfi_def_cfa_offset 4
 2721              		.cfi_offset 7, -4
 2722 0002 85B0     		sub	sp, sp, #20
 2723              	.LCFI156:
 2724              		.cfi_def_cfa_offset 24
 2725 0004 00AF     		add	r7, sp, #0
 2726              	.LCFI157:
 2727              		.cfi_def_cfa_register 7
 2728 0006 7860     		str	r0, [r7, #4]
 2729 0008 0B46     		mov	r3, r1
 2730 000a 7B80     		strh	r3, [r7, #2]	@ movhi
1206:common/lib.stm32/STM32F10x_StdPeriph_Driver/src/stm32f10x_tim.c ****   uint16_t tmpsmcr = 0;
 2731              		.loc 1 1206 12
 2732 000c 0023     		movs	r3, #0
 2733 000e FB81     		strh	r3, [r7, #14]	@ movhi
1207:common/lib.stm32/STM32F10x_StdPeriph_Driver/src/stm32f10x_tim.c ****   /* Check the parameters */
1208:common/lib.stm32/STM32F10x_StdPeriph_Driver/src/stm32f10x_tim.c ****   assert_param(IS_TIM_123458_PERIPH(TIMx));
1209:common/lib.stm32/STM32F10x_StdPeriph_Driver/src/stm32f10x_tim.c ****   assert_param(IS_TIM_TRIGGER_SELECTION(TIM_InputTriggerSource));
1210:common/lib.stm32/STM32F10x_StdPeriph_Driver/src/stm32f10x_tim.c ****   /* Get the TIMx SMCR register value */
1211:common/lib.stm32/STM32F10x_StdPeriph_Driver/src/stm32f10x_tim.c ****   tmpsmcr = TIMx->SMCR;
 2734              		.loc 1 1211 11
 2735 0010 7B68     		ldr	r3, [r7, #4]
 2736 0012 1B89     		ldrh	r3, [r3, #8]	@ movhi
 2737 0014 FB81     		strh	r3, [r7, #14]	@ movhi
1212:common/lib.stm32/STM32F10x_StdPeriph_Driver/src/stm32f10x_tim.c ****   /* Reset the TS Bits */
1213:common/lib.stm32/STM32F10x_StdPeriph_Driver/src/stm32f10x_tim.c ****   tmpsmcr &= SMCR_TS_Mask;
 2738              		.loc 1 1213 11
 2739 0016 FB89     		ldrh	r3, [r7, #14]	@ movhi
 2740 0018 23F07003 		bic	r3, r3, #112
 2741 001c FB81     		strh	r3, [r7, #14]	@ movhi
1214:common/lib.stm32/STM32F10x_StdPeriph_Driver/src/stm32f10x_tim.c ****   /* Set the Input Trigger source */
1215:common/lib.stm32/STM32F10x_StdPeriph_Driver/src/stm32f10x_tim.c ****   tmpsmcr |= TIM_InputTriggerSource;
 2742              		.loc 1 1215 11
 2743 001e FA89     		ldrh	r2, [r7, #14]	@ movhi
 2744 0020 7B88     		ldrh	r3, [r7, #2]	@ movhi
 2745 0022 1343     		orrs	r3, r3, r2
 2746 0024 FB81     		strh	r3, [r7, #14]	@ movhi
1216:common/lib.stm32/STM32F10x_StdPeriph_Driver/src/stm32f10x_tim.c ****   /* Write to TIMx SMCR */
1217:common/lib.stm32/STM32F10x_StdPeriph_Driver/src/stm32f10x_tim.c ****   TIMx->SMCR = tmpsmcr;
 2747              		.loc 1 1217 14
 2748 0026 7B68     		ldr	r3, [r7, #4]
 2749 0028 FA89     		ldrh	r2, [r7, #14]	@ movhi
 2750 002a 1A81     		strh	r2, [r3, #8]	@ movhi
1218:common/lib.stm32/STM32F10x_StdPeriph_Driver/src/stm32f10x_tim.c **** }
 2751              		.loc 1 1218 1
 2752 002c 00BF     		nop
 2753 002e 1437     		adds	r7, r7, #20
 2754              	.LCFI158:
 2755              		.cfi_def_cfa_offset 4
 2756 0030 BD46     		mov	sp, r7
 2757              	.LCFI159:
 2758              		.cfi_def_cfa_register 13
 2759              		@ sp needed
 2760 0032 80BC     		pop	{r7}
 2761              	.LCFI160:
 2762              		.cfi_restore 7
 2763              		.cfi_def_cfa_offset 0
 2764 0034 7047     		bx	lr
 2765              		.cfi_endproc
 2766              	.LFE54:
 2768              		.section	.text.TIM_EncoderInterfaceConfig,"ax",%progbits
 2769              		.align	1
 2770              		.global	TIM_EncoderInterfaceConfig
 2771              		.syntax unified
 2772              		.thumb
 2773              		.thumb_func
 2775              	TIM_EncoderInterfaceConfig:
 2776              	.LFB55:
1219:common/lib.stm32/STM32F10x_StdPeriph_Driver/src/stm32f10x_tim.c **** 
1220:common/lib.stm32/STM32F10x_StdPeriph_Driver/src/stm32f10x_tim.c **** /**
1221:common/lib.stm32/STM32F10x_StdPeriph_Driver/src/stm32f10x_tim.c ****   * @brief  Configures the TIMx Encoder Interface.
1222:common/lib.stm32/STM32F10x_StdPeriph_Driver/src/stm32f10x_tim.c ****   * @param  TIMx: where x can be  1, 2, 3, 4, 5 or 8 to select the TIM peripheral.
1223:common/lib.stm32/STM32F10x_StdPeriph_Driver/src/stm32f10x_tim.c ****   * @param  TIM_EncoderMode: specifies the TIMx Encoder Mode.
1224:common/lib.stm32/STM32F10x_StdPeriph_Driver/src/stm32f10x_tim.c ****   *   This parameter can be one of the following values:
1225:common/lib.stm32/STM32F10x_StdPeriph_Driver/src/stm32f10x_tim.c ****   *     @arg TIM_EncoderMode_TI1: Counter counts on TI1FP1 edge depending on TI2FP2 level.
1226:common/lib.stm32/STM32F10x_StdPeriph_Driver/src/stm32f10x_tim.c ****   *     @arg TIM_EncoderMode_TI2: Counter counts on TI2FP2 edge depending on TI1FP1 level.
1227:common/lib.stm32/STM32F10x_StdPeriph_Driver/src/stm32f10x_tim.c ****   *     @arg TIM_EncoderMode_TI12: Counter counts on both TI1FP1 and TI2FP2 edges depending
1228:common/lib.stm32/STM32F10x_StdPeriph_Driver/src/stm32f10x_tim.c ****   *                                on the level of the other input.
1229:common/lib.stm32/STM32F10x_StdPeriph_Driver/src/stm32f10x_tim.c ****   * @param  TIM_IC1Polarity: specifies the IC1 Polarity
1230:common/lib.stm32/STM32F10x_StdPeriph_Driver/src/stm32f10x_tim.c ****   *   This parmeter can be one of the following values:
1231:common/lib.stm32/STM32F10x_StdPeriph_Driver/src/stm32f10x_tim.c ****   *     @arg TIM_ICPolarity_Falling: IC Falling edge.
1232:common/lib.stm32/STM32F10x_StdPeriph_Driver/src/stm32f10x_tim.c ****   *     @arg TIM_ICPolarity_Rising: IC Rising edge.
1233:common/lib.stm32/STM32F10x_StdPeriph_Driver/src/stm32f10x_tim.c ****   * @param  TIM_IC2Polarity: specifies the IC2 Polarity
1234:common/lib.stm32/STM32F10x_StdPeriph_Driver/src/stm32f10x_tim.c ****   *   This parmeter can be one of the following values:
1235:common/lib.stm32/STM32F10x_StdPeriph_Driver/src/stm32f10x_tim.c ****   *     @arg TIM_ICPolarity_Falling: IC Falling edge.
1236:common/lib.stm32/STM32F10x_StdPeriph_Driver/src/stm32f10x_tim.c ****   *     @arg TIM_ICPolarity_Rising: IC Rising edge.
1237:common/lib.stm32/STM32F10x_StdPeriph_Driver/src/stm32f10x_tim.c ****   * @retval None
1238:common/lib.stm32/STM32F10x_StdPeriph_Driver/src/stm32f10x_tim.c ****   */
1239:common/lib.stm32/STM32F10x_StdPeriph_Driver/src/stm32f10x_tim.c **** void TIM_EncoderInterfaceConfig(TIM_TypeDef* TIMx, uint16_t TIM_EncoderMode,
1240:common/lib.stm32/STM32F10x_StdPeriph_Driver/src/stm32f10x_tim.c ****                                 uint16_t TIM_IC1Polarity, uint16_t TIM_IC2Polarity)
1241:common/lib.stm32/STM32F10x_StdPeriph_Driver/src/stm32f10x_tim.c **** {
 2777              		.loc 1 1241 1
 2778              		.cfi_startproc
 2779              		@ args = 0, pretend = 0, frame = 24
 2780              		@ frame_needed = 1, uses_anonymous_args = 0
 2781              		@ link register save eliminated.
 2782 0000 80B4     		push	{r7}
 2783              	.LCFI161:
 2784              		.cfi_def_cfa_offset 4
 2785              		.cfi_offset 7, -4
 2786 0002 87B0     		sub	sp, sp, #28
 2787              	.LCFI162:
 2788              		.cfi_def_cfa_offset 32
 2789 0004 00AF     		add	r7, sp, #0
 2790              	.LCFI163:
 2791              		.cfi_def_cfa_register 7
 2792 0006 F860     		str	r0, [r7, #12]
 2793 0008 0846     		mov	r0, r1
 2794 000a 1146     		mov	r1, r2
 2795 000c 1A46     		mov	r2, r3
 2796 000e 0346     		mov	r3, r0	@ movhi
 2797 0010 7B81     		strh	r3, [r7, #10]	@ movhi
 2798 0012 0B46     		mov	r3, r1	@ movhi
 2799 0014 3B81     		strh	r3, [r7, #8]	@ movhi
 2800 0016 1346     		mov	r3, r2	@ movhi
 2801 0018 FB80     		strh	r3, [r7, #6]	@ movhi
1242:common/lib.stm32/STM32F10x_StdPeriph_Driver/src/stm32f10x_tim.c ****   uint16_t tmpsmcr = 0;
 2802              		.loc 1 1242 12
 2803 001a 0023     		movs	r3, #0
 2804 001c FB82     		strh	r3, [r7, #22]	@ movhi
1243:common/lib.stm32/STM32F10x_StdPeriph_Driver/src/stm32f10x_tim.c ****   uint16_t tmpccmr1 = 0;
 2805              		.loc 1 1243 12
 2806 001e 0023     		movs	r3, #0
 2807 0020 BB82     		strh	r3, [r7, #20]	@ movhi
1244:common/lib.stm32/STM32F10x_StdPeriph_Driver/src/stm32f10x_tim.c ****   uint16_t tmpccer = 0;
 2808              		.loc 1 1244 12
 2809 0022 0023     		movs	r3, #0
 2810 0024 7B82     		strh	r3, [r7, #18]	@ movhi
1245:common/lib.stm32/STM32F10x_StdPeriph_Driver/src/stm32f10x_tim.c ****     
1246:common/lib.stm32/STM32F10x_StdPeriph_Driver/src/stm32f10x_tim.c ****   /* Check the parameters */
1247:common/lib.stm32/STM32F10x_StdPeriph_Driver/src/stm32f10x_tim.c ****   assert_param(IS_TIM_123458_PERIPH(TIMx));
1248:common/lib.stm32/STM32F10x_StdPeriph_Driver/src/stm32f10x_tim.c ****   assert_param(IS_TIM_ENCODER_MODE(TIM_EncoderMode));
1249:common/lib.stm32/STM32F10x_StdPeriph_Driver/src/stm32f10x_tim.c ****   assert_param(IS_TIM_IC_POLARITY(TIM_IC1Polarity));
1250:common/lib.stm32/STM32F10x_StdPeriph_Driver/src/stm32f10x_tim.c ****   assert_param(IS_TIM_IC_POLARITY(TIM_IC2Polarity));
1251:common/lib.stm32/STM32F10x_StdPeriph_Driver/src/stm32f10x_tim.c **** 
1252:common/lib.stm32/STM32F10x_StdPeriph_Driver/src/stm32f10x_tim.c ****   /* Get the TIMx SMCR register value */
1253:common/lib.stm32/STM32F10x_StdPeriph_Driver/src/stm32f10x_tim.c ****   tmpsmcr = TIMx->SMCR;
 2811              		.loc 1 1253 11
 2812 0026 FB68     		ldr	r3, [r7, #12]
 2813 0028 1B89     		ldrh	r3, [r3, #8]	@ movhi
 2814 002a FB82     		strh	r3, [r7, #22]	@ movhi
1254:common/lib.stm32/STM32F10x_StdPeriph_Driver/src/stm32f10x_tim.c **** 
1255:common/lib.stm32/STM32F10x_StdPeriph_Driver/src/stm32f10x_tim.c ****   /* Get the TIMx CCMR1 register value */
1256:common/lib.stm32/STM32F10x_StdPeriph_Driver/src/stm32f10x_tim.c ****   tmpccmr1 = TIMx->CCMR1;
 2815              		.loc 1 1256 12
 2816 002c FB68     		ldr	r3, [r7, #12]
 2817 002e 1B8B     		ldrh	r3, [r3, #24]	@ movhi
 2818 0030 BB82     		strh	r3, [r7, #20]	@ movhi
1257:common/lib.stm32/STM32F10x_StdPeriph_Driver/src/stm32f10x_tim.c **** 
1258:common/lib.stm32/STM32F10x_StdPeriph_Driver/src/stm32f10x_tim.c ****   /* Get the TIMx CCER register value */
1259:common/lib.stm32/STM32F10x_StdPeriph_Driver/src/stm32f10x_tim.c ****   tmpccer = TIMx->CCER;
 2819              		.loc 1 1259 11
 2820 0032 FB68     		ldr	r3, [r7, #12]
 2821 0034 1B8C     		ldrh	r3, [r3, #32]	@ movhi
 2822 0036 7B82     		strh	r3, [r7, #18]	@ movhi
1260:common/lib.stm32/STM32F10x_StdPeriph_Driver/src/stm32f10x_tim.c **** 
1261:common/lib.stm32/STM32F10x_StdPeriph_Driver/src/stm32f10x_tim.c ****   /* Set the encoder Mode */
1262:common/lib.stm32/STM32F10x_StdPeriph_Driver/src/stm32f10x_tim.c ****   tmpsmcr &= SMCR_SMS_Mask;
 2823              		.loc 1 1262 11
 2824 0038 FB8A     		ldrh	r3, [r7, #22]	@ movhi
 2825 003a 23F00703 		bic	r3, r3, #7
 2826 003e FB82     		strh	r3, [r7, #22]	@ movhi
