   1              		.cpu cortex-m3
   2              		.arch armv7-m
   3              		.fpu softvfp
   4              		.eabi_attribute 20, 1
   5              		.eabi_attribute 21, 1
   6              		.eabi_attribute 23, 3
   7              		.eabi_attribute 24, 1
   8              		.eabi_attribute 25, 1
   9              		.eabi_attribute 26, 1
  10              		.eabi_attribute 30, 6
  11              		.eabi_attribute 34, 1
  12              		.eabi_attribute 18, 4
  13              		.file	"stm32f10x_tim.c"
  14              		.text
  15              	.Ltext0:
  16              		.cfi_sections	.debug_frame
  17              		.section	.text.TIM_DeInit,"ax",%progbits
  18              		.align	1
  19              		.global	TIM_DeInit
  20              		.syntax unified
  21              		.thumb
  22              		.thumb_func
  24              	TIM_DeInit:
  25              	.LFB27:
  26              		.file 1 "common/lib.stm32/STM32F10x_StdPeriph_Driver/src/stm32f10x_tim.c"
   1:common/lib.stm32/STM32F10x_StdPeriph_Driver/src/stm32f10x_tim.c **** /**
   2:common/lib.stm32/STM32F10x_StdPeriph_Driver/src/stm32f10x_tim.c ****   ******************************************************************************
   3:common/lib.stm32/STM32F10x_StdPeriph_Driver/src/stm32f10x_tim.c ****   * @file    stm32f10x_tim.c
   4:common/lib.stm32/STM32F10x_StdPeriph_Driver/src/stm32f10x_tim.c ****   * @author  MCD Application Team
   5:common/lib.stm32/STM32F10x_StdPeriph_Driver/src/stm32f10x_tim.c ****   * @version V3.1.2
   6:common/lib.stm32/STM32F10x_StdPeriph_Driver/src/stm32f10x_tim.c ****   * @date    09/28/2009
   7:common/lib.stm32/STM32F10x_StdPeriph_Driver/src/stm32f10x_tim.c ****   * @brief   This file provides all the TIM firmware functions.
   8:common/lib.stm32/STM32F10x_StdPeriph_Driver/src/stm32f10x_tim.c ****   ******************************************************************************
   9:common/lib.stm32/STM32F10x_StdPeriph_Driver/src/stm32f10x_tim.c ****   * @copy
  10:common/lib.stm32/STM32F10x_StdPeriph_Driver/src/stm32f10x_tim.c ****   *
  11:common/lib.stm32/STM32F10x_StdPeriph_Driver/src/stm32f10x_tim.c ****   * THE PRESENT FIRMWARE WHICH IS FOR GUIDANCE ONLY AIMS AT PROVIDING CUSTOMERS
  12:common/lib.stm32/STM32F10x_StdPeriph_Driver/src/stm32f10x_tim.c ****   * WITH CODING INFORMATION REGARDING THEIR PRODUCTS IN ORDER FOR THEM TO SAVE
  13:common/lib.stm32/STM32F10x_StdPeriph_Driver/src/stm32f10x_tim.c ****   * TIME. AS A RESULT, STMICROELECTRONICS SHALL NOT BE HELD LIABLE FOR ANY
  14:common/lib.stm32/STM32F10x_StdPeriph_Driver/src/stm32f10x_tim.c ****   * DIRECT, INDIRECT OR CONSEQUENTIAL DAMAGES WITH RESPECT TO ANY CLAIMS ARISING
  15:common/lib.stm32/STM32F10x_StdPeriph_Driver/src/stm32f10x_tim.c ****   * FROM THE CONTENT OF SUCH FIRMWARE AND/OR THE USE MADE BY CUSTOMERS OF THE
  16:common/lib.stm32/STM32F10x_StdPeriph_Driver/src/stm32f10x_tim.c ****   * CODING INFORMATION CONTAINED HEREIN IN CONNECTION WITH THEIR PRODUCTS.
  17:common/lib.stm32/STM32F10x_StdPeriph_Driver/src/stm32f10x_tim.c ****   *
  18:common/lib.stm32/STM32F10x_StdPeriph_Driver/src/stm32f10x_tim.c ****   * <h2><center>&copy; COPYRIGHT 2009 STMicroelectronics</center></h2>
  19:common/lib.stm32/STM32F10x_StdPeriph_Driver/src/stm32f10x_tim.c ****   */ 
  20:common/lib.stm32/STM32F10x_StdPeriph_Driver/src/stm32f10x_tim.c **** 
  21:common/lib.stm32/STM32F10x_StdPeriph_Driver/src/stm32f10x_tim.c **** /* Includes ------------------------------------------------------------------*/
  22:common/lib.stm32/STM32F10x_StdPeriph_Driver/src/stm32f10x_tim.c **** #include "stm32f10x_tim.h"
  23:common/lib.stm32/STM32F10x_StdPeriph_Driver/src/stm32f10x_tim.c **** #include "stm32f10x_rcc.h"
  24:common/lib.stm32/STM32F10x_StdPeriph_Driver/src/stm32f10x_tim.c **** 
  25:common/lib.stm32/STM32F10x_StdPeriph_Driver/src/stm32f10x_tim.c **** /** @addtogroup STM32F10x_StdPeriph_Driver
  26:common/lib.stm32/STM32F10x_StdPeriph_Driver/src/stm32f10x_tim.c ****   * @{
  27:common/lib.stm32/STM32F10x_StdPeriph_Driver/src/stm32f10x_tim.c ****   */
  28:common/lib.stm32/STM32F10x_StdPeriph_Driver/src/stm32f10x_tim.c **** 
  29:common/lib.stm32/STM32F10x_StdPeriph_Driver/src/stm32f10x_tim.c **** /** @defgroup TIM 
  30:common/lib.stm32/STM32F10x_StdPeriph_Driver/src/stm32f10x_tim.c ****   * @brief TIM driver modules
  31:common/lib.stm32/STM32F10x_StdPeriph_Driver/src/stm32f10x_tim.c ****   * @{
  32:common/lib.stm32/STM32F10x_StdPeriph_Driver/src/stm32f10x_tim.c ****   */
  33:common/lib.stm32/STM32F10x_StdPeriph_Driver/src/stm32f10x_tim.c **** 
  34:common/lib.stm32/STM32F10x_StdPeriph_Driver/src/stm32f10x_tim.c **** /** @defgroup TIM_Private_TypesDefinitions
  35:common/lib.stm32/STM32F10x_StdPeriph_Driver/src/stm32f10x_tim.c ****   * @{
  36:common/lib.stm32/STM32F10x_StdPeriph_Driver/src/stm32f10x_tim.c ****   */
  37:common/lib.stm32/STM32F10x_StdPeriph_Driver/src/stm32f10x_tim.c **** 
  38:common/lib.stm32/STM32F10x_StdPeriph_Driver/src/stm32f10x_tim.c **** /**
  39:common/lib.stm32/STM32F10x_StdPeriph_Driver/src/stm32f10x_tim.c ****   * @}
  40:common/lib.stm32/STM32F10x_StdPeriph_Driver/src/stm32f10x_tim.c ****   */
  41:common/lib.stm32/STM32F10x_StdPeriph_Driver/src/stm32f10x_tim.c **** 
  42:common/lib.stm32/STM32F10x_StdPeriph_Driver/src/stm32f10x_tim.c **** /** @defgroup TIM_Private_Defines
  43:common/lib.stm32/STM32F10x_StdPeriph_Driver/src/stm32f10x_tim.c ****   * @{
  44:common/lib.stm32/STM32F10x_StdPeriph_Driver/src/stm32f10x_tim.c ****   */
  45:common/lib.stm32/STM32F10x_StdPeriph_Driver/src/stm32f10x_tim.c **** 
  46:common/lib.stm32/STM32F10x_StdPeriph_Driver/src/stm32f10x_tim.c **** /* ---------------------- TIM registers bit mask ------------------------ */
  47:common/lib.stm32/STM32F10x_StdPeriph_Driver/src/stm32f10x_tim.c **** #define CR1_CEN_Set                 ((uint16_t)0x0001)
  48:common/lib.stm32/STM32F10x_StdPeriph_Driver/src/stm32f10x_tim.c **** #define CR1_CEN_Reset               ((uint16_t)0x03FE)
  49:common/lib.stm32/STM32F10x_StdPeriph_Driver/src/stm32f10x_tim.c **** #define CR1_UDIS_Set                ((uint16_t)0x0002)
  50:common/lib.stm32/STM32F10x_StdPeriph_Driver/src/stm32f10x_tim.c **** #define CR1_UDIS_Reset              ((uint16_t)0x03FD)
  51:common/lib.stm32/STM32F10x_StdPeriph_Driver/src/stm32f10x_tim.c **** #define CR1_URS_Set                 ((uint16_t)0x0004)
  52:common/lib.stm32/STM32F10x_StdPeriph_Driver/src/stm32f10x_tim.c **** #define CR1_URS_Reset               ((uint16_t)0x03FB)
  53:common/lib.stm32/STM32F10x_StdPeriph_Driver/src/stm32f10x_tim.c **** #define CR1_OPM_Reset               ((uint16_t)0x03F7)
  54:common/lib.stm32/STM32F10x_StdPeriph_Driver/src/stm32f10x_tim.c **** #define CR1_CounterMode_Mask        ((uint16_t)0x038F)
  55:common/lib.stm32/STM32F10x_StdPeriph_Driver/src/stm32f10x_tim.c **** #define CR1_ARPE_Set                ((uint16_t)0x0080)
  56:common/lib.stm32/STM32F10x_StdPeriph_Driver/src/stm32f10x_tim.c **** #define CR1_ARPE_Reset              ((uint16_t)0x037F)
  57:common/lib.stm32/STM32F10x_StdPeriph_Driver/src/stm32f10x_tim.c **** #define CR1_CKD_Mask                ((uint16_t)0x00FF)
  58:common/lib.stm32/STM32F10x_StdPeriph_Driver/src/stm32f10x_tim.c **** #define CR2_CCPC_Set                ((uint16_t)0x0001)
  59:common/lib.stm32/STM32F10x_StdPeriph_Driver/src/stm32f10x_tim.c **** #define CR2_CCPC_Reset              ((uint16_t)0xFFFE)
  60:common/lib.stm32/STM32F10x_StdPeriph_Driver/src/stm32f10x_tim.c **** #define CR2_CCUS_Set                ((uint16_t)0x0004)
  61:common/lib.stm32/STM32F10x_StdPeriph_Driver/src/stm32f10x_tim.c **** #define CR2_CCUS_Reset              ((uint16_t)0xFFFB)
  62:common/lib.stm32/STM32F10x_StdPeriph_Driver/src/stm32f10x_tim.c **** #define CR2_CCDS_Set                ((uint16_t)0x0008)
  63:common/lib.stm32/STM32F10x_StdPeriph_Driver/src/stm32f10x_tim.c **** #define CR2_CCDS_Reset              ((uint16_t)0xFFF7)
  64:common/lib.stm32/STM32F10x_StdPeriph_Driver/src/stm32f10x_tim.c **** #define CR2_MMS_Mask                ((uint16_t)0xFF8F)
  65:common/lib.stm32/STM32F10x_StdPeriph_Driver/src/stm32f10x_tim.c **** #define CR2_TI1S_Set                ((uint16_t)0x0080)
  66:common/lib.stm32/STM32F10x_StdPeriph_Driver/src/stm32f10x_tim.c **** #define CR2_TI1S_Reset              ((uint16_t)0xFF7F)
  67:common/lib.stm32/STM32F10x_StdPeriph_Driver/src/stm32f10x_tim.c **** #define CR2_OIS1_Reset              ((uint16_t)0x7EFF)
  68:common/lib.stm32/STM32F10x_StdPeriph_Driver/src/stm32f10x_tim.c **** #define CR2_OIS1N_Reset             ((uint16_t)0x7DFF)
  69:common/lib.stm32/STM32F10x_StdPeriph_Driver/src/stm32f10x_tim.c **** #define CR2_OIS2_Reset              ((uint16_t)0x7BFF)
  70:common/lib.stm32/STM32F10x_StdPeriph_Driver/src/stm32f10x_tim.c **** #define CR2_OIS2N_Reset             ((uint16_t)0x77FF)
  71:common/lib.stm32/STM32F10x_StdPeriph_Driver/src/stm32f10x_tim.c **** #define CR2_OIS3_Reset              ((uint16_t)0x6FFF)
  72:common/lib.stm32/STM32F10x_StdPeriph_Driver/src/stm32f10x_tim.c **** #define CR2_OIS3N_Reset             ((uint16_t)0x5FFF)
  73:common/lib.stm32/STM32F10x_StdPeriph_Driver/src/stm32f10x_tim.c **** #define CR2_OIS4_Reset              ((uint16_t)0x3FFF)
  74:common/lib.stm32/STM32F10x_StdPeriph_Driver/src/stm32f10x_tim.c **** #define SMCR_SMS_Mask               ((uint16_t)0xFFF8)
  75:common/lib.stm32/STM32F10x_StdPeriph_Driver/src/stm32f10x_tim.c **** #define SMCR_ETR_Mask               ((uint16_t)0x00FF)
  76:common/lib.stm32/STM32F10x_StdPeriph_Driver/src/stm32f10x_tim.c **** #define SMCR_TS_Mask                ((uint16_t)0xFF8F)
  77:common/lib.stm32/STM32F10x_StdPeriph_Driver/src/stm32f10x_tim.c **** #define SMCR_MSM_Reset              ((uint16_t)0xFF7F)
  78:common/lib.stm32/STM32F10x_StdPeriph_Driver/src/stm32f10x_tim.c **** #define SMCR_ECE_Set                ((uint16_t)0x4000)
  79:common/lib.stm32/STM32F10x_StdPeriph_Driver/src/stm32f10x_tim.c **** #define CCMR_CC13S_Mask             ((uint16_t)0xFFFC)
  80:common/lib.stm32/STM32F10x_StdPeriph_Driver/src/stm32f10x_tim.c **** #define CCMR_CC24S_Mask             ((uint16_t)0xFCFF)
  81:common/lib.stm32/STM32F10x_StdPeriph_Driver/src/stm32f10x_tim.c **** #define CCMR_TI13Direct_Set         ((uint16_t)0x0001)
  82:common/lib.stm32/STM32F10x_StdPeriph_Driver/src/stm32f10x_tim.c **** #define CCMR_TI24Direct_Set         ((uint16_t)0x0100)
  83:common/lib.stm32/STM32F10x_StdPeriph_Driver/src/stm32f10x_tim.c **** #define CCMR_OC13FE_Reset           ((uint16_t)0xFFFB)
  84:common/lib.stm32/STM32F10x_StdPeriph_Driver/src/stm32f10x_tim.c **** #define CCMR_OC24FE_Reset           ((uint16_t)0xFBFF)
  85:common/lib.stm32/STM32F10x_StdPeriph_Driver/src/stm32f10x_tim.c **** #define CCMR_OC13PE_Reset           ((uint16_t)0xFFF7)
  86:common/lib.stm32/STM32F10x_StdPeriph_Driver/src/stm32f10x_tim.c **** #define CCMR_OC24PE_Reset           ((uint16_t)0xF7FF)
  87:common/lib.stm32/STM32F10x_StdPeriph_Driver/src/stm32f10x_tim.c **** #define CCMR_OC13M_Mask             ((uint16_t)0xFF8F)
  88:common/lib.stm32/STM32F10x_StdPeriph_Driver/src/stm32f10x_tim.c **** #define CCMR_OC24M_Mask             ((uint16_t)0x8FFF) 
  89:common/lib.stm32/STM32F10x_StdPeriph_Driver/src/stm32f10x_tim.c **** #define CCMR_OC13CE_Reset           ((uint16_t)0xFF7F)
  90:common/lib.stm32/STM32F10x_StdPeriph_Driver/src/stm32f10x_tim.c **** #define CCMR_OC24CE_Reset           ((uint16_t)0x7FFF)
  91:common/lib.stm32/STM32F10x_StdPeriph_Driver/src/stm32f10x_tim.c **** #define CCMR_IC13PSC_Mask           ((uint16_t)0xFFF3)
  92:common/lib.stm32/STM32F10x_StdPeriph_Driver/src/stm32f10x_tim.c **** #define CCMR_IC24PSC_Mask           ((uint16_t)0xF3FF)
  93:common/lib.stm32/STM32F10x_StdPeriph_Driver/src/stm32f10x_tim.c **** #define CCMR_IC13F_Mask             ((uint16_t)0xFF0F)
  94:common/lib.stm32/STM32F10x_StdPeriph_Driver/src/stm32f10x_tim.c **** #define CCMR_IC24F_Mask             ((uint16_t)0x0FFF)
  95:common/lib.stm32/STM32F10x_StdPeriph_Driver/src/stm32f10x_tim.c **** #define CCMR_Offset                 ((uint16_t)0x0018)
  96:common/lib.stm32/STM32F10x_StdPeriph_Driver/src/stm32f10x_tim.c **** #define CCER_CCE_Set                ((uint16_t)0x0001)
  97:common/lib.stm32/STM32F10x_StdPeriph_Driver/src/stm32f10x_tim.c **** #define	CCER_CCNE_Set               ((uint16_t)0x0004)
  98:common/lib.stm32/STM32F10x_StdPeriph_Driver/src/stm32f10x_tim.c **** #define CCER_CC1P_Reset             ((uint16_t)0xFFFD)
  99:common/lib.stm32/STM32F10x_StdPeriph_Driver/src/stm32f10x_tim.c **** #define CCER_CC2P_Reset             ((uint16_t)0xFFDF)
 100:common/lib.stm32/STM32F10x_StdPeriph_Driver/src/stm32f10x_tim.c **** #define CCER_CC3P_Reset             ((uint16_t)0xFDFF)
 101:common/lib.stm32/STM32F10x_StdPeriph_Driver/src/stm32f10x_tim.c **** #define CCER_CC4P_Reset             ((uint16_t)0xDFFF)
 102:common/lib.stm32/STM32F10x_StdPeriph_Driver/src/stm32f10x_tim.c **** #define CCER_CC1NP_Reset            ((uint16_t)0xFFF7)
 103:common/lib.stm32/STM32F10x_StdPeriph_Driver/src/stm32f10x_tim.c **** #define CCER_CC2NP_Reset            ((uint16_t)0xFF7F)
 104:common/lib.stm32/STM32F10x_StdPeriph_Driver/src/stm32f10x_tim.c **** #define CCER_CC3NP_Reset            ((uint16_t)0xF7FF)
 105:common/lib.stm32/STM32F10x_StdPeriph_Driver/src/stm32f10x_tim.c **** #define CCER_CC1E_Set               ((uint16_t)0x0001)
 106:common/lib.stm32/STM32F10x_StdPeriph_Driver/src/stm32f10x_tim.c **** #define CCER_CC1E_Reset             ((uint16_t)0xFFFE)
 107:common/lib.stm32/STM32F10x_StdPeriph_Driver/src/stm32f10x_tim.c **** #define CCER_CC1NE_Reset            ((uint16_t)0xFFFB)
 108:common/lib.stm32/STM32F10x_StdPeriph_Driver/src/stm32f10x_tim.c **** #define CCER_CC2E_Set               ((uint16_t)0x0010)
 109:common/lib.stm32/STM32F10x_StdPeriph_Driver/src/stm32f10x_tim.c **** #define CCER_CC2E_Reset             ((uint16_t)0xFFEF)
 110:common/lib.stm32/STM32F10x_StdPeriph_Driver/src/stm32f10x_tim.c **** #define CCER_CC2NE_Reset            ((uint16_t)0xFFBF)
 111:common/lib.stm32/STM32F10x_StdPeriph_Driver/src/stm32f10x_tim.c **** #define CCER_CC3E_Set               ((uint16_t)0x0100)
 112:common/lib.stm32/STM32F10x_StdPeriph_Driver/src/stm32f10x_tim.c **** #define CCER_CC3E_Reset             ((uint16_t)0xFEFF)
 113:common/lib.stm32/STM32F10x_StdPeriph_Driver/src/stm32f10x_tim.c **** #define CCER_CC3NE_Reset            ((uint16_t)0xFBFF)
 114:common/lib.stm32/STM32F10x_StdPeriph_Driver/src/stm32f10x_tim.c **** #define CCER_CC4E_Set               ((uint16_t)0x1000)
 115:common/lib.stm32/STM32F10x_StdPeriph_Driver/src/stm32f10x_tim.c **** #define CCER_CC4E_Reset             ((uint16_t)0xEFFF)
 116:common/lib.stm32/STM32F10x_StdPeriph_Driver/src/stm32f10x_tim.c **** #define BDTR_MOE_Set                ((uint16_t)0x8000)
 117:common/lib.stm32/STM32F10x_StdPeriph_Driver/src/stm32f10x_tim.c **** #define BDTR_MOE_Reset              ((uint16_t)0x7FFF)
 118:common/lib.stm32/STM32F10x_StdPeriph_Driver/src/stm32f10x_tim.c **** /**
 119:common/lib.stm32/STM32F10x_StdPeriph_Driver/src/stm32f10x_tim.c ****   * @}
 120:common/lib.stm32/STM32F10x_StdPeriph_Driver/src/stm32f10x_tim.c ****   */
 121:common/lib.stm32/STM32F10x_StdPeriph_Driver/src/stm32f10x_tim.c **** 
 122:common/lib.stm32/STM32F10x_StdPeriph_Driver/src/stm32f10x_tim.c **** /** @defgroup TIM_Private_Macros
 123:common/lib.stm32/STM32F10x_StdPeriph_Driver/src/stm32f10x_tim.c ****   * @{
 124:common/lib.stm32/STM32F10x_StdPeriph_Driver/src/stm32f10x_tim.c ****   */
 125:common/lib.stm32/STM32F10x_StdPeriph_Driver/src/stm32f10x_tim.c **** 
 126:common/lib.stm32/STM32F10x_StdPeriph_Driver/src/stm32f10x_tim.c **** /**
 127:common/lib.stm32/STM32F10x_StdPeriph_Driver/src/stm32f10x_tim.c ****   * @}
 128:common/lib.stm32/STM32F10x_StdPeriph_Driver/src/stm32f10x_tim.c ****   */
 129:common/lib.stm32/STM32F10x_StdPeriph_Driver/src/stm32f10x_tim.c **** 
 130:common/lib.stm32/STM32F10x_StdPeriph_Driver/src/stm32f10x_tim.c **** /** @defgroup TIM_Private_Variables
 131:common/lib.stm32/STM32F10x_StdPeriph_Driver/src/stm32f10x_tim.c ****   * @{
 132:common/lib.stm32/STM32F10x_StdPeriph_Driver/src/stm32f10x_tim.c ****   */
 133:common/lib.stm32/STM32F10x_StdPeriph_Driver/src/stm32f10x_tim.c **** 
 134:common/lib.stm32/STM32F10x_StdPeriph_Driver/src/stm32f10x_tim.c **** /**
 135:common/lib.stm32/STM32F10x_StdPeriph_Driver/src/stm32f10x_tim.c ****   * @}
 136:common/lib.stm32/STM32F10x_StdPeriph_Driver/src/stm32f10x_tim.c ****   */
 137:common/lib.stm32/STM32F10x_StdPeriph_Driver/src/stm32f10x_tim.c **** 
 138:common/lib.stm32/STM32F10x_StdPeriph_Driver/src/stm32f10x_tim.c **** /** @defgroup TIM_Private_FunctionPrototypes
 139:common/lib.stm32/STM32F10x_StdPeriph_Driver/src/stm32f10x_tim.c ****   * @{
 140:common/lib.stm32/STM32F10x_StdPeriph_Driver/src/stm32f10x_tim.c ****   */
 141:common/lib.stm32/STM32F10x_StdPeriph_Driver/src/stm32f10x_tim.c **** 
 142:common/lib.stm32/STM32F10x_StdPeriph_Driver/src/stm32f10x_tim.c **** static void TI1_Config(TIM_TypeDef* TIMx, uint16_t TIM_ICPolarity, uint16_t TIM_ICSelection,
 143:common/lib.stm32/STM32F10x_StdPeriph_Driver/src/stm32f10x_tim.c ****                        uint16_t TIM_ICFilter);
 144:common/lib.stm32/STM32F10x_StdPeriph_Driver/src/stm32f10x_tim.c **** static void TI2_Config(TIM_TypeDef* TIMx, uint16_t TIM_ICPolarity, uint16_t TIM_ICSelection,
 145:common/lib.stm32/STM32F10x_StdPeriph_Driver/src/stm32f10x_tim.c ****                        uint16_t TIM_ICFilter);
 146:common/lib.stm32/STM32F10x_StdPeriph_Driver/src/stm32f10x_tim.c **** static void TI3_Config(TIM_TypeDef* TIMx, uint16_t TIM_ICPolarity, uint16_t TIM_ICSelection,
 147:common/lib.stm32/STM32F10x_StdPeriph_Driver/src/stm32f10x_tim.c ****                        uint16_t TIM_ICFilter);
 148:common/lib.stm32/STM32F10x_StdPeriph_Driver/src/stm32f10x_tim.c **** static void TI4_Config(TIM_TypeDef* TIMx, uint16_t TIM_ICPolarity, uint16_t TIM_ICSelection,
 149:common/lib.stm32/STM32F10x_StdPeriph_Driver/src/stm32f10x_tim.c ****                        uint16_t TIM_ICFilter);
 150:common/lib.stm32/STM32F10x_StdPeriph_Driver/src/stm32f10x_tim.c **** /**
 151:common/lib.stm32/STM32F10x_StdPeriph_Driver/src/stm32f10x_tim.c ****   * @}
 152:common/lib.stm32/STM32F10x_StdPeriph_Driver/src/stm32f10x_tim.c ****   */
 153:common/lib.stm32/STM32F10x_StdPeriph_Driver/src/stm32f10x_tim.c **** 
 154:common/lib.stm32/STM32F10x_StdPeriph_Driver/src/stm32f10x_tim.c **** /** @defgroup TIM_Private_Macros
 155:common/lib.stm32/STM32F10x_StdPeriph_Driver/src/stm32f10x_tim.c ****   * @{
 156:common/lib.stm32/STM32F10x_StdPeriph_Driver/src/stm32f10x_tim.c ****   */
 157:common/lib.stm32/STM32F10x_StdPeriph_Driver/src/stm32f10x_tim.c **** 
 158:common/lib.stm32/STM32F10x_StdPeriph_Driver/src/stm32f10x_tim.c **** /**
 159:common/lib.stm32/STM32F10x_StdPeriph_Driver/src/stm32f10x_tim.c ****   * @}
 160:common/lib.stm32/STM32F10x_StdPeriph_Driver/src/stm32f10x_tim.c ****   */
 161:common/lib.stm32/STM32F10x_StdPeriph_Driver/src/stm32f10x_tim.c **** 
 162:common/lib.stm32/STM32F10x_StdPeriph_Driver/src/stm32f10x_tim.c **** /** @defgroup TIM_Private_Variables
 163:common/lib.stm32/STM32F10x_StdPeriph_Driver/src/stm32f10x_tim.c ****   * @{
 164:common/lib.stm32/STM32F10x_StdPeriph_Driver/src/stm32f10x_tim.c ****   */
 165:common/lib.stm32/STM32F10x_StdPeriph_Driver/src/stm32f10x_tim.c **** 
 166:common/lib.stm32/STM32F10x_StdPeriph_Driver/src/stm32f10x_tim.c **** /**
 167:common/lib.stm32/STM32F10x_StdPeriph_Driver/src/stm32f10x_tim.c ****   * @}
 168:common/lib.stm32/STM32F10x_StdPeriph_Driver/src/stm32f10x_tim.c ****   */
 169:common/lib.stm32/STM32F10x_StdPeriph_Driver/src/stm32f10x_tim.c **** 
 170:common/lib.stm32/STM32F10x_StdPeriph_Driver/src/stm32f10x_tim.c **** /** @defgroup TIM_Private_FunctionPrototypes
 171:common/lib.stm32/STM32F10x_StdPeriph_Driver/src/stm32f10x_tim.c ****   * @{
 172:common/lib.stm32/STM32F10x_StdPeriph_Driver/src/stm32f10x_tim.c ****   */
 173:common/lib.stm32/STM32F10x_StdPeriph_Driver/src/stm32f10x_tim.c **** 
 174:common/lib.stm32/STM32F10x_StdPeriph_Driver/src/stm32f10x_tim.c **** /**
 175:common/lib.stm32/STM32F10x_StdPeriph_Driver/src/stm32f10x_tim.c ****   * @}
 176:common/lib.stm32/STM32F10x_StdPeriph_Driver/src/stm32f10x_tim.c ****   */
 177:common/lib.stm32/STM32F10x_StdPeriph_Driver/src/stm32f10x_tim.c **** 
 178:common/lib.stm32/STM32F10x_StdPeriph_Driver/src/stm32f10x_tim.c **** /** @defgroup TIM_Private_Functions
 179:common/lib.stm32/STM32F10x_StdPeriph_Driver/src/stm32f10x_tim.c ****   * @{
 180:common/lib.stm32/STM32F10x_StdPeriph_Driver/src/stm32f10x_tim.c ****   */
 181:common/lib.stm32/STM32F10x_StdPeriph_Driver/src/stm32f10x_tim.c **** 
 182:common/lib.stm32/STM32F10x_StdPeriph_Driver/src/stm32f10x_tim.c **** /**
 183:common/lib.stm32/STM32F10x_StdPeriph_Driver/src/stm32f10x_tim.c ****   * @brief  Deinitializes the TIMx peripheral registers to their default reset values.
 184:common/lib.stm32/STM32F10x_StdPeriph_Driver/src/stm32f10x_tim.c ****   * @param  TIMx: where x can be 1 to 8 to select the TIM peripheral.
 185:common/lib.stm32/STM32F10x_StdPeriph_Driver/src/stm32f10x_tim.c ****   * @retval None
 186:common/lib.stm32/STM32F10x_StdPeriph_Driver/src/stm32f10x_tim.c ****   */
 187:common/lib.stm32/STM32F10x_StdPeriph_Driver/src/stm32f10x_tim.c **** void TIM_DeInit(TIM_TypeDef* TIMx)
 188:common/lib.stm32/STM32F10x_StdPeriph_Driver/src/stm32f10x_tim.c **** {
  27              		.loc 1 188 1
  28              		.cfi_startproc
  29              		@ args = 0, pretend = 0, frame = 8
  30              		@ frame_needed = 1, uses_anonymous_args = 0
  31 0000 80B5     		push	{r7, lr}
  32              	.LCFI0:
  33              		.cfi_def_cfa_offset 8
  34              		.cfi_offset 7, -8
  35              		.cfi_offset 14, -4
  36 0002 82B0     		sub	sp, sp, #8
  37              	.LCFI1:
  38              		.cfi_def_cfa_offset 16
  39 0004 00AF     		add	r7, sp, #0
  40              	.LCFI2:
  41              		.cfi_def_cfa_register 7
  42 0006 7860     		str	r0, [r7, #4]
 189:common/lib.stm32/STM32F10x_StdPeriph_Driver/src/stm32f10x_tim.c ****   /* Check the parameters */
 190:common/lib.stm32/STM32F10x_StdPeriph_Driver/src/stm32f10x_tim.c ****   assert_param(IS_TIM_ALL_PERIPH(TIMx)); 
 191:common/lib.stm32/STM32F10x_StdPeriph_Driver/src/stm32f10x_tim.c ****  
 192:common/lib.stm32/STM32F10x_StdPeriph_Driver/src/stm32f10x_tim.c ****   if (TIMx == TIM1)
  43              		.loc 1 192 6
  44 0008 7B68     		ldr	r3, [r7, #4]
  45 000a 374A     		ldr	r2, .L11
  46 000c 9342     		cmp	r3, r2
  47 000e 0AD1     		bne	.L2
 193:common/lib.stm32/STM32F10x_StdPeriph_Driver/src/stm32f10x_tim.c ****   {
 194:common/lib.stm32/STM32F10x_StdPeriph_Driver/src/stm32f10x_tim.c ****     RCC_APB2PeriphResetCmd(RCC_APB2Periph_TIM1, ENABLE);
  48              		.loc 1 194 5
  49 0010 0121     		movs	r1, #1
  50 0012 4FF40060 		mov	r0, #2048
  51 0016 354B     		ldr	r3, .L11+4
  52 0018 9847     		blx	r3
  53              	.LVL0:
 195:common/lib.stm32/STM32F10x_StdPeriph_Driver/src/stm32f10x_tim.c ****     RCC_APB2PeriphResetCmd(RCC_APB2Periph_TIM1, DISABLE);  
  54              		.loc 1 195 5
  55 001a 0021     		movs	r1, #0
  56 001c 4FF40060 		mov	r0, #2048
  57 0020 324B     		ldr	r3, .L11+4
  58 0022 9847     		blx	r3
  59              	.LVL1:
 196:common/lib.stm32/STM32F10x_StdPeriph_Driver/src/stm32f10x_tim.c ****   }     
 197:common/lib.stm32/STM32F10x_StdPeriph_Driver/src/stm32f10x_tim.c ****   else if (TIMx == TIM2)
 198:common/lib.stm32/STM32F10x_StdPeriph_Driver/src/stm32f10x_tim.c ****   {
 199:common/lib.stm32/STM32F10x_StdPeriph_Driver/src/stm32f10x_tim.c ****     RCC_APB1PeriphResetCmd(RCC_APB1Periph_TIM2, ENABLE);
 200:common/lib.stm32/STM32F10x_StdPeriph_Driver/src/stm32f10x_tim.c ****     RCC_APB1PeriphResetCmd(RCC_APB1Periph_TIM2, DISABLE);
 201:common/lib.stm32/STM32F10x_StdPeriph_Driver/src/stm32f10x_tim.c ****   }
 202:common/lib.stm32/STM32F10x_StdPeriph_Driver/src/stm32f10x_tim.c ****   else if (TIMx == TIM3)
 203:common/lib.stm32/STM32F10x_StdPeriph_Driver/src/stm32f10x_tim.c ****   {
 204:common/lib.stm32/STM32F10x_StdPeriph_Driver/src/stm32f10x_tim.c ****     RCC_APB1PeriphResetCmd(RCC_APB1Periph_TIM3, ENABLE);
 205:common/lib.stm32/STM32F10x_StdPeriph_Driver/src/stm32f10x_tim.c ****     RCC_APB1PeriphResetCmd(RCC_APB1Periph_TIM3, DISABLE);
 206:common/lib.stm32/STM32F10x_StdPeriph_Driver/src/stm32f10x_tim.c ****   }
 207:common/lib.stm32/STM32F10x_StdPeriph_Driver/src/stm32f10x_tim.c ****   else if (TIMx == TIM4)
 208:common/lib.stm32/STM32F10x_StdPeriph_Driver/src/stm32f10x_tim.c ****   {
 209:common/lib.stm32/STM32F10x_StdPeriph_Driver/src/stm32f10x_tim.c ****     RCC_APB1PeriphResetCmd(RCC_APB1Periph_TIM4, ENABLE);
 210:common/lib.stm32/STM32F10x_StdPeriph_Driver/src/stm32f10x_tim.c ****     RCC_APB1PeriphResetCmd(RCC_APB1Periph_TIM4, DISABLE);
 211:common/lib.stm32/STM32F10x_StdPeriph_Driver/src/stm32f10x_tim.c ****   } 
 212:common/lib.stm32/STM32F10x_StdPeriph_Driver/src/stm32f10x_tim.c ****   else if (TIMx == TIM5)
 213:common/lib.stm32/STM32F10x_StdPeriph_Driver/src/stm32f10x_tim.c ****   {
 214:common/lib.stm32/STM32F10x_StdPeriph_Driver/src/stm32f10x_tim.c ****     RCC_APB1PeriphResetCmd(RCC_APB1Periph_TIM5, ENABLE);
 215:common/lib.stm32/STM32F10x_StdPeriph_Driver/src/stm32f10x_tim.c ****     RCC_APB1PeriphResetCmd(RCC_APB1Periph_TIM5, DISABLE);
 216:common/lib.stm32/STM32F10x_StdPeriph_Driver/src/stm32f10x_tim.c ****   } 
 217:common/lib.stm32/STM32F10x_StdPeriph_Driver/src/stm32f10x_tim.c ****   else if (TIMx == TIM6)
 218:common/lib.stm32/STM32F10x_StdPeriph_Driver/src/stm32f10x_tim.c ****   {
 219:common/lib.stm32/STM32F10x_StdPeriph_Driver/src/stm32f10x_tim.c ****     RCC_APB1PeriphResetCmd(RCC_APB1Periph_TIM6, ENABLE);
 220:common/lib.stm32/STM32F10x_StdPeriph_Driver/src/stm32f10x_tim.c ****     RCC_APB1PeriphResetCmd(RCC_APB1Periph_TIM6, DISABLE);
 221:common/lib.stm32/STM32F10x_StdPeriph_Driver/src/stm32f10x_tim.c ****   } 
 222:common/lib.stm32/STM32F10x_StdPeriph_Driver/src/stm32f10x_tim.c ****   else if (TIMx == TIM7)
 223:common/lib.stm32/STM32F10x_StdPeriph_Driver/src/stm32f10x_tim.c ****   {
 224:common/lib.stm32/STM32F10x_StdPeriph_Driver/src/stm32f10x_tim.c ****     RCC_APB1PeriphResetCmd(RCC_APB1Periph_TIM7, ENABLE);
 225:common/lib.stm32/STM32F10x_StdPeriph_Driver/src/stm32f10x_tim.c ****     RCC_APB1PeriphResetCmd(RCC_APB1Periph_TIM7, DISABLE);
 226:common/lib.stm32/STM32F10x_StdPeriph_Driver/src/stm32f10x_tim.c ****   } 
 227:common/lib.stm32/STM32F10x_StdPeriph_Driver/src/stm32f10x_tim.c ****   else
 228:common/lib.stm32/STM32F10x_StdPeriph_Driver/src/stm32f10x_tim.c ****   {
 229:common/lib.stm32/STM32F10x_StdPeriph_Driver/src/stm32f10x_tim.c ****     if (TIMx == TIM8)
 230:common/lib.stm32/STM32F10x_StdPeriph_Driver/src/stm32f10x_tim.c ****     {
 231:common/lib.stm32/STM32F10x_StdPeriph_Driver/src/stm32f10x_tim.c ****       RCC_APB2PeriphResetCmd(RCC_APB2Periph_TIM8, ENABLE);
 232:common/lib.stm32/STM32F10x_StdPeriph_Driver/src/stm32f10x_tim.c ****       RCC_APB2PeriphResetCmd(RCC_APB2Periph_TIM8, DISABLE);
 233:common/lib.stm32/STM32F10x_StdPeriph_Driver/src/stm32f10x_tim.c ****     }  
 234:common/lib.stm32/STM32F10x_StdPeriph_Driver/src/stm32f10x_tim.c ****   }
 235:common/lib.stm32/STM32F10x_StdPeriph_Driver/src/stm32f10x_tim.c **** }
  60              		.loc 1 235 1
  61 0024 5BE0     		b	.L10
  62              	.L2:
 197:common/lib.stm32/STM32F10x_StdPeriph_Driver/src/stm32f10x_tim.c ****   {
  63              		.loc 1 197 11
  64 0026 7B68     		ldr	r3, [r7, #4]
  65 0028 B3F1804F 		cmp	r3, #1073741824
  66 002c 08D1     		bne	.L4
 199:common/lib.stm32/STM32F10x_StdPeriph_Driver/src/stm32f10x_tim.c ****     RCC_APB1PeriphResetCmd(RCC_APB1Periph_TIM2, DISABLE);
  67              		.loc 1 199 5
  68 002e 0121     		movs	r1, #1
  69 0030 0120     		movs	r0, #1
  70 0032 2F4B     		ldr	r3, .L11+8
  71 0034 9847     		blx	r3
  72              	.LVL2:
 200:common/lib.stm32/STM32F10x_StdPeriph_Driver/src/stm32f10x_tim.c ****   }
  73              		.loc 1 200 5
  74 0036 0021     		movs	r1, #0
  75 0038 0120     		movs	r0, #1
  76 003a 2D4B     		ldr	r3, .L11+8
  77 003c 9847     		blx	r3
  78              	.LVL3:
  79              		.loc 1 235 1
  80 003e 4EE0     		b	.L10
  81              	.L4:
 202:common/lib.stm32/STM32F10x_StdPeriph_Driver/src/stm32f10x_tim.c ****   {
  82              		.loc 1 202 11
  83 0040 7B68     		ldr	r3, [r7, #4]
  84 0042 2C4A     		ldr	r2, .L11+12
  85 0044 9342     		cmp	r3, r2
  86 0046 08D1     		bne	.L5
 204:common/lib.stm32/STM32F10x_StdPeriph_Driver/src/stm32f10x_tim.c ****     RCC_APB1PeriphResetCmd(RCC_APB1Periph_TIM3, DISABLE);
  87              		.loc 1 204 5
  88 0048 0121     		movs	r1, #1
  89 004a 0220     		movs	r0, #2
  90 004c 284B     		ldr	r3, .L11+8
  91 004e 9847     		blx	r3
  92              	.LVL4:
 205:common/lib.stm32/STM32F10x_StdPeriph_Driver/src/stm32f10x_tim.c ****   }
  93              		.loc 1 205 5
  94 0050 0021     		movs	r1, #0
  95 0052 0220     		movs	r0, #2
  96 0054 264B     		ldr	r3, .L11+8
  97 0056 9847     		blx	r3
  98              	.LVL5:
  99              		.loc 1 235 1
 100 0058 41E0     		b	.L10
 101              	.L5:
 207:common/lib.stm32/STM32F10x_StdPeriph_Driver/src/stm32f10x_tim.c ****   {
 102              		.loc 1 207 11
 103 005a 7B68     		ldr	r3, [r7, #4]
 104 005c 264A     		ldr	r2, .L11+16
 105 005e 9342     		cmp	r3, r2
 106 0060 08D1     		bne	.L6
 209:common/lib.stm32/STM32F10x_StdPeriph_Driver/src/stm32f10x_tim.c ****     RCC_APB1PeriphResetCmd(RCC_APB1Periph_TIM4, DISABLE);
 107              		.loc 1 209 5
 108 0062 0121     		movs	r1, #1
 109 0064 0420     		movs	r0, #4
 110 0066 224B     		ldr	r3, .L11+8
 111 0068 9847     		blx	r3
 112              	.LVL6:
 210:common/lib.stm32/STM32F10x_StdPeriph_Driver/src/stm32f10x_tim.c ****   } 
 113              		.loc 1 210 5
 114 006a 0021     		movs	r1, #0
 115 006c 0420     		movs	r0, #4
 116 006e 204B     		ldr	r3, .L11+8
 117 0070 9847     		blx	r3
 118              	.LVL7:
 119              		.loc 1 235 1
 120 0072 34E0     		b	.L10
 121              	.L6:
 212:common/lib.stm32/STM32F10x_StdPeriph_Driver/src/stm32f10x_tim.c ****   {
 122              		.loc 1 212 11
 123 0074 7B68     		ldr	r3, [r7, #4]
 124 0076 214A     		ldr	r2, .L11+20
 125 0078 9342     		cmp	r3, r2
 126 007a 08D1     		bne	.L7
 214:common/lib.stm32/STM32F10x_StdPeriph_Driver/src/stm32f10x_tim.c ****     RCC_APB1PeriphResetCmd(RCC_APB1Periph_TIM5, DISABLE);
 127              		.loc 1 214 5
 128 007c 0121     		movs	r1, #1
 129 007e 0820     		movs	r0, #8
 130 0080 1B4B     		ldr	r3, .L11+8
 131 0082 9847     		blx	r3
 132              	.LVL8:
 215:common/lib.stm32/STM32F10x_StdPeriph_Driver/src/stm32f10x_tim.c ****   } 
 133              		.loc 1 215 5
 134 0084 0021     		movs	r1, #0
 135 0086 0820     		movs	r0, #8
 136 0088 194B     		ldr	r3, .L11+8
 137 008a 9847     		blx	r3
 138              	.LVL9:
 139              		.loc 1 235 1
 140 008c 27E0     		b	.L10
 141              	.L7:
 217:common/lib.stm32/STM32F10x_StdPeriph_Driver/src/stm32f10x_tim.c ****   {
 142              		.loc 1 217 11
 143 008e 7B68     		ldr	r3, [r7, #4]
 144 0090 1B4A     		ldr	r2, .L11+24
 145 0092 9342     		cmp	r3, r2
 146 0094 08D1     		bne	.L8
 219:common/lib.stm32/STM32F10x_StdPeriph_Driver/src/stm32f10x_tim.c ****     RCC_APB1PeriphResetCmd(RCC_APB1Periph_TIM6, DISABLE);
 147              		.loc 1 219 5
 148 0096 0121     		movs	r1, #1
 149 0098 1020     		movs	r0, #16
 150 009a 154B     		ldr	r3, .L11+8
 151 009c 9847     		blx	r3
 152              	.LVL10:
 220:common/lib.stm32/STM32F10x_StdPeriph_Driver/src/stm32f10x_tim.c ****   } 
 153              		.loc 1 220 5
 154 009e 0021     		movs	r1, #0
 155 00a0 1020     		movs	r0, #16
 156 00a2 134B     		ldr	r3, .L11+8
 157 00a4 9847     		blx	r3
 158              	.LVL11:
 159              		.loc 1 235 1
 160 00a6 1AE0     		b	.L10
 161              	.L8:
 222:common/lib.stm32/STM32F10x_StdPeriph_Driver/src/stm32f10x_tim.c ****   {
 162              		.loc 1 222 11
 163 00a8 7B68     		ldr	r3, [r7, #4]
 164 00aa 164A     		ldr	r2, .L11+28
 165 00ac 9342     		cmp	r3, r2
 166 00ae 08D1     		bne	.L9
 224:common/lib.stm32/STM32F10x_StdPeriph_Driver/src/stm32f10x_tim.c ****     RCC_APB1PeriphResetCmd(RCC_APB1Periph_TIM7, DISABLE);
 167              		.loc 1 224 5
 168 00b0 0121     		movs	r1, #1
 169 00b2 2020     		movs	r0, #32
 170 00b4 0E4B     		ldr	r3, .L11+8
 171 00b6 9847     		blx	r3
 172              	.LVL12:
 225:common/lib.stm32/STM32F10x_StdPeriph_Driver/src/stm32f10x_tim.c ****   } 
 173              		.loc 1 225 5
 174 00b8 0021     		movs	r1, #0
 175 00ba 2020     		movs	r0, #32
 176 00bc 0C4B     		ldr	r3, .L11+8
 177 00be 9847     		blx	r3
 178              	.LVL13:
 179              		.loc 1 235 1
 180 00c0 0DE0     		b	.L10
 181              	.L9:
 229:common/lib.stm32/STM32F10x_StdPeriph_Driver/src/stm32f10x_tim.c ****     {
 182              		.loc 1 229 8
 183 00c2 7B68     		ldr	r3, [r7, #4]
 184 00c4 104A     		ldr	r2, .L11+32
 185 00c6 9342     		cmp	r3, r2
 186 00c8 09D1     		bne	.L10
 231:common/lib.stm32/STM32F10x_StdPeriph_Driver/src/stm32f10x_tim.c ****       RCC_APB2PeriphResetCmd(RCC_APB2Periph_TIM8, DISABLE);
 187              		.loc 1 231 7
 188 00ca 0121     		movs	r1, #1
 189 00cc 4FF40050 		mov	r0, #8192
 190 00d0 064B     		ldr	r3, .L11+4
 191 00d2 9847     		blx	r3
 192              	.LVL14:
 232:common/lib.stm32/STM32F10x_StdPeriph_Driver/src/stm32f10x_tim.c ****     }  
 193              		.loc 1 232 7
 194 00d4 0021     		movs	r1, #0
 195 00d6 4FF40050 		mov	r0, #8192
 196 00da 044B     		ldr	r3, .L11+4
 197 00dc 9847     		blx	r3
 198              	.LVL15:
 199              	.L10:
 200              		.loc 1 235 1
 201 00de 00BF     		nop
 202 00e0 0837     		adds	r7, r7, #8
 203              	.LCFI3:
 204              		.cfi_def_cfa_offset 8
 205 00e2 BD46     		mov	sp, r7
 206              	.LCFI4:
 207              		.cfi_def_cfa_register 13
 208              		@ sp needed
 209 00e4 80BD     		pop	{r7, pc}
 210              	.L12:
 211 00e6 00BF     		.align	2
 212              	.L11:
 213 00e8 002C0140 		.word	1073818624
 214 00ec 00000000 		.word	RCC_APB2PeriphResetCmd
 215 00f0 00000000 		.word	RCC_APB1PeriphResetCmd
 216 00f4 00040040 		.word	1073742848
 217 00f8 00080040 		.word	1073743872
 218 00fc 000C0040 		.word	1073744896
 219 0100 00100040 		.word	1073745920
 220 0104 00140040 		.word	1073746944
 221 0108 00340140 		.word	1073820672
 222              		.cfi_endproc
 223              	.LFE27:
 225              		.section	.text.TIM_TimeBaseInit,"ax",%progbits
 226              		.align	1
 227              		.global	TIM_TimeBaseInit
 228              		.syntax unified
 229              		.thumb
 230              		.thumb_func
 232              	TIM_TimeBaseInit:
 233              	.LFB28:
 236:common/lib.stm32/STM32F10x_StdPeriph_Driver/src/stm32f10x_tim.c **** 
 237:common/lib.stm32/STM32F10x_StdPeriph_Driver/src/stm32f10x_tim.c **** /**
 238:common/lib.stm32/STM32F10x_StdPeriph_Driver/src/stm32f10x_tim.c ****   * @brief  Initializes the TIMx Time Base Unit peripheral according to 
 239:common/lib.stm32/STM32F10x_StdPeriph_Driver/src/stm32f10x_tim.c ****   *   the specified parameters in the TIM_TimeBaseInitStruct.
 240:common/lib.stm32/STM32F10x_StdPeriph_Driver/src/stm32f10x_tim.c ****   * @param  TIMx: where x can be 1, 2, 3, 4, 5 or 8 to select the TIM peripheral.
 241:common/lib.stm32/STM32F10x_StdPeriph_Driver/src/stm32f10x_tim.c ****   * @param  TIM_TimeBaseInitStruct: pointer to a TIM_TimeBaseInitTypeDef
 242:common/lib.stm32/STM32F10x_StdPeriph_Driver/src/stm32f10x_tim.c ****   *   structure that contains the configuration information for the specified TIM peripheral.
 243:common/lib.stm32/STM32F10x_StdPeriph_Driver/src/stm32f10x_tim.c ****   * @retval None
 244:common/lib.stm32/STM32F10x_StdPeriph_Driver/src/stm32f10x_tim.c ****   */
 245:common/lib.stm32/STM32F10x_StdPeriph_Driver/src/stm32f10x_tim.c **** void TIM_TimeBaseInit(TIM_TypeDef* TIMx, TIM_TimeBaseInitTypeDef* TIM_TimeBaseInitStruct)
 246:common/lib.stm32/STM32F10x_StdPeriph_Driver/src/stm32f10x_tim.c **** {
 234              		.loc 1 246 1
 235              		.cfi_startproc
 236              		@ args = 0, pretend = 0, frame = 8
 237              		@ frame_needed = 1, uses_anonymous_args = 0
 238              		@ link register save eliminated.
 239 0000 80B4     		push	{r7}
 240              	.LCFI5:
 241              		.cfi_def_cfa_offset 4
 242              		.cfi_offset 7, -4
 243 0002 83B0     		sub	sp, sp, #12
 244              	.LCFI6:
 245              		.cfi_def_cfa_offset 16
 246 0004 00AF     		add	r7, sp, #0
 247              	.LCFI7:
 248              		.cfi_def_cfa_register 7
 249 0006 7860     		str	r0, [r7, #4]
 250 0008 3960     		str	r1, [r7]
 247:common/lib.stm32/STM32F10x_StdPeriph_Driver/src/stm32f10x_tim.c ****   /* Check the parameters */
 248:common/lib.stm32/STM32F10x_StdPeriph_Driver/src/stm32f10x_tim.c ****   assert_param(IS_TIM_123458_PERIPH(TIMx)); 
 249:common/lib.stm32/STM32F10x_StdPeriph_Driver/src/stm32f10x_tim.c ****   assert_param(IS_TIM_COUNTER_MODE(TIM_TimeBaseInitStruct->TIM_CounterMode));
 250:common/lib.stm32/STM32F10x_StdPeriph_Driver/src/stm32f10x_tim.c ****   assert_param(IS_TIM_CKD_DIV(TIM_TimeBaseInitStruct->TIM_ClockDivision));
 251:common/lib.stm32/STM32F10x_StdPeriph_Driver/src/stm32f10x_tim.c ****   /* Select the Counter Mode and set the clock division */
 252:common/lib.stm32/STM32F10x_StdPeriph_Driver/src/stm32f10x_tim.c ****   TIMx->CR1 &= CR1_CKD_Mask & CR1_CounterMode_Mask;
 251              		.loc 1 252 13
 252 000a 7B68     		ldr	r3, [r7, #4]
 253 000c 1B88     		ldrh	r3, [r3]	@ movhi
 254 000e 9BB2     		uxth	r3, r3
 255 0010 03F08F03 		and	r3, r3, #143
 256 0014 9AB2     		uxth	r2, r3
 257 0016 7B68     		ldr	r3, [r7, #4]
 258 0018 1A80     		strh	r2, [r3]	@ movhi
 253:common/lib.stm32/STM32F10x_StdPeriph_Driver/src/stm32f10x_tim.c ****   TIMx->CR1 |= (uint32_t)TIM_TimeBaseInitStruct->TIM_ClockDivision |
 259              		.loc 1 253 13
 260 001a 7B68     		ldr	r3, [r7, #4]
 261 001c 1B88     		ldrh	r3, [r3]	@ movhi
 262 001e 9AB2     		uxth	r2, r3
 263              		.loc 1 253 48
 264 0020 3B68     		ldr	r3, [r7]
 265 0022 D988     		ldrh	r1, [r3, #6]
 254:common/lib.stm32/STM32F10x_StdPeriph_Driver/src/stm32f10x_tim.c ****                 TIM_TimeBaseInitStruct->TIM_CounterMode;
 266              		.loc 1 254 39
 267 0024 3B68     		ldr	r3, [r7]
 268 0026 5B88     		ldrh	r3, [r3, #2]
 253:common/lib.stm32/STM32F10x_StdPeriph_Driver/src/stm32f10x_tim.c ****   TIMx->CR1 |= (uint32_t)TIM_TimeBaseInitStruct->TIM_ClockDivision |
 269              		.loc 1 253 13
 270 0028 0B43     		orrs	r3, r3, r1
 271 002a 9BB2     		uxth	r3, r3
 272 002c 1343     		orrs	r3, r3, r2
 273 002e 9AB2     		uxth	r2, r3
 274 0030 7B68     		ldr	r3, [r7, #4]
 275 0032 1A80     		strh	r2, [r3]	@ movhi
 255:common/lib.stm32/STM32F10x_StdPeriph_Driver/src/stm32f10x_tim.c ****   
 256:common/lib.stm32/STM32F10x_StdPeriph_Driver/src/stm32f10x_tim.c ****   /* Set the Autoreload value */
 257:common/lib.stm32/STM32F10x_StdPeriph_Driver/src/stm32f10x_tim.c ****   TIMx->ARR = TIM_TimeBaseInitStruct->TIM_Period ;
 276              		.loc 1 257 37
 277 0034 3B68     		ldr	r3, [r7]
 278 0036 9A88     		ldrh	r2, [r3, #4]
 279              		.loc 1 257 13
 280 0038 7B68     		ldr	r3, [r7, #4]
 281 003a 9A85     		strh	r2, [r3, #44]	@ movhi
 258:common/lib.stm32/STM32F10x_StdPeriph_Driver/src/stm32f10x_tim.c ****  
 259:common/lib.stm32/STM32F10x_StdPeriph_Driver/src/stm32f10x_tim.c ****   /* Set the Prescaler value */
 260:common/lib.stm32/STM32F10x_StdPeriph_Driver/src/stm32f10x_tim.c ****   TIMx->PSC = TIM_TimeBaseInitStruct->TIM_Prescaler;
 282              		.loc 1 260 37
 283 003c 3B68     		ldr	r3, [r7]
 284 003e 1A88     		ldrh	r2, [r3]
 285              		.loc 1 260 13
 286 0040 7B68     		ldr	r3, [r7, #4]
 287 0042 1A85     		strh	r2, [r3, #40]	@ movhi
 261:common/lib.stm32/STM32F10x_StdPeriph_Driver/src/stm32f10x_tim.c ****     
 262:common/lib.stm32/STM32F10x_StdPeriph_Driver/src/stm32f10x_tim.c ****   if ((((uint32_t) TIMx) == TIM1_BASE) || (((uint32_t) TIMx) == TIM8_BASE))  
 288              		.loc 1 262 6
 289 0044 7B68     		ldr	r3, [r7, #4]
 290 0046 0A4A     		ldr	r2, .L16
 291 0048 9342     		cmp	r3, r2
 292 004a 03D0     		beq	.L14
 293              		.loc 1 262 40 discriminator 1
 294 004c 7B68     		ldr	r3, [r7, #4]
 295 004e 094A     		ldr	r2, .L16+4
 296 0050 9342     		cmp	r3, r2
 297 0052 04D1     		bne	.L15
 298              	.L14:
 263:common/lib.stm32/STM32F10x_StdPeriph_Driver/src/stm32f10x_tim.c ****   {
 264:common/lib.stm32/STM32F10x_StdPeriph_Driver/src/stm32f10x_tim.c ****     /* Set the Repetition Counter value */
 265:common/lib.stm32/STM32F10x_StdPeriph_Driver/src/stm32f10x_tim.c ****     TIMx->RCR = TIM_TimeBaseInitStruct->TIM_RepetitionCounter;
 299              		.loc 1 265 39
 300 0054 3B68     		ldr	r3, [r7]
 301 0056 1B7A     		ldrb	r3, [r3, #8]	@ zero_extendqisi2
 302 0058 9AB2     		uxth	r2, r3
 303              		.loc 1 265 15
 304 005a 7B68     		ldr	r3, [r7, #4]
 305 005c 1A86     		strh	r2, [r3, #48]	@ movhi
 306              	.L15:
 266:common/lib.stm32/STM32F10x_StdPeriph_Driver/src/stm32f10x_tim.c ****   }
 267:common/lib.stm32/STM32F10x_StdPeriph_Driver/src/stm32f10x_tim.c **** 
 268:common/lib.stm32/STM32F10x_StdPeriph_Driver/src/stm32f10x_tim.c ****   /* Generate an update event to reload the Prescaler value immediatly */
 269:common/lib.stm32/STM32F10x_StdPeriph_Driver/src/stm32f10x_tim.c ****   TIMx->EGR = TIM_PSCReloadMode_Immediate;          
 307              		.loc 1 269 13
 308 005e 7B68     		ldr	r3, [r7, #4]
 309 0060 0122     		movs	r2, #1
 310 0062 9A82     		strh	r2, [r3, #20]	@ movhi
 270:common/lib.stm32/STM32F10x_StdPeriph_Driver/src/stm32f10x_tim.c **** }
 311              		.loc 1 270 1
 312 0064 00BF     		nop
 313 0066 0C37     		adds	r7, r7, #12
 314              	.LCFI8:
 315              		.cfi_def_cfa_offset 4
 316 0068 BD46     		mov	sp, r7
 317              	.LCFI9:
 318              		.cfi_def_cfa_register 13
 319              		@ sp needed
 320 006a 80BC     		pop	{r7}
 321              	.LCFI10:
 322              		.cfi_restore 7
 323              		.cfi_def_cfa_offset 0
 324 006c 7047     		bx	lr
 325              	.L17:
 326 006e 00BF     		.align	2
 327              	.L16:
 328 0070 002C0140 		.word	1073818624
 329 0074 00340140 		.word	1073820672
 330              		.cfi_endproc
 331              	.LFE28:
 333              		.section	.text.TIM_OC1Init,"ax",%progbits
 334              		.align	1
 335              		.global	TIM_OC1Init
 336              		.syntax unified
 337              		.thumb
 338              		.thumb_func
 340              	TIM_OC1Init:
 341              	.LFB29:
 271:common/lib.stm32/STM32F10x_StdPeriph_Driver/src/stm32f10x_tim.c **** 
 272:common/lib.stm32/STM32F10x_StdPeriph_Driver/src/stm32f10x_tim.c **** /**
 273:common/lib.stm32/STM32F10x_StdPeriph_Driver/src/stm32f10x_tim.c ****   * @brief  Initializes the TIMx Channel1 according to the specified
 274:common/lib.stm32/STM32F10x_StdPeriph_Driver/src/stm32f10x_tim.c ****   *   parameters in the TIM_OCInitStruct.
 275:common/lib.stm32/STM32F10x_StdPeriph_Driver/src/stm32f10x_tim.c ****   * @param  TIMx: where x can be  1, 2, 3, 4, 5 or 8 to select the TIM peripheral.
 276:common/lib.stm32/STM32F10x_StdPeriph_Driver/src/stm32f10x_tim.c ****   * @param  TIM_OCInitStruct: pointer to a TIM_OCInitTypeDef structure
 277:common/lib.stm32/STM32F10x_StdPeriph_Driver/src/stm32f10x_tim.c ****   *   that contains the configuration information for the specified TIM peripheral.
 278:common/lib.stm32/STM32F10x_StdPeriph_Driver/src/stm32f10x_tim.c ****   * @retval None
 279:common/lib.stm32/STM32F10x_StdPeriph_Driver/src/stm32f10x_tim.c ****   */
 280:common/lib.stm32/STM32F10x_StdPeriph_Driver/src/stm32f10x_tim.c **** void TIM_OC1Init(TIM_TypeDef* TIMx, TIM_OCInitTypeDef* TIM_OCInitStruct)
 281:common/lib.stm32/STM32F10x_StdPeriph_Driver/src/stm32f10x_tim.c **** {
 342              		.loc 1 281 1
 343              		.cfi_startproc
 344              		@ args = 0, pretend = 0, frame = 16
 345              		@ frame_needed = 1, uses_anonymous_args = 0
 346              		@ link register save eliminated.
 347 0000 80B4     		push	{r7}
 348              	.LCFI11:
 349              		.cfi_def_cfa_offset 4
 350              		.cfi_offset 7, -4
 351 0002 85B0     		sub	sp, sp, #20
 352              	.LCFI12:
 353              		.cfi_def_cfa_offset 24
 354 0004 00AF     		add	r7, sp, #0
 355              	.LCFI13:
 356              		.cfi_def_cfa_register 7
 357 0006 7860     		str	r0, [r7, #4]
 358 0008 3960     		str	r1, [r7]
 282:common/lib.stm32/STM32F10x_StdPeriph_Driver/src/stm32f10x_tim.c ****   uint16_t tmpccmrx = 0, tmpccer = 0, tmpcr2 = 0;
 359              		.loc 1 282 12
 360 000a 0023     		movs	r3, #0
 361 000c 7B81     		strh	r3, [r7, #10]	@ movhi
 362              		.loc 1 282 26
 363 000e 0023     		movs	r3, #0
 364 0010 FB81     		strh	r3, [r7, #14]	@ movhi
 365              		.loc 1 282 39
 366 0012 0023     		movs	r3, #0
 367 0014 BB81     		strh	r3, [r7, #12]	@ movhi
 283:common/lib.stm32/STM32F10x_StdPeriph_Driver/src/stm32f10x_tim.c ****    
 284:common/lib.stm32/STM32F10x_StdPeriph_Driver/src/stm32f10x_tim.c ****   /* Check the parameters */
 285:common/lib.stm32/STM32F10x_StdPeriph_Driver/src/stm32f10x_tim.c ****   assert_param(IS_TIM_123458_PERIPH(TIMx)); 
 286:common/lib.stm32/STM32F10x_StdPeriph_Driver/src/stm32f10x_tim.c ****   assert_param(IS_TIM_OC_MODE(TIM_OCInitStruct->TIM_OCMode));
 287:common/lib.stm32/STM32F10x_StdPeriph_Driver/src/stm32f10x_tim.c ****   assert_param(IS_TIM_OUTPUT_STATE(TIM_OCInitStruct->TIM_OutputState));
 288:common/lib.stm32/STM32F10x_StdPeriph_Driver/src/stm32f10x_tim.c ****   assert_param(IS_TIM_OC_POLARITY(TIM_OCInitStruct->TIM_OCPolarity));   
 289:common/lib.stm32/STM32F10x_StdPeriph_Driver/src/stm32f10x_tim.c ****   /* Disable the Channel 1: Reset the CC1E Bit */
 290:common/lib.stm32/STM32F10x_StdPeriph_Driver/src/stm32f10x_tim.c ****   TIMx->CCER &= CCER_CC1E_Reset;
 368              		.loc 1 290 14
 369 0016 7B68     		ldr	r3, [r7, #4]
 370 0018 1B8C     		ldrh	r3, [r3, #32]	@ movhi
 371 001a 9BB2     		uxth	r3, r3
 372 001c 23F00103 		bic	r3, r3, #1
 373 0020 9AB2     		uxth	r2, r3
 374 0022 7B68     		ldr	r3, [r7, #4]
 375 0024 1A84     		strh	r2, [r3, #32]	@ movhi
 291:common/lib.stm32/STM32F10x_StdPeriph_Driver/src/stm32f10x_tim.c ****   
 292:common/lib.stm32/STM32F10x_StdPeriph_Driver/src/stm32f10x_tim.c ****   /* Get the TIMx CCER register value */
 293:common/lib.stm32/STM32F10x_StdPeriph_Driver/src/stm32f10x_tim.c ****   tmpccer = TIMx->CCER;
 376              		.loc 1 293 11
 377 0026 7B68     		ldr	r3, [r7, #4]
 378 0028 1B8C     		ldrh	r3, [r3, #32]	@ movhi
 379 002a FB81     		strh	r3, [r7, #14]	@ movhi
 294:common/lib.stm32/STM32F10x_StdPeriph_Driver/src/stm32f10x_tim.c ****   /* Get the TIMx CR2 register value */
 295:common/lib.stm32/STM32F10x_StdPeriph_Driver/src/stm32f10x_tim.c ****   tmpcr2 =  TIMx->CR2;
 380              		.loc 1 295 10
 381 002c 7B68     		ldr	r3, [r7, #4]
 382 002e 9B88     		ldrh	r3, [r3, #4]	@ movhi
 383 0030 BB81     		strh	r3, [r7, #12]	@ movhi
 296:common/lib.stm32/STM32F10x_StdPeriph_Driver/src/stm32f10x_tim.c ****   
 297:common/lib.stm32/STM32F10x_StdPeriph_Driver/src/stm32f10x_tim.c ****   /* Get the TIMx CCMR1 register value */
 298:common/lib.stm32/STM32F10x_StdPeriph_Driver/src/stm32f10x_tim.c ****   tmpccmrx = TIMx->CCMR1;
 384              		.loc 1 298 12
 385 0032 7B68     		ldr	r3, [r7, #4]
 386 0034 1B8B     		ldrh	r3, [r3, #24]	@ movhi
 387 0036 7B81     		strh	r3, [r7, #10]	@ movhi
 299:common/lib.stm32/STM32F10x_StdPeriph_Driver/src/stm32f10x_tim.c ****     
 300:common/lib.stm32/STM32F10x_StdPeriph_Driver/src/stm32f10x_tim.c ****   /* Reset the Output Compare mode and Capture/Compare selection Bits */
 301:common/lib.stm32/STM32F10x_StdPeriph_Driver/src/stm32f10x_tim.c ****   tmpccmrx &= CCMR_OC13M_Mask & CCMR_CC13S_Mask;
 388              		.loc 1 301 12
 389 0038 7B89     		ldrh	r3, [r7, #10]	@ movhi
 390 003a 23F07303 		bic	r3, r3, #115
 391 003e 7B81     		strh	r3, [r7, #10]	@ movhi
 302:common/lib.stm32/STM32F10x_StdPeriph_Driver/src/stm32f10x_tim.c ****   
 303:common/lib.stm32/STM32F10x_StdPeriph_Driver/src/stm32f10x_tim.c ****   /* Select the Output Compare Mode */
 304:common/lib.stm32/STM32F10x_StdPeriph_Driver/src/stm32f10x_tim.c ****   tmpccmrx |= TIM_OCInitStruct->TIM_OCMode;
 392              		.loc 1 304 31
 393 0040 3B68     		ldr	r3, [r7]
 394 0042 1A88     		ldrh	r2, [r3]
 395              		.loc 1 304 12
 396 0044 7B89     		ldrh	r3, [r7, #10]	@ movhi
 397 0046 1343     		orrs	r3, r3, r2
 398 0048 7B81     		strh	r3, [r7, #10]	@ movhi
 305:common/lib.stm32/STM32F10x_StdPeriph_Driver/src/stm32f10x_tim.c ****   
 306:common/lib.stm32/STM32F10x_StdPeriph_Driver/src/stm32f10x_tim.c ****   /* Reset the Output Polarity level */
 307:common/lib.stm32/STM32F10x_StdPeriph_Driver/src/stm32f10x_tim.c ****   tmpccer &= CCER_CC1P_Reset;
 399              		.loc 1 307 11
 400 004a FB89     		ldrh	r3, [r7, #14]	@ movhi
 401 004c 23F00203 		bic	r3, r3, #2
 402 0050 FB81     		strh	r3, [r7, #14]	@ movhi
 308:common/lib.stm32/STM32F10x_StdPeriph_Driver/src/stm32f10x_tim.c ****   /* Set the Output Compare Polarity */
 309:common/lib.stm32/STM32F10x_StdPeriph_Driver/src/stm32f10x_tim.c ****   tmpccer |= TIM_OCInitStruct->TIM_OCPolarity;
 403              		.loc 1 309 30
 404 0052 3B68     		ldr	r3, [r7]
 405 0054 1A89     		ldrh	r2, [r3, #8]
 406              		.loc 1 309 11
 407 0056 FB89     		ldrh	r3, [r7, #14]	@ movhi
 408 0058 1343     		orrs	r3, r3, r2
 409 005a FB81     		strh	r3, [r7, #14]	@ movhi
 310:common/lib.stm32/STM32F10x_StdPeriph_Driver/src/stm32f10x_tim.c ****   
 311:common/lib.stm32/STM32F10x_StdPeriph_Driver/src/stm32f10x_tim.c ****   /* Set the Output State */
 312:common/lib.stm32/STM32F10x_StdPeriph_Driver/src/stm32f10x_tim.c ****   tmpccer |= TIM_OCInitStruct->TIM_OutputState;
 410              		.loc 1 312 30
 411 005c 3B68     		ldr	r3, [r7]
 412 005e 5A88     		ldrh	r2, [r3, #2]
 413              		.loc 1 312 11
 414 0060 FB89     		ldrh	r3, [r7, #14]	@ movhi
 415 0062 1343     		orrs	r3, r3, r2
 416 0064 FB81     		strh	r3, [r7, #14]	@ movhi
 313:common/lib.stm32/STM32F10x_StdPeriph_Driver/src/stm32f10x_tim.c ****  
 314:common/lib.stm32/STM32F10x_StdPeriph_Driver/src/stm32f10x_tim.c ****   if(((uint32_t) TIMx == TIM1_BASE) || ((uint32_t) TIMx == TIM8_BASE))
 417              		.loc 1 314 5
 418 0066 7B68     		ldr	r3, [r7, #4]
 419 0068 204A     		ldr	r2, .L21
 420 006a 9342     		cmp	r3, r2
 421 006c 03D0     		beq	.L19
 422              		.loc 1 314 37 discriminator 1
 423 006e 7B68     		ldr	r3, [r7, #4]
 424 0070 1F4A     		ldr	r2, .L21+4
 425 0072 9342     		cmp	r3, r2
 426 0074 27D1     		bne	.L20
 427              	.L19:
 315:common/lib.stm32/STM32F10x_StdPeriph_Driver/src/stm32f10x_tim.c ****   {
 316:common/lib.stm32/STM32F10x_StdPeriph_Driver/src/stm32f10x_tim.c ****     assert_param(IS_TIM_OUTPUTN_STATE(TIM_OCInitStruct->TIM_OutputNState));
 317:common/lib.stm32/STM32F10x_StdPeriph_Driver/src/stm32f10x_tim.c ****     assert_param(IS_TIM_OCN_POLARITY(TIM_OCInitStruct->TIM_OCNPolarity));
 318:common/lib.stm32/STM32F10x_StdPeriph_Driver/src/stm32f10x_tim.c ****     assert_param(IS_TIM_OCNIDLE_STATE(TIM_OCInitStruct->TIM_OCNIdleState));
 319:common/lib.stm32/STM32F10x_StdPeriph_Driver/src/stm32f10x_tim.c ****     assert_param(IS_TIM_OCIDLE_STATE(TIM_OCInitStruct->TIM_OCIdleState));
 320:common/lib.stm32/STM32F10x_StdPeriph_Driver/src/stm32f10x_tim.c ****     
 321:common/lib.stm32/STM32F10x_StdPeriph_Driver/src/stm32f10x_tim.c ****     /* Reset the Output N Polarity level */
 322:common/lib.stm32/STM32F10x_StdPeriph_Driver/src/stm32f10x_tim.c ****     tmpccer &= CCER_CC1NP_Reset;
 428              		.loc 1 322 13
 429 0076 FB89     		ldrh	r3, [r7, #14]	@ movhi
 430 0078 23F00803 		bic	r3, r3, #8
 431 007c FB81     		strh	r3, [r7, #14]	@ movhi
 323:common/lib.stm32/STM32F10x_StdPeriph_Driver/src/stm32f10x_tim.c ****     /* Set the Output N Polarity */
 324:common/lib.stm32/STM32F10x_StdPeriph_Driver/src/stm32f10x_tim.c ****     tmpccer |= TIM_OCInitStruct->TIM_OCNPolarity;
 432              		.loc 1 324 32
 433 007e 3B68     		ldr	r3, [r7]
 434 0080 5A89     		ldrh	r2, [r3, #10]
 435              		.loc 1 324 13
 436 0082 FB89     		ldrh	r3, [r7, #14]	@ movhi
 437 0084 1343     		orrs	r3, r3, r2
 438 0086 FB81     		strh	r3, [r7, #14]	@ movhi
 325:common/lib.stm32/STM32F10x_StdPeriph_Driver/src/stm32f10x_tim.c ****     /* Reset the Output N State */
 326:common/lib.stm32/STM32F10x_StdPeriph_Driver/src/stm32f10x_tim.c ****     tmpccer &= CCER_CC1NE_Reset;
 439              		.loc 1 326 13
 440 0088 FB89     		ldrh	r3, [r7, #14]	@ movhi
 441 008a 23F00403 		bic	r3, r3, #4
 442 008e FB81     		strh	r3, [r7, #14]	@ movhi
 327:common/lib.stm32/STM32F10x_StdPeriph_Driver/src/stm32f10x_tim.c ****     
 328:common/lib.stm32/STM32F10x_StdPeriph_Driver/src/stm32f10x_tim.c ****     /* Set the Output N State */
 329:common/lib.stm32/STM32F10x_StdPeriph_Driver/src/stm32f10x_tim.c ****     tmpccer |= TIM_OCInitStruct->TIM_OutputNState;
 443              		.loc 1 329 32
 444 0090 3B68     		ldr	r3, [r7]
 445 0092 9A88     		ldrh	r2, [r3, #4]
 446              		.loc 1 329 13
 447 0094 FB89     		ldrh	r3, [r7, #14]	@ movhi
 448 0096 1343     		orrs	r3, r3, r2
 449 0098 FB81     		strh	r3, [r7, #14]	@ movhi
 330:common/lib.stm32/STM32F10x_StdPeriph_Driver/src/stm32f10x_tim.c ****     /* Reset the Ouput Compare and Output Compare N IDLE State */
 331:common/lib.stm32/STM32F10x_StdPeriph_Driver/src/stm32f10x_tim.c ****     tmpcr2 &= CR2_OIS1_Reset;
 450              		.loc 1 331 12
 451 009a BB89     		ldrh	r3, [r7, #12]	@ movhi
 452 009c 23F48073 		bic	r3, r3, #256
 453 00a0 5B04     		lsls	r3, r3, #17
 454 00a2 5B0C     		lsrs	r3, r3, #17
 455 00a4 BB81     		strh	r3, [r7, #12]	@ movhi
 332:common/lib.stm32/STM32F10x_StdPeriph_Driver/src/stm32f10x_tim.c ****     tmpcr2 &= CR2_OIS1N_Reset;
 456              		.loc 1 332 12
 457 00a6 BB89     		ldrh	r3, [r7, #12]	@ movhi
 458 00a8 23F40073 		bic	r3, r3, #512
 459 00ac 5B04     		lsls	r3, r3, #17
 460 00ae 5B0C     		lsrs	r3, r3, #17
 461 00b0 BB81     		strh	r3, [r7, #12]	@ movhi
 333:common/lib.stm32/STM32F10x_StdPeriph_Driver/src/stm32f10x_tim.c ****     /* Set the Output Idle state */
 334:common/lib.stm32/STM32F10x_StdPeriph_Driver/src/stm32f10x_tim.c ****     tmpcr2 |= TIM_OCInitStruct->TIM_OCIdleState;
 462              		.loc 1 334 31
 463 00b2 3B68     		ldr	r3, [r7]
 464 00b4 9A89     		ldrh	r2, [r3, #12]
 465              		.loc 1 334 12
 466 00b6 BB89     		ldrh	r3, [r7, #12]	@ movhi
 467 00b8 1343     		orrs	r3, r3, r2
 468 00ba BB81     		strh	r3, [r7, #12]	@ movhi
 335:common/lib.stm32/STM32F10x_StdPeriph_Driver/src/stm32f10x_tim.c ****     /* Set the Output N Idle state */
 336:common/lib.stm32/STM32F10x_StdPeriph_Driver/src/stm32f10x_tim.c ****     tmpcr2 |= TIM_OCInitStruct->TIM_OCNIdleState;
 469              		.loc 1 336 31
 470 00bc 3B68     		ldr	r3, [r7]
 471 00be DA89     		ldrh	r2, [r3, #14]
 472              		.loc 1 336 12
 473 00c0 BB89     		ldrh	r3, [r7, #12]	@ movhi
 474 00c2 1343     		orrs	r3, r3, r2
 475 00c4 BB81     		strh	r3, [r7, #12]	@ movhi
 476              	.L20:
 337:common/lib.stm32/STM32F10x_StdPeriph_Driver/src/stm32f10x_tim.c ****   }
 338:common/lib.stm32/STM32F10x_StdPeriph_Driver/src/stm32f10x_tim.c ****   /* Write to TIMx CR2 */
 339:common/lib.stm32/STM32F10x_StdPeriph_Driver/src/stm32f10x_tim.c ****   TIMx->CR2 = tmpcr2;
 477              		.loc 1 339 13
 478 00c6 7B68     		ldr	r3, [r7, #4]
 479 00c8 BA89     		ldrh	r2, [r7, #12]	@ movhi
 480 00ca 9A80     		strh	r2, [r3, #4]	@ movhi
 340:common/lib.stm32/STM32F10x_StdPeriph_Driver/src/stm32f10x_tim.c ****   
 341:common/lib.stm32/STM32F10x_StdPeriph_Driver/src/stm32f10x_tim.c ****   /* Write to TIMx CCMR1 */
 342:common/lib.stm32/STM32F10x_StdPeriph_Driver/src/stm32f10x_tim.c ****   TIMx->CCMR1 = tmpccmrx;
 481              		.loc 1 342 15
 482 00cc 7B68     		ldr	r3, [r7, #4]
 483 00ce 7A89     		ldrh	r2, [r7, #10]	@ movhi
 484 00d0 1A83     		strh	r2, [r3, #24]	@ movhi
 343:common/lib.stm32/STM32F10x_StdPeriph_Driver/src/stm32f10x_tim.c **** 
 344:common/lib.stm32/STM32F10x_StdPeriph_Driver/src/stm32f10x_tim.c ****   /* Set the Capture Compare Register value */
 345:common/lib.stm32/STM32F10x_StdPeriph_Driver/src/stm32f10x_tim.c ****   TIMx->CCR1 = TIM_OCInitStruct->TIM_Pulse;
 485              		.loc 1 345 32
 486 00d2 3B68     		ldr	r3, [r7]
 487 00d4 DA88     		ldrh	r2, [r3, #6]
 488              		.loc 1 345 14
 489 00d6 7B68     		ldr	r3, [r7, #4]
 490 00d8 9A86     		strh	r2, [r3, #52]	@ movhi
 346:common/lib.stm32/STM32F10x_StdPeriph_Driver/src/stm32f10x_tim.c ****   
 347:common/lib.stm32/STM32F10x_StdPeriph_Driver/src/stm32f10x_tim.c ****   /* Write to TIMx CCER */
 348:common/lib.stm32/STM32F10x_StdPeriph_Driver/src/stm32f10x_tim.c ****   TIMx->CCER = tmpccer;
 491              		.loc 1 348 14
 492 00da 7B68     		ldr	r3, [r7, #4]
 493 00dc FA89     		ldrh	r2, [r7, #14]	@ movhi
 494 00de 1A84     		strh	r2, [r3, #32]	@ movhi
 349:common/lib.stm32/STM32F10x_StdPeriph_Driver/src/stm32f10x_tim.c **** }
 495              		.loc 1 349 1
 496 00e0 00BF     		nop
 497 00e2 1437     		adds	r7, r7, #20
 498              	.LCFI14:
 499              		.cfi_def_cfa_offset 4
 500 00e4 BD46     		mov	sp, r7
 501              	.LCFI15:
 502              		.cfi_def_cfa_register 13
 503              		@ sp needed
 504 00e6 80BC     		pop	{r7}
 505              	.LCFI16:
 506              		.cfi_restore 7
 507              		.cfi_def_cfa_offset 0
 508 00e8 7047     		bx	lr
 509              	.L22:
 510 00ea 00BF     		.align	2
 511              	.L21:
 512 00ec 002C0140 		.word	1073818624
 513 00f0 00340140 		.word	1073820672
 514              		.cfi_endproc
 515              	.LFE29:
 517              		.section	.text.TIM_OC2Init,"ax",%progbits
 518              		.align	1
 519              		.global	TIM_OC2Init
 520              		.syntax unified
 521              		.thumb
 522              		.thumb_func
 524              	TIM_OC2Init:
 525              	.LFB30:
 350:common/lib.stm32/STM32F10x_StdPeriph_Driver/src/stm32f10x_tim.c **** 
 351:common/lib.stm32/STM32F10x_StdPeriph_Driver/src/stm32f10x_tim.c **** /**
 352:common/lib.stm32/STM32F10x_StdPeriph_Driver/src/stm32f10x_tim.c ****   * @brief  Initializes the TIMx Channel2 according to the specified
 353:common/lib.stm32/STM32F10x_StdPeriph_Driver/src/stm32f10x_tim.c ****   *   parameters in the TIM_OCInitStruct.
 354:common/lib.stm32/STM32F10x_StdPeriph_Driver/src/stm32f10x_tim.c ****   * @param  TIMx: where x can be  1, 2, 3, 4, 5 or 8 to select the TIM peripheral.
 355:common/lib.stm32/STM32F10x_StdPeriph_Driver/src/stm32f10x_tim.c ****   * @param  TIM_OCInitStruct: pointer to a TIM_OCInitTypeDef structure
 356:common/lib.stm32/STM32F10x_StdPeriph_Driver/src/stm32f10x_tim.c ****   *   that contains the configuration information for the specified TIM peripheral.
 357:common/lib.stm32/STM32F10x_StdPeriph_Driver/src/stm32f10x_tim.c ****   * @retval None
 358:common/lib.stm32/STM32F10x_StdPeriph_Driver/src/stm32f10x_tim.c ****   */
 359:common/lib.stm32/STM32F10x_StdPeriph_Driver/src/stm32f10x_tim.c **** void TIM_OC2Init(TIM_TypeDef* TIMx, TIM_OCInitTypeDef* TIM_OCInitStruct)
 360:common/lib.stm32/STM32F10x_StdPeriph_Driver/src/stm32f10x_tim.c **** {
 526              		.loc 1 360 1
 527              		.cfi_startproc
 528              		@ args = 0, pretend = 0, frame = 16
 529              		@ frame_needed = 1, uses_anonymous_args = 0
 530              		@ link register save eliminated.
 531 0000 80B4     		push	{r7}
 532              	.LCFI17:
 533              		.cfi_def_cfa_offset 4
 534              		.cfi_offset 7, -4
 535 0002 85B0     		sub	sp, sp, #20
 536              	.LCFI18:
 537              		.cfi_def_cfa_offset 24
 538 0004 00AF     		add	r7, sp, #0
 539              	.LCFI19:
 540              		.cfi_def_cfa_register 7
 541 0006 7860     		str	r0, [r7, #4]
 542 0008 3960     		str	r1, [r7]
 361:common/lib.stm32/STM32F10x_StdPeriph_Driver/src/stm32f10x_tim.c ****   uint16_t tmpccmrx = 0, tmpccer = 0, tmpcr2 = 0;
 543              		.loc 1 361 12
 544 000a 0023     		movs	r3, #0
 545 000c 7B81     		strh	r3, [r7, #10]	@ movhi
 546              		.loc 1 361 26
 547 000e 0023     		movs	r3, #0
 548 0010 FB81     		strh	r3, [r7, #14]	@ movhi
 549              		.loc 1 361 39
 550 0012 0023     		movs	r3, #0
 551 0014 BB81     		strh	r3, [r7, #12]	@ movhi
 362:common/lib.stm32/STM32F10x_StdPeriph_Driver/src/stm32f10x_tim.c ****    
 363:common/lib.stm32/STM32F10x_StdPeriph_Driver/src/stm32f10x_tim.c ****   /* Check the parameters */
 364:common/lib.stm32/STM32F10x_StdPeriph_Driver/src/stm32f10x_tim.c ****   assert_param(IS_TIM_123458_PERIPH(TIMx)); 
 365:common/lib.stm32/STM32F10x_StdPeriph_Driver/src/stm32f10x_tim.c ****   assert_param(IS_TIM_OC_MODE(TIM_OCInitStruct->TIM_OCMode));
 366:common/lib.stm32/STM32F10x_StdPeriph_Driver/src/stm32f10x_tim.c ****   assert_param(IS_TIM_OUTPUT_STATE(TIM_OCInitStruct->TIM_OutputState));
 367:common/lib.stm32/STM32F10x_StdPeriph_Driver/src/stm32f10x_tim.c ****   assert_param(IS_TIM_OC_POLARITY(TIM_OCInitStruct->TIM_OCPolarity));   
 368:common/lib.stm32/STM32F10x_StdPeriph_Driver/src/stm32f10x_tim.c ****   /* Disable the Channel 2: Reset the CC2E Bit */
 369:common/lib.stm32/STM32F10x_StdPeriph_Driver/src/stm32f10x_tim.c ****   TIMx->CCER &= CCER_CC2E_Reset;
 552              		.loc 1 369 14
 553 0016 7B68     		ldr	r3, [r7, #4]
 554 0018 1B8C     		ldrh	r3, [r3, #32]	@ movhi
 555 001a 9BB2     		uxth	r3, r3
 556 001c 23F01003 		bic	r3, r3, #16
 557 0020 9AB2     		uxth	r2, r3
 558 0022 7B68     		ldr	r3, [r7, #4]
 559 0024 1A84     		strh	r2, [r3, #32]	@ movhi
 370:common/lib.stm32/STM32F10x_StdPeriph_Driver/src/stm32f10x_tim.c ****   
 371:common/lib.stm32/STM32F10x_StdPeriph_Driver/src/stm32f10x_tim.c ****   /* Get the TIMx CCER register value */  
 372:common/lib.stm32/STM32F10x_StdPeriph_Driver/src/stm32f10x_tim.c ****   tmpccer = TIMx->CCER;
 560              		.loc 1 372 11
 561 0026 7B68     		ldr	r3, [r7, #4]
 562 0028 1B8C     		ldrh	r3, [r3, #32]	@ movhi
 563 002a FB81     		strh	r3, [r7, #14]	@ movhi
 373:common/lib.stm32/STM32F10x_StdPeriph_Driver/src/stm32f10x_tim.c ****   /* Get the TIMx CR2 register value */
 374:common/lib.stm32/STM32F10x_StdPeriph_Driver/src/stm32f10x_tim.c ****   tmpcr2 =  TIMx->CR2;
 564              		.loc 1 374 10
 565 002c 7B68     		ldr	r3, [r7, #4]
 566 002e 9B88     		ldrh	r3, [r3, #4]	@ movhi
 567 0030 BB81     		strh	r3, [r7, #12]	@ movhi
 375:common/lib.stm32/STM32F10x_StdPeriph_Driver/src/stm32f10x_tim.c ****   
 376:common/lib.stm32/STM32F10x_StdPeriph_Driver/src/stm32f10x_tim.c ****   /* Get the TIMx CCMR1 register value */
 377:common/lib.stm32/STM32F10x_StdPeriph_Driver/src/stm32f10x_tim.c ****   tmpccmrx = TIMx->CCMR1;
 568              		.loc 1 377 12
 569 0032 7B68     		ldr	r3, [r7, #4]
 570 0034 1B8B     		ldrh	r3, [r3, #24]	@ movhi
 571 0036 7B81     		strh	r3, [r7, #10]	@ movhi
 378:common/lib.stm32/STM32F10x_StdPeriph_Driver/src/stm32f10x_tim.c **** 
 379:common/lib.stm32/STM32F10x_StdPeriph_Driver/src/stm32f10x_tim.c ****   /* Reset the Output Compare mode and Capture/Compare selection Bits */
 380:common/lib.stm32/STM32F10x_StdPeriph_Driver/src/stm32f10x_tim.c ****   tmpccmrx &= CCMR_OC24M_Mask & CCMR_CC24S_Mask;  
 572              		.loc 1 380 12
 573 0038 7B89     		ldrh	r3, [r7, #10]	@ movhi
 574 003a 23F4E643 		bic	r3, r3, #29440
 575 003e 7B81     		strh	r3, [r7, #10]	@ movhi
 381:common/lib.stm32/STM32F10x_StdPeriph_Driver/src/stm32f10x_tim.c ****   
 382:common/lib.stm32/STM32F10x_StdPeriph_Driver/src/stm32f10x_tim.c ****   /* Select the Output Compare Mode */
 383:common/lib.stm32/STM32F10x_StdPeriph_Driver/src/stm32f10x_tim.c ****   tmpccmrx |= (uint16_t)(TIM_OCInitStruct->TIM_OCMode << 8);
 576              		.loc 1 383 42
 577 0040 3B68     		ldr	r3, [r7]
 578 0042 1B88     		ldrh	r3, [r3]
 579              		.loc 1 383 15
 580 0044 1B02     		lsls	r3, r3, #8
 581 0046 9AB2     		uxth	r2, r3
 582              		.loc 1 383 12
 583 0048 7B89     		ldrh	r3, [r7, #10]	@ movhi
 584 004a 1343     		orrs	r3, r3, r2
 585 004c 7B81     		strh	r3, [r7, #10]	@ movhi
 384:common/lib.stm32/STM32F10x_StdPeriph_Driver/src/stm32f10x_tim.c ****   
 385:common/lib.stm32/STM32F10x_StdPeriph_Driver/src/stm32f10x_tim.c ****   /* Reset the Output Polarity level */
 386:common/lib.stm32/STM32F10x_StdPeriph_Driver/src/stm32f10x_tim.c ****   tmpccer &= CCER_CC2P_Reset;
 586              		.loc 1 386 11
 587 004e FB89     		ldrh	r3, [r7, #14]	@ movhi
 588 0050 23F02003 		bic	r3, r3, #32
 589 0054 FB81     		strh	r3, [r7, #14]	@ movhi
 387:common/lib.stm32/STM32F10x_StdPeriph_Driver/src/stm32f10x_tim.c ****   /* Set the Output Compare Polarity */
 388:common/lib.stm32/STM32F10x_StdPeriph_Driver/src/stm32f10x_tim.c ****   tmpccer |= (uint16_t)(TIM_OCInitStruct->TIM_OCPolarity << 4);
 590              		.loc 1 388 41
 591 0056 3B68     		ldr	r3, [r7]
 592 0058 1B89     		ldrh	r3, [r3, #8]
 593              		.loc 1 388 14
 594 005a 1B01     		lsls	r3, r3, #4
 595 005c 9AB2     		uxth	r2, r3
 596              		.loc 1 388 11
 597 005e FB89     		ldrh	r3, [r7, #14]	@ movhi
 598 0060 1343     		orrs	r3, r3, r2
 599 0062 FB81     		strh	r3, [r7, #14]	@ movhi
 389:common/lib.stm32/STM32F10x_StdPeriph_Driver/src/stm32f10x_tim.c ****   
 390:common/lib.stm32/STM32F10x_StdPeriph_Driver/src/stm32f10x_tim.c ****   /* Set the Output State */
 391:common/lib.stm32/STM32F10x_StdPeriph_Driver/src/stm32f10x_tim.c ****   tmpccer |= (uint16_t)(TIM_OCInitStruct->TIM_OutputState << 4);
 600              		.loc 1 391 41
 601 0064 3B68     		ldr	r3, [r7]
 602 0066 5B88     		ldrh	r3, [r3, #2]
 603              		.loc 1 391 14
 604 0068 1B01     		lsls	r3, r3, #4
 605 006a 9AB2     		uxth	r2, r3
 606              		.loc 1 391 11
 607 006c FB89     		ldrh	r3, [r7, #14]	@ movhi
 608 006e 1343     		orrs	r3, r3, r2
 609 0070 FB81     		strh	r3, [r7, #14]	@ movhi
 392:common/lib.stm32/STM32F10x_StdPeriph_Driver/src/stm32f10x_tim.c ****     
 393:common/lib.stm32/STM32F10x_StdPeriph_Driver/src/stm32f10x_tim.c ****   if(((uint32_t) TIMx == TIM1_BASE) || ((uint32_t) TIMx == TIM8_BASE))
 610              		.loc 1 393 5
 611 0072 7B68     		ldr	r3, [r7, #4]
 612 0074 244A     		ldr	r2, .L26
 613 0076 9342     		cmp	r3, r2
 614 0078 03D0     		beq	.L24
 615              		.loc 1 393 37 discriminator 1
 616 007a 7B68     		ldr	r3, [r7, #4]
 617 007c 234A     		ldr	r2, .L26+4
 618 007e 9342     		cmp	r3, r2
 619 0080 2FD1     		bne	.L25
 620              	.L24:
 394:common/lib.stm32/STM32F10x_StdPeriph_Driver/src/stm32f10x_tim.c ****   {
 395:common/lib.stm32/STM32F10x_StdPeriph_Driver/src/stm32f10x_tim.c ****     assert_param(IS_TIM_OUTPUTN_STATE(TIM_OCInitStruct->TIM_OutputNState));
 396:common/lib.stm32/STM32F10x_StdPeriph_Driver/src/stm32f10x_tim.c ****     assert_param(IS_TIM_OCN_POLARITY(TIM_OCInitStruct->TIM_OCNPolarity));
 397:common/lib.stm32/STM32F10x_StdPeriph_Driver/src/stm32f10x_tim.c ****     assert_param(IS_TIM_OCNIDLE_STATE(TIM_OCInitStruct->TIM_OCNIdleState));
 398:common/lib.stm32/STM32F10x_StdPeriph_Driver/src/stm32f10x_tim.c ****     assert_param(IS_TIM_OCIDLE_STATE(TIM_OCInitStruct->TIM_OCIdleState));
 399:common/lib.stm32/STM32F10x_StdPeriph_Driver/src/stm32f10x_tim.c ****     
 400:common/lib.stm32/STM32F10x_StdPeriph_Driver/src/stm32f10x_tim.c ****     /* Reset the Output N Polarity level */
 401:common/lib.stm32/STM32F10x_StdPeriph_Driver/src/stm32f10x_tim.c ****     tmpccer &= CCER_CC2NP_Reset;
 621              		.loc 1 401 13
 622 0082 FB89     		ldrh	r3, [r7, #14]	@ movhi
 623 0084 23F08003 		bic	r3, r3, #128
 624 0088 FB81     		strh	r3, [r7, #14]	@ movhi
 402:common/lib.stm32/STM32F10x_StdPeriph_Driver/src/stm32f10x_tim.c ****     /* Set the Output N Polarity */
 403:common/lib.stm32/STM32F10x_StdPeriph_Driver/src/stm32f10x_tim.c ****     tmpccer |= (uint16_t)(TIM_OCInitStruct->TIM_OCNPolarity << 4);
 625              		.loc 1 403 43
 626 008a 3B68     		ldr	r3, [r7]
 627 008c 5B89     		ldrh	r3, [r3, #10]
 628              		.loc 1 403 16
 629 008e 1B01     		lsls	r3, r3, #4
 630 0090 9AB2     		uxth	r2, r3
 631              		.loc 1 403 13
 632 0092 FB89     		ldrh	r3, [r7, #14]	@ movhi
 633 0094 1343     		orrs	r3, r3, r2
 634 0096 FB81     		strh	r3, [r7, #14]	@ movhi
 404:common/lib.stm32/STM32F10x_StdPeriph_Driver/src/stm32f10x_tim.c ****     /* Reset the Output N State */
 405:common/lib.stm32/STM32F10x_StdPeriph_Driver/src/stm32f10x_tim.c ****     tmpccer &= CCER_CC2NE_Reset;
 635              		.loc 1 405 13
 636 0098 FB89     		ldrh	r3, [r7, #14]	@ movhi
 637 009a 23F04003 		bic	r3, r3, #64
 638 009e FB81     		strh	r3, [r7, #14]	@ movhi
 406:common/lib.stm32/STM32F10x_StdPeriph_Driver/src/stm32f10x_tim.c ****     
 407:common/lib.stm32/STM32F10x_StdPeriph_Driver/src/stm32f10x_tim.c ****     /* Set the Output N State */
 408:common/lib.stm32/STM32F10x_StdPeriph_Driver/src/stm32f10x_tim.c ****     tmpccer |= (uint16_t)(TIM_OCInitStruct->TIM_OutputNState << 4);
 639              		.loc 1 408 43
 640 00a0 3B68     		ldr	r3, [r7]
 641 00a2 9B88     		ldrh	r3, [r3, #4]
 642              		.loc 1 408 16
 643 00a4 1B01     		lsls	r3, r3, #4
 644 00a6 9AB2     		uxth	r2, r3
 645              		.loc 1 408 13
 646 00a8 FB89     		ldrh	r3, [r7, #14]	@ movhi
 647 00aa 1343     		orrs	r3, r3, r2
 648 00ac FB81     		strh	r3, [r7, #14]	@ movhi
 409:common/lib.stm32/STM32F10x_StdPeriph_Driver/src/stm32f10x_tim.c ****     /* Reset the Ouput Compare and Output Compare N IDLE State */
 410:common/lib.stm32/STM32F10x_StdPeriph_Driver/src/stm32f10x_tim.c ****     tmpcr2 &= CR2_OIS2_Reset;
 649              		.loc 1 410 12
 650 00ae BB89     		ldrh	r3, [r7, #12]	@ movhi
 651 00b0 23F48063 		bic	r3, r3, #1024
 652 00b4 5B04     		lsls	r3, r3, #17
 653 00b6 5B0C     		lsrs	r3, r3, #17
 654 00b8 BB81     		strh	r3, [r7, #12]	@ movhi
 411:common/lib.stm32/STM32F10x_StdPeriph_Driver/src/stm32f10x_tim.c ****     tmpcr2 &= CR2_OIS2N_Reset;
 655              		.loc 1 411 12
 656 00ba BB89     		ldrh	r3, [r7, #12]	@ movhi
 657 00bc 23F40063 		bic	r3, r3, #2048
 658 00c0 5B04     		lsls	r3, r3, #17
 659 00c2 5B0C     		lsrs	r3, r3, #17
 660 00c4 BB81     		strh	r3, [r7, #12]	@ movhi
 412:common/lib.stm32/STM32F10x_StdPeriph_Driver/src/stm32f10x_tim.c ****     /* Set the Output Idle state */
 413:common/lib.stm32/STM32F10x_StdPeriph_Driver/src/stm32f10x_tim.c ****     tmpcr2 |= (uint16_t)(TIM_OCInitStruct->TIM_OCIdleState << 2);
 661              		.loc 1 413 42
 662 00c6 3B68     		ldr	r3, [r7]
 663 00c8 9B89     		ldrh	r3, [r3, #12]
 664              		.loc 1 413 15
 665 00ca 9B00     		lsls	r3, r3, #2
 666 00cc 9AB2     		uxth	r2, r3
 667              		.loc 1 413 12
 668 00ce BB89     		ldrh	r3, [r7, #12]	@ movhi
 669 00d0 1343     		orrs	r3, r3, r2
 670 00d2 BB81     		strh	r3, [r7, #12]	@ movhi
 414:common/lib.stm32/STM32F10x_StdPeriph_Driver/src/stm32f10x_tim.c ****     /* Set the Output N Idle state */
 415:common/lib.stm32/STM32F10x_StdPeriph_Driver/src/stm32f10x_tim.c ****     tmpcr2 |= (uint16_t)(TIM_OCInitStruct->TIM_OCNIdleState << 2);
 671              		.loc 1 415 42
 672 00d4 3B68     		ldr	r3, [r7]
 673 00d6 DB89     		ldrh	r3, [r3, #14]
 674              		.loc 1 415 15
 675 00d8 9B00     		lsls	r3, r3, #2
 676 00da 9AB2     		uxth	r2, r3
 677              		.loc 1 415 12
 678 00dc BB89     		ldrh	r3, [r7, #12]	@ movhi
 679 00de 1343     		orrs	r3, r3, r2
 680 00e0 BB81     		strh	r3, [r7, #12]	@ movhi
 681              	.L25:
 416:common/lib.stm32/STM32F10x_StdPeriph_Driver/src/stm32f10x_tim.c ****   }
 417:common/lib.stm32/STM32F10x_StdPeriph_Driver/src/stm32f10x_tim.c ****   /* Write to TIMx CR2 */
 418:common/lib.stm32/STM32F10x_StdPeriph_Driver/src/stm32f10x_tim.c ****   TIMx->CR2 = tmpcr2;
 682              		.loc 1 418 13
 683 00e2 7B68     		ldr	r3, [r7, #4]
 684 00e4 BA89     		ldrh	r2, [r7, #12]	@ movhi
 685 00e6 9A80     		strh	r2, [r3, #4]	@ movhi
 419:common/lib.stm32/STM32F10x_StdPeriph_Driver/src/stm32f10x_tim.c ****   
 420:common/lib.stm32/STM32F10x_StdPeriph_Driver/src/stm32f10x_tim.c ****   /* Write to TIMx CCMR1 */
 421:common/lib.stm32/STM32F10x_StdPeriph_Driver/src/stm32f10x_tim.c ****   TIMx->CCMR1 = tmpccmrx;
 686              		.loc 1 421 15
 687 00e8 7B68     		ldr	r3, [r7, #4]
 688 00ea 7A89     		ldrh	r2, [r7, #10]	@ movhi
 689 00ec 1A83     		strh	r2, [r3, #24]	@ movhi
 422:common/lib.stm32/STM32F10x_StdPeriph_Driver/src/stm32f10x_tim.c **** 
 423:common/lib.stm32/STM32F10x_StdPeriph_Driver/src/stm32f10x_tim.c ****   /* Set the Capture Compare Register value */
 424:common/lib.stm32/STM32F10x_StdPeriph_Driver/src/stm32f10x_tim.c ****   TIMx->CCR2 = TIM_OCInitStruct->TIM_Pulse;
 690              		.loc 1 424 32
 691 00ee 3B68     		ldr	r3, [r7]
 692 00f0 DA88     		ldrh	r2, [r3, #6]
 693              		.loc 1 424 14
 694 00f2 7B68     		ldr	r3, [r7, #4]
 695 00f4 1A87     		strh	r2, [r3, #56]	@ movhi
 425:common/lib.stm32/STM32F10x_StdPeriph_Driver/src/stm32f10x_tim.c ****   
 426:common/lib.stm32/STM32F10x_StdPeriph_Driver/src/stm32f10x_tim.c ****   /* Write to TIMx CCER */
 427:common/lib.stm32/STM32F10x_StdPeriph_Driver/src/stm32f10x_tim.c ****   TIMx->CCER = tmpccer;
 696              		.loc 1 427 14
 697 00f6 7B68     		ldr	r3, [r7, #4]
 698 00f8 FA89     		ldrh	r2, [r7, #14]	@ movhi
 699 00fa 1A84     		strh	r2, [r3, #32]	@ movhi
 428:common/lib.stm32/STM32F10x_StdPeriph_Driver/src/stm32f10x_tim.c **** }
 700              		.loc 1 428 1
 701 00fc 00BF     		nop
 702 00fe 1437     		adds	r7, r7, #20
 703              	.LCFI20:
 704              		.cfi_def_cfa_offset 4
 705 0100 BD46     		mov	sp, r7
 706              	.LCFI21:
 707              		.cfi_def_cfa_register 13
 708              		@ sp needed
 709 0102 80BC     		pop	{r7}
 710              	.LCFI22:
 711              		.cfi_restore 7
 712              		.cfi_def_cfa_offset 0
 713 0104 7047     		bx	lr
 714              	.L27:
 715 0106 00BF     		.align	2
 716              	.L26:
 717 0108 002C0140 		.word	1073818624
 718 010c 00340140 		.word	1073820672
 719              		.cfi_endproc
 720              	.LFE30:
 722              		.section	.text.TIM_OC3Init,"ax",%progbits
 723              		.align	1
 724              		.global	TIM_OC3Init
 725              		.syntax unified
 726              		.thumb
 727              		.thumb_func
 729              	TIM_OC3Init:
 730              	.LFB31:
 429:common/lib.stm32/STM32F10x_StdPeriph_Driver/src/stm32f10x_tim.c **** 
 430:common/lib.stm32/STM32F10x_StdPeriph_Driver/src/stm32f10x_tim.c **** /**
 431:common/lib.stm32/STM32F10x_StdPeriph_Driver/src/stm32f10x_tim.c ****   * @brief  Initializes the TIMx Channel3 according to the specified
 432:common/lib.stm32/STM32F10x_StdPeriph_Driver/src/stm32f10x_tim.c ****   *   parameters in the TIM_OCInitStruct.
 433:common/lib.stm32/STM32F10x_StdPeriph_Driver/src/stm32f10x_tim.c ****   * @param  TIMx: where x can be  1, 2, 3, 4, 5 or 8 to select the TIM peripheral.
 434:common/lib.stm32/STM32F10x_StdPeriph_Driver/src/stm32f10x_tim.c ****   * @param  TIM_OCInitStruct: pointer to a TIM_OCInitTypeDef structure
 435:common/lib.stm32/STM32F10x_StdPeriph_Driver/src/stm32f10x_tim.c ****   *   that contains the configuration information for the specified TIM peripheral.
 436:common/lib.stm32/STM32F10x_StdPeriph_Driver/src/stm32f10x_tim.c ****   * @retval None
 437:common/lib.stm32/STM32F10x_StdPeriph_Driver/src/stm32f10x_tim.c ****   */
 438:common/lib.stm32/STM32F10x_StdPeriph_Driver/src/stm32f10x_tim.c **** void TIM_OC3Init(TIM_TypeDef* TIMx, TIM_OCInitTypeDef* TIM_OCInitStruct)
 439:common/lib.stm32/STM32F10x_StdPeriph_Driver/src/stm32f10x_tim.c **** {
 731              		.loc 1 439 1
 732              		.cfi_startproc
 733              		@ args = 0, pretend = 0, frame = 16
 734              		@ frame_needed = 1, uses_anonymous_args = 0
 735              		@ link register save eliminated.
 736 0000 80B4     		push	{r7}
 737              	.LCFI23:
 738              		.cfi_def_cfa_offset 4
 739              		.cfi_offset 7, -4
 740 0002 85B0     		sub	sp, sp, #20
 741              	.LCFI24:
 742              		.cfi_def_cfa_offset 24
 743 0004 00AF     		add	r7, sp, #0
 744              	.LCFI25:
 745              		.cfi_def_cfa_register 7
 746 0006 7860     		str	r0, [r7, #4]
 747 0008 3960     		str	r1, [r7]
 440:common/lib.stm32/STM32F10x_StdPeriph_Driver/src/stm32f10x_tim.c ****   uint16_t tmpccmrx = 0, tmpccer = 0, tmpcr2 = 0;
 748              		.loc 1 440 12
 749 000a 0023     		movs	r3, #0
 750 000c 7B81     		strh	r3, [r7, #10]	@ movhi
 751              		.loc 1 440 26
 752 000e 0023     		movs	r3, #0
 753 0010 FB81     		strh	r3, [r7, #14]	@ movhi
 754              		.loc 1 440 39
 755 0012 0023     		movs	r3, #0
 756 0014 BB81     		strh	r3, [r7, #12]	@ movhi
 441:common/lib.stm32/STM32F10x_StdPeriph_Driver/src/stm32f10x_tim.c ****    
 442:common/lib.stm32/STM32F10x_StdPeriph_Driver/src/stm32f10x_tim.c ****   /* Check the parameters */
 443:common/lib.stm32/STM32F10x_StdPeriph_Driver/src/stm32f10x_tim.c ****   assert_param(IS_TIM_123458_PERIPH(TIMx)); 
 444:common/lib.stm32/STM32F10x_StdPeriph_Driver/src/stm32f10x_tim.c ****   assert_param(IS_TIM_OC_MODE(TIM_OCInitStruct->TIM_OCMode));
 445:common/lib.stm32/STM32F10x_StdPeriph_Driver/src/stm32f10x_tim.c ****   assert_param(IS_TIM_OUTPUT_STATE(TIM_OCInitStruct->TIM_OutputState));
 446:common/lib.stm32/STM32F10x_StdPeriph_Driver/src/stm32f10x_tim.c ****   assert_param(IS_TIM_OC_POLARITY(TIM_OCInitStruct->TIM_OCPolarity));   
 447:common/lib.stm32/STM32F10x_StdPeriph_Driver/src/stm32f10x_tim.c ****   /* Disable the Channel 2: Reset the CC2E Bit */
 448:common/lib.stm32/STM32F10x_StdPeriph_Driver/src/stm32f10x_tim.c ****   TIMx->CCER &= CCER_CC3E_Reset;
 757              		.loc 1 448 14
 758 0016 7B68     		ldr	r3, [r7, #4]
 759 0018 1B8C     		ldrh	r3, [r3, #32]	@ movhi
 760 001a 9BB2     		uxth	r3, r3
 761 001c 23F48073 		bic	r3, r3, #256
 762 0020 9AB2     		uxth	r2, r3
 763 0022 7B68     		ldr	r3, [r7, #4]
 764 0024 1A84     		strh	r2, [r3, #32]	@ movhi
 449:common/lib.stm32/STM32F10x_StdPeriph_Driver/src/stm32f10x_tim.c ****   
 450:common/lib.stm32/STM32F10x_StdPeriph_Driver/src/stm32f10x_tim.c ****   /* Get the TIMx CCER register value */
 451:common/lib.stm32/STM32F10x_StdPeriph_Driver/src/stm32f10x_tim.c ****   tmpccer = TIMx->CCER;
 765              		.loc 1 451 11
 766 0026 7B68     		ldr	r3, [r7, #4]
 767 0028 1B8C     		ldrh	r3, [r3, #32]	@ movhi
 768 002a FB81     		strh	r3, [r7, #14]	@ movhi
 452:common/lib.stm32/STM32F10x_StdPeriph_Driver/src/stm32f10x_tim.c ****   /* Get the TIMx CR2 register value */
 453:common/lib.stm32/STM32F10x_StdPeriph_Driver/src/stm32f10x_tim.c ****   tmpcr2 =  TIMx->CR2;
 769              		.loc 1 453 10
 770 002c 7B68     		ldr	r3, [r7, #4]
 771 002e 9B88     		ldrh	r3, [r3, #4]	@ movhi
 772 0030 BB81     		strh	r3, [r7, #12]	@ movhi
 454:common/lib.stm32/STM32F10x_StdPeriph_Driver/src/stm32f10x_tim.c ****   
 455:common/lib.stm32/STM32F10x_StdPeriph_Driver/src/stm32f10x_tim.c ****   /* Get the TIMx CCMR2 register value */
 456:common/lib.stm32/STM32F10x_StdPeriph_Driver/src/stm32f10x_tim.c ****   tmpccmrx = TIMx->CCMR2;
 773              		.loc 1 456 12
 774 0032 7B68     		ldr	r3, [r7, #4]
 775 0034 9B8B     		ldrh	r3, [r3, #28]	@ movhi
 776 0036 7B81     		strh	r3, [r7, #10]	@ movhi
 457:common/lib.stm32/STM32F10x_StdPeriph_Driver/src/stm32f10x_tim.c ****     
 458:common/lib.stm32/STM32F10x_StdPeriph_Driver/src/stm32f10x_tim.c ****   /* Reset the Output Compare mode and Capture/Compare selection Bits */
 459:common/lib.stm32/STM32F10x_StdPeriph_Driver/src/stm32f10x_tim.c ****   tmpccmrx &= CCMR_OC13M_Mask & CCMR_CC13S_Mask;  
 777              		.loc 1 459 12
 778 0038 7B89     		ldrh	r3, [r7, #10]	@ movhi
 779 003a 23F07303 		bic	r3, r3, #115
 780 003e 7B81     		strh	r3, [r7, #10]	@ movhi
 460:common/lib.stm32/STM32F10x_StdPeriph_Driver/src/stm32f10x_tim.c ****   
 461:common/lib.stm32/STM32F10x_StdPeriph_Driver/src/stm32f10x_tim.c ****   /* Select the Output Compare Mode */
 462:common/lib.stm32/STM32F10x_StdPeriph_Driver/src/stm32f10x_tim.c ****   tmpccmrx |= TIM_OCInitStruct->TIM_OCMode;
 781              		.loc 1 462 31
 782 0040 3B68     		ldr	r3, [r7]
 783 0042 1A88     		ldrh	r2, [r3]
 784              		.loc 1 462 12
 785 0044 7B89     		ldrh	r3, [r7, #10]	@ movhi
 786 0046 1343     		orrs	r3, r3, r2
 787 0048 7B81     		strh	r3, [r7, #10]	@ movhi
 463:common/lib.stm32/STM32F10x_StdPeriph_Driver/src/stm32f10x_tim.c ****   
 464:common/lib.stm32/STM32F10x_StdPeriph_Driver/src/stm32f10x_tim.c ****   /* Reset the Output Polarity level */
 465:common/lib.stm32/STM32F10x_StdPeriph_Driver/src/stm32f10x_tim.c ****   tmpccer &= CCER_CC3P_Reset;
 788              		.loc 1 465 11
 789 004a FB89     		ldrh	r3, [r7, #14]	@ movhi
 790 004c 23F40073 		bic	r3, r3, #512
 791 0050 FB81     		strh	r3, [r7, #14]	@ movhi
 466:common/lib.stm32/STM32F10x_StdPeriph_Driver/src/stm32f10x_tim.c ****   /* Set the Output Compare Polarity */
 467:common/lib.stm32/STM32F10x_StdPeriph_Driver/src/stm32f10x_tim.c ****   tmpccer |= (uint16_t)(TIM_OCInitStruct->TIM_OCPolarity << 8);
 792              		.loc 1 467 41
 793 0052 3B68     		ldr	r3, [r7]
 794 0054 1B89     		ldrh	r3, [r3, #8]
 795              		.loc 1 467 14
 796 0056 1B02     		lsls	r3, r3, #8
 797 0058 9AB2     		uxth	r2, r3
 798              		.loc 1 467 11
 799 005a FB89     		ldrh	r3, [r7, #14]	@ movhi
 800 005c 1343     		orrs	r3, r3, r2
 801 005e FB81     		strh	r3, [r7, #14]	@ movhi
 468:common/lib.stm32/STM32F10x_StdPeriph_Driver/src/stm32f10x_tim.c ****   
 469:common/lib.stm32/STM32F10x_StdPeriph_Driver/src/stm32f10x_tim.c ****   /* Set the Output State */
 470:common/lib.stm32/STM32F10x_StdPeriph_Driver/src/stm32f10x_tim.c ****   tmpccer |= (uint16_t)(TIM_OCInitStruct->TIM_OutputState << 8);
 802              		.loc 1 470 41
 803 0060 3B68     		ldr	r3, [r7]
 804 0062 5B88     		ldrh	r3, [r3, #2]
 805              		.loc 1 470 14
 806 0064 1B02     		lsls	r3, r3, #8
 807 0066 9AB2     		uxth	r2, r3
 808              		.loc 1 470 11
 809 0068 FB89     		ldrh	r3, [r7, #14]	@ movhi
 810 006a 1343     		orrs	r3, r3, r2
 811 006c FB81     		strh	r3, [r7, #14]	@ movhi
 471:common/lib.stm32/STM32F10x_StdPeriph_Driver/src/stm32f10x_tim.c ****    
 472:common/lib.stm32/STM32F10x_StdPeriph_Driver/src/stm32f10x_tim.c ****   if(((uint32_t) TIMx == TIM1_BASE) || ((uint32_t) TIMx == TIM8_BASE))
 812              		.loc 1 472 5
 813 006e 7B68     		ldr	r3, [r7, #4]
 814 0070 244A     		ldr	r2, .L31
 815 0072 9342     		cmp	r3, r2
 816 0074 03D0     		beq	.L29
 817              		.loc 1 472 37 discriminator 1
 818 0076 7B68     		ldr	r3, [r7, #4]
 819 0078 234A     		ldr	r2, .L31+4
 820 007a 9342     		cmp	r3, r2
 821 007c 2FD1     		bne	.L30
 822              	.L29:
 473:common/lib.stm32/STM32F10x_StdPeriph_Driver/src/stm32f10x_tim.c ****   {
 474:common/lib.stm32/STM32F10x_StdPeriph_Driver/src/stm32f10x_tim.c ****     assert_param(IS_TIM_OUTPUTN_STATE(TIM_OCInitStruct->TIM_OutputNState));
 475:common/lib.stm32/STM32F10x_StdPeriph_Driver/src/stm32f10x_tim.c ****     assert_param(IS_TIM_OCN_POLARITY(TIM_OCInitStruct->TIM_OCNPolarity));
 476:common/lib.stm32/STM32F10x_StdPeriph_Driver/src/stm32f10x_tim.c ****     assert_param(IS_TIM_OCNIDLE_STATE(TIM_OCInitStruct->TIM_OCNIdleState));
 477:common/lib.stm32/STM32F10x_StdPeriph_Driver/src/stm32f10x_tim.c ****     assert_param(IS_TIM_OCIDLE_STATE(TIM_OCInitStruct->TIM_OCIdleState));
 478:common/lib.stm32/STM32F10x_StdPeriph_Driver/src/stm32f10x_tim.c ****     
 479:common/lib.stm32/STM32F10x_StdPeriph_Driver/src/stm32f10x_tim.c ****     /* Reset the Output N Polarity level */
 480:common/lib.stm32/STM32F10x_StdPeriph_Driver/src/stm32f10x_tim.c ****     tmpccer &= CCER_CC3NP_Reset;
 823              		.loc 1 480 13
 824 007e FB89     		ldrh	r3, [r7, #14]	@ movhi
 825 0080 23F40063 		bic	r3, r3, #2048
 826 0084 FB81     		strh	r3, [r7, #14]	@ movhi
 481:common/lib.stm32/STM32F10x_StdPeriph_Driver/src/stm32f10x_tim.c ****     /* Set the Output N Polarity */
 482:common/lib.stm32/STM32F10x_StdPeriph_Driver/src/stm32f10x_tim.c ****     tmpccer |= (uint16_t)(TIM_OCInitStruct->TIM_OCNPolarity << 8);
 827              		.loc 1 482 43
 828 0086 3B68     		ldr	r3, [r7]
 829 0088 5B89     		ldrh	r3, [r3, #10]
 830              		.loc 1 482 16
 831 008a 1B02     		lsls	r3, r3, #8
 832 008c 9AB2     		uxth	r2, r3
 833              		.loc 1 482 13
 834 008e FB89     		ldrh	r3, [r7, #14]	@ movhi
 835 0090 1343     		orrs	r3, r3, r2
 836 0092 FB81     		strh	r3, [r7, #14]	@ movhi
 483:common/lib.stm32/STM32F10x_StdPeriph_Driver/src/stm32f10x_tim.c ****     /* Reset the Output N State */
 484:common/lib.stm32/STM32F10x_StdPeriph_Driver/src/stm32f10x_tim.c ****     tmpccer &= CCER_CC3NE_Reset;
 837              		.loc 1 484 13
 838 0094 FB89     		ldrh	r3, [r7, #14]	@ movhi
 839 0096 23F48063 		bic	r3, r3, #1024
 840 009a FB81     		strh	r3, [r7, #14]	@ movhi
 485:common/lib.stm32/STM32F10x_StdPeriph_Driver/src/stm32f10x_tim.c ****     
 486:common/lib.stm32/STM32F10x_StdPeriph_Driver/src/stm32f10x_tim.c ****     /* Set the Output N State */
 487:common/lib.stm32/STM32F10x_StdPeriph_Driver/src/stm32f10x_tim.c ****     tmpccer |= (uint16_t)(TIM_OCInitStruct->TIM_OutputNState << 8);
 841              		.loc 1 487 43
 842 009c 3B68     		ldr	r3, [r7]
 843 009e 9B88     		ldrh	r3, [r3, #4]
 844              		.loc 1 487 16
 845 00a0 1B02     		lsls	r3, r3, #8
 846 00a2 9AB2     		uxth	r2, r3
 847              		.loc 1 487 13
 848 00a4 FB89     		ldrh	r3, [r7, #14]	@ movhi
 849 00a6 1343     		orrs	r3, r3, r2
 850 00a8 FB81     		strh	r3, [r7, #14]	@ movhi
 488:common/lib.stm32/STM32F10x_StdPeriph_Driver/src/stm32f10x_tim.c ****     /* Reset the Ouput Compare and Output Compare N IDLE State */
 489:common/lib.stm32/STM32F10x_StdPeriph_Driver/src/stm32f10x_tim.c ****     tmpcr2 &= CR2_OIS3_Reset;
 851              		.loc 1 489 12
 852 00aa BB89     		ldrh	r3, [r7, #12]	@ movhi
 853 00ac 23F48053 		bic	r3, r3, #4096
 854 00b0 5B04     		lsls	r3, r3, #17
 855 00b2 5B0C     		lsrs	r3, r3, #17
 856 00b4 BB81     		strh	r3, [r7, #12]	@ movhi
 490:common/lib.stm32/STM32F10x_StdPeriph_Driver/src/stm32f10x_tim.c ****     tmpcr2 &= CR2_OIS3N_Reset;
 857              		.loc 1 490 12
 858 00b6 BB89     		ldrh	r3, [r7, #12]	@ movhi
 859 00b8 23F40053 		bic	r3, r3, #8192
 860 00bc 5B04     		lsls	r3, r3, #17
 861 00be 5B0C     		lsrs	r3, r3, #17
 862 00c0 BB81     		strh	r3, [r7, #12]	@ movhi
 491:common/lib.stm32/STM32F10x_StdPeriph_Driver/src/stm32f10x_tim.c ****     /* Set the Output Idle state */
 492:common/lib.stm32/STM32F10x_StdPeriph_Driver/src/stm32f10x_tim.c ****     tmpcr2 |= (uint16_t)(TIM_OCInitStruct->TIM_OCIdleState << 4);
 863              		.loc 1 492 42
 864 00c2 3B68     		ldr	r3, [r7]
 865 00c4 9B89     		ldrh	r3, [r3, #12]
 866              		.loc 1 492 15
 867 00c6 1B01     		lsls	r3, r3, #4
 868 00c8 9AB2     		uxth	r2, r3
 869              		.loc 1 492 12
 870 00ca BB89     		ldrh	r3, [r7, #12]	@ movhi
 871 00cc 1343     		orrs	r3, r3, r2
 872 00ce BB81     		strh	r3, [r7, #12]	@ movhi
 493:common/lib.stm32/STM32F10x_StdPeriph_Driver/src/stm32f10x_tim.c ****     /* Set the Output N Idle state */
 494:common/lib.stm32/STM32F10x_StdPeriph_Driver/src/stm32f10x_tim.c ****     tmpcr2 |= (uint16_t)(TIM_OCInitStruct->TIM_OCNIdleState << 4);
 873              		.loc 1 494 42
 874 00d0 3B68     		ldr	r3, [r7]
 875 00d2 DB89     		ldrh	r3, [r3, #14]
 876              		.loc 1 494 15
 877 00d4 1B01     		lsls	r3, r3, #4
 878 00d6 9AB2     		uxth	r2, r3
 879              		.loc 1 494 12
 880 00d8 BB89     		ldrh	r3, [r7, #12]	@ movhi
 881 00da 1343     		orrs	r3, r3, r2
 882 00dc BB81     		strh	r3, [r7, #12]	@ movhi
 883              	.L30:
 495:common/lib.stm32/STM32F10x_StdPeriph_Driver/src/stm32f10x_tim.c ****   }
 496:common/lib.stm32/STM32F10x_StdPeriph_Driver/src/stm32f10x_tim.c ****   /* Write to TIMx CR2 */
 497:common/lib.stm32/STM32F10x_StdPeriph_Driver/src/stm32f10x_tim.c ****   TIMx->CR2 = tmpcr2;
 884              		.loc 1 497 13
 885 00de 7B68     		ldr	r3, [r7, #4]
 886 00e0 BA89     		ldrh	r2, [r7, #12]	@ movhi
 887 00e2 9A80     		strh	r2, [r3, #4]	@ movhi
 498:common/lib.stm32/STM32F10x_StdPeriph_Driver/src/stm32f10x_tim.c ****   
 499:common/lib.stm32/STM32F10x_StdPeriph_Driver/src/stm32f10x_tim.c ****   /* Write to TIMx CCMR2 */
 500:common/lib.stm32/STM32F10x_StdPeriph_Driver/src/stm32f10x_tim.c ****   TIMx->CCMR2 = tmpccmrx;
 888              		.loc 1 500 15
 889 00e4 7B68     		ldr	r3, [r7, #4]
 890 00e6 7A89     		ldrh	r2, [r7, #10]	@ movhi
 891 00e8 9A83     		strh	r2, [r3, #28]	@ movhi
 501:common/lib.stm32/STM32F10x_StdPeriph_Driver/src/stm32f10x_tim.c **** 
 502:common/lib.stm32/STM32F10x_StdPeriph_Driver/src/stm32f10x_tim.c ****   /* Set the Capture Compare Register value */
 503:common/lib.stm32/STM32F10x_StdPeriph_Driver/src/stm32f10x_tim.c ****   TIMx->CCR3 = TIM_OCInitStruct->TIM_Pulse;
 892              		.loc 1 503 32
 893 00ea 3B68     		ldr	r3, [r7]
 894 00ec DA88     		ldrh	r2, [r3, #6]
 895              		.loc 1 503 14
 896 00ee 7B68     		ldr	r3, [r7, #4]
 897 00f0 9A87     		strh	r2, [r3, #60]	@ movhi
 504:common/lib.stm32/STM32F10x_StdPeriph_Driver/src/stm32f10x_tim.c ****   
 505:common/lib.stm32/STM32F10x_StdPeriph_Driver/src/stm32f10x_tim.c ****   /* Write to TIMx CCER */
 506:common/lib.stm32/STM32F10x_StdPeriph_Driver/src/stm32f10x_tim.c ****   TIMx->CCER = tmpccer;
 898              		.loc 1 506 14
 899 00f2 7B68     		ldr	r3, [r7, #4]
 900 00f4 FA89     		ldrh	r2, [r7, #14]	@ movhi
 901 00f6 1A84     		strh	r2, [r3, #32]	@ movhi
 507:common/lib.stm32/STM32F10x_StdPeriph_Driver/src/stm32f10x_tim.c **** }
 902              		.loc 1 507 1
 903 00f8 00BF     		nop
 904 00fa 1437     		adds	r7, r7, #20
 905              	.LCFI26:
 906              		.cfi_def_cfa_offset 4
 907 00fc BD46     		mov	sp, r7
 908              	.LCFI27:
 909              		.cfi_def_cfa_register 13
 910              		@ sp needed
 911 00fe 80BC     		pop	{r7}
 912              	.LCFI28:
 913              		.cfi_restore 7
 914              		.cfi_def_cfa_offset 0
 915 0100 7047     		bx	lr
 916              	.L32:
 917 0102 00BF     		.align	2
 918              	.L31:
 919 0104 002C0140 		.word	1073818624
 920 0108 00340140 		.word	1073820672
 921              		.cfi_endproc
 922              	.LFE31:
 924              		.section	.text.TIM_OC4Init,"ax",%progbits
 925              		.align	1
 926              		.global	TIM_OC4Init
 927              		.syntax unified
 928              		.thumb
 929              		.thumb_func
 931              	TIM_OC4Init:
 932              	.LFB32:
 508:common/lib.stm32/STM32F10x_StdPeriph_Driver/src/stm32f10x_tim.c **** 
 509:common/lib.stm32/STM32F10x_StdPeriph_Driver/src/stm32f10x_tim.c **** /**
 510:common/lib.stm32/STM32F10x_StdPeriph_Driver/src/stm32f10x_tim.c ****   * @brief  Initializes the TIMx Channel4 according to the specified
 511:common/lib.stm32/STM32F10x_StdPeriph_Driver/src/stm32f10x_tim.c ****   *   parameters in the TIM_OCInitStruct.
 512:common/lib.stm32/STM32F10x_StdPeriph_Driver/src/stm32f10x_tim.c ****   * @param  TIMx: where x can be  1, 2, 3, 4, 5 or 8 to select the TIM peripheral.
 513:common/lib.stm32/STM32F10x_StdPeriph_Driver/src/stm32f10x_tim.c ****   * @param  TIM_OCInitStruct: pointer to a TIM_OCInitTypeDef structure
 514:common/lib.stm32/STM32F10x_StdPeriph_Driver/src/stm32f10x_tim.c ****   *   that contains the configuration information for the specified TIM peripheral.
 515:common/lib.stm32/STM32F10x_StdPeriph_Driver/src/stm32f10x_tim.c ****   * @retval None
 516:common/lib.stm32/STM32F10x_StdPeriph_Driver/src/stm32f10x_tim.c ****   */
 517:common/lib.stm32/STM32F10x_StdPeriph_Driver/src/stm32f10x_tim.c **** void TIM_OC4Init(TIM_TypeDef* TIMx, TIM_OCInitTypeDef* TIM_OCInitStruct)
 518:common/lib.stm32/STM32F10x_StdPeriph_Driver/src/stm32f10x_tim.c **** {
 933              		.loc 1 518 1
 934              		.cfi_startproc
 935              		@ args = 0, pretend = 0, frame = 16
 936              		@ frame_needed = 1, uses_anonymous_args = 0
 937              		@ link register save eliminated.
 938 0000 80B4     		push	{r7}
 939              	.LCFI29:
 940              		.cfi_def_cfa_offset 4
 941              		.cfi_offset 7, -4
 942 0002 85B0     		sub	sp, sp, #20
 943              	.LCFI30:
 944              		.cfi_def_cfa_offset 24
 945 0004 00AF     		add	r7, sp, #0
 946              	.LCFI31:
 947              		.cfi_def_cfa_register 7
 948 0006 7860     		str	r0, [r7, #4]
 949 0008 3960     		str	r1, [r7]
 519:common/lib.stm32/STM32F10x_StdPeriph_Driver/src/stm32f10x_tim.c ****   uint16_t tmpccmrx = 0, tmpccer = 0, tmpcr2 = 0;
 950              		.loc 1 519 12
 951 000a 0023     		movs	r3, #0
 952 000c BB81     		strh	r3, [r7, #12]	@ movhi
 953              		.loc 1 519 26
 954 000e 0023     		movs	r3, #0
 955 0010 7B81     		strh	r3, [r7, #10]	@ movhi
 956              		.loc 1 519 39
 957 0012 0023     		movs	r3, #0
 958 0014 FB81     		strh	r3, [r7, #14]	@ movhi
 520:common/lib.stm32/STM32F10x_StdPeriph_Driver/src/stm32f10x_tim.c ****    
 521:common/lib.stm32/STM32F10x_StdPeriph_Driver/src/stm32f10x_tim.c ****   /* Check the parameters */
 522:common/lib.stm32/STM32F10x_StdPeriph_Driver/src/stm32f10x_tim.c ****   assert_param(IS_TIM_123458_PERIPH(TIMx)); 
 523:common/lib.stm32/STM32F10x_StdPeriph_Driver/src/stm32f10x_tim.c ****   assert_param(IS_TIM_OC_MODE(TIM_OCInitStruct->TIM_OCMode));
 524:common/lib.stm32/STM32F10x_StdPeriph_Driver/src/stm32f10x_tim.c ****   assert_param(IS_TIM_OUTPUT_STATE(TIM_OCInitStruct->TIM_OutputState));
 525:common/lib.stm32/STM32F10x_StdPeriph_Driver/src/stm32f10x_tim.c ****   assert_param(IS_TIM_OC_POLARITY(TIM_OCInitStruct->TIM_OCPolarity));   
 526:common/lib.stm32/STM32F10x_StdPeriph_Driver/src/stm32f10x_tim.c ****   /* Disable the Channel 2: Reset the CC4E Bit */
 527:common/lib.stm32/STM32F10x_StdPeriph_Driver/src/stm32f10x_tim.c ****   TIMx->CCER &= CCER_CC4E_Reset;
 959              		.loc 1 527 14
 960 0016 7B68     		ldr	r3, [r7, #4]
 961 0018 1B8C     		ldrh	r3, [r3, #32]	@ movhi
 962 001a 9BB2     		uxth	r3, r3
 963 001c 23F48053 		bic	r3, r3, #4096
 964 0020 9AB2     		uxth	r2, r3
 965 0022 7B68     		ldr	r3, [r7, #4]
 966 0024 1A84     		strh	r2, [r3, #32]	@ movhi
 528:common/lib.stm32/STM32F10x_StdPeriph_Driver/src/stm32f10x_tim.c ****   
 529:common/lib.stm32/STM32F10x_StdPeriph_Driver/src/stm32f10x_tim.c ****   /* Get the TIMx CCER register value */
 530:common/lib.stm32/STM32F10x_StdPeriph_Driver/src/stm32f10x_tim.c ****   tmpccer = TIMx->CCER;
 967              		.loc 1 530 11
 968 0026 7B68     		ldr	r3, [r7, #4]
 969 0028 1B8C     		ldrh	r3, [r3, #32]	@ movhi
 970 002a 7B81     		strh	r3, [r7, #10]	@ movhi
 531:common/lib.stm32/STM32F10x_StdPeriph_Driver/src/stm32f10x_tim.c ****   /* Get the TIMx CR2 register value */
 532:common/lib.stm32/STM32F10x_StdPeriph_Driver/src/stm32f10x_tim.c ****   tmpcr2 =  TIMx->CR2;
 971              		.loc 1 532 10
 972 002c 7B68     		ldr	r3, [r7, #4]
 973 002e 9B88     		ldrh	r3, [r3, #4]	@ movhi
 974 0030 FB81     		strh	r3, [r7, #14]	@ movhi
 533:common/lib.stm32/STM32F10x_StdPeriph_Driver/src/stm32f10x_tim.c ****   
 534:common/lib.stm32/STM32F10x_StdPeriph_Driver/src/stm32f10x_tim.c ****   /* Get the TIMx CCMR2 register value */
 535:common/lib.stm32/STM32F10x_StdPeriph_Driver/src/stm32f10x_tim.c ****   tmpccmrx = TIMx->CCMR2;
 975              		.loc 1 535 12
 976 0032 7B68     		ldr	r3, [r7, #4]
 977 0034 9B8B     		ldrh	r3, [r3, #28]	@ movhi
 978 0036 BB81     		strh	r3, [r7, #12]	@ movhi
 536:common/lib.stm32/STM32F10x_StdPeriph_Driver/src/stm32f10x_tim.c ****     
 537:common/lib.stm32/STM32F10x_StdPeriph_Driver/src/stm32f10x_tim.c ****   /* Reset the Output Compare mode and Capture/Compare selection Bits */
 538:common/lib.stm32/STM32F10x_StdPeriph_Driver/src/stm32f10x_tim.c ****   tmpccmrx &= CCMR_OC24M_Mask & CCMR_CC24S_Mask; 
 979              		.loc 1 538 12
 980 0038 BB89     		ldrh	r3, [r7, #12]	@ movhi
 981 003a 23F4E643 		bic	r3, r3, #29440
 982 003e BB81     		strh	r3, [r7, #12]	@ movhi
 539:common/lib.stm32/STM32F10x_StdPeriph_Driver/src/stm32f10x_tim.c ****    
 540:common/lib.stm32/STM32F10x_StdPeriph_Driver/src/stm32f10x_tim.c ****   /* Select the Output Compare Mode */
 541:common/lib.stm32/STM32F10x_StdPeriph_Driver/src/stm32f10x_tim.c ****   tmpccmrx |= (uint16_t)(TIM_OCInitStruct->TIM_OCMode << 8);
 983              		.loc 1 541 42
 984 0040 3B68     		ldr	r3, [r7]
 985 0042 1B88     		ldrh	r3, [r3]
 986              		.loc 1 541 15
 987 0044 1B02     		lsls	r3, r3, #8
 988 0046 9AB2     		uxth	r2, r3
 989              		.loc 1 541 12
 990 0048 BB89     		ldrh	r3, [r7, #12]	@ movhi
 991 004a 1343     		orrs	r3, r3, r2
 992 004c BB81     		strh	r3, [r7, #12]	@ movhi
 542:common/lib.stm32/STM32F10x_StdPeriph_Driver/src/stm32f10x_tim.c ****   
 543:common/lib.stm32/STM32F10x_StdPeriph_Driver/src/stm32f10x_tim.c ****   /* Reset the Output Polarity level */
 544:common/lib.stm32/STM32F10x_StdPeriph_Driver/src/stm32f10x_tim.c ****   tmpccer &= CCER_CC4P_Reset;
 993              		.loc 1 544 11
 994 004e 7B89     		ldrh	r3, [r7, #10]	@ movhi
 995 0050 23F40053 		bic	r3, r3, #8192
 996 0054 7B81     		strh	r3, [r7, #10]	@ movhi
 545:common/lib.stm32/STM32F10x_StdPeriph_Driver/src/stm32f10x_tim.c ****   /* Set the Output Compare Polarity */
 546:common/lib.stm32/STM32F10x_StdPeriph_Driver/src/stm32f10x_tim.c ****   tmpccer |= (uint16_t)(TIM_OCInitStruct->TIM_OCPolarity << 12);
 997              		.loc 1 546 41
 998 0056 3B68     		ldr	r3, [r7]
 999 0058 1B89     		ldrh	r3, [r3, #8]
 1000              		.loc 1 546 14
 1001 005a 1B03     		lsls	r3, r3, #12
 1002 005c 9AB2     		uxth	r2, r3
 1003              		.loc 1 546 11
 1004 005e 7B89     		ldrh	r3, [r7, #10]	@ movhi
 1005 0060 1343     		orrs	r3, r3, r2
 1006 0062 7B81     		strh	r3, [r7, #10]	@ movhi
 547:common/lib.stm32/STM32F10x_StdPeriph_Driver/src/stm32f10x_tim.c ****   
 548:common/lib.stm32/STM32F10x_StdPeriph_Driver/src/stm32f10x_tim.c ****   /* Set the Output State */
 549:common/lib.stm32/STM32F10x_StdPeriph_Driver/src/stm32f10x_tim.c ****   tmpccer |= (uint16_t)(TIM_OCInitStruct->TIM_OutputState << 12);
 1007              		.loc 1 549 41
 1008 0064 3B68     		ldr	r3, [r7]
 1009 0066 5B88     		ldrh	r3, [r3, #2]
 1010              		.loc 1 549 14
 1011 0068 1B03     		lsls	r3, r3, #12
 1012 006a 9AB2     		uxth	r2, r3
 1013              		.loc 1 549 11
 1014 006c 7B89     		ldrh	r3, [r7, #10]	@ movhi
 1015 006e 1343     		orrs	r3, r3, r2
 1016 0070 7B81     		strh	r3, [r7, #10]	@ movhi
 550:common/lib.stm32/STM32F10x_StdPeriph_Driver/src/stm32f10x_tim.c ****     
 551:common/lib.stm32/STM32F10x_StdPeriph_Driver/src/stm32f10x_tim.c ****   if(((uint32_t) TIMx == TIM1_BASE) || ((uint32_t) TIMx == TIM8_BASE))
 1017              		.loc 1 551 5
 1018 0072 7B68     		ldr	r3, [r7, #4]
 1019 0074 124A     		ldr	r2, .L36
 1020 0076 9342     		cmp	r3, r2
 1021 0078 03D0     		beq	.L34
 1022              		.loc 1 551 37 discriminator 1
 1023 007a 7B68     		ldr	r3, [r7, #4]
 1024 007c 114A     		ldr	r2, .L36+4
 1025 007e 9342     		cmp	r3, r2
 1026 0080 0AD1     		bne	.L35
 1027              	.L34:
 552:common/lib.stm32/STM32F10x_StdPeriph_Driver/src/stm32f10x_tim.c ****   {
 553:common/lib.stm32/STM32F10x_StdPeriph_Driver/src/stm32f10x_tim.c ****     assert_param(IS_TIM_OCIDLE_STATE(TIM_OCInitStruct->TIM_OCIdleState));
 554:common/lib.stm32/STM32F10x_StdPeriph_Driver/src/stm32f10x_tim.c ****     /* Reset the Ouput Compare IDLE State */
 555:common/lib.stm32/STM32F10x_StdPeriph_Driver/src/stm32f10x_tim.c ****     tmpcr2 &= CR2_OIS4_Reset;
 1028              		.loc 1 555 12
 1029 0082 FB89     		ldrh	r3, [r7, #14]	@ movhi
 1030 0084 C3F30D03 		ubfx	r3, r3, #0, #14
 1031 0088 FB81     		strh	r3, [r7, #14]	@ movhi
 556:common/lib.stm32/STM32F10x_StdPeriph_Driver/src/stm32f10x_tim.c ****     /* Set the Output Idle state */
 557:common/lib.stm32/STM32F10x_StdPeriph_Driver/src/stm32f10x_tim.c ****     tmpcr2 |= (uint16_t)(TIM_OCInitStruct->TIM_OCIdleState << 6);
 1032              		.loc 1 557 42
 1033 008a 3B68     		ldr	r3, [r7]
 1034 008c 9B89     		ldrh	r3, [r3, #12]
 1035              		.loc 1 557 15
 1036 008e 9B01     		lsls	r3, r3, #6
 1037 0090 9AB2     		uxth	r2, r3
 1038              		.loc 1 557 12
 1039 0092 FB89     		ldrh	r3, [r7, #14]	@ movhi
 1040 0094 1343     		orrs	r3, r3, r2
 1041 0096 FB81     		strh	r3, [r7, #14]	@ movhi
 1042              	.L35:
 558:common/lib.stm32/STM32F10x_StdPeriph_Driver/src/stm32f10x_tim.c ****   }
 559:common/lib.stm32/STM32F10x_StdPeriph_Driver/src/stm32f10x_tim.c ****   /* Write to TIMx CR2 */
 560:common/lib.stm32/STM32F10x_StdPeriph_Driver/src/stm32f10x_tim.c ****   TIMx->CR2 = tmpcr2;
 1043              		.loc 1 560 13
 1044 0098 7B68     		ldr	r3, [r7, #4]
 1045 009a FA89     		ldrh	r2, [r7, #14]	@ movhi
 1046 009c 9A80     		strh	r2, [r3, #4]	@ movhi
 561:common/lib.stm32/STM32F10x_StdPeriph_Driver/src/stm32f10x_tim.c ****   
 562:common/lib.stm32/STM32F10x_StdPeriph_Driver/src/stm32f10x_tim.c ****   /* Write to TIMx CCMR2 */  
 563:common/lib.stm32/STM32F10x_StdPeriph_Driver/src/stm32f10x_tim.c ****   TIMx->CCMR2 = tmpccmrx;
 1047              		.loc 1 563 15
 1048 009e 7B68     		ldr	r3, [r7, #4]
 1049 00a0 BA89     		ldrh	r2, [r7, #12]	@ movhi
 1050 00a2 9A83     		strh	r2, [r3, #28]	@ movhi
 564:common/lib.stm32/STM32F10x_StdPeriph_Driver/src/stm32f10x_tim.c **** 
 565:common/lib.stm32/STM32F10x_StdPeriph_Driver/src/stm32f10x_tim.c ****   /* Set the Capture Compare Register value */
 566:common/lib.stm32/STM32F10x_StdPeriph_Driver/src/stm32f10x_tim.c ****   TIMx->CCR4 = TIM_OCInitStruct->TIM_Pulse;
 1051              		.loc 1 566 32
 1052 00a4 3B68     		ldr	r3, [r7]
 1053 00a6 DA88     		ldrh	r2, [r3, #6]
 1054              		.loc 1 566 14
 1055 00a8 7B68     		ldr	r3, [r7, #4]
 1056 00aa A3F84020 		strh	r2, [r3, #64]	@ movhi
 567:common/lib.stm32/STM32F10x_StdPeriph_Driver/src/stm32f10x_tim.c ****   
 568:common/lib.stm32/STM32F10x_StdPeriph_Driver/src/stm32f10x_tim.c ****   /* Write to TIMx CCER */
 569:common/lib.stm32/STM32F10x_StdPeriph_Driver/src/stm32f10x_tim.c ****   TIMx->CCER = tmpccer;
 1057              		.loc 1 569 14
 1058 00ae 7B68     		ldr	r3, [r7, #4]
 1059 00b0 7A89     		ldrh	r2, [r7, #10]	@ movhi
 1060 00b2 1A84     		strh	r2, [r3, #32]	@ movhi
 570:common/lib.stm32/STM32F10x_StdPeriph_Driver/src/stm32f10x_tim.c **** }
 1061              		.loc 1 570 1
 1062 00b4 00BF     		nop
 1063 00b6 1437     		adds	r7, r7, #20
 1064              	.LCFI32:
 1065              		.cfi_def_cfa_offset 4
 1066 00b8 BD46     		mov	sp, r7
 1067              	.LCFI33:
 1068              		.cfi_def_cfa_register 13
 1069              		@ sp needed
 1070 00ba 80BC     		pop	{r7}
 1071              	.LCFI34:
 1072              		.cfi_restore 7
 1073              		.cfi_def_cfa_offset 0
 1074 00bc 7047     		bx	lr
 1075              	.L37:
 1076 00be 00BF     		.align	2
 1077              	.L36:
 1078 00c0 002C0140 		.word	1073818624
 1079 00c4 00340140 		.word	1073820672
 1080              		.cfi_endproc
 1081              	.LFE32:
 1083              		.section	.text.TIM_ICInit,"ax",%progbits
 1084              		.align	1
 1085              		.global	TIM_ICInit
 1086              		.syntax unified
 1087              		.thumb
 1088              		.thumb_func
 1090              	TIM_ICInit:
 1091              	.LFB33:
 571:common/lib.stm32/STM32F10x_StdPeriph_Driver/src/stm32f10x_tim.c **** 
 572:common/lib.stm32/STM32F10x_StdPeriph_Driver/src/stm32f10x_tim.c **** /**
 573:common/lib.stm32/STM32F10x_StdPeriph_Driver/src/stm32f10x_tim.c ****   * @brief  Initializes the TIM peripheral according to the specified
 574:common/lib.stm32/STM32F10x_StdPeriph_Driver/src/stm32f10x_tim.c ****   *   parameters in the TIM_ICInitStruct.
 575:common/lib.stm32/STM32F10x_StdPeriph_Driver/src/stm32f10x_tim.c ****   * @param  TIMx: where x can be  1, 2, 3, 4, 5 or 8 to select the TIM peripheral.
 576:common/lib.stm32/STM32F10x_StdPeriph_Driver/src/stm32f10x_tim.c ****   * @param  TIM_ICInitStruct: pointer to a TIM_ICInitTypeDef structure
 577:common/lib.stm32/STM32F10x_StdPeriph_Driver/src/stm32f10x_tim.c ****   *   that contains the configuration information for the specified TIM peripheral.
 578:common/lib.stm32/STM32F10x_StdPeriph_Driver/src/stm32f10x_tim.c ****   * @retval None
 579:common/lib.stm32/STM32F10x_StdPeriph_Driver/src/stm32f10x_tim.c ****   */
 580:common/lib.stm32/STM32F10x_StdPeriph_Driver/src/stm32f10x_tim.c **** void TIM_ICInit(TIM_TypeDef* TIMx, TIM_ICInitTypeDef* TIM_ICInitStruct)
 581:common/lib.stm32/STM32F10x_StdPeriph_Driver/src/stm32f10x_tim.c **** {
 1092              		.loc 1 581 1
 1093              		.cfi_startproc
 1094              		@ args = 0, pretend = 0, frame = 8
 1095              		@ frame_needed = 1, uses_anonymous_args = 0
 1096 0000 90B5     		push	{r4, r7, lr}
 1097              	.LCFI35:
 1098              		.cfi_def_cfa_offset 12
 1099              		.cfi_offset 4, -12
 1100              		.cfi_offset 7, -8
 1101              		.cfi_offset 14, -4
 1102 0002 83B0     		sub	sp, sp, #12
 1103              	.LCFI36:
 1104              		.cfi_def_cfa_offset 24
 1105 0004 00AF     		add	r7, sp, #0
 1106              	.LCFI37:
 1107              		.cfi_def_cfa_register 7
 1108 0006 7860     		str	r0, [r7, #4]
 1109 0008 3960     		str	r1, [r7]
 582:common/lib.stm32/STM32F10x_StdPeriph_Driver/src/stm32f10x_tim.c ****   /* Check the parameters */
 583:common/lib.stm32/STM32F10x_StdPeriph_Driver/src/stm32f10x_tim.c ****   assert_param(IS_TIM_123458_PERIPH(TIMx));
 584:common/lib.stm32/STM32F10x_StdPeriph_Driver/src/stm32f10x_tim.c ****   assert_param(IS_TIM_CHANNEL(TIM_ICInitStruct->TIM_Channel));
 585:common/lib.stm32/STM32F10x_StdPeriph_Driver/src/stm32f10x_tim.c ****   assert_param(IS_TIM_IC_POLARITY(TIM_ICInitStruct->TIM_ICPolarity));
 586:common/lib.stm32/STM32F10x_StdPeriph_Driver/src/stm32f10x_tim.c ****   assert_param(IS_TIM_IC_SELECTION(TIM_ICInitStruct->TIM_ICSelection));
 587:common/lib.stm32/STM32F10x_StdPeriph_Driver/src/stm32f10x_tim.c ****   assert_param(IS_TIM_IC_PRESCALER(TIM_ICInitStruct->TIM_ICPrescaler));
 588:common/lib.stm32/STM32F10x_StdPeriph_Driver/src/stm32f10x_tim.c ****   assert_param(IS_TIM_IC_FILTER(TIM_ICInitStruct->TIM_ICFilter));
 589:common/lib.stm32/STM32F10x_StdPeriph_Driver/src/stm32f10x_tim.c ****   
 590:common/lib.stm32/STM32F10x_StdPeriph_Driver/src/stm32f10x_tim.c ****   if (TIM_ICInitStruct->TIM_Channel == TIM_Channel_1)
 1110              		.loc 1 590 23
 1111 000a 3B68     		ldr	r3, [r7]
 1112 000c 1B88     		ldrh	r3, [r3]
 1113              		.loc 1 590 6
 1114 000e 002B     		cmp	r3, #0
 1115 0010 0FD1     		bne	.L39
 591:common/lib.stm32/STM32F10x_StdPeriph_Driver/src/stm32f10x_tim.c ****   {
 592:common/lib.stm32/STM32F10x_StdPeriph_Driver/src/stm32f10x_tim.c ****     /* TI1 Configuration */
 593:common/lib.stm32/STM32F10x_StdPeriph_Driver/src/stm32f10x_tim.c ****     TI1_Config(TIMx, TIM_ICInitStruct->TIM_ICPolarity,
 1116              		.loc 1 593 5
 1117 0012 3B68     		ldr	r3, [r7]
 1118 0014 5988     		ldrh	r1, [r3, #2]
 1119 0016 3B68     		ldr	r3, [r7]
 1120 0018 9A88     		ldrh	r2, [r3, #4]
 1121 001a 3B68     		ldr	r3, [r7]
 1122 001c 1B89     		ldrh	r3, [r3, #8]
 1123 001e 7868     		ldr	r0, [r7, #4]
 1124 0020 214C     		ldr	r4, .L44
 1125 0022 A047     		blx	r4
 1126              	.LVL16:
 594:common/lib.stm32/STM32F10x_StdPeriph_Driver/src/stm32f10x_tim.c ****                TIM_ICInitStruct->TIM_ICSelection,
 595:common/lib.stm32/STM32F10x_StdPeriph_Driver/src/stm32f10x_tim.c ****                TIM_ICInitStruct->TIM_ICFilter);
 596:common/lib.stm32/STM32F10x_StdPeriph_Driver/src/stm32f10x_tim.c ****     /* Set the Input Capture Prescaler value */
 597:common/lib.stm32/STM32F10x_StdPeriph_Driver/src/stm32f10x_tim.c ****     TIM_SetIC1Prescaler(TIMx, TIM_ICInitStruct->TIM_ICPrescaler);
 1127              		.loc 1 597 5
 1128 0024 3B68     		ldr	r3, [r7]
 1129 0026 DB88     		ldrh	r3, [r3, #6]
 1130 0028 1946     		mov	r1, r3
 1131 002a 7868     		ldr	r0, [r7, #4]
 1132 002c 1F4B     		ldr	r3, .L44+4
 1133 002e 9847     		blx	r3
 1134              	.LVL17:
 598:common/lib.stm32/STM32F10x_StdPeriph_Driver/src/stm32f10x_tim.c ****   }
 599:common/lib.stm32/STM32F10x_StdPeriph_Driver/src/stm32f10x_tim.c ****   else if (TIM_ICInitStruct->TIM_Channel == TIM_Channel_2)
 600:common/lib.stm32/STM32F10x_StdPeriph_Driver/src/stm32f10x_tim.c ****   {
 601:common/lib.stm32/STM32F10x_StdPeriph_Driver/src/stm32f10x_tim.c ****     /* TI2 Configuration */
 602:common/lib.stm32/STM32F10x_StdPeriph_Driver/src/stm32f10x_tim.c ****     TI2_Config(TIMx, TIM_ICInitStruct->TIM_ICPolarity,
 603:common/lib.stm32/STM32F10x_StdPeriph_Driver/src/stm32f10x_tim.c ****                TIM_ICInitStruct->TIM_ICSelection,
 604:common/lib.stm32/STM32F10x_StdPeriph_Driver/src/stm32f10x_tim.c ****                TIM_ICInitStruct->TIM_ICFilter);
 605:common/lib.stm32/STM32F10x_StdPeriph_Driver/src/stm32f10x_tim.c ****     /* Set the Input Capture Prescaler value */
 606:common/lib.stm32/STM32F10x_StdPeriph_Driver/src/stm32f10x_tim.c ****     TIM_SetIC2Prescaler(TIMx, TIM_ICInitStruct->TIM_ICPrescaler);
 607:common/lib.stm32/STM32F10x_StdPeriph_Driver/src/stm32f10x_tim.c ****   }
 608:common/lib.stm32/STM32F10x_StdPeriph_Driver/src/stm32f10x_tim.c ****   else if (TIM_ICInitStruct->TIM_Channel == TIM_Channel_3)
 609:common/lib.stm32/STM32F10x_StdPeriph_Driver/src/stm32f10x_tim.c ****   {
 610:common/lib.stm32/STM32F10x_StdPeriph_Driver/src/stm32f10x_tim.c ****     /* TI3 Configuration */
 611:common/lib.stm32/STM32F10x_StdPeriph_Driver/src/stm32f10x_tim.c ****     TI3_Config(TIMx,  TIM_ICInitStruct->TIM_ICPolarity,
 612:common/lib.stm32/STM32F10x_StdPeriph_Driver/src/stm32f10x_tim.c ****                TIM_ICInitStruct->TIM_ICSelection,
 613:common/lib.stm32/STM32F10x_StdPeriph_Driver/src/stm32f10x_tim.c ****                TIM_ICInitStruct->TIM_ICFilter);
 614:common/lib.stm32/STM32F10x_StdPeriph_Driver/src/stm32f10x_tim.c ****     /* Set the Input Capture Prescaler value */
 615:common/lib.stm32/STM32F10x_StdPeriph_Driver/src/stm32f10x_tim.c ****     TIM_SetIC3Prescaler(TIMx, TIM_ICInitStruct->TIM_ICPrescaler);
 616:common/lib.stm32/STM32F10x_StdPeriph_Driver/src/stm32f10x_tim.c ****   }
 617:common/lib.stm32/STM32F10x_StdPeriph_Driver/src/stm32f10x_tim.c ****   else
 618:common/lib.stm32/STM32F10x_StdPeriph_Driver/src/stm32f10x_tim.c ****   {
 619:common/lib.stm32/STM32F10x_StdPeriph_Driver/src/stm32f10x_tim.c ****     /* TI4 Configuration */
 620:common/lib.stm32/STM32F10x_StdPeriph_Driver/src/stm32f10x_tim.c ****     TI4_Config(TIMx, TIM_ICInitStruct->TIM_ICPolarity,
 621:common/lib.stm32/STM32F10x_StdPeriph_Driver/src/stm32f10x_tim.c ****                TIM_ICInitStruct->TIM_ICSelection,
 622:common/lib.stm32/STM32F10x_StdPeriph_Driver/src/stm32f10x_tim.c ****                TIM_ICInitStruct->TIM_ICFilter);
 623:common/lib.stm32/STM32F10x_StdPeriph_Driver/src/stm32f10x_tim.c ****     /* Set the Input Capture Prescaler value */
 624:common/lib.stm32/STM32F10x_StdPeriph_Driver/src/stm32f10x_tim.c ****     TIM_SetIC4Prescaler(TIMx, TIM_ICInitStruct->TIM_ICPrescaler);
 625:common/lib.stm32/STM32F10x_StdPeriph_Driver/src/stm32f10x_tim.c ****   }
 626:common/lib.stm32/STM32F10x_StdPeriph_Driver/src/stm32f10x_tim.c **** }
 1135              		.loc 1 626 1
 1136 0030 36E0     		b	.L43
 1137              	.L39:
 599:common/lib.stm32/STM32F10x_StdPeriph_Driver/src/stm32f10x_tim.c ****   {
 1138              		.loc 1 599 28
 1139 0032 3B68     		ldr	r3, [r7]
 1140 0034 1B88     		ldrh	r3, [r3]
 599:common/lib.stm32/STM32F10x_StdPeriph_Driver/src/stm32f10x_tim.c ****   {
 1141              		.loc 1 599 11
 1142 0036 042B     		cmp	r3, #4
 1143 0038 0FD1     		bne	.L41
 602:common/lib.stm32/STM32F10x_StdPeriph_Driver/src/stm32f10x_tim.c ****                TIM_ICInitStruct->TIM_ICSelection,
 1144              		.loc 1 602 5
 1145 003a 3B68     		ldr	r3, [r7]
 1146 003c 5988     		ldrh	r1, [r3, #2]
 1147 003e 3B68     		ldr	r3, [r7]
 1148 0040 9A88     		ldrh	r2, [r3, #4]
 1149 0042 3B68     		ldr	r3, [r7]
 1150 0044 1B89     		ldrh	r3, [r3, #8]
 1151 0046 7868     		ldr	r0, [r7, #4]
 1152 0048 194C     		ldr	r4, .L44+8
 1153 004a A047     		blx	r4
 1154              	.LVL18:
 606:common/lib.stm32/STM32F10x_StdPeriph_Driver/src/stm32f10x_tim.c ****   }
 1155              		.loc 1 606 5
 1156 004c 3B68     		ldr	r3, [r7]
 1157 004e DB88     		ldrh	r3, [r3, #6]
 1158 0050 1946     		mov	r1, r3
 1159 0052 7868     		ldr	r0, [r7, #4]
 1160 0054 174B     		ldr	r3, .L44+12
 1161 0056 9847     		blx	r3
 1162              	.LVL19:
 1163              		.loc 1 626 1
 1164 0058 22E0     		b	.L43
 1165              	.L41:
 608:common/lib.stm32/STM32F10x_StdPeriph_Driver/src/stm32f10x_tim.c ****   {
 1166              		.loc 1 608 28
 1167 005a 3B68     		ldr	r3, [r7]
 1168 005c 1B88     		ldrh	r3, [r3]
 608:common/lib.stm32/STM32F10x_StdPeriph_Driver/src/stm32f10x_tim.c ****   {
 1169              		.loc 1 608 11
 1170 005e 082B     		cmp	r3, #8
 1171 0060 0FD1     		bne	.L42
 611:common/lib.stm32/STM32F10x_StdPeriph_Driver/src/stm32f10x_tim.c ****                TIM_ICInitStruct->TIM_ICSelection,
 1172              		.loc 1 611 5
 1173 0062 3B68     		ldr	r3, [r7]
 1174 0064 5988     		ldrh	r1, [r3, #2]
 1175 0066 3B68     		ldr	r3, [r7]
 1176 0068 9A88     		ldrh	r2, [r3, #4]
 1177 006a 3B68     		ldr	r3, [r7]
 1178 006c 1B89     		ldrh	r3, [r3, #8]
 1179 006e 7868     		ldr	r0, [r7, #4]
 1180 0070 114C     		ldr	r4, .L44+16
 1181 0072 A047     		blx	r4
 1182              	.LVL20:
 615:common/lib.stm32/STM32F10x_StdPeriph_Driver/src/stm32f10x_tim.c ****   }
 1183              		.loc 1 615 5
 1184 0074 3B68     		ldr	r3, [r7]
 1185 0076 DB88     		ldrh	r3, [r3, #6]
 1186 0078 1946     		mov	r1, r3
 1187 007a 7868     		ldr	r0, [r7, #4]
 1188 007c 0F4B     		ldr	r3, .L44+20
 1189 007e 9847     		blx	r3
 1190              	.LVL21:
 1191              		.loc 1 626 1
 1192 0080 0EE0     		b	.L43
 1193              	.L42:
 620:common/lib.stm32/STM32F10x_StdPeriph_Driver/src/stm32f10x_tim.c ****                TIM_ICInitStruct->TIM_ICSelection,
 1194              		.loc 1 620 5
 1195 0082 3B68     		ldr	r3, [r7]
 1196 0084 5988     		ldrh	r1, [r3, #2]
 1197 0086 3B68     		ldr	r3, [r7]
 1198 0088 9A88     		ldrh	r2, [r3, #4]
 1199 008a 3B68     		ldr	r3, [r7]
 1200 008c 1B89     		ldrh	r3, [r3, #8]
 1201 008e 7868     		ldr	r0, [r7, #4]
 1202 0090 0B4C     		ldr	r4, .L44+24
 1203 0092 A047     		blx	r4
 1204              	.LVL22:
 624:common/lib.stm32/STM32F10x_StdPeriph_Driver/src/stm32f10x_tim.c ****   }
 1205              		.loc 1 624 5
 1206 0094 3B68     		ldr	r3, [r7]
 1207 0096 DB88     		ldrh	r3, [r3, #6]
 1208 0098 1946     		mov	r1, r3
 1209 009a 7868     		ldr	r0, [r7, #4]
 1210 009c 094B     		ldr	r3, .L44+28
 1211 009e 9847     		blx	r3
 1212              	.LVL23:
 1213              	.L43:
 1214              		.loc 1 626 1
 1215 00a0 00BF     		nop
 1216 00a2 0C37     		adds	r7, r7, #12
 1217              	.LCFI38:
 1218              		.cfi_def_cfa_offset 12
 1219 00a4 BD46     		mov	sp, r7
 1220              	.LCFI39:
 1221              		.cfi_def_cfa_register 13
 1222              		@ sp needed
 1223 00a6 90BD     		pop	{r4, r7, pc}
 1224              	.L45:
 1225              		.align	2
 1226              	.L44:
 1227 00a8 00000000 		.word	TI1_Config
 1228 00ac 00000000 		.word	TIM_SetIC1Prescaler
 1229 00b0 00000000 		.word	TI2_Config
 1230 00b4 00000000 		.word	TIM_SetIC2Prescaler
 1231 00b8 00000000 		.word	TI3_Config
 1232 00bc 00000000 		.word	TIM_SetIC3Prescaler
 1233 00c0 00000000 		.word	TI4_Config
 1234 00c4 00000000 		.word	TIM_SetIC4Prescaler
 1235              		.cfi_endproc
 1236              	.LFE33:
 1238              		.section	.text.TIM_PWMIConfig,"ax",%progbits
 1239              		.align	1
 1240              		.global	TIM_PWMIConfig
 1241              		.syntax unified
 1242              		.thumb
 1243              		.thumb_func
 1245              	TIM_PWMIConfig:
 1246              	.LFB34:
 627:common/lib.stm32/STM32F10x_StdPeriph_Driver/src/stm32f10x_tim.c **** 
 628:common/lib.stm32/STM32F10x_StdPeriph_Driver/src/stm32f10x_tim.c **** /**
 629:common/lib.stm32/STM32F10x_StdPeriph_Driver/src/stm32f10x_tim.c ****   * @brief  Configures the TIM peripheral according to the specified
 630:common/lib.stm32/STM32F10x_StdPeriph_Driver/src/stm32f10x_tim.c ****   *   parameters in the TIM_ICInitStruct to measure an external PWM signal.
 631:common/lib.stm32/STM32F10x_StdPeriph_Driver/src/stm32f10x_tim.c ****   * @param  TIMx: where x can be  1, 2, 3, 4, 5 or 8 to select the TIM peripheral.
 632:common/lib.stm32/STM32F10x_StdPeriph_Driver/src/stm32f10x_tim.c ****   * @param  TIM_ICInitStruct: pointer to a TIM_ICInitTypeDef structure
 633:common/lib.stm32/STM32F10x_StdPeriph_Driver/src/stm32f10x_tim.c ****   *   that contains the configuration information for the specified TIM peripheral.
 634:common/lib.stm32/STM32F10x_StdPeriph_Driver/src/stm32f10x_tim.c ****   * @retval None
 635:common/lib.stm32/STM32F10x_StdPeriph_Driver/src/stm32f10x_tim.c ****   */
 636:common/lib.stm32/STM32F10x_StdPeriph_Driver/src/stm32f10x_tim.c **** void TIM_PWMIConfig(TIM_TypeDef* TIMx, TIM_ICInitTypeDef* TIM_ICInitStruct)
 637:common/lib.stm32/STM32F10x_StdPeriph_Driver/src/stm32f10x_tim.c **** {
 1247              		.loc 1 637 1
 1248              		.cfi_startproc
 1249              		@ args = 0, pretend = 0, frame = 16
 1250              		@ frame_needed = 1, uses_anonymous_args = 0
 1251 0000 90B5     		push	{r4, r7, lr}
 1252              	.LCFI40:
 1253              		.cfi_def_cfa_offset 12
 1254              		.cfi_offset 4, -12
 1255              		.cfi_offset 7, -8
 1256              		.cfi_offset 14, -4
 1257 0002 85B0     		sub	sp, sp, #20
 1258              	.LCFI41:
 1259              		.cfi_def_cfa_offset 32
 1260 0004 00AF     		add	r7, sp, #0
 1261              	.LCFI42:
 1262              		.cfi_def_cfa_register 7
 1263 0006 7860     		str	r0, [r7, #4]
 1264 0008 3960     		str	r1, [r7]
 638:common/lib.stm32/STM32F10x_StdPeriph_Driver/src/stm32f10x_tim.c ****   uint16_t icoppositepolarity = TIM_ICPolarity_Rising;
 1265              		.loc 1 638 12
 1266 000a 0023     		movs	r3, #0
 1267 000c FB81     		strh	r3, [r7, #14]	@ movhi
 639:common/lib.stm32/STM32F10x_StdPeriph_Driver/src/stm32f10x_tim.c ****   uint16_t icoppositeselection = TIM_ICSelection_DirectTI;
 1268              		.loc 1 639 12
 1269 000e 0123     		movs	r3, #1
 1270 0010 BB81     		strh	r3, [r7, #12]	@ movhi
 640:common/lib.stm32/STM32F10x_StdPeriph_Driver/src/stm32f10x_tim.c ****   /* Check the parameters */
 641:common/lib.stm32/STM32F10x_StdPeriph_Driver/src/stm32f10x_tim.c ****   assert_param(IS_TIM_123458_PERIPH(TIMx));
 642:common/lib.stm32/STM32F10x_StdPeriph_Driver/src/stm32f10x_tim.c ****   /* Select the Opposite Input Polarity */
 643:common/lib.stm32/STM32F10x_StdPeriph_Driver/src/stm32f10x_tim.c ****   if (TIM_ICInitStruct->TIM_ICPolarity == TIM_ICPolarity_Rising)
 1271              		.loc 1 643 23
 1272 0012 3B68     		ldr	r3, [r7]
 1273 0014 5B88     		ldrh	r3, [r3, #2]
 1274              		.loc 1 643 6
 1275 0016 002B     		cmp	r3, #0
 1276 0018 02D1     		bne	.L47
 644:common/lib.stm32/STM32F10x_StdPeriph_Driver/src/stm32f10x_tim.c ****   {
 645:common/lib.stm32/STM32F10x_StdPeriph_Driver/src/stm32f10x_tim.c ****     icoppositepolarity = TIM_ICPolarity_Falling;
 1277              		.loc 1 645 24
 1278 001a 0223     		movs	r3, #2
 1279 001c FB81     		strh	r3, [r7, #14]	@ movhi
 1280 001e 01E0     		b	.L48
 1281              	.L47:
 646:common/lib.stm32/STM32F10x_StdPeriph_Driver/src/stm32f10x_tim.c ****   }
 647:common/lib.stm32/STM32F10x_StdPeriph_Driver/src/stm32f10x_tim.c ****   else
 648:common/lib.stm32/STM32F10x_StdPeriph_Driver/src/stm32f10x_tim.c ****   {
 649:common/lib.stm32/STM32F10x_StdPeriph_Driver/src/stm32f10x_tim.c ****     icoppositepolarity = TIM_ICPolarity_Rising;
 1282              		.loc 1 649 24
 1283 0020 0023     		movs	r3, #0
 1284 0022 FB81     		strh	r3, [r7, #14]	@ movhi
 1285              	.L48:
 650:common/lib.stm32/STM32F10x_StdPeriph_Driver/src/stm32f10x_tim.c ****   }
 651:common/lib.stm32/STM32F10x_StdPeriph_Driver/src/stm32f10x_tim.c ****   /* Select the Opposite Input */
 652:common/lib.stm32/STM32F10x_StdPeriph_Driver/src/stm32f10x_tim.c ****   if (TIM_ICInitStruct->TIM_ICSelection == TIM_ICSelection_DirectTI)
 1286              		.loc 1 652 23
 1287 0024 3B68     		ldr	r3, [r7]
 1288 0026 9B88     		ldrh	r3, [r3, #4]
 1289              		.loc 1 652 6
 1290 0028 012B     		cmp	r3, #1
 1291 002a 02D1     		bne	.L49
 653:common/lib.stm32/STM32F10x_StdPeriph_Driver/src/stm32f10x_tim.c ****   {
 654:common/lib.stm32/STM32F10x_StdPeriph_Driver/src/stm32f10x_tim.c ****     icoppositeselection = TIM_ICSelection_IndirectTI;
 1292              		.loc 1 654 25
 1293 002c 0223     		movs	r3, #2
 1294 002e BB81     		strh	r3, [r7, #12]	@ movhi
 1295 0030 01E0     		b	.L50
 1296              	.L49:
 655:common/lib.stm32/STM32F10x_StdPeriph_Driver/src/stm32f10x_tim.c ****   }
 656:common/lib.stm32/STM32F10x_StdPeriph_Driver/src/stm32f10x_tim.c ****   else
 657:common/lib.stm32/STM32F10x_StdPeriph_Driver/src/stm32f10x_tim.c ****   {
 658:common/lib.stm32/STM32F10x_StdPeriph_Driver/src/stm32f10x_tim.c ****     icoppositeselection = TIM_ICSelection_DirectTI;
 1297              		.loc 1 658 25
 1298 0032 0123     		movs	r3, #1
 1299 0034 BB81     		strh	r3, [r7, #12]	@ movhi
 1300              	.L50:
 659:common/lib.stm32/STM32F10x_StdPeriph_Driver/src/stm32f10x_tim.c ****   }
 660:common/lib.stm32/STM32F10x_StdPeriph_Driver/src/stm32f10x_tim.c ****   if (TIM_ICInitStruct->TIM_Channel == TIM_Channel_1)
 1301              		.loc 1 660 23
 1302 0036 3B68     		ldr	r3, [r7]
 1303 0038 1B88     		ldrh	r3, [r3]
 1304              		.loc 1 660 6
 1305 003a 002B     		cmp	r3, #0
 1306 003c 1CD1     		bne	.L51
 661:common/lib.stm32/STM32F10x_StdPeriph_Driver/src/stm32f10x_tim.c ****   {
 662:common/lib.stm32/STM32F10x_StdPeriph_Driver/src/stm32f10x_tim.c ****     /* TI1 Configuration */
 663:common/lib.stm32/STM32F10x_StdPeriph_Driver/src/stm32f10x_tim.c ****     TI1_Config(TIMx, TIM_ICInitStruct->TIM_ICPolarity, TIM_ICInitStruct->TIM_ICSelection,
 1307              		.loc 1 663 5
 1308 003e 3B68     		ldr	r3, [r7]
 1309 0040 5988     		ldrh	r1, [r3, #2]
 1310 0042 3B68     		ldr	r3, [r7]
 1311 0044 9A88     		ldrh	r2, [r3, #4]
 1312 0046 3B68     		ldr	r3, [r7]
 1313 0048 1B89     		ldrh	r3, [r3, #8]
 1314 004a 7868     		ldr	r0, [r7, #4]
 1315 004c 1A4C     		ldr	r4, .L54
 1316 004e A047     		blx	r4
 1317              	.LVL24:
 664:common/lib.stm32/STM32F10x_StdPeriph_Driver/src/stm32f10x_tim.c ****                TIM_ICInitStruct->TIM_ICFilter);
 665:common/lib.stm32/STM32F10x_StdPeriph_Driver/src/stm32f10x_tim.c ****     /* Set the Input Capture Prescaler value */
 666:common/lib.stm32/STM32F10x_StdPeriph_Driver/src/stm32f10x_tim.c ****     TIM_SetIC1Prescaler(TIMx, TIM_ICInitStruct->TIM_ICPrescaler);
 1318              		.loc 1 666 5
 1319 0050 3B68     		ldr	r3, [r7]
 1320 0052 DB88     		ldrh	r3, [r3, #6]
 1321 0054 1946     		mov	r1, r3
 1322 0056 7868     		ldr	r0, [r7, #4]
 1323 0058 184B     		ldr	r3, .L54+4
 1324 005a 9847     		blx	r3
 1325              	.LVL25:
 667:common/lib.stm32/STM32F10x_StdPeriph_Driver/src/stm32f10x_tim.c ****     /* TI2 Configuration */
 668:common/lib.stm32/STM32F10x_StdPeriph_Driver/src/stm32f10x_tim.c ****     TI2_Config(TIMx, icoppositepolarity, icoppositeselection, TIM_ICInitStruct->TIM_ICFilter);
 1326              		.loc 1 668 5
 1327 005c 3B68     		ldr	r3, [r7]
 1328 005e 1B89     		ldrh	r3, [r3, #8]
 1329 0060 BA89     		ldrh	r2, [r7, #12]
 1330 0062 F989     		ldrh	r1, [r7, #14]
 1331 0064 7868     		ldr	r0, [r7, #4]
 1332 0066 164C     		ldr	r4, .L54+8
 1333 0068 A047     		blx	r4
 1334              	.LVL26:
 669:common/lib.stm32/STM32F10x_StdPeriph_Driver/src/stm32f10x_tim.c ****     /* Set the Input Capture Prescaler value */
 670:common/lib.stm32/STM32F10x_StdPeriph_Driver/src/stm32f10x_tim.c ****     TIM_SetIC2Prescaler(TIMx, TIM_ICInitStruct->TIM_ICPrescaler);
 1335              		.loc 1 670 5
 1336 006a 3B68     		ldr	r3, [r7]
 1337 006c DB88     		ldrh	r3, [r3, #6]
 1338 006e 1946     		mov	r1, r3
 1339 0070 7868     		ldr	r0, [r7, #4]
 1340 0072 144B     		ldr	r3, .L54+12
 1341 0074 9847     		blx	r3
 1342              	.LVL27:
 671:common/lib.stm32/STM32F10x_StdPeriph_Driver/src/stm32f10x_tim.c ****   }
 672:common/lib.stm32/STM32F10x_StdPeriph_Driver/src/stm32f10x_tim.c ****   else
 673:common/lib.stm32/STM32F10x_StdPeriph_Driver/src/stm32f10x_tim.c ****   { 
 674:common/lib.stm32/STM32F10x_StdPeriph_Driver/src/stm32f10x_tim.c ****     /* TI2 Configuration */
 675:common/lib.stm32/STM32F10x_StdPeriph_Driver/src/stm32f10x_tim.c ****     TI2_Config(TIMx, TIM_ICInitStruct->TIM_ICPolarity, TIM_ICInitStruct->TIM_ICSelection,
 676:common/lib.stm32/STM32F10x_StdPeriph_Driver/src/stm32f10x_tim.c ****                TIM_ICInitStruct->TIM_ICFilter);
 677:common/lib.stm32/STM32F10x_StdPeriph_Driver/src/stm32f10x_tim.c ****     /* Set the Input Capture Prescaler value */
 678:common/lib.stm32/STM32F10x_StdPeriph_Driver/src/stm32f10x_tim.c ****     TIM_SetIC2Prescaler(TIMx, TIM_ICInitStruct->TIM_ICPrescaler);
 679:common/lib.stm32/STM32F10x_StdPeriph_Driver/src/stm32f10x_tim.c ****     /* TI1 Configuration */
 680:common/lib.stm32/STM32F10x_StdPeriph_Driver/src/stm32f10x_tim.c ****     TI1_Config(TIMx, icoppositepolarity, icoppositeselection, TIM_ICInitStruct->TIM_ICFilter);
 681:common/lib.stm32/STM32F10x_StdPeriph_Driver/src/stm32f10x_tim.c ****     /* Set the Input Capture Prescaler value */
 682:common/lib.stm32/STM32F10x_StdPeriph_Driver/src/stm32f10x_tim.c ****     TIM_SetIC1Prescaler(TIMx, TIM_ICInitStruct->TIM_ICPrescaler);
 683:common/lib.stm32/STM32F10x_StdPeriph_Driver/src/stm32f10x_tim.c ****   }
 684:common/lib.stm32/STM32F10x_StdPeriph_Driver/src/stm32f10x_tim.c **** }
 1343              		.loc 1 684 1
 1344 0076 1BE0     		b	.L53
 1345              	.L51:
 675:common/lib.stm32/STM32F10x_StdPeriph_Driver/src/stm32f10x_tim.c ****                TIM_ICInitStruct->TIM_ICFilter);
 1346              		.loc 1 675 5
 1347 0078 3B68     		ldr	r3, [r7]
 1348 007a 5988     		ldrh	r1, [r3, #2]
 1349 007c 3B68     		ldr	r3, [r7]
 1350 007e 9A88     		ldrh	r2, [r3, #4]
 1351 0080 3B68     		ldr	r3, [r7]
 1352 0082 1B89     		ldrh	r3, [r3, #8]
 1353 0084 7868     		ldr	r0, [r7, #4]
 1354 0086 0E4C     		ldr	r4, .L54+8
 1355 0088 A047     		blx	r4
 1356              	.LVL28:
 678:common/lib.stm32/STM32F10x_StdPeriph_Driver/src/stm32f10x_tim.c ****     /* TI1 Configuration */
 1357              		.loc 1 678 5
 1358 008a 3B68     		ldr	r3, [r7]
 1359 008c DB88     		ldrh	r3, [r3, #6]
 1360 008e 1946     		mov	r1, r3
 1361 0090 7868     		ldr	r0, [r7, #4]
 1362 0092 0C4B     		ldr	r3, .L54+12
 1363 0094 9847     		blx	r3
 1364              	.LVL29:
 680:common/lib.stm32/STM32F10x_StdPeriph_Driver/src/stm32f10x_tim.c ****     /* Set the Input Capture Prescaler value */
 1365              		.loc 1 680 5
 1366 0096 3B68     		ldr	r3, [r7]
 1367 0098 1B89     		ldrh	r3, [r3, #8]
 1368 009a BA89     		ldrh	r2, [r7, #12]
 1369 009c F989     		ldrh	r1, [r7, #14]
 1370 009e 7868     		ldr	r0, [r7, #4]
 1371 00a0 054C     		ldr	r4, .L54
 1372 00a2 A047     		blx	r4
 1373              	.LVL30:
 682:common/lib.stm32/STM32F10x_StdPeriph_Driver/src/stm32f10x_tim.c ****   }
 1374              		.loc 1 682 5
 1375 00a4 3B68     		ldr	r3, [r7]
 1376 00a6 DB88     		ldrh	r3, [r3, #6]
 1377 00a8 1946     		mov	r1, r3
 1378 00aa 7868     		ldr	r0, [r7, #4]
 1379 00ac 034B     		ldr	r3, .L54+4
 1380 00ae 9847     		blx	r3
 1381              	.LVL31:
 1382              	.L53:
 1383              		.loc 1 684 1
 1384 00b0 00BF     		nop
 1385 00b2 1437     		adds	r7, r7, #20
 1386              	.LCFI43:
 1387              		.cfi_def_cfa_offset 12
 1388 00b4 BD46     		mov	sp, r7
 1389              	.LCFI44:
 1390              		.cfi_def_cfa_register 13
 1391              		@ sp needed
 1392 00b6 90BD     		pop	{r4, r7, pc}
 1393              	.L55:
 1394              		.align	2
 1395              	.L54:
 1396 00b8 00000000 		.word	TI1_Config
 1397 00bc 00000000 		.word	TIM_SetIC1Prescaler
 1398 00c0 00000000 		.word	TI2_Config
 1399 00c4 00000000 		.word	TIM_SetIC2Prescaler
 1400              		.cfi_endproc
 1401              	.LFE34:
 1403              		.section	.text.TIM_BDTRConfig,"ax",%progbits
 1404              		.align	1
 1405              		.global	TIM_BDTRConfig
 1406              		.syntax unified
 1407              		.thumb
 1408              		.thumb_func
 1410              	TIM_BDTRConfig:
 1411              	.LFB35:
 685:common/lib.stm32/STM32F10x_StdPeriph_Driver/src/stm32f10x_tim.c **** 
 686:common/lib.stm32/STM32F10x_StdPeriph_Driver/src/stm32f10x_tim.c **** /**
 687:common/lib.stm32/STM32F10x_StdPeriph_Driver/src/stm32f10x_tim.c ****   * @brief  Configures the: Break feature, dead time, Lock level, the OSSI,
 688:common/lib.stm32/STM32F10x_StdPeriph_Driver/src/stm32f10x_tim.c ****   *   the OSSR State and the AOE(automatic output enable).
 689:common/lib.stm32/STM32F10x_StdPeriph_Driver/src/stm32f10x_tim.c ****   * @param  TIMx: where x can be  1 or 8 to select the TIM 
 690:common/lib.stm32/STM32F10x_StdPeriph_Driver/src/stm32f10x_tim.c ****   * @param  TIM_BDTRInitStruct: pointer to a TIM_BDTRInitTypeDef structure that
 691:common/lib.stm32/STM32F10x_StdPeriph_Driver/src/stm32f10x_tim.c ****   *   contains the BDTR Register configuration  information for the TIM peripheral.
 692:common/lib.stm32/STM32F10x_StdPeriph_Driver/src/stm32f10x_tim.c ****   * @retval None
 693:common/lib.stm32/STM32F10x_StdPeriph_Driver/src/stm32f10x_tim.c ****   */
 694:common/lib.stm32/STM32F10x_StdPeriph_Driver/src/stm32f10x_tim.c **** void TIM_BDTRConfig(TIM_TypeDef* TIMx, TIM_BDTRInitTypeDef *TIM_BDTRInitStruct)
 695:common/lib.stm32/STM32F10x_StdPeriph_Driver/src/stm32f10x_tim.c **** {
 1412              		.loc 1 695 1
 1413              		.cfi_startproc
 1414              		@ args = 0, pretend = 0, frame = 8
 1415              		@ frame_needed = 1, uses_anonymous_args = 0
 1416              		@ link register save eliminated.
 1417 0000 80B4     		push	{r7}
 1418              	.LCFI45:
 1419              		.cfi_def_cfa_offset 4
 1420              		.cfi_offset 7, -4
 1421 0002 83B0     		sub	sp, sp, #12
 1422              	.LCFI46:
 1423              		.cfi_def_cfa_offset 16
 1424 0004 00AF     		add	r7, sp, #0
 1425              	.LCFI47:
 1426              		.cfi_def_cfa_register 7
 1427 0006 7860     		str	r0, [r7, #4]
 1428 0008 3960     		str	r1, [r7]
 696:common/lib.stm32/STM32F10x_StdPeriph_Driver/src/stm32f10x_tim.c ****   /* Check the parameters */
 697:common/lib.stm32/STM32F10x_StdPeriph_Driver/src/stm32f10x_tim.c ****   assert_param(IS_TIM_18_PERIPH(TIMx));
 698:common/lib.stm32/STM32F10x_StdPeriph_Driver/src/stm32f10x_tim.c ****   assert_param(IS_TIM_OSSR_STATE(TIM_BDTRInitStruct->TIM_OSSRState));
 699:common/lib.stm32/STM32F10x_StdPeriph_Driver/src/stm32f10x_tim.c ****   assert_param(IS_TIM_OSSI_STATE(TIM_BDTRInitStruct->TIM_OSSIState));
 700:common/lib.stm32/STM32F10x_StdPeriph_Driver/src/stm32f10x_tim.c ****   assert_param(IS_TIM_LOCK_LEVEL(TIM_BDTRInitStruct->TIM_LOCKLevel));
 701:common/lib.stm32/STM32F10x_StdPeriph_Driver/src/stm32f10x_tim.c ****   assert_param(IS_TIM_BREAK_STATE(TIM_BDTRInitStruct->TIM_Break));
 702:common/lib.stm32/STM32F10x_StdPeriph_Driver/src/stm32f10x_tim.c ****   assert_param(IS_TIM_BREAK_POLARITY(TIM_BDTRInitStruct->TIM_BreakPolarity));
 703:common/lib.stm32/STM32F10x_StdPeriph_Driver/src/stm32f10x_tim.c ****   assert_param(IS_TIM_AUTOMATIC_OUTPUT_STATE(TIM_BDTRInitStruct->TIM_AutomaticOutput));
 704:common/lib.stm32/STM32F10x_StdPeriph_Driver/src/stm32f10x_tim.c ****   /* Set the Lock level, the Break enable Bit and the Ploarity, the OSSR State,
 705:common/lib.stm32/STM32F10x_StdPeriph_Driver/src/stm32f10x_tim.c ****      the OSSI State, the dead time value and the Automatic Output Enable Bit */
 706:common/lib.stm32/STM32F10x_StdPeriph_Driver/src/stm32f10x_tim.c ****   TIMx->BDTR = (uint32_t)TIM_BDTRInitStruct->TIM_OSSRState | TIM_BDTRInitStruct->TIM_OSSIState |
 1429              		.loc 1 706 44
 1430 000a 3B68     		ldr	r3, [r7]
 1431 000c 1A88     		ldrh	r2, [r3]
 1432              		.loc 1 706 80
 1433 000e 3B68     		ldr	r3, [r7]
 1434 0010 5B88     		ldrh	r3, [r3, #2]
 1435              		.loc 1 706 14
 1436 0012 1343     		orrs	r3, r3, r2
 1437 0014 9AB2     		uxth	r2, r3
 707:common/lib.stm32/STM32F10x_StdPeriph_Driver/src/stm32f10x_tim.c ****              TIM_BDTRInitStruct->TIM_LOCKLevel | TIM_BDTRInitStruct->TIM_DeadTime |
 1438              		.loc 1 707 32
 1439 0016 3B68     		ldr	r3, [r7]
 1440 0018 9B88     		ldrh	r3, [r3, #4]
 706:common/lib.stm32/STM32F10x_StdPeriph_Driver/src/stm32f10x_tim.c ****              TIM_BDTRInitStruct->TIM_LOCKLevel | TIM_BDTRInitStruct->TIM_DeadTime |
 1441              		.loc 1 706 14
 1442 001a 1343     		orrs	r3, r3, r2
 1443 001c 9AB2     		uxth	r2, r3
 1444              		.loc 1 707 68
 1445 001e 3B68     		ldr	r3, [r7]
 1446 0020 DB88     		ldrh	r3, [r3, #6]
 706:common/lib.stm32/STM32F10x_StdPeriph_Driver/src/stm32f10x_tim.c ****              TIM_BDTRInitStruct->TIM_LOCKLevel | TIM_BDTRInitStruct->TIM_DeadTime |
 1447              		.loc 1 706 14
 1448 0022 1343     		orrs	r3, r3, r2
 1449 0024 9AB2     		uxth	r2, r3
 708:common/lib.stm32/STM32F10x_StdPeriph_Driver/src/stm32f10x_tim.c ****              TIM_BDTRInitStruct->TIM_Break | TIM_BDTRInitStruct->TIM_BreakPolarity |
 1450              		.loc 1 708 32
 1451 0026 3B68     		ldr	r3, [r7]
 1452 0028 1B89     		ldrh	r3, [r3, #8]
 706:common/lib.stm32/STM32F10x_StdPeriph_Driver/src/stm32f10x_tim.c ****              TIM_BDTRInitStruct->TIM_LOCKLevel | TIM_BDTRInitStruct->TIM_DeadTime |
 1453              		.loc 1 706 14
 1454 002a 1343     		orrs	r3, r3, r2
 1455 002c 9AB2     		uxth	r2, r3
 1456              		.loc 1 708 64
 1457 002e 3B68     		ldr	r3, [r7]
 1458 0030 5B89     		ldrh	r3, [r3, #10]
 706:common/lib.stm32/STM32F10x_StdPeriph_Driver/src/stm32f10x_tim.c ****              TIM_BDTRInitStruct->TIM_LOCKLevel | TIM_BDTRInitStruct->TIM_DeadTime |
 1459              		.loc 1 706 14
 1460 0032 1343     		orrs	r3, r3, r2
 1461 0034 9AB2     		uxth	r2, r3
 709:common/lib.stm32/STM32F10x_StdPeriph_Driver/src/stm32f10x_tim.c ****              TIM_BDTRInitStruct->TIM_AutomaticOutput;
 1462              		.loc 1 709 32
 1463 0036 3B68     		ldr	r3, [r7]
 1464 0038 9B89     		ldrh	r3, [r3, #12]
 706:common/lib.stm32/STM32F10x_StdPeriph_Driver/src/stm32f10x_tim.c ****              TIM_BDTRInitStruct->TIM_LOCKLevel | TIM_BDTRInitStruct->TIM_DeadTime |
 1465              		.loc 1 706 14
 1466 003a 1343     		orrs	r3, r3, r2
 1467 003c 9AB2     		uxth	r2, r3
 1468 003e 7B68     		ldr	r3, [r7, #4]
 1469 0040 A3F84420 		strh	r2, [r3, #68]	@ movhi
 710:common/lib.stm32/STM32F10x_StdPeriph_Driver/src/stm32f10x_tim.c **** }
 1470              		.loc 1 710 1
 1471 0044 00BF     		nop
 1472 0046 0C37     		adds	r7, r7, #12
 1473              	.LCFI48:
 1474              		.cfi_def_cfa_offset 4
 1475 0048 BD46     		mov	sp, r7
 1476              	.LCFI49:
 1477              		.cfi_def_cfa_register 13
 1478              		@ sp needed
 1479 004a 80BC     		pop	{r7}
 1480              	.LCFI50:
 1481              		.cfi_restore 7
 1482              		.cfi_def_cfa_offset 0
 1483 004c 7047     		bx	lr
 1484              		.cfi_endproc
 1485              	.LFE35:
 1487              		.section	.text.TIM_TimeBaseStructInit,"ax",%progbits
 1488              		.align	1
 1489              		.global	TIM_TimeBaseStructInit
 1490              		.syntax unified
 1491              		.thumb
 1492              		.thumb_func
 1494              	TIM_TimeBaseStructInit:
 1495              	.LFB36:
 711:common/lib.stm32/STM32F10x_StdPeriph_Driver/src/stm32f10x_tim.c **** 
 712:common/lib.stm32/STM32F10x_StdPeriph_Driver/src/stm32f10x_tim.c **** /**
 713:common/lib.stm32/STM32F10x_StdPeriph_Driver/src/stm32f10x_tim.c ****   * @brief  Fills each TIM_TimeBaseInitStruct member with its default value.
 714:common/lib.stm32/STM32F10x_StdPeriph_Driver/src/stm32f10x_tim.c ****   * @param  TIM_TimeBaseInitStruct : pointer to a TIM_TimeBaseInitTypeDef
 715:common/lib.stm32/STM32F10x_StdPeriph_Driver/src/stm32f10x_tim.c ****   *   structure which will be initialized.
 716:common/lib.stm32/STM32F10x_StdPeriph_Driver/src/stm32f10x_tim.c ****   * @retval None
 717:common/lib.stm32/STM32F10x_StdPeriph_Driver/src/stm32f10x_tim.c ****   */
 718:common/lib.stm32/STM32F10x_StdPeriph_Driver/src/stm32f10x_tim.c **** void TIM_TimeBaseStructInit(TIM_TimeBaseInitTypeDef* TIM_TimeBaseInitStruct)
 719:common/lib.stm32/STM32F10x_StdPeriph_Driver/src/stm32f10x_tim.c **** {
 1496              		.loc 1 719 1
 1497              		.cfi_startproc
 1498              		@ args = 0, pretend = 0, frame = 8
 1499              		@ frame_needed = 1, uses_anonymous_args = 0
 1500              		@ link register save eliminated.
 1501 0000 80B4     		push	{r7}
 1502              	.LCFI51:
 1503              		.cfi_def_cfa_offset 4
 1504              		.cfi_offset 7, -4
 1505 0002 83B0     		sub	sp, sp, #12
 1506              	.LCFI52:
 1507              		.cfi_def_cfa_offset 16
 1508 0004 00AF     		add	r7, sp, #0
 1509              	.LCFI53:
 1510              		.cfi_def_cfa_register 7
 1511 0006 7860     		str	r0, [r7, #4]
 720:common/lib.stm32/STM32F10x_StdPeriph_Driver/src/stm32f10x_tim.c ****   /* Set the default configuration */
 721:common/lib.stm32/STM32F10x_StdPeriph_Driver/src/stm32f10x_tim.c ****   TIM_TimeBaseInitStruct->TIM_Period = 0xFFFF;
 1512              		.loc 1 721 38
 1513 0008 7B68     		ldr	r3, [r7, #4]
 1514 000a 4FF6FF72 		movw	r2, #65535
 1515 000e 9A80     		strh	r2, [r3, #4]	@ movhi
 722:common/lib.stm32/STM32F10x_StdPeriph_Driver/src/stm32f10x_tim.c ****   TIM_TimeBaseInitStruct->TIM_Prescaler = 0x0000;
 1516              		.loc 1 722 41
 1517 0010 7B68     		ldr	r3, [r7, #4]
 1518 0012 0022     		movs	r2, #0
 1519 0014 1A80     		strh	r2, [r3]	@ movhi
 723:common/lib.stm32/STM32F10x_StdPeriph_Driver/src/stm32f10x_tim.c ****   TIM_TimeBaseInitStruct->TIM_ClockDivision = TIM_CKD_DIV1;
 1520              		.loc 1 723 45
 1521 0016 7B68     		ldr	r3, [r7, #4]
 1522 0018 0022     		movs	r2, #0
 1523 001a DA80     		strh	r2, [r3, #6]	@ movhi
 724:common/lib.stm32/STM32F10x_StdPeriph_Driver/src/stm32f10x_tim.c ****   TIM_TimeBaseInitStruct->TIM_CounterMode = TIM_CounterMode_Up;
 1524              		.loc 1 724 43
 1525 001c 7B68     		ldr	r3, [r7, #4]
 1526 001e 0022     		movs	r2, #0
 1527 0020 5A80     		strh	r2, [r3, #2]	@ movhi
 725:common/lib.stm32/STM32F10x_StdPeriph_Driver/src/stm32f10x_tim.c ****   TIM_TimeBaseInitStruct->TIM_RepetitionCounter = 0x0000;
 1528              		.loc 1 725 49
 1529 0022 7B68     		ldr	r3, [r7, #4]
 1530 0024 0022     		movs	r2, #0
 1531 0026 1A72     		strb	r2, [r3, #8]
 726:common/lib.stm32/STM32F10x_StdPeriph_Driver/src/stm32f10x_tim.c **** }
 1532              		.loc 1 726 1
 1533 0028 00BF     		nop
 1534 002a 0C37     		adds	r7, r7, #12
 1535              	.LCFI54:
 1536              		.cfi_def_cfa_offset 4
 1537 002c BD46     		mov	sp, r7
 1538              	.LCFI55:
 1539              		.cfi_def_cfa_register 13
 1540              		@ sp needed
 1541 002e 80BC     		pop	{r7}
 1542              	.LCFI56:
 1543              		.cfi_restore 7
 1544              		.cfi_def_cfa_offset 0
 1545 0030 7047     		bx	lr
 1546              		.cfi_endproc
 1547              	.LFE36:
 1549              		.section	.text.TIM_OCStructInit,"ax",%progbits
 1550              		.align	1
 1551              		.global	TIM_OCStructInit
 1552              		.syntax unified
 1553              		.thumb
 1554              		.thumb_func
 1556              	TIM_OCStructInit:
 1557              	.LFB37:
 727:common/lib.stm32/STM32F10x_StdPeriph_Driver/src/stm32f10x_tim.c **** 
 728:common/lib.stm32/STM32F10x_StdPeriph_Driver/src/stm32f10x_tim.c **** /**
 729:common/lib.stm32/STM32F10x_StdPeriph_Driver/src/stm32f10x_tim.c ****   * @brief  Fills each TIM_OCInitStruct member with its default value.
 730:common/lib.stm32/STM32F10x_StdPeriph_Driver/src/stm32f10x_tim.c ****   * @param  TIM_OCInitStruct : pointer to a TIM_OCInitTypeDef structure which will
 731:common/lib.stm32/STM32F10x_StdPeriph_Driver/src/stm32f10x_tim.c ****   *   be initialized.
 732:common/lib.stm32/STM32F10x_StdPeriph_Driver/src/stm32f10x_tim.c ****   * @retval None
 733:common/lib.stm32/STM32F10x_StdPeriph_Driver/src/stm32f10x_tim.c ****   */
 734:common/lib.stm32/STM32F10x_StdPeriph_Driver/src/stm32f10x_tim.c **** void TIM_OCStructInit(TIM_OCInitTypeDef* TIM_OCInitStruct)
 735:common/lib.stm32/STM32F10x_StdPeriph_Driver/src/stm32f10x_tim.c **** {
 1558              		.loc 1 735 1
 1559              		.cfi_startproc
 1560              		@ args = 0, pretend = 0, frame = 8
 1561              		@ frame_needed = 1, uses_anonymous_args = 0
 1562              		@ link register save eliminated.
 1563 0000 80B4     		push	{r7}
 1564              	.LCFI57:
 1565              		.cfi_def_cfa_offset 4
 1566              		.cfi_offset 7, -4
 1567 0002 83B0     		sub	sp, sp, #12
 1568              	.LCFI58:
 1569              		.cfi_def_cfa_offset 16
 1570 0004 00AF     		add	r7, sp, #0
 1571              	.LCFI59:
 1572              		.cfi_def_cfa_register 7
 1573 0006 7860     		str	r0, [r7, #4]
 736:common/lib.stm32/STM32F10x_StdPeriph_Driver/src/stm32f10x_tim.c ****   /* Set the default configuration */
 737:common/lib.stm32/STM32F10x_StdPeriph_Driver/src/stm32f10x_tim.c ****   TIM_OCInitStruct->TIM_OCMode = TIM_OCMode_Timing;
 1574              		.loc 1 737 32
 1575 0008 7B68     		ldr	r3, [r7, #4]
 1576 000a 0022     		movs	r2, #0
 1577 000c 1A80     		strh	r2, [r3]	@ movhi
 738:common/lib.stm32/STM32F10x_StdPeriph_Driver/src/stm32f10x_tim.c ****   TIM_OCInitStruct->TIM_OutputState = TIM_OutputState_Disable;
 1578              		.loc 1 738 37
 1579 000e 7B68     		ldr	r3, [r7, #4]
 1580 0010 0022     		movs	r2, #0
 1581 0012 5A80     		strh	r2, [r3, #2]	@ movhi
 739:common/lib.stm32/STM32F10x_StdPeriph_Driver/src/stm32f10x_tim.c ****   TIM_OCInitStruct->TIM_OutputNState = TIM_OutputNState_Disable;
 1582              		.loc 1 739 38
 1583 0014 7B68     		ldr	r3, [r7, #4]
 1584 0016 0022     		movs	r2, #0
 1585 0018 9A80     		strh	r2, [r3, #4]	@ movhi
 740:common/lib.stm32/STM32F10x_StdPeriph_Driver/src/stm32f10x_tim.c ****   TIM_OCInitStruct->TIM_Pulse = 0x0000;
 1586              		.loc 1 740 31
 1587 001a 7B68     		ldr	r3, [r7, #4]
 1588 001c 0022     		movs	r2, #0
 1589 001e DA80     		strh	r2, [r3, #6]	@ movhi
 741:common/lib.stm32/STM32F10x_StdPeriph_Driver/src/stm32f10x_tim.c ****   TIM_OCInitStruct->TIM_OCPolarity = TIM_OCPolarity_High;
 1590              		.loc 1 741 36
 1591 0020 7B68     		ldr	r3, [r7, #4]
 1592 0022 0022     		movs	r2, #0
 1593 0024 1A81     		strh	r2, [r3, #8]	@ movhi
 742:common/lib.stm32/STM32F10x_StdPeriph_Driver/src/stm32f10x_tim.c ****   TIM_OCInitStruct->TIM_OCNPolarity = TIM_OCPolarity_High;
 1594              		.loc 1 742 37
 1595 0026 7B68     		ldr	r3, [r7, #4]
 1596 0028 0022     		movs	r2, #0
 1597 002a 5A81     		strh	r2, [r3, #10]	@ movhi
 743:common/lib.stm32/STM32F10x_StdPeriph_Driver/src/stm32f10x_tim.c ****   TIM_OCInitStruct->TIM_OCIdleState = TIM_OCIdleState_Reset;
 1598              		.loc 1 743 37
 1599 002c 7B68     		ldr	r3, [r7, #4]
 1600 002e 0022     		movs	r2, #0
 1601 0030 9A81     		strh	r2, [r3, #12]	@ movhi
 744:common/lib.stm32/STM32F10x_StdPeriph_Driver/src/stm32f10x_tim.c ****   TIM_OCInitStruct->TIM_OCNIdleState = TIM_OCNIdleState_Reset;
 1602              		.loc 1 744 38
 1603 0032 7B68     		ldr	r3, [r7, #4]
 1604 0034 0022     		movs	r2, #0
 1605 0036 DA81     		strh	r2, [r3, #14]	@ movhi
 745:common/lib.stm32/STM32F10x_StdPeriph_Driver/src/stm32f10x_tim.c **** }
 1606              		.loc 1 745 1
 1607 0038 00BF     		nop
 1608 003a 0C37     		adds	r7, r7, #12
 1609              	.LCFI60:
 1610              		.cfi_def_cfa_offset 4
 1611 003c BD46     		mov	sp, r7
 1612              	.LCFI61:
 1613              		.cfi_def_cfa_register 13
 1614              		@ sp needed
 1615 003e 80BC     		pop	{r7}
 1616              	.LCFI62:
 1617              		.cfi_restore 7
 1618              		.cfi_def_cfa_offset 0
 1619 0040 7047     		bx	lr
 1620              		.cfi_endproc
 1621              	.LFE37:
 1623              		.section	.text.TIM_ICStructInit,"ax",%progbits
 1624              		.align	1
 1625              		.global	TIM_ICStructInit
 1626              		.syntax unified
 1627              		.thumb
 1628              		.thumb_func
 1630              	TIM_ICStructInit:
 1631              	.LFB38:
 746:common/lib.stm32/STM32F10x_StdPeriph_Driver/src/stm32f10x_tim.c **** 
 747:common/lib.stm32/STM32F10x_StdPeriph_Driver/src/stm32f10x_tim.c **** /**
 748:common/lib.stm32/STM32F10x_StdPeriph_Driver/src/stm32f10x_tim.c ****   * @brief  Fills each TIM_ICInitStruct member with its default value.
 749:common/lib.stm32/STM32F10x_StdPeriph_Driver/src/stm32f10x_tim.c ****   * @param  TIM_ICInitStruct : pointer to a TIM_ICInitTypeDef structure which will
 750:common/lib.stm32/STM32F10x_StdPeriph_Driver/src/stm32f10x_tim.c ****   *   be initialized.
 751:common/lib.stm32/STM32F10x_StdPeriph_Driver/src/stm32f10x_tim.c ****   * @retval None
 752:common/lib.stm32/STM32F10x_StdPeriph_Driver/src/stm32f10x_tim.c ****   */
 753:common/lib.stm32/STM32F10x_StdPeriph_Driver/src/stm32f10x_tim.c **** void TIM_ICStructInit(TIM_ICInitTypeDef* TIM_ICInitStruct)
 754:common/lib.stm32/STM32F10x_StdPeriph_Driver/src/stm32f10x_tim.c **** {
 1632              		.loc 1 754 1
 1633              		.cfi_startproc
 1634              		@ args = 0, pretend = 0, frame = 8
 1635              		@ frame_needed = 1, uses_anonymous_args = 0
 1636              		@ link register save eliminated.
 1637 0000 80B4     		push	{r7}
 1638              	.LCFI63:
 1639              		.cfi_def_cfa_offset 4
 1640              		.cfi_offset 7, -4
 1641 0002 83B0     		sub	sp, sp, #12
 1642              	.LCFI64:
 1643              		.cfi_def_cfa_offset 16
 1644 0004 00AF     		add	r7, sp, #0
 1645              	.LCFI65:
 1646              		.cfi_def_cfa_register 7
 1647 0006 7860     		str	r0, [r7, #4]
 755:common/lib.stm32/STM32F10x_StdPeriph_Driver/src/stm32f10x_tim.c ****   /* Set the default configuration */
 756:common/lib.stm32/STM32F10x_StdPeriph_Driver/src/stm32f10x_tim.c ****   TIM_ICInitStruct->TIM_Channel = TIM_Channel_1;
 1648              		.loc 1 756 33
 1649 0008 7B68     		ldr	r3, [r7, #4]
 1650 000a 0022     		movs	r2, #0
 1651 000c 1A80     		strh	r2, [r3]	@ movhi
 757:common/lib.stm32/STM32F10x_StdPeriph_Driver/src/stm32f10x_tim.c ****   TIM_ICInitStruct->TIM_ICPolarity = TIM_ICPolarity_Rising;
 1652              		.loc 1 757 36
 1653 000e 7B68     		ldr	r3, [r7, #4]
 1654 0010 0022     		movs	r2, #0
 1655 0012 5A80     		strh	r2, [r3, #2]	@ movhi
 758:common/lib.stm32/STM32F10x_StdPeriph_Driver/src/stm32f10x_tim.c ****   TIM_ICInitStruct->TIM_ICSelection = TIM_ICSelection_DirectTI;
 1656              		.loc 1 758 37
 1657 0014 7B68     		ldr	r3, [r7, #4]
 1658 0016 0122     		movs	r2, #1
 1659 0018 9A80     		strh	r2, [r3, #4]	@ movhi
 759:common/lib.stm32/STM32F10x_StdPeriph_Driver/src/stm32f10x_tim.c ****   TIM_ICInitStruct->TIM_ICPrescaler = TIM_ICPSC_DIV1;
 1660              		.loc 1 759 37
 1661 001a 7B68     		ldr	r3, [r7, #4]
 1662 001c 0022     		movs	r2, #0
 1663 001e DA80     		strh	r2, [r3, #6]	@ movhi
 760:common/lib.stm32/STM32F10x_StdPeriph_Driver/src/stm32f10x_tim.c ****   TIM_ICInitStruct->TIM_ICFilter = 0x00;
 1664              		.loc 1 760 34
 1665 0020 7B68     		ldr	r3, [r7, #4]
 1666 0022 0022     		movs	r2, #0
 1667 0024 1A81     		strh	r2, [r3, #8]	@ movhi
 761:common/lib.stm32/STM32F10x_StdPeriph_Driver/src/stm32f10x_tim.c **** }
 1668              		.loc 1 761 1
 1669 0026 00BF     		nop
 1670 0028 0C37     		adds	r7, r7, #12
 1671              	.LCFI66:
 1672              		.cfi_def_cfa_offset 4
 1673 002a BD46     		mov	sp, r7
 1674              	.LCFI67:
 1675              		.cfi_def_cfa_register 13
 1676              		@ sp needed
 1677 002c 80BC     		pop	{r7}
 1678              	.LCFI68:
 1679              		.cfi_restore 7
 1680              		.cfi_def_cfa_offset 0
 1681 002e 7047     		bx	lr
 1682              		.cfi_endproc
 1683              	.LFE38:
 1685              		.section	.text.TIM_BDTRStructInit,"ax",%progbits
 1686              		.align	1
 1687              		.global	TIM_BDTRStructInit
 1688              		.syntax unified
 1689              		.thumb
 1690              		.thumb_func
 1692              	TIM_BDTRStructInit:
 1693              	.LFB39:
 762:common/lib.stm32/STM32F10x_StdPeriph_Driver/src/stm32f10x_tim.c **** 
 763:common/lib.stm32/STM32F10x_StdPeriph_Driver/src/stm32f10x_tim.c **** /**
 764:common/lib.stm32/STM32F10x_StdPeriph_Driver/src/stm32f10x_tim.c ****   * @brief  Fills each TIM_BDTRInitStruct member with its default value.
 765:common/lib.stm32/STM32F10x_StdPeriph_Driver/src/stm32f10x_tim.c ****   * @param  TIM_BDTRInitStruct: pointer to a TIM_BDTRInitTypeDef structure which
 766:common/lib.stm32/STM32F10x_StdPeriph_Driver/src/stm32f10x_tim.c ****   *   will be initialized.
 767:common/lib.stm32/STM32F10x_StdPeriph_Driver/src/stm32f10x_tim.c ****   * @retval None
 768:common/lib.stm32/STM32F10x_StdPeriph_Driver/src/stm32f10x_tim.c ****   */
 769:common/lib.stm32/STM32F10x_StdPeriph_Driver/src/stm32f10x_tim.c **** void TIM_BDTRStructInit(TIM_BDTRInitTypeDef* TIM_BDTRInitStruct)
 770:common/lib.stm32/STM32F10x_StdPeriph_Driver/src/stm32f10x_tim.c **** {
 1694              		.loc 1 770 1
 1695              		.cfi_startproc
 1696              		@ args = 0, pretend = 0, frame = 8
 1697              		@ frame_needed = 1, uses_anonymous_args = 0
 1698              		@ link register save eliminated.
 1699 0000 80B4     		push	{r7}
 1700              	.LCFI69:
 1701              		.cfi_def_cfa_offset 4
 1702              		.cfi_offset 7, -4
 1703 0002 83B0     		sub	sp, sp, #12
 1704              	.LCFI70:
 1705              		.cfi_def_cfa_offset 16
 1706 0004 00AF     		add	r7, sp, #0
 1707              	.LCFI71:
 1708              		.cfi_def_cfa_register 7
 1709 0006 7860     		str	r0, [r7, #4]
 771:common/lib.stm32/STM32F10x_StdPeriph_Driver/src/stm32f10x_tim.c ****   /* Set the default configuration */
 772:common/lib.stm32/STM32F10x_StdPeriph_Driver/src/stm32f10x_tim.c ****   TIM_BDTRInitStruct->TIM_OSSRState = TIM_OSSRState_Disable;
 1710              		.loc 1 772 37
 1711 0008 7B68     		ldr	r3, [r7, #4]
 1712 000a 0022     		movs	r2, #0
 1713 000c 1A80     		strh	r2, [r3]	@ movhi
 773:common/lib.stm32/STM32F10x_StdPeriph_Driver/src/stm32f10x_tim.c ****   TIM_BDTRInitStruct->TIM_OSSIState = TIM_OSSIState_Disable;
 1714              		.loc 1 773 37
 1715 000e 7B68     		ldr	r3, [r7, #4]
 1716 0010 0022     		movs	r2, #0
 1717 0012 5A80     		strh	r2, [r3, #2]	@ movhi
 774:common/lib.stm32/STM32F10x_StdPeriph_Driver/src/stm32f10x_tim.c ****   TIM_BDTRInitStruct->TIM_LOCKLevel = TIM_LOCKLevel_OFF;
 1718              		.loc 1 774 37
 1719 0014 7B68     		ldr	r3, [r7, #4]
 1720 0016 0022     		movs	r2, #0
 1721 0018 9A80     		strh	r2, [r3, #4]	@ movhi
 775:common/lib.stm32/STM32F10x_StdPeriph_Driver/src/stm32f10x_tim.c ****   TIM_BDTRInitStruct->TIM_DeadTime = 0x00;
 1722              		.loc 1 775 36
 1723 001a 7B68     		ldr	r3, [r7, #4]
 1724 001c 0022     		movs	r2, #0
 1725 001e DA80     		strh	r2, [r3, #6]	@ movhi
 776:common/lib.stm32/STM32F10x_StdPeriph_Driver/src/stm32f10x_tim.c ****   TIM_BDTRInitStruct->TIM_Break = TIM_Break_Disable;
 1726              		.loc 1 776 33
 1727 0020 7B68     		ldr	r3, [r7, #4]
 1728 0022 0022     		movs	r2, #0
 1729 0024 1A81     		strh	r2, [r3, #8]	@ movhi
 777:common/lib.stm32/STM32F10x_StdPeriph_Driver/src/stm32f10x_tim.c ****   TIM_BDTRInitStruct->TIM_BreakPolarity = TIM_BreakPolarity_Low;
 1730              		.loc 1 777 41
 1731 0026 7B68     		ldr	r3, [r7, #4]
 1732 0028 0022     		movs	r2, #0
 1733 002a 5A81     		strh	r2, [r3, #10]	@ movhi
 778:common/lib.stm32/STM32F10x_StdPeriph_Driver/src/stm32f10x_tim.c ****   TIM_BDTRInitStruct->TIM_AutomaticOutput = TIM_AutomaticOutput_Disable;
 1734              		.loc 1 778 43
 1735 002c 7B68     		ldr	r3, [r7, #4]
 1736 002e 0022     		movs	r2, #0
 1737 0030 9A81     		strh	r2, [r3, #12]	@ movhi
 779:common/lib.stm32/STM32F10x_StdPeriph_Driver/src/stm32f10x_tim.c **** }
 1738              		.loc 1 779 1
 1739 0032 00BF     		nop
 1740 0034 0C37     		adds	r7, r7, #12
 1741              	.LCFI72:
 1742              		.cfi_def_cfa_offset 4
 1743 0036 BD46     		mov	sp, r7
 1744              	.LCFI73:
 1745              		.cfi_def_cfa_register 13
 1746              		@ sp needed
 1747 0038 80BC     		pop	{r7}
 1748              	.LCFI74:
 1749              		.cfi_restore 7
 1750              		.cfi_def_cfa_offset 0
 1751 003a 7047     		bx	lr
 1752              		.cfi_endproc
 1753              	.LFE39:
 1755              		.section	.text.TIM_Cmd,"ax",%progbits
 1756              		.align	1
 1757              		.global	TIM_Cmd
 1758              		.syntax unified
 1759              		.thumb
 1760              		.thumb_func
 1762              	TIM_Cmd:
 1763              	.LFB40:
 780:common/lib.stm32/STM32F10x_StdPeriph_Driver/src/stm32f10x_tim.c **** 
 781:common/lib.stm32/STM32F10x_StdPeriph_Driver/src/stm32f10x_tim.c **** /**
 782:common/lib.stm32/STM32F10x_StdPeriph_Driver/src/stm32f10x_tim.c ****   * @brief  Enables or disables the specified TIM peripheral.
 783:common/lib.stm32/STM32F10x_StdPeriph_Driver/src/stm32f10x_tim.c ****   * @param  TIMx: where x can be 1 to 8 to select the TIMx peripheral.
 784:common/lib.stm32/STM32F10x_StdPeriph_Driver/src/stm32f10x_tim.c ****   * @param  NewState: new state of the TIMx peripheral.
 785:common/lib.stm32/STM32F10x_StdPeriph_Driver/src/stm32f10x_tim.c ****   *   This parameter can be: ENABLE or DISABLE.
 786:common/lib.stm32/STM32F10x_StdPeriph_Driver/src/stm32f10x_tim.c ****   * @retval None
 787:common/lib.stm32/STM32F10x_StdPeriph_Driver/src/stm32f10x_tim.c ****   */
 788:common/lib.stm32/STM32F10x_StdPeriph_Driver/src/stm32f10x_tim.c **** void TIM_Cmd(TIM_TypeDef* TIMx, FunctionalState NewState)
 789:common/lib.stm32/STM32F10x_StdPeriph_Driver/src/stm32f10x_tim.c **** {
 1764              		.loc 1 789 1
 1765              		.cfi_startproc
 1766              		@ args = 0, pretend = 0, frame = 8
 1767              		@ frame_needed = 1, uses_anonymous_args = 0
 1768              		@ link register save eliminated.
 1769 0000 80B4     		push	{r7}
 1770              	.LCFI75:
 1771              		.cfi_def_cfa_offset 4
 1772              		.cfi_offset 7, -4
 1773 0002 83B0     		sub	sp, sp, #12
 1774              	.LCFI76:
 1775              		.cfi_def_cfa_offset 16
 1776 0004 00AF     		add	r7, sp, #0
 1777              	.LCFI77:
 1778              		.cfi_def_cfa_register 7
 1779 0006 7860     		str	r0, [r7, #4]
 1780 0008 0B46     		mov	r3, r1
 1781 000a FB70     		strb	r3, [r7, #3]
 790:common/lib.stm32/STM32F10x_StdPeriph_Driver/src/stm32f10x_tim.c ****   /* Check the parameters */
 791:common/lib.stm32/STM32F10x_StdPeriph_Driver/src/stm32f10x_tim.c ****   assert_param(IS_TIM_ALL_PERIPH(TIMx));
 792:common/lib.stm32/STM32F10x_StdPeriph_Driver/src/stm32f10x_tim.c ****   assert_param(IS_FUNCTIONAL_STATE(NewState));
 793:common/lib.stm32/STM32F10x_StdPeriph_Driver/src/stm32f10x_tim.c ****   
 794:common/lib.stm32/STM32F10x_StdPeriph_Driver/src/stm32f10x_tim.c ****   if (NewState != DISABLE)
 1782              		.loc 1 794 6
 1783 000c FB78     		ldrb	r3, [r7, #3]	@ zero_extendqisi2
 1784 000e 002B     		cmp	r3, #0
 1785 0010 08D0     		beq	.L62
 795:common/lib.stm32/STM32F10x_StdPeriph_Driver/src/stm32f10x_tim.c ****   {
 796:common/lib.stm32/STM32F10x_StdPeriph_Driver/src/stm32f10x_tim.c ****     /* Enable the TIM Counter */
 797:common/lib.stm32/STM32F10x_StdPeriph_Driver/src/stm32f10x_tim.c ****     TIMx->CR1 |= CR1_CEN_Set;
 1786              		.loc 1 797 15
 1787 0012 7B68     		ldr	r3, [r7, #4]
 1788 0014 1B88     		ldrh	r3, [r3]	@ movhi
 1789 0016 9BB2     		uxth	r3, r3
 1790 0018 43F00103 		orr	r3, r3, #1
 1791 001c 9AB2     		uxth	r2, r3
 1792 001e 7B68     		ldr	r3, [r7, #4]
 1793 0020 1A80     		strh	r2, [r3]	@ movhi
 798:common/lib.stm32/STM32F10x_StdPeriph_Driver/src/stm32f10x_tim.c ****   }
 799:common/lib.stm32/STM32F10x_StdPeriph_Driver/src/stm32f10x_tim.c ****   else
 800:common/lib.stm32/STM32F10x_StdPeriph_Driver/src/stm32f10x_tim.c ****   {
 801:common/lib.stm32/STM32F10x_StdPeriph_Driver/src/stm32f10x_tim.c ****     /* Disable the TIM Counter */
 802:common/lib.stm32/STM32F10x_StdPeriph_Driver/src/stm32f10x_tim.c ****     TIMx->CR1 &= CR1_CEN_Reset;
 803:common/lib.stm32/STM32F10x_StdPeriph_Driver/src/stm32f10x_tim.c ****   }
 804:common/lib.stm32/STM32F10x_StdPeriph_Driver/src/stm32f10x_tim.c **** }
 1794              		.loc 1 804 1
 1795 0022 08E0     		b	.L64
 1796              	.L62:
 802:common/lib.stm32/STM32F10x_StdPeriph_Driver/src/stm32f10x_tim.c ****   }
 1797              		.loc 1 802 15
 1798 0024 7B68     		ldr	r3, [r7, #4]
 1799 0026 1B88     		ldrh	r3, [r3]	@ movhi
 1800 0028 9AB2     		uxth	r2, r3
 1801 002a 40F2FE33 		movw	r3, #1022
 1802 002e 1340     		ands	r3, r3, r2
 1803 0030 9AB2     		uxth	r2, r3
 1804 0032 7B68     		ldr	r3, [r7, #4]
 1805 0034 1A80     		strh	r2, [r3]	@ movhi
 1806              	.L64:
 1807              		.loc 1 804 1
 1808 0036 00BF     		nop
 1809 0038 0C37     		adds	r7, r7, #12
 1810              	.LCFI78:
 1811              		.cfi_def_cfa_offset 4
 1812 003a BD46     		mov	sp, r7
 1813              	.LCFI79:
 1814              		.cfi_def_cfa_register 13
 1815              		@ sp needed
 1816 003c 80BC     		pop	{r7}
 1817              	.LCFI80:
 1818              		.cfi_restore 7
 1819              		.cfi_def_cfa_offset 0
 1820 003e 7047     		bx	lr
 1821              		.cfi_endproc
 1822              	.LFE40:
 1824              		.section	.text.TIM_CtrlPWMOutputs,"ax",%progbits
 1825              		.align	1
 1826              		.global	TIM_CtrlPWMOutputs
 1827              		.syntax unified
 1828              		.thumb
 1829              		.thumb_func
 1831              	TIM_CtrlPWMOutputs:
 1832              	.LFB41:
 805:common/lib.stm32/STM32F10x_StdPeriph_Driver/src/stm32f10x_tim.c **** 
 806:common/lib.stm32/STM32F10x_StdPeriph_Driver/src/stm32f10x_tim.c **** /**
 807:common/lib.stm32/STM32F10x_StdPeriph_Driver/src/stm32f10x_tim.c ****   * @brief  Enables or disables the TIM peripheral Main Outputs.
 808:common/lib.stm32/STM32F10x_StdPeriph_Driver/src/stm32f10x_tim.c ****   * @param  TIMx: where x can be 1 or 8 to select the TIMx peripheral.
 809:common/lib.stm32/STM32F10x_StdPeriph_Driver/src/stm32f10x_tim.c ****   * @param  NewState: new state of the TIM peripheral Main Outputs.
 810:common/lib.stm32/STM32F10x_StdPeriph_Driver/src/stm32f10x_tim.c ****   *   This parameter can be: ENABLE or DISABLE.
 811:common/lib.stm32/STM32F10x_StdPeriph_Driver/src/stm32f10x_tim.c ****   * @retval None
 812:common/lib.stm32/STM32F10x_StdPeriph_Driver/src/stm32f10x_tim.c ****   */
 813:common/lib.stm32/STM32F10x_StdPeriph_Driver/src/stm32f10x_tim.c **** void TIM_CtrlPWMOutputs(TIM_TypeDef* TIMx, FunctionalState NewState)
 814:common/lib.stm32/STM32F10x_StdPeriph_Driver/src/stm32f10x_tim.c **** {
 1833              		.loc 1 814 1
 1834              		.cfi_startproc
 1835              		@ args = 0, pretend = 0, frame = 8
 1836              		@ frame_needed = 1, uses_anonymous_args = 0
 1837              		@ link register save eliminated.
 1838 0000 80B4     		push	{r7}
 1839              	.LCFI81:
 1840              		.cfi_def_cfa_offset 4
 1841              		.cfi_offset 7, -4
 1842 0002 83B0     		sub	sp, sp, #12
 1843              	.LCFI82:
 1844              		.cfi_def_cfa_offset 16
 1845 0004 00AF     		add	r7, sp, #0
 1846              	.LCFI83:
 1847              		.cfi_def_cfa_register 7
 1848 0006 7860     		str	r0, [r7, #4]
 1849 0008 0B46     		mov	r3, r1
 1850 000a FB70     		strb	r3, [r7, #3]
 815:common/lib.stm32/STM32F10x_StdPeriph_Driver/src/stm32f10x_tim.c ****   /* Check the parameters */
 816:common/lib.stm32/STM32F10x_StdPeriph_Driver/src/stm32f10x_tim.c ****   assert_param(IS_TIM_18_PERIPH(TIMx));
 817:common/lib.stm32/STM32F10x_StdPeriph_Driver/src/stm32f10x_tim.c ****   assert_param(IS_FUNCTIONAL_STATE(NewState));
 818:common/lib.stm32/STM32F10x_StdPeriph_Driver/src/stm32f10x_tim.c ****   if (NewState != DISABLE)
 1851              		.loc 1 818 6
 1852 000c FB78     		ldrb	r3, [r7, #3]	@ zero_extendqisi2
 1853 000e 002B     		cmp	r3, #0
 1854 0010 0CD0     		beq	.L66
 819:common/lib.stm32/STM32F10x_StdPeriph_Driver/src/stm32f10x_tim.c ****   {
 820:common/lib.stm32/STM32F10x_StdPeriph_Driver/src/stm32f10x_tim.c ****     /* Enable the TIM Main Output */
 821:common/lib.stm32/STM32F10x_StdPeriph_Driver/src/stm32f10x_tim.c ****     TIMx->BDTR |= BDTR_MOE_Set;
 1855              		.loc 1 821 16
 1856 0012 7B68     		ldr	r3, [r7, #4]
 1857 0014 B3F84430 		ldrh	r3, [r3, #68]	@ movhi
 1858 0018 9BB2     		uxth	r3, r3
 1859 001a 6FEA4343 		mvn	r3, r3, lsl #17
 1860 001e 6FEA5343 		mvn	r3, r3, lsr #17
 1861 0022 9AB2     		uxth	r2, r3
 1862 0024 7B68     		ldr	r3, [r7, #4]
 1863 0026 A3F84420 		strh	r2, [r3, #68]	@ movhi
 822:common/lib.stm32/STM32F10x_StdPeriph_Driver/src/stm32f10x_tim.c ****   }
 823:common/lib.stm32/STM32F10x_StdPeriph_Driver/src/stm32f10x_tim.c ****   else
 824:common/lib.stm32/STM32F10x_StdPeriph_Driver/src/stm32f10x_tim.c ****   {
 825:common/lib.stm32/STM32F10x_StdPeriph_Driver/src/stm32f10x_tim.c ****     /* Disable the TIM Main Output */
 826:common/lib.stm32/STM32F10x_StdPeriph_Driver/src/stm32f10x_tim.c ****     TIMx->BDTR &= BDTR_MOE_Reset;
 827:common/lib.stm32/STM32F10x_StdPeriph_Driver/src/stm32f10x_tim.c ****   }  
 828:common/lib.stm32/STM32F10x_StdPeriph_Driver/src/stm32f10x_tim.c **** }
 1864              		.loc 1 828 1
 1865 002a 09E0     		b	.L68
 1866              	.L66:
 826:common/lib.stm32/STM32F10x_StdPeriph_Driver/src/stm32f10x_tim.c ****   }  
 1867              		.loc 1 826 16
 1868 002c 7B68     		ldr	r3, [r7, #4]
 1869 002e B3F84430 		ldrh	r3, [r3, #68]	@ movhi
 1870 0032 9BB2     		uxth	r3, r3
 1871 0034 C3F30E03 		ubfx	r3, r3, #0, #15
 1872 0038 9AB2     		uxth	r2, r3
 1873 003a 7B68     		ldr	r3, [r7, #4]
 1874 003c A3F84420 		strh	r2, [r3, #68]	@ movhi
 1875              	.L68:
 1876              		.loc 1 828 1
 1877 0040 00BF     		nop
 1878 0042 0C37     		adds	r7, r7, #12
 1879              	.LCFI84:
 1880              		.cfi_def_cfa_offset 4
 1881 0044 BD46     		mov	sp, r7
 1882              	.LCFI85:
 1883              		.cfi_def_cfa_register 13
 1884              		@ sp needed
 1885 0046 80BC     		pop	{r7}
 1886              	.LCFI86:
 1887              		.cfi_restore 7
 1888              		.cfi_def_cfa_offset 0
 1889 0048 7047     		bx	lr
 1890              		.cfi_endproc
 1891              	.LFE41:
 1893              		.section	.text.TIM_ITConfig,"ax",%progbits
 1894              		.align	1
 1895              		.global	TIM_ITConfig
 1896              		.syntax unified
 1897              		.thumb
 1898              		.thumb_func
 1900              	TIM_ITConfig:
 1901              	.LFB42:
 829:common/lib.stm32/STM32F10x_StdPeriph_Driver/src/stm32f10x_tim.c **** 
 830:common/lib.stm32/STM32F10x_StdPeriph_Driver/src/stm32f10x_tim.c **** /**
 831:common/lib.stm32/STM32F10x_StdPeriph_Driver/src/stm32f10x_tim.c ****   * @brief  Enables or disables the specified TIM interrupts.
 832:common/lib.stm32/STM32F10x_StdPeriph_Driver/src/stm32f10x_tim.c ****   * @param  TIMx: where x can be 1 to 8 to select the TIMx peripheral.
 833:common/lib.stm32/STM32F10x_StdPeriph_Driver/src/stm32f10x_tim.c ****   * @param  TIM_IT: specifies the TIM interrupts sources to be enabled or disabled.
 834:common/lib.stm32/STM32F10x_StdPeriph_Driver/src/stm32f10x_tim.c ****   *   This parameter can be any combination of the following values:
 835:common/lib.stm32/STM32F10x_StdPeriph_Driver/src/stm32f10x_tim.c ****   *     @arg TIM_IT_Update: TIM update Interrupt source
 836:common/lib.stm32/STM32F10x_StdPeriph_Driver/src/stm32f10x_tim.c ****   *     @arg TIM_IT_CC1: TIM Capture Compare 1 Interrupt source
 837:common/lib.stm32/STM32F10x_StdPeriph_Driver/src/stm32f10x_tim.c ****   *     @arg TIM_IT_CC2: TIM Capture Compare 2 Interrupt source
 838:common/lib.stm32/STM32F10x_StdPeriph_Driver/src/stm32f10x_tim.c ****   *     @arg TIM_IT_CC3: TIM Capture Compare 3 Interrupt source
 839:common/lib.stm32/STM32F10x_StdPeriph_Driver/src/stm32f10x_tim.c ****   *     @arg TIM_IT_CC4: TIM Capture Compare 4 Interrupt source
 840:common/lib.stm32/STM32F10x_StdPeriph_Driver/src/stm32f10x_tim.c ****   *     @arg TIM_IT_COM: TIM Commutation Interrupt source
 841:common/lib.stm32/STM32F10x_StdPeriph_Driver/src/stm32f10x_tim.c ****   *     @arg TIM_IT_Trigger: TIM Trigger Interrupt source
 842:common/lib.stm32/STM32F10x_StdPeriph_Driver/src/stm32f10x_tim.c ****   *     @arg TIM_IT_Break: TIM Break Interrupt source
 843:common/lib.stm32/STM32F10x_StdPeriph_Driver/src/stm32f10x_tim.c ****   * @note 
 844:common/lib.stm32/STM32F10x_StdPeriph_Driver/src/stm32f10x_tim.c ****   *   - TIM6 and TIM7 can only generate an update interrupt. 
 845:common/lib.stm32/STM32F10x_StdPeriph_Driver/src/stm32f10x_tim.c ****   *   - TIM_IT_COM and TIM_IT_Break are used only with TIM1 and TIM8.  
 846:common/lib.stm32/STM32F10x_StdPeriph_Driver/src/stm32f10x_tim.c ****   * @param  NewState: new state of the TIM interrupts.
 847:common/lib.stm32/STM32F10x_StdPeriph_Driver/src/stm32f10x_tim.c ****   *   This parameter can be: ENABLE or DISABLE.
 848:common/lib.stm32/STM32F10x_StdPeriph_Driver/src/stm32f10x_tim.c ****   * @retval None
 849:common/lib.stm32/STM32F10x_StdPeriph_Driver/src/stm32f10x_tim.c ****   */
 850:common/lib.stm32/STM32F10x_StdPeriph_Driver/src/stm32f10x_tim.c **** void TIM_ITConfig(TIM_TypeDef* TIMx, uint16_t TIM_IT, FunctionalState NewState)
 851:common/lib.stm32/STM32F10x_StdPeriph_Driver/src/stm32f10x_tim.c **** {  
 1902              		.loc 1 851 1
 1903              		.cfi_startproc
 1904              		@ args = 0, pretend = 0, frame = 8
 1905              		@ frame_needed = 1, uses_anonymous_args = 0
 1906              		@ link register save eliminated.
 1907 0000 80B4     		push	{r7}
 1908              	.LCFI87:
 1909              		.cfi_def_cfa_offset 4
 1910              		.cfi_offset 7, -4
 1911 0002 83B0     		sub	sp, sp, #12
 1912              	.LCFI88:
 1913              		.cfi_def_cfa_offset 16
 1914 0004 00AF     		add	r7, sp, #0
 1915              	.LCFI89:
 1916              		.cfi_def_cfa_register 7
 1917 0006 7860     		str	r0, [r7, #4]
 1918 0008 0B46     		mov	r3, r1
 1919 000a 7B80     		strh	r3, [r7, #2]	@ movhi
 1920 000c 1346     		mov	r3, r2
 1921 000e 7B70     		strb	r3, [r7, #1]
 852:common/lib.stm32/STM32F10x_StdPeriph_Driver/src/stm32f10x_tim.c ****   /* Check the parameters */
 853:common/lib.stm32/STM32F10x_StdPeriph_Driver/src/stm32f10x_tim.c ****   assert_param(IS_TIM_ALL_PERIPH(TIMx));
 854:common/lib.stm32/STM32F10x_StdPeriph_Driver/src/stm32f10x_tim.c ****   assert_param(IS_TIM_IT(TIM_IT));
 855:common/lib.stm32/STM32F10x_StdPeriph_Driver/src/stm32f10x_tim.c ****   assert_param(IS_FUNCTIONAL_STATE(NewState));
 856:common/lib.stm32/STM32F10x_StdPeriph_Driver/src/stm32f10x_tim.c ****   
 857:common/lib.stm32/STM32F10x_StdPeriph_Driver/src/stm32f10x_tim.c ****   if (NewState != DISABLE)
 1922              		.loc 1 857 6
 1923 0010 7B78     		ldrb	r3, [r7, #1]	@ zero_extendqisi2
 1924 0012 002B     		cmp	r3, #0
 1925 0014 08D0     		beq	.L70
 858:common/lib.stm32/STM32F10x_StdPeriph_Driver/src/stm32f10x_tim.c ****   {
 859:common/lib.stm32/STM32F10x_StdPeriph_Driver/src/stm32f10x_tim.c ****     /* Enable the Interrupt sources */
 860:common/lib.stm32/STM32F10x_StdPeriph_Driver/src/stm32f10x_tim.c ****     TIMx->DIER |= TIM_IT;
 1926              		.loc 1 860 16
 1927 0016 7B68     		ldr	r3, [r7, #4]
 1928 0018 9B89     		ldrh	r3, [r3, #12]	@ movhi
 1929 001a 9AB2     		uxth	r2, r3
 1930 001c 7B88     		ldrh	r3, [r7, #2]	@ movhi
 1931 001e 1343     		orrs	r3, r3, r2
 1932 0020 9AB2     		uxth	r2, r3
 1933 0022 7B68     		ldr	r3, [r7, #4]
 1934 0024 9A81     		strh	r2, [r3, #12]	@ movhi
 861:common/lib.stm32/STM32F10x_StdPeriph_Driver/src/stm32f10x_tim.c ****   }
 862:common/lib.stm32/STM32F10x_StdPeriph_Driver/src/stm32f10x_tim.c ****   else
 863:common/lib.stm32/STM32F10x_StdPeriph_Driver/src/stm32f10x_tim.c ****   {
 864:common/lib.stm32/STM32F10x_StdPeriph_Driver/src/stm32f10x_tim.c ****     /* Disable the Interrupt sources */
 865:common/lib.stm32/STM32F10x_StdPeriph_Driver/src/stm32f10x_tim.c ****     TIMx->DIER &= (uint16_t)~TIM_IT;
 866:common/lib.stm32/STM32F10x_StdPeriph_Driver/src/stm32f10x_tim.c ****   }
 867:common/lib.stm32/STM32F10x_StdPeriph_Driver/src/stm32f10x_tim.c **** }
 1935              		.loc 1 867 1
 1936 0026 09E0     		b	.L72
 1937              	.L70:
 865:common/lib.stm32/STM32F10x_StdPeriph_Driver/src/stm32f10x_tim.c ****   }
 1938              		.loc 1 865 16
 1939 0028 7B68     		ldr	r3, [r7, #4]
 1940 002a 9B89     		ldrh	r3, [r3, #12]	@ movhi
 1941 002c 9AB2     		uxth	r2, r3
 865:common/lib.stm32/STM32F10x_StdPeriph_Driver/src/stm32f10x_tim.c ****   }
 1942              		.loc 1 865 19
 1943 002e 7B88     		ldrh	r3, [r7, #2]	@ movhi
 1944 0030 DB43     		mvns	r3, r3
 1945 0032 9BB2     		uxth	r3, r3
 865:common/lib.stm32/STM32F10x_StdPeriph_Driver/src/stm32f10x_tim.c ****   }
 1946              		.loc 1 865 16
 1947 0034 1340     		ands	r3, r3, r2
 1948 0036 9AB2     		uxth	r2, r3
 1949 0038 7B68     		ldr	r3, [r7, #4]
 1950 003a 9A81     		strh	r2, [r3, #12]	@ movhi
 1951              	.L72:
 1952              		.loc 1 867 1
 1953 003c 00BF     		nop
 1954 003e 0C37     		adds	r7, r7, #12
 1955              	.LCFI90:
 1956              		.cfi_def_cfa_offset 4
 1957 0040 BD46     		mov	sp, r7
 1958              	.LCFI91:
 1959              		.cfi_def_cfa_register 13
 1960              		@ sp needed
 1961 0042 80BC     		pop	{r7}
 1962              	.LCFI92:
 1963              		.cfi_restore 7
 1964              		.cfi_def_cfa_offset 0
 1965 0044 7047     		bx	lr
 1966              		.cfi_endproc
 1967              	.LFE42:
 1969              		.section	.text.TIM_GenerateEvent,"ax",%progbits
 1970              		.align	1
 1971              		.global	TIM_GenerateEvent
 1972              		.syntax unified
 1973              		.thumb
 1974              		.thumb_func
 1976              	TIM_GenerateEvent:
 1977              	.LFB43:
 868:common/lib.stm32/STM32F10x_StdPeriph_Driver/src/stm32f10x_tim.c **** 
 869:common/lib.stm32/STM32F10x_StdPeriph_Driver/src/stm32f10x_tim.c **** /**
 870:common/lib.stm32/STM32F10x_StdPeriph_Driver/src/stm32f10x_tim.c ****   * @brief  Configures the TIMx event to be generate by software.
 871:common/lib.stm32/STM32F10x_StdPeriph_Driver/src/stm32f10x_tim.c ****   * @param  TIMx: where x can be 1 to 8 to select the TIM peripheral.
 872:common/lib.stm32/STM32F10x_StdPeriph_Driver/src/stm32f10x_tim.c ****   * @param  TIM_EventSource: specifies the event source.
 873:common/lib.stm32/STM32F10x_StdPeriph_Driver/src/stm32f10x_tim.c ****   *   This parameter can be one or more of the following values:	   
 874:common/lib.stm32/STM32F10x_StdPeriph_Driver/src/stm32f10x_tim.c ****   *     @arg TIM_EventSource_Update: Timer update Event source
 875:common/lib.stm32/STM32F10x_StdPeriph_Driver/src/stm32f10x_tim.c ****   *     @arg TIM_EventSource_CC1: Timer Capture Compare 1 Event source
 876:common/lib.stm32/STM32F10x_StdPeriph_Driver/src/stm32f10x_tim.c ****   *     @arg TIM_EventSource_CC2: Timer Capture Compare 2 Event source
 877:common/lib.stm32/STM32F10x_StdPeriph_Driver/src/stm32f10x_tim.c ****   *     @arg TIM_EventSource_CC3: Timer Capture Compare 3 Event source
 878:common/lib.stm32/STM32F10x_StdPeriph_Driver/src/stm32f10x_tim.c ****   *     @arg TIM_EventSource_CC4: Timer Capture Compare 4 Event source
 879:common/lib.stm32/STM32F10x_StdPeriph_Driver/src/stm32f10x_tim.c ****   *     @arg TIM_EventSource_COM: Timer COM event source  
 880:common/lib.stm32/STM32F10x_StdPeriph_Driver/src/stm32f10x_tim.c ****   *     @arg TIM_EventSource_Trigger: Timer Trigger Event source
 881:common/lib.stm32/STM32F10x_StdPeriph_Driver/src/stm32f10x_tim.c ****   *     @arg TIM_EventSource_Break: Timer Break event source
 882:common/lib.stm32/STM32F10x_StdPeriph_Driver/src/stm32f10x_tim.c ****   * @note 
 883:common/lib.stm32/STM32F10x_StdPeriph_Driver/src/stm32f10x_tim.c ****   *   - TIM6 and TIM7 can only generate an update event. 
 884:common/lib.stm32/STM32F10x_StdPeriph_Driver/src/stm32f10x_tim.c ****   *   - TIM_EventSource_COM and TIM_EventSource_Break are used only with TIM1 and TIM8.      
 885:common/lib.stm32/STM32F10x_StdPeriph_Driver/src/stm32f10x_tim.c ****   * @retval None
 886:common/lib.stm32/STM32F10x_StdPeriph_Driver/src/stm32f10x_tim.c ****   */
 887:common/lib.stm32/STM32F10x_StdPeriph_Driver/src/stm32f10x_tim.c **** void TIM_GenerateEvent(TIM_TypeDef* TIMx, uint16_t TIM_EventSource)
 888:common/lib.stm32/STM32F10x_StdPeriph_Driver/src/stm32f10x_tim.c **** { 
 1978              		.loc 1 888 1
 1979              		.cfi_startproc
 1980              		@ args = 0, pretend = 0, frame = 8
 1981              		@ frame_needed = 1, uses_anonymous_args = 0
 1982              		@ link register save eliminated.
 1983 0000 80B4     		push	{r7}
 1984              	.LCFI93:
 1985              		.cfi_def_cfa_offset 4
 1986              		.cfi_offset 7, -4
 1987 0002 83B0     		sub	sp, sp, #12
 1988              	.LCFI94:
 1989              		.cfi_def_cfa_offset 16
 1990 0004 00AF     		add	r7, sp, #0
 1991              	.LCFI95:
 1992              		.cfi_def_cfa_register 7
 1993 0006 7860     		str	r0, [r7, #4]
 1994 0008 0B46     		mov	r3, r1
 1995 000a 7B80     		strh	r3, [r7, #2]	@ movhi
 889:common/lib.stm32/STM32F10x_StdPeriph_Driver/src/stm32f10x_tim.c ****   /* Check the parameters */
 890:common/lib.stm32/STM32F10x_StdPeriph_Driver/src/stm32f10x_tim.c ****   assert_param(IS_TIM_ALL_PERIPH(TIMx));
 891:common/lib.stm32/STM32F10x_StdPeriph_Driver/src/stm32f10x_tim.c ****   assert_param(IS_TIM_EVENT_SOURCE(TIM_EventSource));
 892:common/lib.stm32/STM32F10x_StdPeriph_Driver/src/stm32f10x_tim.c ****   
 893:common/lib.stm32/STM32F10x_StdPeriph_Driver/src/stm32f10x_tim.c ****   /* Set the event sources */
 894:common/lib.stm32/STM32F10x_StdPeriph_Driver/src/stm32f10x_tim.c ****   TIMx->EGR = TIM_EventSource;
 1996              		.loc 1 894 13
 1997 000c 7B68     		ldr	r3, [r7, #4]
 1998 000e 7A88     		ldrh	r2, [r7, #2]	@ movhi
 1999 0010 9A82     		strh	r2, [r3, #20]	@ movhi
 895:common/lib.stm32/STM32F10x_StdPeriph_Driver/src/stm32f10x_tim.c **** }
 2000              		.loc 1 895 1
 2001 0012 00BF     		nop
 2002 0014 0C37     		adds	r7, r7, #12
 2003              	.LCFI96:
 2004              		.cfi_def_cfa_offset 4
 2005 0016 BD46     		mov	sp, r7
 2006              	.LCFI97:
 2007              		.cfi_def_cfa_register 13
 2008              		@ sp needed
 2009 0018 80BC     		pop	{r7}
 2010              	.LCFI98:
 2011              		.cfi_restore 7
 2012              		.cfi_def_cfa_offset 0
 2013 001a 7047     		bx	lr
 2014              		.cfi_endproc
 2015              	.LFE43:
 2017              		.section	.text.TIM_DMAConfig,"ax",%progbits
 2018              		.align	1
 2019              		.global	TIM_DMAConfig
 2020              		.syntax unified
 2021              		.thumb
 2022              		.thumb_func
 2024              	TIM_DMAConfig:
 2025              	.LFB44:
 896:common/lib.stm32/STM32F10x_StdPeriph_Driver/src/stm32f10x_tim.c **** 
 897:common/lib.stm32/STM32F10x_StdPeriph_Driver/src/stm32f10x_tim.c **** /**
 898:common/lib.stm32/STM32F10x_StdPeriph_Driver/src/stm32f10x_tim.c ****   * @brief  Configures the TIMxs DMA interface.
 899:common/lib.stm32/STM32F10x_StdPeriph_Driver/src/stm32f10x_tim.c ****   * @param  TIMx: where x can be  1, 2, 3, 4, 5 or 8 to select the TIM peripheral.
 900:common/lib.stm32/STM32F10x_StdPeriph_Driver/src/stm32f10x_tim.c ****   * @param  TIM_DMABase: DMA Base address.
 901:common/lib.stm32/STM32F10x_StdPeriph_Driver/src/stm32f10x_tim.c ****   *   This parameter can be one of the following values:
 902:common/lib.stm32/STM32F10x_StdPeriph_Driver/src/stm32f10x_tim.c ****   *     @arg TIM_DMABase_CR, TIM_DMABase_CR2, TIM_DMABase_SMCR,
 903:common/lib.stm32/STM32F10x_StdPeriph_Driver/src/stm32f10x_tim.c ****   *   TIM_DMABase_DIER, TIM1_DMABase_SR, TIM_DMABase_EGR,
 904:common/lib.stm32/STM32F10x_StdPeriph_Driver/src/stm32f10x_tim.c ****   *   TIM_DMABase_CCMR1, TIM_DMABase_CCMR2, TIM_DMABase_CCER,
 905:common/lib.stm32/STM32F10x_StdPeriph_Driver/src/stm32f10x_tim.c ****   *   TIM_DMABase_CNT, TIM_DMABase_PSC, TIM_DMABase_ARR,
 906:common/lib.stm32/STM32F10x_StdPeriph_Driver/src/stm32f10x_tim.c ****   *   TIM_DMABase_RCR, TIM_DMABase_CCR1, TIM_DMABase_CCR2,
 907:common/lib.stm32/STM32F10x_StdPeriph_Driver/src/stm32f10x_tim.c ****   *   TIM_DMABase_CCR3, TIM_DMABase_CCR4, TIM_DMABase_BDTR,
 908:common/lib.stm32/STM32F10x_StdPeriph_Driver/src/stm32f10x_tim.c ****   *   TIM_DMABase_DCR.
 909:common/lib.stm32/STM32F10x_StdPeriph_Driver/src/stm32f10x_tim.c ****   * @param  TIM_DMABurstLength: DMA Burst length.
 910:common/lib.stm32/STM32F10x_StdPeriph_Driver/src/stm32f10x_tim.c ****   *   This parameter can be one value between:
 911:common/lib.stm32/STM32F10x_StdPeriph_Driver/src/stm32f10x_tim.c ****   *   TIM_DMABurstLength_1Byte and TIM_DMABurstLength_18Bytes.
 912:common/lib.stm32/STM32F10x_StdPeriph_Driver/src/stm32f10x_tim.c ****   * @retval None
 913:common/lib.stm32/STM32F10x_StdPeriph_Driver/src/stm32f10x_tim.c ****   */
 914:common/lib.stm32/STM32F10x_StdPeriph_Driver/src/stm32f10x_tim.c **** void TIM_DMAConfig(TIM_TypeDef* TIMx, uint16_t TIM_DMABase, uint16_t TIM_DMABurstLength)
 915:common/lib.stm32/STM32F10x_StdPeriph_Driver/src/stm32f10x_tim.c **** {
 2026              		.loc 1 915 1
 2027              		.cfi_startproc
 2028              		@ args = 0, pretend = 0, frame = 8
 2029              		@ frame_needed = 1, uses_anonymous_args = 0
 2030              		@ link register save eliminated.
 2031 0000 80B4     		push	{r7}
 2032              	.LCFI99:
 2033              		.cfi_def_cfa_offset 4
 2034              		.cfi_offset 7, -4
 2035 0002 83B0     		sub	sp, sp, #12
 2036              	.LCFI100:
 2037              		.cfi_def_cfa_offset 16
 2038 0004 00AF     		add	r7, sp, #0
 2039              	.LCFI101:
 2040              		.cfi_def_cfa_register 7
 2041 0006 7860     		str	r0, [r7, #4]
 2042 0008 0B46     		mov	r3, r1
 2043 000a 7B80     		strh	r3, [r7, #2]	@ movhi
 2044 000c 1346     		mov	r3, r2	@ movhi
 2045 000e 3B80     		strh	r3, [r7]	@ movhi
 916:common/lib.stm32/STM32F10x_StdPeriph_Driver/src/stm32f10x_tim.c ****   /* Check the parameters */
 917:common/lib.stm32/STM32F10x_StdPeriph_Driver/src/stm32f10x_tim.c ****   assert_param(IS_TIM_123458_PERIPH(TIMx));
 918:common/lib.stm32/STM32F10x_StdPeriph_Driver/src/stm32f10x_tim.c ****   assert_param(IS_TIM_DMA_BASE(TIM_DMABase));
 919:common/lib.stm32/STM32F10x_StdPeriph_Driver/src/stm32f10x_tim.c ****   assert_param(IS_TIM_DMA_LENGTH(TIM_DMABurstLength));
 920:common/lib.stm32/STM32F10x_StdPeriph_Driver/src/stm32f10x_tim.c ****   /* Set the DMA Base and the DMA Burst Length */
 921:common/lib.stm32/STM32F10x_StdPeriph_Driver/src/stm32f10x_tim.c ****   TIMx->DCR = TIM_DMABase | TIM_DMABurstLength;
 2046              		.loc 1 921 13
 2047 0010 7A88     		ldrh	r2, [r7, #2]	@ movhi
 2048 0012 3B88     		ldrh	r3, [r7]	@ movhi
 2049 0014 1343     		orrs	r3, r3, r2
 2050 0016 9AB2     		uxth	r2, r3
 2051 0018 7B68     		ldr	r3, [r7, #4]
 2052 001a A3F84820 		strh	r2, [r3, #72]	@ movhi
 922:common/lib.stm32/STM32F10x_StdPeriph_Driver/src/stm32f10x_tim.c **** }
 2053              		.loc 1 922 1
 2054 001e 00BF     		nop
 2055 0020 0C37     		adds	r7, r7, #12
 2056              	.LCFI102:
 2057              		.cfi_def_cfa_offset 4
 2058 0022 BD46     		mov	sp, r7
 2059              	.LCFI103:
 2060              		.cfi_def_cfa_register 13
 2061              		@ sp needed
 2062 0024 80BC     		pop	{r7}
 2063              	.LCFI104:
 2064              		.cfi_restore 7
 2065              		.cfi_def_cfa_offset 0
 2066 0026 7047     		bx	lr
 2067              		.cfi_endproc
 2068              	.LFE44:
 2070              		.section	.text.TIM_DMACmd,"ax",%progbits
 2071              		.align	1
 2072              		.global	TIM_DMACmd
 2073              		.syntax unified
 2074              		.thumb
 2075              		.thumb_func
 2077              	TIM_DMACmd:
 2078              	.LFB45:
 923:common/lib.stm32/STM32F10x_StdPeriph_Driver/src/stm32f10x_tim.c **** 
 924:common/lib.stm32/STM32F10x_StdPeriph_Driver/src/stm32f10x_tim.c **** /**
 925:common/lib.stm32/STM32F10x_StdPeriph_Driver/src/stm32f10x_tim.c ****   * @brief  Enables or disables the TIMxs DMA Requests.
 926:common/lib.stm32/STM32F10x_StdPeriph_Driver/src/stm32f10x_tim.c ****   * @param  TIMx: where x can be  1 to 8 to select the TIM peripheral. 
 927:common/lib.stm32/STM32F10x_StdPeriph_Driver/src/stm32f10x_tim.c ****   * @param  TIM_DMASource: specifies the DMA Request sources.
 928:common/lib.stm32/STM32F10x_StdPeriph_Driver/src/stm32f10x_tim.c ****   *   This parameter can be any combination of the following values:
 929:common/lib.stm32/STM32F10x_StdPeriph_Driver/src/stm32f10x_tim.c ****   *     @arg TIM_DMA_Update: TIM update Interrupt source
 930:common/lib.stm32/STM32F10x_StdPeriph_Driver/src/stm32f10x_tim.c ****   *     @arg TIM_DMA_CC1: TIM Capture Compare 1 DMA source
 931:common/lib.stm32/STM32F10x_StdPeriph_Driver/src/stm32f10x_tim.c ****   *     @arg TIM_DMA_CC2: TIM Capture Compare 2 DMA source
 932:common/lib.stm32/STM32F10x_StdPeriph_Driver/src/stm32f10x_tim.c ****   *     @arg TIM_DMA_CC3: TIM Capture Compare 3 DMA source
 933:common/lib.stm32/STM32F10x_StdPeriph_Driver/src/stm32f10x_tim.c ****   *     @arg TIM_DMA_CC4: TIM Capture Compare 4 DMA source
 934:common/lib.stm32/STM32F10x_StdPeriph_Driver/src/stm32f10x_tim.c ****   *     @arg TIM_DMA_COM: TIM Commutation DMA source
 935:common/lib.stm32/STM32F10x_StdPeriph_Driver/src/stm32f10x_tim.c ****   *     @arg TIM_DMA_Trigger: TIM Trigger DMA source
 936:common/lib.stm32/STM32F10x_StdPeriph_Driver/src/stm32f10x_tim.c ****   * @param  NewState: new state of the DMA Request sources.
 937:common/lib.stm32/STM32F10x_StdPeriph_Driver/src/stm32f10x_tim.c ****   *   This parameter can be: ENABLE or DISABLE.
 938:common/lib.stm32/STM32F10x_StdPeriph_Driver/src/stm32f10x_tim.c ****   * @retval None
 939:common/lib.stm32/STM32F10x_StdPeriph_Driver/src/stm32f10x_tim.c ****   */
 940:common/lib.stm32/STM32F10x_StdPeriph_Driver/src/stm32f10x_tim.c **** void TIM_DMACmd(TIM_TypeDef* TIMx, uint16_t TIM_DMASource, FunctionalState NewState)
 941:common/lib.stm32/STM32F10x_StdPeriph_Driver/src/stm32f10x_tim.c **** { 
 2079              		.loc 1 941 1
 2080              		.cfi_startproc
 2081              		@ args = 0, pretend = 0, frame = 8
 2082              		@ frame_needed = 1, uses_anonymous_args = 0
 2083              		@ link register save eliminated.
 2084 0000 80B4     		push	{r7}
 2085              	.LCFI105:
 2086              		.cfi_def_cfa_offset 4
 2087              		.cfi_offset 7, -4
 2088 0002 83B0     		sub	sp, sp, #12
 2089              	.LCFI106:
 2090              		.cfi_def_cfa_offset 16
 2091 0004 00AF     		add	r7, sp, #0
 2092              	.LCFI107:
 2093              		.cfi_def_cfa_register 7
 2094 0006 7860     		str	r0, [r7, #4]
 2095 0008 0B46     		mov	r3, r1
 2096 000a 7B80     		strh	r3, [r7, #2]	@ movhi
 2097 000c 1346     		mov	r3, r2
 2098 000e 7B70     		strb	r3, [r7, #1]
 942:common/lib.stm32/STM32F10x_StdPeriph_Driver/src/stm32f10x_tim.c ****   /* Check the parameters */
 943:common/lib.stm32/STM32F10x_StdPeriph_Driver/src/stm32f10x_tim.c ****   assert_param(IS_TIM_ALL_PERIPH(TIMx));
 944:common/lib.stm32/STM32F10x_StdPeriph_Driver/src/stm32f10x_tim.c ****   assert_param(IS_TIM_DMA_SOURCE(TIM_DMASource));
 945:common/lib.stm32/STM32F10x_StdPeriph_Driver/src/stm32f10x_tim.c ****   assert_param(IS_FUNCTIONAL_STATE(NewState));
 946:common/lib.stm32/STM32F10x_StdPeriph_Driver/src/stm32f10x_tim.c ****   
 947:common/lib.stm32/STM32F10x_StdPeriph_Driver/src/stm32f10x_tim.c ****   if (NewState != DISABLE)
 2099              		.loc 1 947 6
 2100 0010 7B78     		ldrb	r3, [r7, #1]	@ zero_extendqisi2
 2101 0012 002B     		cmp	r3, #0
 2102 0014 08D0     		beq	.L76
 948:common/lib.stm32/STM32F10x_StdPeriph_Driver/src/stm32f10x_tim.c ****   {
 949:common/lib.stm32/STM32F10x_StdPeriph_Driver/src/stm32f10x_tim.c ****     /* Enable the DMA sources */
 950:common/lib.stm32/STM32F10x_StdPeriph_Driver/src/stm32f10x_tim.c ****     TIMx->DIER |= TIM_DMASource; 
 2103              		.loc 1 950 16
 2104 0016 7B68     		ldr	r3, [r7, #4]
 2105 0018 9B89     		ldrh	r3, [r3, #12]	@ movhi
 2106 001a 9AB2     		uxth	r2, r3
 2107 001c 7B88     		ldrh	r3, [r7, #2]	@ movhi
 2108 001e 1343     		orrs	r3, r3, r2
 2109 0020 9AB2     		uxth	r2, r3
 2110 0022 7B68     		ldr	r3, [r7, #4]
 2111 0024 9A81     		strh	r2, [r3, #12]	@ movhi
 951:common/lib.stm32/STM32F10x_StdPeriph_Driver/src/stm32f10x_tim.c ****   }
 952:common/lib.stm32/STM32F10x_StdPeriph_Driver/src/stm32f10x_tim.c ****   else
 953:common/lib.stm32/STM32F10x_StdPeriph_Driver/src/stm32f10x_tim.c ****   {
 954:common/lib.stm32/STM32F10x_StdPeriph_Driver/src/stm32f10x_tim.c ****     /* Disable the DMA sources */
 955:common/lib.stm32/STM32F10x_StdPeriph_Driver/src/stm32f10x_tim.c ****     TIMx->DIER &= (uint16_t)~TIM_DMASource;
 956:common/lib.stm32/STM32F10x_StdPeriph_Driver/src/stm32f10x_tim.c ****   }
 957:common/lib.stm32/STM32F10x_StdPeriph_Driver/src/stm32f10x_tim.c **** }
 2112              		.loc 1 957 1
 2113 0026 09E0     		b	.L78
 2114              	.L76:
 955:common/lib.stm32/STM32F10x_StdPeriph_Driver/src/stm32f10x_tim.c ****   }
 2115              		.loc 1 955 16
 2116 0028 7B68     		ldr	r3, [r7, #4]
 2117 002a 9B89     		ldrh	r3, [r3, #12]	@ movhi
 2118 002c 9AB2     		uxth	r2, r3
 955:common/lib.stm32/STM32F10x_StdPeriph_Driver/src/stm32f10x_tim.c ****   }
 2119              		.loc 1 955 19
 2120 002e 7B88     		ldrh	r3, [r7, #2]	@ movhi
 2121 0030 DB43     		mvns	r3, r3
 2122 0032 9BB2     		uxth	r3, r3
 955:common/lib.stm32/STM32F10x_StdPeriph_Driver/src/stm32f10x_tim.c ****   }
 2123              		.loc 1 955 16
 2124 0034 1340     		ands	r3, r3, r2
 2125 0036 9AB2     		uxth	r2, r3
 2126 0038 7B68     		ldr	r3, [r7, #4]
 2127 003a 9A81     		strh	r2, [r3, #12]	@ movhi
 2128              	.L78:
 2129              		.loc 1 957 1
 2130 003c 00BF     		nop
 2131 003e 0C37     		adds	r7, r7, #12
 2132              	.LCFI108:
 2133              		.cfi_def_cfa_offset 4
 2134 0040 BD46     		mov	sp, r7
 2135              	.LCFI109:
 2136              		.cfi_def_cfa_register 13
 2137              		@ sp needed
 2138 0042 80BC     		pop	{r7}
 2139              	.LCFI110:
 2140              		.cfi_restore 7
 2141              		.cfi_def_cfa_offset 0
 2142 0044 7047     		bx	lr
 2143              		.cfi_endproc
 2144              	.LFE45:
 2146              		.section	.text.TIM_InternalClockConfig,"ax",%progbits
 2147              		.align	1
 2148              		.global	TIM_InternalClockConfig
 2149              		.syntax unified
 2150              		.thumb
 2151              		.thumb_func
 2153              	TIM_InternalClockConfig:
 2154              	.LFB46:
 958:common/lib.stm32/STM32F10x_StdPeriph_Driver/src/stm32f10x_tim.c **** 
 959:common/lib.stm32/STM32F10x_StdPeriph_Driver/src/stm32f10x_tim.c **** /**
 960:common/lib.stm32/STM32F10x_StdPeriph_Driver/src/stm32f10x_tim.c ****   * @brief  Configures the TIMx interrnal Clock
 961:common/lib.stm32/STM32F10x_StdPeriph_Driver/src/stm32f10x_tim.c ****   * @param  TIMx: where x can be  1, 2, 3, 4, 5 or 8 to select the TIM peripheral.
 962:common/lib.stm32/STM32F10x_StdPeriph_Driver/src/stm32f10x_tim.c ****   * @retval None
 963:common/lib.stm32/STM32F10x_StdPeriph_Driver/src/stm32f10x_tim.c ****   */
 964:common/lib.stm32/STM32F10x_StdPeriph_Driver/src/stm32f10x_tim.c **** void TIM_InternalClockConfig(TIM_TypeDef* TIMx)
 965:common/lib.stm32/STM32F10x_StdPeriph_Driver/src/stm32f10x_tim.c **** {
 2155              		.loc 1 965 1
 2156              		.cfi_startproc
 2157              		@ args = 0, pretend = 0, frame = 8
 2158              		@ frame_needed = 1, uses_anonymous_args = 0
 2159              		@ link register save eliminated.
 2160 0000 80B4     		push	{r7}
 2161              	.LCFI111:
 2162              		.cfi_def_cfa_offset 4
 2163              		.cfi_offset 7, -4
 2164 0002 83B0     		sub	sp, sp, #12
 2165              	.LCFI112:
 2166              		.cfi_def_cfa_offset 16
 2167 0004 00AF     		add	r7, sp, #0
 2168              	.LCFI113:
 2169              		.cfi_def_cfa_register 7
 2170 0006 7860     		str	r0, [r7, #4]
 966:common/lib.stm32/STM32F10x_StdPeriph_Driver/src/stm32f10x_tim.c ****   /* Check the parameters */
 967:common/lib.stm32/STM32F10x_StdPeriph_Driver/src/stm32f10x_tim.c ****   assert_param(IS_TIM_123458_PERIPH(TIMx));
 968:common/lib.stm32/STM32F10x_StdPeriph_Driver/src/stm32f10x_tim.c ****   /* Disable slave mode to clock the prescaler directly with the internal clock */
 969:common/lib.stm32/STM32F10x_StdPeriph_Driver/src/stm32f10x_tim.c ****   TIMx->SMCR &=  SMCR_SMS_Mask;
 2171              		.loc 1 969 14
 2172 0008 7B68     		ldr	r3, [r7, #4]
 2173 000a 1B89     		ldrh	r3, [r3, #8]	@ movhi
 2174 000c 9BB2     		uxth	r3, r3
 2175 000e 23F00703 		bic	r3, r3, #7
 2176 0012 9AB2     		uxth	r2, r3
 2177 0014 7B68     		ldr	r3, [r7, #4]
 2178 0016 1A81     		strh	r2, [r3, #8]	@ movhi
 970:common/lib.stm32/STM32F10x_StdPeriph_Driver/src/stm32f10x_tim.c **** }
 2179              		.loc 1 970 1
 2180 0018 00BF     		nop
 2181 001a 0C37     		adds	r7, r7, #12
 2182              	.LCFI114:
 2183              		.cfi_def_cfa_offset 4
 2184 001c BD46     		mov	sp, r7
 2185              	.LCFI115:
 2186              		.cfi_def_cfa_register 13
 2187              		@ sp needed
 2188 001e 80BC     		pop	{r7}
 2189              	.LCFI116:
 2190              		.cfi_restore 7
 2191              		.cfi_def_cfa_offset 0
 2192 0020 7047     		bx	lr
 2193              		.cfi_endproc
 2194              	.LFE46:
 2196              		.section	.text.TIM_ITRxExternalClockConfig,"ax",%progbits
 2197              		.align	1
 2198              		.global	TIM_ITRxExternalClockConfig
 2199              		.syntax unified
 2200              		.thumb
 2201              		.thumb_func
 2203              	TIM_ITRxExternalClockConfig:
 2204              	.LFB47:
 971:common/lib.stm32/STM32F10x_StdPeriph_Driver/src/stm32f10x_tim.c **** 
 972:common/lib.stm32/STM32F10x_StdPeriph_Driver/src/stm32f10x_tim.c **** /**
 973:common/lib.stm32/STM32F10x_StdPeriph_Driver/src/stm32f10x_tim.c ****   * @brief  Configures the TIMx Internal Trigger as External Clock
 974:common/lib.stm32/STM32F10x_StdPeriph_Driver/src/stm32f10x_tim.c ****   * @param  TIMx: where x can be  1, 2, 3, 4, 5 or 8 to select the TIM peripheral.
 975:common/lib.stm32/STM32F10x_StdPeriph_Driver/src/stm32f10x_tim.c ****   * @param  TIM_ITRSource: Trigger source.
 976:common/lib.stm32/STM32F10x_StdPeriph_Driver/src/stm32f10x_tim.c ****   *   This parameter can be one of the following values:
 977:common/lib.stm32/STM32F10x_StdPeriph_Driver/src/stm32f10x_tim.c ****   * @param  TIM_TS_ITR0: Internal Trigger 0
 978:common/lib.stm32/STM32F10x_StdPeriph_Driver/src/stm32f10x_tim.c ****   * @param  TIM_TS_ITR1: Internal Trigger 1
 979:common/lib.stm32/STM32F10x_StdPeriph_Driver/src/stm32f10x_tim.c ****   * @param  TIM_TS_ITR2: Internal Trigger 2
 980:common/lib.stm32/STM32F10x_StdPeriph_Driver/src/stm32f10x_tim.c ****   * @param  TIM_TS_ITR3: Internal Trigger 3
 981:common/lib.stm32/STM32F10x_StdPeriph_Driver/src/stm32f10x_tim.c ****   * @retval None
 982:common/lib.stm32/STM32F10x_StdPeriph_Driver/src/stm32f10x_tim.c ****   */
 983:common/lib.stm32/STM32F10x_StdPeriph_Driver/src/stm32f10x_tim.c **** void TIM_ITRxExternalClockConfig(TIM_TypeDef* TIMx, uint16_t TIM_InputTriggerSource)
 984:common/lib.stm32/STM32F10x_StdPeriph_Driver/src/stm32f10x_tim.c **** {
 2205              		.loc 1 984 1
 2206              		.cfi_startproc
 2207              		@ args = 0, pretend = 0, frame = 8
 2208              		@ frame_needed = 1, uses_anonymous_args = 0
 2209 0000 80B5     		push	{r7, lr}
 2210              	.LCFI117:
 2211              		.cfi_def_cfa_offset 8
 2212              		.cfi_offset 7, -8
 2213              		.cfi_offset 14, -4
 2214 0002 82B0     		sub	sp, sp, #8
 2215              	.LCFI118:
 2216              		.cfi_def_cfa_offset 16
 2217 0004 00AF     		add	r7, sp, #0
 2218              	.LCFI119:
 2219              		.cfi_def_cfa_register 7
 2220 0006 7860     		str	r0, [r7, #4]
 2221 0008 0B46     		mov	r3, r1
 2222 000a 7B80     		strh	r3, [r7, #2]	@ movhi
 985:common/lib.stm32/STM32F10x_StdPeriph_Driver/src/stm32f10x_tim.c ****   /* Check the parameters */
 986:common/lib.stm32/STM32F10x_StdPeriph_Driver/src/stm32f10x_tim.c ****   assert_param(IS_TIM_123458_PERIPH(TIMx));
 987:common/lib.stm32/STM32F10x_StdPeriph_Driver/src/stm32f10x_tim.c ****   assert_param(IS_TIM_INTERNAL_TRIGGER_SELECTION(TIM_InputTriggerSource));
 988:common/lib.stm32/STM32F10x_StdPeriph_Driver/src/stm32f10x_tim.c ****   /* Select the Internal Trigger */
 989:common/lib.stm32/STM32F10x_StdPeriph_Driver/src/stm32f10x_tim.c ****   TIM_SelectInputTrigger(TIMx, TIM_InputTriggerSource);
 2223              		.loc 1 989 3
 2224 000c 7B88     		ldrh	r3, [r7, #2]
 2225 000e 1946     		mov	r1, r3
 2226 0010 7868     		ldr	r0, [r7, #4]
 2227 0012 074B     		ldr	r3, .L81
 2228 0014 9847     		blx	r3
 2229              	.LVL32:
 990:common/lib.stm32/STM32F10x_StdPeriph_Driver/src/stm32f10x_tim.c ****   /* Select the External clock mode1 */
 991:common/lib.stm32/STM32F10x_StdPeriph_Driver/src/stm32f10x_tim.c ****   TIMx->SMCR |= TIM_SlaveMode_External1;
 2230              		.loc 1 991 14
 2231 0016 7B68     		ldr	r3, [r7, #4]
 2232 0018 1B89     		ldrh	r3, [r3, #8]	@ movhi
 2233 001a 9BB2     		uxth	r3, r3
 2234 001c 43F00703 		orr	r3, r3, #7
 2235 0020 9AB2     		uxth	r2, r3
 2236 0022 7B68     		ldr	r3, [r7, #4]
 2237 0024 1A81     		strh	r2, [r3, #8]	@ movhi
 992:common/lib.stm32/STM32F10x_StdPeriph_Driver/src/stm32f10x_tim.c **** }
 2238              		.loc 1 992 1
 2239 0026 00BF     		nop
 2240 0028 0837     		adds	r7, r7, #8
 2241              	.LCFI120:
 2242              		.cfi_def_cfa_offset 8
 2243 002a BD46     		mov	sp, r7
 2244              	.LCFI121:
 2245              		.cfi_def_cfa_register 13
 2246              		@ sp needed
 2247 002c 80BD     		pop	{r7, pc}
 2248              	.L82:
 2249 002e 00BF     		.align	2
 2250              	.L81:
 2251 0030 00000000 		.word	TIM_SelectInputTrigger
 2252              		.cfi_endproc
 2253              	.LFE47:
 2255              		.section	.text.TIM_TIxExternalClockConfig,"ax",%progbits
 2256              		.align	1
 2257              		.global	TIM_TIxExternalClockConfig
 2258              		.syntax unified
 2259              		.thumb
 2260              		.thumb_func
 2262              	TIM_TIxExternalClockConfig:
 2263              	.LFB48:
 993:common/lib.stm32/STM32F10x_StdPeriph_Driver/src/stm32f10x_tim.c **** 
 994:common/lib.stm32/STM32F10x_StdPeriph_Driver/src/stm32f10x_tim.c **** /**
 995:common/lib.stm32/STM32F10x_StdPeriph_Driver/src/stm32f10x_tim.c ****   * @brief  Configures the TIMx Trigger as External Clock
 996:common/lib.stm32/STM32F10x_StdPeriph_Driver/src/stm32f10x_tim.c ****   * @param  TIMx: where x can be  1, 2, 3, 4, 5 or 8 to select the TIM peripheral.
 997:common/lib.stm32/STM32F10x_StdPeriph_Driver/src/stm32f10x_tim.c ****   * @param  TIM_TIxExternalCLKSource: Trigger source.
 998:common/lib.stm32/STM32F10x_StdPeriph_Driver/src/stm32f10x_tim.c ****   *   This parameter can be one of the following values:
 999:common/lib.stm32/STM32F10x_StdPeriph_Driver/src/stm32f10x_tim.c ****   *     @arg TIM_TIxExternalCLK1Source_TI1ED: TI1 Edge Detector
1000:common/lib.stm32/STM32F10x_StdPeriph_Driver/src/stm32f10x_tim.c ****   *     @arg TIM_TIxExternalCLK1Source_TI1: Filtered Timer Input 1
1001:common/lib.stm32/STM32F10x_StdPeriph_Driver/src/stm32f10x_tim.c ****   *     @arg TIM_TIxExternalCLK1Source_TI2: Filtered Timer Input 2
1002:common/lib.stm32/STM32F10x_StdPeriph_Driver/src/stm32f10x_tim.c ****   * @param  TIM_ICPolarity: specifies the TIx Polarity.
1003:common/lib.stm32/STM32F10x_StdPeriph_Driver/src/stm32f10x_tim.c ****   *   This parameter can be one of the following values:
1004:common/lib.stm32/STM32F10x_StdPeriph_Driver/src/stm32f10x_tim.c ****   *     @arg TIM_ICPolarity_Rising
1005:common/lib.stm32/STM32F10x_StdPeriph_Driver/src/stm32f10x_tim.c ****   *     @arg TIM_ICPolarity_Falling
1006:common/lib.stm32/STM32F10x_StdPeriph_Driver/src/stm32f10x_tim.c ****   * @param  ICFilter : specifies the filter value.
1007:common/lib.stm32/STM32F10x_StdPeriph_Driver/src/stm32f10x_tim.c ****   *   This parameter must be a value between 0x0 and 0xF.
1008:common/lib.stm32/STM32F10x_StdPeriph_Driver/src/stm32f10x_tim.c ****   * @retval None
1009:common/lib.stm32/STM32F10x_StdPeriph_Driver/src/stm32f10x_tim.c ****   */
1010:common/lib.stm32/STM32F10x_StdPeriph_Driver/src/stm32f10x_tim.c **** void TIM_TIxExternalClockConfig(TIM_TypeDef* TIMx, uint16_t TIM_TIxExternalCLKSource,
1011:common/lib.stm32/STM32F10x_StdPeriph_Driver/src/stm32f10x_tim.c ****                                 uint16_t TIM_ICPolarity, uint16_t ICFilter)
1012:common/lib.stm32/STM32F10x_StdPeriph_Driver/src/stm32f10x_tim.c **** {
 2264              		.loc 1 1012 1
 2265              		.cfi_startproc
 2266              		@ args = 0, pretend = 0, frame = 16
 2267              		@ frame_needed = 1, uses_anonymous_args = 0
 2268 0000 90B5     		push	{r4, r7, lr}
 2269              	.LCFI122:
 2270              		.cfi_def_cfa_offset 12
 2271              		.cfi_offset 4, -12
 2272              		.cfi_offset 7, -8
 2273              		.cfi_offset 14, -4
 2274 0002 85B0     		sub	sp, sp, #20
 2275              	.LCFI123:
 2276              		.cfi_def_cfa_offset 32
 2277 0004 00AF     		add	r7, sp, #0
 2278              	.LCFI124:
 2279              		.cfi_def_cfa_register 7
 2280 0006 F860     		str	r0, [r7, #12]
 2281 0008 0846     		mov	r0, r1
 2282 000a 1146     		mov	r1, r2
 2283 000c 1A46     		mov	r2, r3
 2284 000e 0346     		mov	r3, r0	@ movhi
 2285 0010 7B81     		strh	r3, [r7, #10]	@ movhi
 2286 0012 0B46     		mov	r3, r1	@ movhi
 2287 0014 3B81     		strh	r3, [r7, #8]	@ movhi
 2288 0016 1346     		mov	r3, r2	@ movhi
 2289 0018 FB80     		strh	r3, [r7, #6]	@ movhi
1013:common/lib.stm32/STM32F10x_StdPeriph_Driver/src/stm32f10x_tim.c ****   /* Check the parameters */
1014:common/lib.stm32/STM32F10x_StdPeriph_Driver/src/stm32f10x_tim.c ****   assert_param(IS_TIM_123458_PERIPH(TIMx));
1015:common/lib.stm32/STM32F10x_StdPeriph_Driver/src/stm32f10x_tim.c ****   assert_param(IS_TIM_TIXCLK_SOURCE(TIM_TIxExternalCLKSource));
1016:common/lib.stm32/STM32F10x_StdPeriph_Driver/src/stm32f10x_tim.c ****   assert_param(IS_TIM_IC_POLARITY(TIM_ICPolarity));
1017:common/lib.stm32/STM32F10x_StdPeriph_Driver/src/stm32f10x_tim.c ****   assert_param(IS_TIM_IC_FILTER(ICFilter));
1018:common/lib.stm32/STM32F10x_StdPeriph_Driver/src/stm32f10x_tim.c ****   /* Configure the Timer Input Clock Source */
1019:common/lib.stm32/STM32F10x_StdPeriph_Driver/src/stm32f10x_tim.c ****   if (TIM_TIxExternalCLKSource == TIM_TIxExternalCLK1Source_TI2)
 2290              		.loc 1 1019 6
 2291 001a 7B89     		ldrh	r3, [r7, #10]
 2292 001c 602B     		cmp	r3, #96
 2293 001e 06D1     		bne	.L84
1020:common/lib.stm32/STM32F10x_StdPeriph_Driver/src/stm32f10x_tim.c ****   {
1021:common/lib.stm32/STM32F10x_StdPeriph_Driver/src/stm32f10x_tim.c ****     TI2_Config(TIMx, TIM_ICPolarity, TIM_ICSelection_DirectTI, ICFilter);
 2294              		.loc 1 1021 5
 2295 0020 FB88     		ldrh	r3, [r7, #6]
 2296 0022 3989     		ldrh	r1, [r7, #8]
 2297 0024 0122     		movs	r2, #1
 2298 0026 F868     		ldr	r0, [r7, #12]
 2299 0028 0C4C     		ldr	r4, .L86
 2300 002a A047     		blx	r4
 2301              	.LVL33:
 2302 002c 05E0     		b	.L85
 2303              	.L84:
1022:common/lib.stm32/STM32F10x_StdPeriph_Driver/src/stm32f10x_tim.c ****   }
1023:common/lib.stm32/STM32F10x_StdPeriph_Driver/src/stm32f10x_tim.c ****   else
1024:common/lib.stm32/STM32F10x_StdPeriph_Driver/src/stm32f10x_tim.c ****   {
1025:common/lib.stm32/STM32F10x_StdPeriph_Driver/src/stm32f10x_tim.c ****     TI1_Config(TIMx, TIM_ICPolarity, TIM_ICSelection_DirectTI, ICFilter);
 2304              		.loc 1 1025 5
 2305 002e FB88     		ldrh	r3, [r7, #6]
 2306 0030 3989     		ldrh	r1, [r7, #8]
 2307 0032 0122     		movs	r2, #1
 2308 0034 F868     		ldr	r0, [r7, #12]
 2309 0036 0A4C     		ldr	r4, .L86+4
 2310 0038 A047     		blx	r4
 2311              	.LVL34:
 2312              	.L85:
1026:common/lib.stm32/STM32F10x_StdPeriph_Driver/src/stm32f10x_tim.c ****   }
1027:common/lib.stm32/STM32F10x_StdPeriph_Driver/src/stm32f10x_tim.c ****   /* Select the Trigger source */
1028:common/lib.stm32/STM32F10x_StdPeriph_Driver/src/stm32f10x_tim.c ****   TIM_SelectInputTrigger(TIMx, TIM_TIxExternalCLKSource);
 2313              		.loc 1 1028 3
 2314 003a 7B89     		ldrh	r3, [r7, #10]
 2315 003c 1946     		mov	r1, r3
 2316 003e F868     		ldr	r0, [r7, #12]
 2317 0040 084B     		ldr	r3, .L86+8
 2318 0042 9847     		blx	r3
 2319              	.LVL35:
1029:common/lib.stm32/STM32F10x_StdPeriph_Driver/src/stm32f10x_tim.c ****   /* Select the External clock mode1 */
1030:common/lib.stm32/STM32F10x_StdPeriph_Driver/src/stm32f10x_tim.c ****   TIMx->SMCR |= TIM_SlaveMode_External1;
 2320              		.loc 1 1030 14
 2321 0044 FB68     		ldr	r3, [r7, #12]
 2322 0046 1B89     		ldrh	r3, [r3, #8]	@ movhi
 2323 0048 9BB2     		uxth	r3, r3
 2324 004a 43F00703 		orr	r3, r3, #7
 2325 004e 9AB2     		uxth	r2, r3
 2326 0050 FB68     		ldr	r3, [r7, #12]
 2327 0052 1A81     		strh	r2, [r3, #8]	@ movhi
1031:common/lib.stm32/STM32F10x_StdPeriph_Driver/src/stm32f10x_tim.c **** }
 2328              		.loc 1 1031 1
 2329 0054 00BF     		nop
 2330 0056 1437     		adds	r7, r7, #20
 2331              	.LCFI125:
 2332              		.cfi_def_cfa_offset 12
 2333 0058 BD46     		mov	sp, r7
 2334              	.LCFI126:
 2335              		.cfi_def_cfa_register 13
 2336              		@ sp needed
 2337 005a 90BD     		pop	{r4, r7, pc}
 2338              	.L87:
 2339              		.align	2
 2340              	.L86:
 2341 005c 00000000 		.word	TI2_Config
 2342 0060 00000000 		.word	TI1_Config
 2343 0064 00000000 		.word	TIM_SelectInputTrigger
 2344              		.cfi_endproc
 2345              	.LFE48:
 2347              		.section	.text.TIM_ETRClockMode1Config,"ax",%progbits
 2348              		.align	1
 2349              		.global	TIM_ETRClockMode1Config
 2350              		.syntax unified
 2351              		.thumb
 2352              		.thumb_func
 2354              	TIM_ETRClockMode1Config:
 2355              	.LFB49:
1032:common/lib.stm32/STM32F10x_StdPeriph_Driver/src/stm32f10x_tim.c **** 
1033:common/lib.stm32/STM32F10x_StdPeriph_Driver/src/stm32f10x_tim.c **** /**
1034:common/lib.stm32/STM32F10x_StdPeriph_Driver/src/stm32f10x_tim.c ****   * @brief  Configures the External clock Mode1
1035:common/lib.stm32/STM32F10x_StdPeriph_Driver/src/stm32f10x_tim.c ****   * @param  TIMx: where x can be  1, 2, 3, 4, 5 or 8 to select the TIM peripheral.
1036:common/lib.stm32/STM32F10x_StdPeriph_Driver/src/stm32f10x_tim.c ****   * @param  TIM_ExtTRGPrescaler: The external Trigger Prescaler.
1037:common/lib.stm32/STM32F10x_StdPeriph_Driver/src/stm32f10x_tim.c ****   *   This parameter can be one of the following values:
1038:common/lib.stm32/STM32F10x_StdPeriph_Driver/src/stm32f10x_tim.c ****   *     @arg TIM_ExtTRGPSC_OFF: ETRP Prescaler OFF.
1039:common/lib.stm32/STM32F10x_StdPeriph_Driver/src/stm32f10x_tim.c ****   *     @arg TIM_ExtTRGPSC_DIV2: ETRP frequency divided by 2.
1040:common/lib.stm32/STM32F10x_StdPeriph_Driver/src/stm32f10x_tim.c ****   *     @arg TIM_ExtTRGPSC_DIV4: ETRP frequency divided by 4.
1041:common/lib.stm32/STM32F10x_StdPeriph_Driver/src/stm32f10x_tim.c ****   *     @arg TIM_ExtTRGPSC_DIV8: ETRP frequency divided by 8.
1042:common/lib.stm32/STM32F10x_StdPeriph_Driver/src/stm32f10x_tim.c ****   * @param  TIM_ExtTRGPolarity: The external Trigger Polarity.
1043:common/lib.stm32/STM32F10x_StdPeriph_Driver/src/stm32f10x_tim.c ****   *   This parameter can be one of the following values:
1044:common/lib.stm32/STM32F10x_StdPeriph_Driver/src/stm32f10x_tim.c ****   *     @arg TIM_ExtTRGPolarity_Inverted: active low or falling edge active.
1045:common/lib.stm32/STM32F10x_StdPeriph_Driver/src/stm32f10x_tim.c ****   *     @arg TIM_ExtTRGPolarity_NonInverted: active high or rising edge active.
1046:common/lib.stm32/STM32F10x_StdPeriph_Driver/src/stm32f10x_tim.c ****   * @param  ExtTRGFilter: External Trigger Filter.
1047:common/lib.stm32/STM32F10x_StdPeriph_Driver/src/stm32f10x_tim.c ****   *   This parameter must be a value between 0x00 and 0x0F
1048:common/lib.stm32/STM32F10x_StdPeriph_Driver/src/stm32f10x_tim.c ****   * @retval None
1049:common/lib.stm32/STM32F10x_StdPeriph_Driver/src/stm32f10x_tim.c ****   */
1050:common/lib.stm32/STM32F10x_StdPeriph_Driver/src/stm32f10x_tim.c **** void TIM_ETRClockMode1Config(TIM_TypeDef* TIMx, uint16_t TIM_ExtTRGPrescaler, uint16_t TIM_ExtTRGPo
1051:common/lib.stm32/STM32F10x_StdPeriph_Driver/src/stm32f10x_tim.c ****                              uint16_t ExtTRGFilter)
1052:common/lib.stm32/STM32F10x_StdPeriph_Driver/src/stm32f10x_tim.c **** {
 2356              		.loc 1 1052 1
 2357              		.cfi_startproc
 2358              		@ args = 0, pretend = 0, frame = 24
 2359              		@ frame_needed = 1, uses_anonymous_args = 0
 2360 0000 90B5     		push	{r4, r7, lr}
 2361              	.LCFI127:
 2362              		.cfi_def_cfa_offset 12
 2363              		.cfi_offset 4, -12
 2364              		.cfi_offset 7, -8
 2365              		.cfi_offset 14, -4
 2366 0002 87B0     		sub	sp, sp, #28
 2367              	.LCFI128:
 2368              		.cfi_def_cfa_offset 40
 2369 0004 00AF     		add	r7, sp, #0
 2370              	.LCFI129:
 2371              		.cfi_def_cfa_register 7
 2372 0006 F860     		str	r0, [r7, #12]
 2373 0008 0846     		mov	r0, r1
 2374 000a 1146     		mov	r1, r2
 2375 000c 1A46     		mov	r2, r3
 2376 000e 0346     		mov	r3, r0	@ movhi
 2377 0010 7B81     		strh	r3, [r7, #10]	@ movhi
 2378 0012 0B46     		mov	r3, r1	@ movhi
 2379 0014 3B81     		strh	r3, [r7, #8]	@ movhi
 2380 0016 1346     		mov	r3, r2	@ movhi
 2381 0018 FB80     		strh	r3, [r7, #6]	@ movhi
1053:common/lib.stm32/STM32F10x_StdPeriph_Driver/src/stm32f10x_tim.c ****   uint16_t tmpsmcr = 0;
 2382              		.loc 1 1053 12
 2383 001a 0023     		movs	r3, #0
 2384 001c FB82     		strh	r3, [r7, #22]	@ movhi
1054:common/lib.stm32/STM32F10x_StdPeriph_Driver/src/stm32f10x_tim.c ****   /* Check the parameters */
1055:common/lib.stm32/STM32F10x_StdPeriph_Driver/src/stm32f10x_tim.c ****   assert_param(IS_TIM_123458_PERIPH(TIMx));
1056:common/lib.stm32/STM32F10x_StdPeriph_Driver/src/stm32f10x_tim.c ****   assert_param(IS_TIM_EXT_PRESCALER(TIM_ExtTRGPrescaler));
1057:common/lib.stm32/STM32F10x_StdPeriph_Driver/src/stm32f10x_tim.c ****   assert_param(IS_TIM_EXT_POLARITY(TIM_ExtTRGPolarity));
1058:common/lib.stm32/STM32F10x_StdPeriph_Driver/src/stm32f10x_tim.c ****   assert_param(IS_TIM_EXT_FILTER(ExtTRGFilter));
1059:common/lib.stm32/STM32F10x_StdPeriph_Driver/src/stm32f10x_tim.c ****   /* Configure the ETR Clock source */
1060:common/lib.stm32/STM32F10x_StdPeriph_Driver/src/stm32f10x_tim.c ****   TIM_ETRConfig(TIMx, TIM_ExtTRGPrescaler, TIM_ExtTRGPolarity, ExtTRGFilter);
 2385              		.loc 1 1060 3
 2386 001e FB88     		ldrh	r3, [r7, #6]
 2387 0020 3A89     		ldrh	r2, [r7, #8]
 2388 0022 7989     		ldrh	r1, [r7, #10]
 2389 0024 F868     		ldr	r0, [r7, #12]
 2390 0026 0E4C     		ldr	r4, .L89
 2391 0028 A047     		blx	r4
 2392              	.LVL36:
1061:common/lib.stm32/STM32F10x_StdPeriph_Driver/src/stm32f10x_tim.c ****   
1062:common/lib.stm32/STM32F10x_StdPeriph_Driver/src/stm32f10x_tim.c ****   /* Get the TIMx SMCR register value */
1063:common/lib.stm32/STM32F10x_StdPeriph_Driver/src/stm32f10x_tim.c ****   tmpsmcr = TIMx->SMCR;
 2393              		.loc 1 1063 11
 2394 002a FB68     		ldr	r3, [r7, #12]
 2395 002c 1B89     		ldrh	r3, [r3, #8]	@ movhi
 2396 002e FB82     		strh	r3, [r7, #22]	@ movhi
1064:common/lib.stm32/STM32F10x_StdPeriph_Driver/src/stm32f10x_tim.c ****   /* Reset the SMS Bits */
1065:common/lib.stm32/STM32F10x_StdPeriph_Driver/src/stm32f10x_tim.c ****   tmpsmcr &= SMCR_SMS_Mask;
 2397              		.loc 1 1065 11
 2398 0030 FB8A     		ldrh	r3, [r7, #22]	@ movhi
 2399 0032 23F00703 		bic	r3, r3, #7
 2400 0036 FB82     		strh	r3, [r7, #22]	@ movhi
1066:common/lib.stm32/STM32F10x_StdPeriph_Driver/src/stm32f10x_tim.c ****   /* Select the External clock mode1 */
1067:common/lib.stm32/STM32F10x_StdPeriph_Driver/src/stm32f10x_tim.c ****   tmpsmcr |= TIM_SlaveMode_External1;
 2401              		.loc 1 1067 11
 2402 0038 FB8A     		ldrh	r3, [r7, #22]	@ movhi
 2403 003a 43F00703 		orr	r3, r3, #7
 2404 003e FB82     		strh	r3, [r7, #22]	@ movhi
1068:common/lib.stm32/STM32F10x_StdPeriph_Driver/src/stm32f10x_tim.c ****   /* Select the Trigger selection : ETRF */
1069:common/lib.stm32/STM32F10x_StdPeriph_Driver/src/stm32f10x_tim.c ****   tmpsmcr &= SMCR_TS_Mask;
 2405              		.loc 1 1069 11
 2406 0040 FB8A     		ldrh	r3, [r7, #22]	@ movhi
 2407 0042 23F07003 		bic	r3, r3, #112
 2408 0046 FB82     		strh	r3, [r7, #22]	@ movhi
1070:common/lib.stm32/STM32F10x_StdPeriph_Driver/src/stm32f10x_tim.c ****   tmpsmcr |= TIM_TS_ETRF;
 2409              		.loc 1 1070 11
 2410 0048 FB8A     		ldrh	r3, [r7, #22]	@ movhi
 2411 004a 43F07003 		orr	r3, r3, #112
 2412 004e FB82     		strh	r3, [r7, #22]	@ movhi
1071:common/lib.stm32/STM32F10x_StdPeriph_Driver/src/stm32f10x_tim.c ****   /* Write to TIMx SMCR */
1072:common/lib.stm32/STM32F10x_StdPeriph_Driver/src/stm32f10x_tim.c ****   TIMx->SMCR = tmpsmcr;
 2413              		.loc 1 1072 14
 2414 0050 FB68     		ldr	r3, [r7, #12]
 2415 0052 FA8A     		ldrh	r2, [r7, #22]	@ movhi
 2416 0054 1A81     		strh	r2, [r3, #8]	@ movhi
1073:common/lib.stm32/STM32F10x_StdPeriph_Driver/src/stm32f10x_tim.c **** }
 2417              		.loc 1 1073 1
 2418 0056 00BF     		nop
 2419 0058 1C37     		adds	r7, r7, #28
 2420              	.LCFI130:
 2421              		.cfi_def_cfa_offset 12
 2422 005a BD46     		mov	sp, r7
 2423              	.LCFI131:
 2424              		.cfi_def_cfa_register 13
 2425              		@ sp needed
 2426 005c 90BD     		pop	{r4, r7, pc}
 2427              	.L90:
 2428 005e 00BF     		.align	2
 2429              	.L89:
 2430 0060 00000000 		.word	TIM_ETRConfig
 2431              		.cfi_endproc
 2432              	.LFE49:
 2434              		.section	.text.TIM_ETRClockMode2Config,"ax",%progbits
 2435              		.align	1
 2436              		.global	TIM_ETRClockMode2Config
 2437              		.syntax unified
 2438              		.thumb
 2439              		.thumb_func
 2441              	TIM_ETRClockMode2Config:
 2442              	.LFB50:
1074:common/lib.stm32/STM32F10x_StdPeriph_Driver/src/stm32f10x_tim.c **** 
1075:common/lib.stm32/STM32F10x_StdPeriph_Driver/src/stm32f10x_tim.c **** /**
1076:common/lib.stm32/STM32F10x_StdPeriph_Driver/src/stm32f10x_tim.c ****   * @brief  Configures the External clock Mode2
1077:common/lib.stm32/STM32F10x_StdPeriph_Driver/src/stm32f10x_tim.c ****   * @param  TIMx: where x can be  1, 2, 3, 4, 5 or 8 to select the TIM peripheral.
1078:common/lib.stm32/STM32F10x_StdPeriph_Driver/src/stm32f10x_tim.c ****   * @param  TIM_ExtTRGPrescaler: The external Trigger Prescaler.
1079:common/lib.stm32/STM32F10x_StdPeriph_Driver/src/stm32f10x_tim.c ****   *   This parameter can be one of the following values:
1080:common/lib.stm32/STM32F10x_StdPeriph_Driver/src/stm32f10x_tim.c ****   *     @arg TIM_ExtTRGPSC_OFF: ETRP Prescaler OFF.
1081:common/lib.stm32/STM32F10x_StdPeriph_Driver/src/stm32f10x_tim.c ****   *     @arg TIM_ExtTRGPSC_DIV2: ETRP frequency divided by 2.
1082:common/lib.stm32/STM32F10x_StdPeriph_Driver/src/stm32f10x_tim.c ****   *     @arg TIM_ExtTRGPSC_DIV4: ETRP frequency divided by 4.
1083:common/lib.stm32/STM32F10x_StdPeriph_Driver/src/stm32f10x_tim.c ****   *     @arg TIM_ExtTRGPSC_DIV8: ETRP frequency divided by 8.
1084:common/lib.stm32/STM32F10x_StdPeriph_Driver/src/stm32f10x_tim.c ****   * @param  TIM_ExtTRGPolarity: The external Trigger Polarity.
1085:common/lib.stm32/STM32F10x_StdPeriph_Driver/src/stm32f10x_tim.c ****   *   This parameter can be one of the following values:
1086:common/lib.stm32/STM32F10x_StdPeriph_Driver/src/stm32f10x_tim.c ****   *     @arg TIM_ExtTRGPolarity_Inverted: active low or falling edge active.
1087:common/lib.stm32/STM32F10x_StdPeriph_Driver/src/stm32f10x_tim.c ****   *     @arg TIM_ExtTRGPolarity_NonInverted: active high or rising edge active.
1088:common/lib.stm32/STM32F10x_StdPeriph_Driver/src/stm32f10x_tim.c ****   * @param  ExtTRGFilter: External Trigger Filter.
1089:common/lib.stm32/STM32F10x_StdPeriph_Driver/src/stm32f10x_tim.c ****   *   This parameter must be a value between 0x00 and 0x0F
1090:common/lib.stm32/STM32F10x_StdPeriph_Driver/src/stm32f10x_tim.c ****   * @retval None
1091:common/lib.stm32/STM32F10x_StdPeriph_Driver/src/stm32f10x_tim.c ****   */
1092:common/lib.stm32/STM32F10x_StdPeriph_Driver/src/stm32f10x_tim.c **** void TIM_ETRClockMode2Config(TIM_TypeDef* TIMx, uint16_t TIM_ExtTRGPrescaler, 
1093:common/lib.stm32/STM32F10x_StdPeriph_Driver/src/stm32f10x_tim.c ****                              uint16_t TIM_ExtTRGPolarity, uint16_t ExtTRGFilter)
1094:common/lib.stm32/STM32F10x_StdPeriph_Driver/src/stm32f10x_tim.c **** {
 2443              		.loc 1 1094 1
 2444              		.cfi_startproc
 2445              		@ args = 0, pretend = 0, frame = 16
 2446              		@ frame_needed = 1, uses_anonymous_args = 0
 2447 0000 90B5     		push	{r4, r7, lr}
 2448              	.LCFI132:
 2449              		.cfi_def_cfa_offset 12
 2450              		.cfi_offset 4, -12
 2451              		.cfi_offset 7, -8
 2452              		.cfi_offset 14, -4
 2453 0002 85B0     		sub	sp, sp, #20
 2454              	.LCFI133:
 2455              		.cfi_def_cfa_offset 32
 2456 0004 00AF     		add	r7, sp, #0
 2457              	.LCFI134:
 2458              		.cfi_def_cfa_register 7
 2459 0006 F860     		str	r0, [r7, #12]
 2460 0008 0846     		mov	r0, r1
 2461 000a 1146     		mov	r1, r2
 2462 000c 1A46     		mov	r2, r3
 2463 000e 0346     		mov	r3, r0	@ movhi
 2464 0010 7B81     		strh	r3, [r7, #10]	@ movhi
 2465 0012 0B46     		mov	r3, r1	@ movhi
 2466 0014 3B81     		strh	r3, [r7, #8]	@ movhi
 2467 0016 1346     		mov	r3, r2	@ movhi
 2468 0018 FB80     		strh	r3, [r7, #6]	@ movhi
1095:common/lib.stm32/STM32F10x_StdPeriph_Driver/src/stm32f10x_tim.c ****   /* Check the parameters */
1096:common/lib.stm32/STM32F10x_StdPeriph_Driver/src/stm32f10x_tim.c ****   assert_param(IS_TIM_123458_PERIPH(TIMx));
1097:common/lib.stm32/STM32F10x_StdPeriph_Driver/src/stm32f10x_tim.c ****   assert_param(IS_TIM_EXT_PRESCALER(TIM_ExtTRGPrescaler));
1098:common/lib.stm32/STM32F10x_StdPeriph_Driver/src/stm32f10x_tim.c ****   assert_param(IS_TIM_EXT_POLARITY(TIM_ExtTRGPolarity));
1099:common/lib.stm32/STM32F10x_StdPeriph_Driver/src/stm32f10x_tim.c ****   assert_param(IS_TIM_EXT_FILTER(ExtTRGFilter));
1100:common/lib.stm32/STM32F10x_StdPeriph_Driver/src/stm32f10x_tim.c ****   /* Configure the ETR Clock source */
1101:common/lib.stm32/STM32F10x_StdPeriph_Driver/src/stm32f10x_tim.c ****   TIM_ETRConfig(TIMx, TIM_ExtTRGPrescaler, TIM_ExtTRGPolarity, ExtTRGFilter);
 2469              		.loc 1 1101 3
 2470 001a FB88     		ldrh	r3, [r7, #6]
 2471 001c 3A89     		ldrh	r2, [r7, #8]
 2472 001e 7989     		ldrh	r1, [r7, #10]
 2473 0020 F868     		ldr	r0, [r7, #12]
 2474 0022 074C     		ldr	r4, .L92
 2475 0024 A047     		blx	r4
 2476              	.LVL37:
1102:common/lib.stm32/STM32F10x_StdPeriph_Driver/src/stm32f10x_tim.c ****   /* Enable the External clock mode2 */
1103:common/lib.stm32/STM32F10x_StdPeriph_Driver/src/stm32f10x_tim.c ****   TIMx->SMCR |= SMCR_ECE_Set;
 2477              		.loc 1 1103 14
 2478 0026 FB68     		ldr	r3, [r7, #12]
 2479 0028 1B89     		ldrh	r3, [r3, #8]	@ movhi
 2480 002a 9BB2     		uxth	r3, r3
 2481 002c 43F48043 		orr	r3, r3, #16384
 2482 0030 9AB2     		uxth	r2, r3
 2483 0032 FB68     		ldr	r3, [r7, #12]
 2484 0034 1A81     		strh	r2, [r3, #8]	@ movhi
1104:common/lib.stm32/STM32F10x_StdPeriph_Driver/src/stm32f10x_tim.c **** }
 2485              		.loc 1 1104 1
 2486 0036 00BF     		nop
 2487 0038 1437     		adds	r7, r7, #20
 2488              	.LCFI135:
 2489              		.cfi_def_cfa_offset 12
 2490 003a BD46     		mov	sp, r7
 2491              	.LCFI136:
 2492              		.cfi_def_cfa_register 13
 2493              		@ sp needed
 2494 003c 90BD     		pop	{r4, r7, pc}
 2495              	.L93:
 2496 003e 00BF     		.align	2
 2497              	.L92:
 2498 0040 00000000 		.word	TIM_ETRConfig
 2499              		.cfi_endproc
 2500              	.LFE50:
 2502              		.section	.text.TIM_ETRConfig,"ax",%progbits
 2503              		.align	1
 2504              		.global	TIM_ETRConfig
 2505              		.syntax unified
 2506              		.thumb
 2507              		.thumb_func
 2509              	TIM_ETRConfig:
 2510              	.LFB51:
1105:common/lib.stm32/STM32F10x_StdPeriph_Driver/src/stm32f10x_tim.c **** 
1106:common/lib.stm32/STM32F10x_StdPeriph_Driver/src/stm32f10x_tim.c **** /**
1107:common/lib.stm32/STM32F10x_StdPeriph_Driver/src/stm32f10x_tim.c ****   * @brief  Configures the TIMx External Trigger (ETR).
1108:common/lib.stm32/STM32F10x_StdPeriph_Driver/src/stm32f10x_tim.c ****   * @param  TIMx: where x can be  1, 2, 3, 4, 5 or 8 to select the TIM peripheral.
1109:common/lib.stm32/STM32F10x_StdPeriph_Driver/src/stm32f10x_tim.c ****   * @param  TIM_ExtTRGPrescaler: The external Trigger Prescaler.
1110:common/lib.stm32/STM32F10x_StdPeriph_Driver/src/stm32f10x_tim.c ****   *   This parameter can be one of the following values:
1111:common/lib.stm32/STM32F10x_StdPeriph_Driver/src/stm32f10x_tim.c ****   *     @arg TIM_ExtTRGPSC_OFF: ETRP Prescaler OFF.
1112:common/lib.stm32/STM32F10x_StdPeriph_Driver/src/stm32f10x_tim.c ****   *     @arg TIM_ExtTRGPSC_DIV2: ETRP frequency divided by 2.
1113:common/lib.stm32/STM32F10x_StdPeriph_Driver/src/stm32f10x_tim.c ****   *     @arg TIM_ExtTRGPSC_DIV4: ETRP frequency divided by 4.
1114:common/lib.stm32/STM32F10x_StdPeriph_Driver/src/stm32f10x_tim.c ****   *     @arg TIM_ExtTRGPSC_DIV8: ETRP frequency divided by 8.
1115:common/lib.stm32/STM32F10x_StdPeriph_Driver/src/stm32f10x_tim.c ****   * @param  TIM_ExtTRGPolarity: The external Trigger Polarity.
1116:common/lib.stm32/STM32F10x_StdPeriph_Driver/src/stm32f10x_tim.c ****   *   This parameter can be one of the following values:
1117:common/lib.stm32/STM32F10x_StdPeriph_Driver/src/stm32f10x_tim.c ****   *     @arg TIM_ExtTRGPolarity_Inverted: active low or falling edge active.
1118:common/lib.stm32/STM32F10x_StdPeriph_Driver/src/stm32f10x_tim.c ****   *     @arg TIM_ExtTRGPolarity_NonInverted: active high or rising edge active.
1119:common/lib.stm32/STM32F10x_StdPeriph_Driver/src/stm32f10x_tim.c ****   * @param  ExtTRGFilter: External Trigger Filter.
1120:common/lib.stm32/STM32F10x_StdPeriph_Driver/src/stm32f10x_tim.c ****   *   This parameter must be a value between 0x00 and 0x0F
1121:common/lib.stm32/STM32F10x_StdPeriph_Driver/src/stm32f10x_tim.c ****   * @retval None
1122:common/lib.stm32/STM32F10x_StdPeriph_Driver/src/stm32f10x_tim.c ****   */
1123:common/lib.stm32/STM32F10x_StdPeriph_Driver/src/stm32f10x_tim.c **** void TIM_ETRConfig(TIM_TypeDef* TIMx, uint16_t TIM_ExtTRGPrescaler, uint16_t TIM_ExtTRGPolarity,
1124:common/lib.stm32/STM32F10x_StdPeriph_Driver/src/stm32f10x_tim.c ****                    uint16_t ExtTRGFilter)
1125:common/lib.stm32/STM32F10x_StdPeriph_Driver/src/stm32f10x_tim.c **** {
 2511              		.loc 1 1125 1
 2512              		.cfi_startproc
 2513              		@ args = 0, pretend = 0, frame = 24
 2514              		@ frame_needed = 1, uses_anonymous_args = 0
 2515              		@ link register save eliminated.
 2516 0000 80B4     		push	{r7}
 2517              	.LCFI137:
 2518              		.cfi_def_cfa_offset 4
 2519              		.cfi_offset 7, -4
 2520 0002 87B0     		sub	sp, sp, #28
 2521              	.LCFI138:
 2522              		.cfi_def_cfa_offset 32
 2523 0004 00AF     		add	r7, sp, #0
 2524              	.LCFI139:
 2525              		.cfi_def_cfa_register 7
 2526 0006 F860     		str	r0, [r7, #12]
 2527 0008 0846     		mov	r0, r1
 2528 000a 1146     		mov	r1, r2
 2529 000c 1A46     		mov	r2, r3
 2530 000e 0346     		mov	r3, r0	@ movhi
 2531 0010 7B81     		strh	r3, [r7, #10]	@ movhi
 2532 0012 0B46     		mov	r3, r1	@ movhi
 2533 0014 3B81     		strh	r3, [r7, #8]	@ movhi
 2534 0016 1346     		mov	r3, r2	@ movhi
 2535 0018 FB80     		strh	r3, [r7, #6]	@ movhi
1126:common/lib.stm32/STM32F10x_StdPeriph_Driver/src/stm32f10x_tim.c ****   uint16_t tmpsmcr = 0;
 2536              		.loc 1 1126 12
 2537 001a 0023     		movs	r3, #0
 2538 001c FB82     		strh	r3, [r7, #22]	@ movhi
1127:common/lib.stm32/STM32F10x_StdPeriph_Driver/src/stm32f10x_tim.c ****   /* Check the parameters */
1128:common/lib.stm32/STM32F10x_StdPeriph_Driver/src/stm32f10x_tim.c ****   assert_param(IS_TIM_123458_PERIPH(TIMx));
1129:common/lib.stm32/STM32F10x_StdPeriph_Driver/src/stm32f10x_tim.c ****   assert_param(IS_TIM_EXT_PRESCALER(TIM_ExtTRGPrescaler));
1130:common/lib.stm32/STM32F10x_StdPeriph_Driver/src/stm32f10x_tim.c ****   assert_param(IS_TIM_EXT_POLARITY(TIM_ExtTRGPolarity));
1131:common/lib.stm32/STM32F10x_StdPeriph_Driver/src/stm32f10x_tim.c ****   assert_param(IS_TIM_EXT_FILTER(ExtTRGFilter));
1132:common/lib.stm32/STM32F10x_StdPeriph_Driver/src/stm32f10x_tim.c ****   tmpsmcr = TIMx->SMCR;
 2539              		.loc 1 1132 11
 2540 001e FB68     		ldr	r3, [r7, #12]
 2541 0020 1B89     		ldrh	r3, [r3, #8]	@ movhi
 2542 0022 FB82     		strh	r3, [r7, #22]	@ movhi
1133:common/lib.stm32/STM32F10x_StdPeriph_Driver/src/stm32f10x_tim.c ****   /* Reset the ETR Bits */
1134:common/lib.stm32/STM32F10x_StdPeriph_Driver/src/stm32f10x_tim.c ****   tmpsmcr &= SMCR_ETR_Mask;
 2543              		.loc 1 1134 11
 2544 0024 FB8A     		ldrh	r3, [r7, #22]	@ movhi
 2545 0026 DBB2     		uxtb	r3, r3
 2546 0028 FB82     		strh	r3, [r7, #22]	@ movhi
1135:common/lib.stm32/STM32F10x_StdPeriph_Driver/src/stm32f10x_tim.c ****   /* Set the Prescaler, the Filter value and the Polarity */
1136:common/lib.stm32/STM32F10x_StdPeriph_Driver/src/stm32f10x_tim.c ****   tmpsmcr |= (uint16_t)(TIM_ExtTRGPrescaler | (uint16_t)(TIM_ExtTRGPolarity | (uint16_t)(ExtTRGFilt
 2547              		.loc 1 1136 79
 2548 002a FB88     		ldrh	r3, [r7, #6]	@ movhi
 2549 002c 1B02     		lsls	r3, r3, #8
 2550 002e 9AB2     		uxth	r2, r3
 2551              		.loc 1 1136 47
 2552 0030 3B89     		ldrh	r3, [r7, #8]	@ movhi
 2553 0032 1343     		orrs	r3, r3, r2
 2554 0034 9AB2     		uxth	r2, r3
 2555              		.loc 1 1136 14
 2556 0036 7B89     		ldrh	r3, [r7, #10]	@ movhi
 2557 0038 1343     		orrs	r3, r3, r2
 2558 003a 9AB2     		uxth	r2, r3
 2559              		.loc 1 1136 11
 2560 003c FB8A     		ldrh	r3, [r7, #22]	@ movhi
 2561 003e 1343     		orrs	r3, r3, r2
 2562 0040 FB82     		strh	r3, [r7, #22]	@ movhi
1137:common/lib.stm32/STM32F10x_StdPeriph_Driver/src/stm32f10x_tim.c ****   /* Write to TIMx SMCR */
1138:common/lib.stm32/STM32F10x_StdPeriph_Driver/src/stm32f10x_tim.c ****   TIMx->SMCR = tmpsmcr;
 2563              		.loc 1 1138 14
 2564 0042 FB68     		ldr	r3, [r7, #12]
 2565 0044 FA8A     		ldrh	r2, [r7, #22]	@ movhi
 2566 0046 1A81     		strh	r2, [r3, #8]	@ movhi
1139:common/lib.stm32/STM32F10x_StdPeriph_Driver/src/stm32f10x_tim.c **** }
 2567              		.loc 1 1139 1
 2568 0048 00BF     		nop
 2569 004a 1C37     		adds	r7, r7, #28
 2570              	.LCFI140:
 2571              		.cfi_def_cfa_offset 4
 2572 004c BD46     		mov	sp, r7
 2573              	.LCFI141:
 2574              		.cfi_def_cfa_register 13
 2575              		@ sp needed
 2576 004e 80BC     		pop	{r7}
 2577              	.LCFI142:
 2578              		.cfi_restore 7
 2579              		.cfi_def_cfa_offset 0
 2580 0050 7047     		bx	lr
 2581              		.cfi_endproc
 2582              	.LFE51:
 2584              		.section	.text.TIM_PrescalerConfig,"ax",%progbits
 2585              		.align	1
 2586              		.global	TIM_PrescalerConfig
 2587              		.syntax unified
 2588              		.thumb
 2589              		.thumb_func
 2591              	TIM_PrescalerConfig:
 2592              	.LFB52:
1140:common/lib.stm32/STM32F10x_StdPeriph_Driver/src/stm32f10x_tim.c **** 
1141:common/lib.stm32/STM32F10x_StdPeriph_Driver/src/stm32f10x_tim.c **** /**
1142:common/lib.stm32/STM32F10x_StdPeriph_Driver/src/stm32f10x_tim.c ****   * @brief  Configures the TIMx Prescaler.
1143:common/lib.stm32/STM32F10x_StdPeriph_Driver/src/stm32f10x_tim.c ****   * @param  TIMx: where x can be 1 to 8 to select the TIM peripheral.
1144:common/lib.stm32/STM32F10x_StdPeriph_Driver/src/stm32f10x_tim.c ****   * @param  Prescaler: specifies the Prescaler Register value
1145:common/lib.stm32/STM32F10x_StdPeriph_Driver/src/stm32f10x_tim.c ****   * @param  TIM_PSCReloadMode: specifies the TIM Prescaler Reload mode
1146:common/lib.stm32/STM32F10x_StdPeriph_Driver/src/stm32f10x_tim.c ****   *   This parameter can be one of the following values:
1147:common/lib.stm32/STM32F10x_StdPeriph_Driver/src/stm32f10x_tim.c ****   *     @arg TIM_PSCReloadMode_Update: The Prescaler is loaded at the update event.
1148:common/lib.stm32/STM32F10x_StdPeriph_Driver/src/stm32f10x_tim.c ****   *     @arg TIM_PSCReloadMode_Immediate: The Prescaler is loaded immediatly.
1149:common/lib.stm32/STM32F10x_StdPeriph_Driver/src/stm32f10x_tim.c ****   * @retval None
1150:common/lib.stm32/STM32F10x_StdPeriph_Driver/src/stm32f10x_tim.c ****   */
1151:common/lib.stm32/STM32F10x_StdPeriph_Driver/src/stm32f10x_tim.c **** void TIM_PrescalerConfig(TIM_TypeDef* TIMx, uint16_t Prescaler, uint16_t TIM_PSCReloadMode)
1152:common/lib.stm32/STM32F10x_StdPeriph_Driver/src/stm32f10x_tim.c **** {
 2593              		.loc 1 1152 1
 2594              		.cfi_startproc
 2595              		@ args = 0, pretend = 0, frame = 8
 2596              		@ frame_needed = 1, uses_anonymous_args = 0
 2597              		@ link register save eliminated.
 2598 0000 80B4     		push	{r7}
 2599              	.LCFI143:
 2600              		.cfi_def_cfa_offset 4
 2601              		.cfi_offset 7, -4
 2602 0002 83B0     		sub	sp, sp, #12
 2603              	.LCFI144:
 2604              		.cfi_def_cfa_offset 16
 2605 0004 00AF     		add	r7, sp, #0
 2606              	.LCFI145:
 2607              		.cfi_def_cfa_register 7
 2608 0006 7860     		str	r0, [r7, #4]
 2609 0008 0B46     		mov	r3, r1
 2610 000a 7B80     		strh	r3, [r7, #2]	@ movhi
 2611 000c 1346     		mov	r3, r2	@ movhi
 2612 000e 3B80     		strh	r3, [r7]	@ movhi
1153:common/lib.stm32/STM32F10x_StdPeriph_Driver/src/stm32f10x_tim.c ****   /* Check the parameters */
1154:common/lib.stm32/STM32F10x_StdPeriph_Driver/src/stm32f10x_tim.c ****   assert_param(IS_TIM_ALL_PERIPH(TIMx));
1155:common/lib.stm32/STM32F10x_StdPeriph_Driver/src/stm32f10x_tim.c ****   assert_param(IS_TIM_PRESCALER_RELOAD(TIM_PSCReloadMode));
1156:common/lib.stm32/STM32F10x_StdPeriph_Driver/src/stm32f10x_tim.c ****   /* Set the Prescaler value */
1157:common/lib.stm32/STM32F10x_StdPeriph_Driver/src/stm32f10x_tim.c ****   TIMx->PSC = Prescaler;
 2613              		.loc 1 1157 13
 2614 0010 7B68     		ldr	r3, [r7, #4]
 2615 0012 7A88     		ldrh	r2, [r7, #2]	@ movhi
 2616 0014 1A85     		strh	r2, [r3, #40]	@ movhi
1158:common/lib.stm32/STM32F10x_StdPeriph_Driver/src/stm32f10x_tim.c ****   /* Set or reset the UG Bit */
1159:common/lib.stm32/STM32F10x_StdPeriph_Driver/src/stm32f10x_tim.c ****   TIMx->EGR = TIM_PSCReloadMode;
 2617              		.loc 1 1159 13
 2618 0016 7B68     		ldr	r3, [r7, #4]
 2619 0018 3A88     		ldrh	r2, [r7]	@ movhi
 2620 001a 9A82     		strh	r2, [r3, #20]	@ movhi
1160:common/lib.stm32/STM32F10x_StdPeriph_Driver/src/stm32f10x_tim.c **** }
 2621              		.loc 1 1160 1
 2622 001c 00BF     		nop
 2623 001e 0C37     		adds	r7, r7, #12
 2624              	.LCFI146:
 2625              		.cfi_def_cfa_offset 4
 2626 0020 BD46     		mov	sp, r7
 2627              	.LCFI147:
 2628              		.cfi_def_cfa_register 13
 2629              		@ sp needed
 2630 0022 80BC     		pop	{r7}
 2631              	.LCFI148:
 2632              		.cfi_restore 7
 2633              		.cfi_def_cfa_offset 0
 2634 0024 7047     		bx	lr
 2635              		.cfi_endproc
 2636              	.LFE52:
 2638              		.section	.text.TIM_CounterModeConfig,"ax",%progbits
 2639              		.align	1
 2640              		.global	TIM_CounterModeConfig
 2641              		.syntax unified
 2642              		.thumb
 2643              		.thumb_func
 2645              	TIM_CounterModeConfig:
 2646              	.LFB53:
1161:common/lib.stm32/STM32F10x_StdPeriph_Driver/src/stm32f10x_tim.c **** 
1162:common/lib.stm32/STM32F10x_StdPeriph_Driver/src/stm32f10x_tim.c **** /**
1163:common/lib.stm32/STM32F10x_StdPeriph_Driver/src/stm32f10x_tim.c ****   * @brief  Specifies the TIMx Counter Mode to be used.
1164:common/lib.stm32/STM32F10x_StdPeriph_Driver/src/stm32f10x_tim.c ****   * @param  TIMx: where x can be  1, 2, 3, 4, 5 or 8 to select the TIM peripheral.
1165:common/lib.stm32/STM32F10x_StdPeriph_Driver/src/stm32f10x_tim.c ****   * @param  TIM_CounterMode: specifies the Counter Mode to be used
1166:common/lib.stm32/STM32F10x_StdPeriph_Driver/src/stm32f10x_tim.c ****   *   This parameter can be one of the following values:
1167:common/lib.stm32/STM32F10x_StdPeriph_Driver/src/stm32f10x_tim.c ****   *     @arg TIM_CounterMode_Up: TIM Up Counting Mode
1168:common/lib.stm32/STM32F10x_StdPeriph_Driver/src/stm32f10x_tim.c ****   *     @arg TIM_CounterMode_Down: TIM Down Counting Mode
1169:common/lib.stm32/STM32F10x_StdPeriph_Driver/src/stm32f10x_tim.c ****   *     @arg TIM_CounterMode_CenterAligned1: TIM Center Aligned Mode1
1170:common/lib.stm32/STM32F10x_StdPeriph_Driver/src/stm32f10x_tim.c ****   *     @arg TIM_CounterMode_CenterAligned2: TIM Center Aligned Mode2
1171:common/lib.stm32/STM32F10x_StdPeriph_Driver/src/stm32f10x_tim.c ****   *     @arg TIM_CounterMode_CenterAligned3: TIM Center Aligned Mode3
1172:common/lib.stm32/STM32F10x_StdPeriph_Driver/src/stm32f10x_tim.c ****   * @retval None
1173:common/lib.stm32/STM32F10x_StdPeriph_Driver/src/stm32f10x_tim.c ****   */
1174:common/lib.stm32/STM32F10x_StdPeriph_Driver/src/stm32f10x_tim.c **** void TIM_CounterModeConfig(TIM_TypeDef* TIMx, uint16_t TIM_CounterMode)
1175:common/lib.stm32/STM32F10x_StdPeriph_Driver/src/stm32f10x_tim.c **** {
 2647              		.loc 1 1175 1
 2648              		.cfi_startproc
 2649              		@ args = 0, pretend = 0, frame = 16
 2650              		@ frame_needed = 1, uses_anonymous_args = 0
 2651              		@ link register save eliminated.
 2652 0000 80B4     		push	{r7}
 2653              	.LCFI149:
 2654              		.cfi_def_cfa_offset 4
 2655              		.cfi_offset 7, -4
 2656 0002 85B0     		sub	sp, sp, #20
 2657              	.LCFI150:
 2658              		.cfi_def_cfa_offset 24
 2659 0004 00AF     		add	r7, sp, #0
 2660              	.LCFI151:
 2661              		.cfi_def_cfa_register 7
 2662 0006 7860     		str	r0, [r7, #4]
 2663 0008 0B46     		mov	r3, r1
 2664 000a 7B80     		strh	r3, [r7, #2]	@ movhi
1176:common/lib.stm32/STM32F10x_StdPeriph_Driver/src/stm32f10x_tim.c ****   uint16_t tmpcr1 = 0;
 2665              		.loc 1 1176 12
 2666 000c 0023     		movs	r3, #0
 2667 000e FB81     		strh	r3, [r7, #14]	@ movhi
1177:common/lib.stm32/STM32F10x_StdPeriph_Driver/src/stm32f10x_tim.c ****   /* Check the parameters */
1178:common/lib.stm32/STM32F10x_StdPeriph_Driver/src/stm32f10x_tim.c ****   assert_param(IS_TIM_123458_PERIPH(TIMx));
1179:common/lib.stm32/STM32F10x_StdPeriph_Driver/src/stm32f10x_tim.c ****   assert_param(IS_TIM_COUNTER_MODE(TIM_CounterMode));
1180:common/lib.stm32/STM32F10x_StdPeriph_Driver/src/stm32f10x_tim.c ****   tmpcr1 = TIMx->CR1;
 2668              		.loc 1 1180 10
 2669 0010 7B68     		ldr	r3, [r7, #4]
 2670 0012 1B88     		ldrh	r3, [r3]	@ movhi
 2671 0014 FB81     		strh	r3, [r7, #14]	@ movhi
1181:common/lib.stm32/STM32F10x_StdPeriph_Driver/src/stm32f10x_tim.c ****   /* Reset the CMS and DIR Bits */
1182:common/lib.stm32/STM32F10x_StdPeriph_Driver/src/stm32f10x_tim.c ****   tmpcr1 &= CR1_CounterMode_Mask;
 2672              		.loc 1 1182 10
 2673 0016 FB89     		ldrh	r3, [r7, #14]	@ movhi
 2674 0018 23F07003 		bic	r3, r3, #112
 2675 001c 9B05     		lsls	r3, r3, #22
 2676 001e 9B0D     		lsrs	r3, r3, #22
 2677 0020 FB81     		strh	r3, [r7, #14]	@ movhi
1183:common/lib.stm32/STM32F10x_StdPeriph_Driver/src/stm32f10x_tim.c ****   /* Set the Counter Mode */
1184:common/lib.stm32/STM32F10x_StdPeriph_Driver/src/stm32f10x_tim.c ****   tmpcr1 |= TIM_CounterMode;
 2678              		.loc 1 1184 10
 2679 0022 FA89     		ldrh	r2, [r7, #14]	@ movhi
 2680 0024 7B88     		ldrh	r3, [r7, #2]	@ movhi
 2681 0026 1343     		orrs	r3, r3, r2
 2682 0028 FB81     		strh	r3, [r7, #14]	@ movhi
1185:common/lib.stm32/STM32F10x_StdPeriph_Driver/src/stm32f10x_tim.c ****   /* Write to TIMx CR1 register */
1186:common/lib.stm32/STM32F10x_StdPeriph_Driver/src/stm32f10x_tim.c ****   TIMx->CR1 = tmpcr1;
 2683              		.loc 1 1186 13
 2684 002a 7B68     		ldr	r3, [r7, #4]
 2685 002c FA89     		ldrh	r2, [r7, #14]	@ movhi
 2686 002e 1A80     		strh	r2, [r3]	@ movhi
1187:common/lib.stm32/STM32F10x_StdPeriph_Driver/src/stm32f10x_tim.c **** }
 2687              		.loc 1 1187 1
 2688 0030 00BF     		nop
 2689 0032 1437     		adds	r7, r7, #20
 2690              	.LCFI152:
 2691              		.cfi_def_cfa_offset 4
 2692 0034 BD46     		mov	sp, r7
 2693              	.LCFI153:
 2694              		.cfi_def_cfa_register 13
 2695              		@ sp needed
 2696 0036 80BC     		pop	{r7}
 2697              	.LCFI154:
 2698              		.cfi_restore 7
 2699              		.cfi_def_cfa_offset 0
 2700 0038 7047     		bx	lr
 2701              		.cfi_endproc
 2702              	.LFE53:
 2704              		.section	.text.TIM_SelectInputTrigger,"ax",%progbits
 2705              		.align	1
 2706              		.global	TIM_SelectInputTrigger
 2707              		.syntax unified
 2708              		.thumb
 2709              		.thumb_func
 2711              	TIM_SelectInputTrigger:
 2712              	.LFB54:
1188:common/lib.stm32/STM32F10x_StdPeriph_Driver/src/stm32f10x_tim.c **** 
1189:common/lib.stm32/STM32F10x_StdPeriph_Driver/src/stm32f10x_tim.c **** /**
1190:common/lib.stm32/STM32F10x_StdPeriph_Driver/src/stm32f10x_tim.c ****   * @brief  Selects the Input Trigger source
1191:common/lib.stm32/STM32F10x_StdPeriph_Driver/src/stm32f10x_tim.c ****   * @param  TIMx: where x can be  1, 2, 3, 4, 5 or 8 to select the TIM peripheral.
1192:common/lib.stm32/STM32F10x_StdPeriph_Driver/src/stm32f10x_tim.c ****   * @param  TIM_InputTriggerSource: The Input Trigger source.
1193:common/lib.stm32/STM32F10x_StdPeriph_Driver/src/stm32f10x_tim.c ****   *   This parameter can be one of the following values:
1194:common/lib.stm32/STM32F10x_StdPeriph_Driver/src/stm32f10x_tim.c ****   *     @arg TIM_TS_ITR0: Internal Trigger 0
1195:common/lib.stm32/STM32F10x_StdPeriph_Driver/src/stm32f10x_tim.c ****   *     @arg TIM_TS_ITR1: Internal Trigger 1
1196:common/lib.stm32/STM32F10x_StdPeriph_Driver/src/stm32f10x_tim.c ****   *     @arg TIM_TS_ITR2: Internal Trigger 2
1197:common/lib.stm32/STM32F10x_StdPeriph_Driver/src/stm32f10x_tim.c ****   *     @arg TIM_TS_ITR3: Internal Trigger 3
1198:common/lib.stm32/STM32F10x_StdPeriph_Driver/src/stm32f10x_tim.c ****   *     @arg TIM_TS_TI1F_ED: TI1 Edge Detector
1199:common/lib.stm32/STM32F10x_StdPeriph_Driver/src/stm32f10x_tim.c ****   *     @arg TIM_TS_TI1FP1: Filtered Timer Input 1
1200:common/lib.stm32/STM32F10x_StdPeriph_Driver/src/stm32f10x_tim.c ****   *     @arg TIM_TS_TI2FP2: Filtered Timer Input 2
1201:common/lib.stm32/STM32F10x_StdPeriph_Driver/src/stm32f10x_tim.c ****   *     @arg TIM_TS_ETRF: External Trigger input
1202:common/lib.stm32/STM32F10x_StdPeriph_Driver/src/stm32f10x_tim.c ****   * @retval None
1203:common/lib.stm32/STM32F10x_StdPeriph_Driver/src/stm32f10x_tim.c ****   */
1204:common/lib.stm32/STM32F10x_StdPeriph_Driver/src/stm32f10x_tim.c **** void TIM_SelectInputTrigger(TIM_TypeDef* TIMx, uint16_t TIM_InputTriggerSource)
1205:common/lib.stm32/STM32F10x_StdPeriph_Driver/src/stm32f10x_tim.c **** {
 2713              		.loc 1 1205 1
 2714              		.cfi_startproc
 2715              		@ args = 0, pretend = 0, frame = 16
 2716              		@ frame_needed = 1, uses_anonymous_args = 0
 2717              		@ link register save eliminated.
 2718 0000 80B4     		push	{r7}
 2719              	.LCFI155:
 2720              		.cfi_def_cfa_offset 4
 2721              		.cfi_offset 7, -4
 2722 0002 85B0     		sub	sp, sp, #20
 2723              	.LCFI156:
 2724              		.cfi_def_cfa_offset 24
 2725 0004 00AF     		add	r7, sp, #0
 2726              	.LCFI157:
 2727              		.cfi_def_cfa_register 7
 2728 0006 7860     		str	r0, [r7, #4]
 2729 0008 0B46     		mov	r3, r1
 2730 000a 7B80     		strh	r3, [r7, #2]	@ movhi
1206:common/lib.stm32/STM32F10x_StdPeriph_Driver/src/stm32f10x_tim.c ****   uint16_t tmpsmcr = 0;
 2731              		.loc 1 1206 12
 2732 000c 0023     		movs	r3, #0
 2733 000e FB81     		strh	r3, [r7, #14]	@ movhi
1207:common/lib.stm32/STM32F10x_StdPeriph_Driver/src/stm32f10x_tim.c ****   /* Check the parameters */
1208:common/lib.stm32/STM32F10x_StdPeriph_Driver/src/stm32f10x_tim.c ****   assert_param(IS_TIM_123458_PERIPH(TIMx));
1209:common/lib.stm32/STM32F10x_StdPeriph_Driver/src/stm32f10x_tim.c ****   assert_param(IS_TIM_TRIGGER_SELECTION(TIM_InputTriggerSource));
1210:common/lib.stm32/STM32F10x_StdPeriph_Driver/src/stm32f10x_tim.c ****   /* Get the TIMx SMCR register value */
1211:common/lib.stm32/STM32F10x_StdPeriph_Driver/src/stm32f10x_tim.c ****   tmpsmcr = TIMx->SMCR;
 2734              		.loc 1 1211 11
 2735 0010 7B68     		ldr	r3, [r7, #4]
 2736 0012 1B89     		ldrh	r3, [r3, #8]	@ movhi
 2737 0014 FB81     		strh	r3, [r7, #14]	@ movhi
1212:common/lib.stm32/STM32F10x_StdPeriph_Driver/src/stm32f10x_tim.c ****   /* Reset the TS Bits */
1213:common/lib.stm32/STM32F10x_StdPeriph_Driver/src/stm32f10x_tim.c ****   tmpsmcr &= SMCR_TS_Mask;
 2738              		.loc 1 1213 11
 2739 0016 FB89     		ldrh	r3, [r7, #14]	@ movhi
 2740 0018 23F07003 		bic	r3, r3, #112
 2741 001c FB81     		strh	r3, [r7, #14]	@ movhi
1214:common/lib.stm32/STM32F10x_StdPeriph_Driver/src/stm32f10x_tim.c ****   /* Set the Input Trigger source */
1215:common/lib.stm32/STM32F10x_StdPeriph_Driver/src/stm32f10x_tim.c ****   tmpsmcr |= TIM_InputTriggerSource;
 2742              		.loc 1 1215 11
 2743 001e FA89     		ldrh	r2, [r7, #14]	@ movhi
 2744 0020 7B88     		ldrh	r3, [r7, #2]	@ movhi
 2745 0022 1343     		orrs	r3, r3, r2
 2746 0024 FB81     		strh	r3, [r7, #14]	@ movhi
1216:common/lib.stm32/STM32F10x_StdPeriph_Driver/src/stm32f10x_tim.c ****   /* Write to TIMx SMCR */
1217:common/lib.stm32/STM32F10x_StdPeriph_Driver/src/stm32f10x_tim.c ****   TIMx->SMCR = tmpsmcr;
 2747              		.loc 1 1217 14
 2748 0026 7B68     		ldr	r3, [r7, #4]
 2749 0028 FA89     		ldrh	r2, [r7, #14]	@ movhi
 2750 002a 1A81     		strh	r2, [r3, #8]	@ movhi
1218:common/lib.stm32/STM32F10x_StdPeriph_Driver/src/stm32f10x_tim.c **** }
 2751              		.loc 1 1218 1
 2752 002c 00BF     		nop
 2753 002e 1437     		adds	r7, r7, #20
 2754              	.LCFI158:
 2755              		.cfi_def_cfa_offset 4
 2756 0030 BD46     		mov	sp, r7
 2757              	.LCFI159:
 2758              		.cfi_def_cfa_register 13
 2759              		@ sp needed
 2760 0032 80BC     		pop	{r7}
 2761              	.LCFI160:
 2762              		.cfi_restore 7
 2763              		.cfi_def_cfa_offset 0
 2764 0034 7047     		bx	lr
 2765              		.cfi_endproc
 2766              	.LFE54:
 2768              		.section	.text.TIM_EncoderInterfaceConfig,"ax",%progbits
 2769              		.align	1
 2770              		.global	TIM_EncoderInterfaceConfig
 2771              		.syntax unified
 2772              		.thumb
 2773              		.thumb_func
 2775              	TIM_EncoderInterfaceConfig:
 2776              	.LFB55:
1219:common/lib.stm32/STM32F10x_StdPeriph_Driver/src/stm32f10x_tim.c **** 
1220:common/lib.stm32/STM32F10x_StdPeriph_Driver/src/stm32f10x_tim.c **** /**
1221:common/lib.stm32/STM32F10x_StdPeriph_Driver/src/stm32f10x_tim.c ****   * @brief  Configures the TIMx Encoder Interface.
1222:common/lib.stm32/STM32F10x_StdPeriph_Driver/src/stm32f10x_tim.c ****   * @param  TIMx: where x can be  1, 2, 3, 4, 5 or 8 to select the TIM peripheral.
1223:common/lib.stm32/STM32F10x_StdPeriph_Driver/src/stm32f10x_tim.c ****   * @param  TIM_EncoderMode: specifies the TIMx Encoder Mode.
1224:common/lib.stm32/STM32F10x_StdPeriph_Driver/src/stm32f10x_tim.c ****   *   This parameter can be one of the following values:
1225:common/lib.stm32/STM32F10x_StdPeriph_Driver/src/stm32f10x_tim.c ****   *     @arg TIM_EncoderMode_TI1: Counter counts on TI1FP1 edge depending on TI2FP2 level.
1226:common/lib.stm32/STM32F10x_StdPeriph_Driver/src/stm32f10x_tim.c ****   *     @arg TIM_EncoderMode_TI2: Counter counts on TI2FP2 edge depending on TI1FP1 level.
1227:common/lib.stm32/STM32F10x_StdPeriph_Driver/src/stm32f10x_tim.c ****   *     @arg TIM_EncoderMode_TI12: Counter counts on both TI1FP1 and TI2FP2 edges depending
1228:common/lib.stm32/STM32F10x_StdPeriph_Driver/src/stm32f10x_tim.c ****   *                                on the level of the other input.
1229:common/lib.stm32/STM32F10x_StdPeriph_Driver/src/stm32f10x_tim.c ****   * @param  TIM_IC1Polarity: specifies the IC1 Polarity
1230:common/lib.stm32/STM32F10x_StdPeriph_Driver/src/stm32f10x_tim.c ****   *   This parmeter can be one of the following values:
1231:common/lib.stm32/STM32F10x_StdPeriph_Driver/src/stm32f10x_tim.c ****   *     @arg TIM_ICPolarity_Falling: IC Falling edge.
1232:common/lib.stm32/STM32F10x_StdPeriph_Driver/src/stm32f10x_tim.c ****   *     @arg TIM_ICPolarity_Rising: IC Rising edge.
1233:common/lib.stm32/STM32F10x_StdPeriph_Driver/src/stm32f10x_tim.c ****   * @param  TIM_IC2Polarity: specifies the IC2 Polarity
1234:common/lib.stm32/STM32F10x_StdPeriph_Driver/src/stm32f10x_tim.c ****   *   This parmeter can be one of the following values:
1235:common/lib.stm32/STM32F10x_StdPeriph_Driver/src/stm32f10x_tim.c ****   *     @arg TIM_ICPolarity_Falling: IC Falling edge.
1236:common/lib.stm32/STM32F10x_StdPeriph_Driver/src/stm32f10x_tim.c ****   *     @arg TIM_ICPolarity_Rising: IC Rising edge.
1237:common/lib.stm32/STM32F10x_StdPeriph_Driver/src/stm32f10x_tim.c ****   * @retval None
1238:common/lib.stm32/STM32F10x_StdPeriph_Driver/src/stm32f10x_tim.c ****   */
1239:common/lib.stm32/STM32F10x_StdPeriph_Driver/src/stm32f10x_tim.c **** void TIM_EncoderInterfaceConfig(TIM_TypeDef* TIMx, uint16_t TIM_EncoderMode,
1240:common/lib.stm32/STM32F10x_StdPeriph_Driver/src/stm32f10x_tim.c ****                                 uint16_t TIM_IC1Polarity, uint16_t TIM_IC2Polarity)
1241:common/lib.stm32/STM32F10x_StdPeriph_Driver/src/stm32f10x_tim.c **** {
 2777              		.loc 1 1241 1
 2778              		.cfi_startproc
 2779              		@ args = 0, pretend = 0, frame = 24
 2780              		@ frame_needed = 1, uses_anonymous_args = 0
 2781              		@ link register save eliminated.
 2782 0000 80B4     		push	{r7}
 2783              	.LCFI161:
 2784              		.cfi_def_cfa_offset 4
 2785              		.cfi_offset 7, -4
 2786 0002 87B0     		sub	sp, sp, #28
 2787              	.LCFI162:
 2788              		.cfi_def_cfa_offset 32
 2789 0004 00AF     		add	r7, sp, #0
 2790              	.LCFI163:
 2791              		.cfi_def_cfa_register 7
 2792 0006 F860     		str	r0, [r7, #12]
 2793 0008 0846     		mov	r0, r1
 2794 000a 1146     		mov	r1, r2
 2795 000c 1A46     		mov	r2, r3
 2796 000e 0346     		mov	r3, r0	@ movhi
 2797 0010 7B81     		strh	r3, [r7, #10]	@ movhi
 2798 0012 0B46     		mov	r3, r1	@ movhi
 2799 0014 3B81     		strh	r3, [r7, #8]	@ movhi
 2800 0016 1346     		mov	r3, r2	@ movhi
 2801 0018 FB80     		strh	r3, [r7, #6]	@ movhi
1242:common/lib.stm32/STM32F10x_StdPeriph_Driver/src/stm32f10x_tim.c ****   uint16_t tmpsmcr = 0;
 2802              		.loc 1 1242 12
 2803 001a 0023     		movs	r3, #0
 2804 001c FB82     		strh	r3, [r7, #22]	@ movhi
1243:common/lib.stm32/STM32F10x_StdPeriph_Driver/src/stm32f10x_tim.c ****   uint16_t tmpccmr1 = 0;
 2805              		.loc 1 1243 12
 2806 001e 0023     		movs	r3, #0
 2807 0020 BB82     		strh	r3, [r7, #20]	@ movhi
1244:common/lib.stm32/STM32F10x_StdPeriph_Driver/src/stm32f10x_tim.c ****   uint16_t tmpccer = 0;
 2808              		.loc 1 1244 12
 2809 0022 0023     		movs	r3, #0
 2810 0024 7B82     		strh	r3, [r7, #18]	@ movhi
1245:common/lib.stm32/STM32F10x_StdPeriph_Driver/src/stm32f10x_tim.c ****     
1246:common/lib.stm32/STM32F10x_StdPeriph_Driver/src/stm32f10x_tim.c ****   /* Check the parameters */
1247:common/lib.stm32/STM32F10x_StdPeriph_Driver/src/stm32f10x_tim.c ****   assert_param(IS_TIM_123458_PERIPH(TIMx));
1248:common/lib.stm32/STM32F10x_StdPeriph_Driver/src/stm32f10x_tim.c ****   assert_param(IS_TIM_ENCODER_MODE(TIM_EncoderMode));
1249:common/lib.stm32/STM32F10x_StdPeriph_Driver/src/stm32f10x_tim.c ****   assert_param(IS_TIM_IC_POLARITY(TIM_IC1Polarity));
1250:common/lib.stm32/STM32F10x_StdPeriph_Driver/src/stm32f10x_tim.c ****   assert_param(IS_TIM_IC_POLARITY(TIM_IC2Polarity));
1251:common/lib.stm32/STM32F10x_StdPeriph_Driver/src/stm32f10x_tim.c **** 
1252:common/lib.stm32/STM32F10x_StdPeriph_Driver/src/stm32f10x_tim.c ****   /* Get the TIMx SMCR register value */
1253:common/lib.stm32/STM32F10x_StdPeriph_Driver/src/stm32f10x_tim.c ****   tmpsmcr = TIMx->SMCR;
 2811              		.loc 1 1253 11
 2812 0026 FB68     		ldr	r3, [r7, #12]
 2813 0028 1B89     		ldrh	r3, [r3, #8]	@ movhi
 2814 002a FB82     		strh	r3, [r7, #22]	@ movhi
1254:common/lib.stm32/STM32F10x_StdPeriph_Driver/src/stm32f10x_tim.c **** 
1255:common/lib.stm32/STM32F10x_StdPeriph_Driver/src/stm32f10x_tim.c ****   /* Get the TIMx CCMR1 register value */
1256:common/lib.stm32/STM32F10x_StdPeriph_Driver/src/stm32f10x_tim.c ****   tmpccmr1 = TIMx->CCMR1;
 2815              		.loc 1 1256 12
 2816 002c FB68     		ldr	r3, [r7, #12]
 2817 002e 1B8B     		ldrh	r3, [r3, #24]	@ movhi
 2818 0030 BB82     		strh	r3, [r7, #20]	@ movhi
1257:common/lib.stm32/STM32F10x_StdPeriph_Driver/src/stm32f10x_tim.c **** 
1258:common/lib.stm32/STM32F10x_StdPeriph_Driver/src/stm32f10x_tim.c ****   /* Get the TIMx CCER register value */
1259:common/lib.stm32/STM32F10x_StdPeriph_Driver/src/stm32f10x_tim.c ****   tmpccer = TIMx->CCER;
 2819              		.loc 1 1259 11
 2820 0032 FB68     		ldr	r3, [r7, #12]
 2821 0034 1B8C     		ldrh	r3, [r3, #32]	@ movhi
 2822 0036 7B82     		strh	r3, [r7, #18]	@ movhi
1260:common/lib.stm32/STM32F10x_StdPeriph_Driver/src/stm32f10x_tim.c **** 
1261:common/lib.stm32/STM32F10x_StdPeriph_Driver/src/stm32f10x_tim.c ****   /* Set the encoder Mode */
1262:common/lib.stm32/STM32F10x_StdPeriph_Driver/src/stm32f10x_tim.c ****   tmpsmcr &= SMCR_SMS_Mask;
 2823              		.loc 1 1262 11
 2824 0038 FB8A     		ldrh	r3, [r7, #22]	@ movhi
 2825 003a 23F00703 		bic	r3, r3, #7
 2826 003e FB82     		strh	r3, [r7, #22]	@ movhi
1263:common/lib.stm32/STM32F10x_StdPeriph_Driver/src/stm32f10x_tim.c ****   tmpsmcr |= TIM_EncoderMode;
 2827              		.loc 1 1263 11
 2828 0040 FA8A     		ldrh	r2, [r7, #22]	@ movhi
 2829 0042 7B89     		ldrh	r3, [r7, #10]	@ movhi
 2830 0044 1343     		orrs	r3, r3, r2
 2831 0046 FB82     		strh	r3, [r7, #22]	@ movhi
1264:common/lib.stm32/STM32F10x_StdPeriph_Driver/src/stm32f10x_tim.c **** 
1265:common/lib.stm32/STM32F10x_StdPeriph_Driver/src/stm32f10x_tim.c ****   /* Select the Capture Compare 1 and the Capture Compare 2 as input */
1266:common/lib.stm32/STM32F10x_StdPeriph_Driver/src/stm32f10x_tim.c ****   tmpccmr1 &= CCMR_CC13S_Mask & CCMR_CC24S_Mask;
 2832              		.loc 1 1266 12
 2833 0048 BB8A     		ldrh	r3, [r7, #20]	@ movhi
 2834 004a 23F44073 		bic	r3, r3, #768
 2835 004e 23F00303 		bic	r3, r3, #3
 2836 0052 BB82     		strh	r3, [r7, #20]	@ movhi
1267:common/lib.stm32/STM32F10x_StdPeriph_Driver/src/stm32f10x_tim.c ****   tmpccmr1 |= CCMR_TI13Direct_Set | CCMR_TI24Direct_Set;
 2837              		.loc 1 1267 12
 2838 0054 BB8A     		ldrh	r3, [r7, #20]	@ movhi
 2839 0056 43F48073 		orr	r3, r3, #256
 2840 005a 43F00103 		orr	r3, r3, #1
 2841 005e BB82     		strh	r3, [r7, #20]	@ movhi
1268:common/lib.stm32/STM32F10x_StdPeriph_Driver/src/stm32f10x_tim.c **** 
1269:common/lib.stm32/STM32F10x_StdPeriph_Driver/src/stm32f10x_tim.c ****   /* Set the TI1 and the TI2 Polarities */
1270:common/lib.stm32/STM32F10x_StdPeriph_Driver/src/stm32f10x_tim.c ****   tmpccer &= CCER_CC1P_Reset & CCER_CC2P_Reset;
 2842              		.loc 1 1270 11
 2843 0060 7B8A     		ldrh	r3, [r7, #18]	@ movhi
 2844 0062 23F02203 		bic	r3, r3, #34
 2845 0066 7B82     		strh	r3, [r7, #18]	@ movhi
1271:common/lib.stm32/STM32F10x_StdPeriph_Driver/src/stm32f10x_tim.c ****   tmpccer |= (uint16_t)(TIM_IC1Polarity | (uint16_t)(TIM_IC2Polarity << (uint16_t)4));
 2846              		.loc 1 1271 43
 2847 0068 FB88     		ldrh	r3, [r7, #6]	@ movhi
 2848 006a 1B01     		lsls	r3, r3, #4
 2849 006c 9AB2     		uxth	r2, r3
 2850              		.loc 1 1271 14
 2851 006e 3B89     		ldrh	r3, [r7, #8]	@ movhi
 2852 0070 1343     		orrs	r3, r3, r2
 2853 0072 9AB2     		uxth	r2, r3
 2854              		.loc 1 1271 11
 2855 0074 7B8A     		ldrh	r3, [r7, #18]	@ movhi
 2856 0076 1343     		orrs	r3, r3, r2
 2857 0078 7B82     		strh	r3, [r7, #18]	@ movhi
1272:common/lib.stm32/STM32F10x_StdPeriph_Driver/src/stm32f10x_tim.c **** 
1273:common/lib.stm32/STM32F10x_StdPeriph_Driver/src/stm32f10x_tim.c ****   /* Write to TIMx SMCR */
1274:common/lib.stm32/STM32F10x_StdPeriph_Driver/src/stm32f10x_tim.c ****   TIMx->SMCR = tmpsmcr;
 2858              		.loc 1 1274 14
 2859 007a FB68     		ldr	r3, [r7, #12]
 2860 007c FA8A     		ldrh	r2, [r7, #22]	@ movhi
 2861 007e 1A81     		strh	r2, [r3, #8]	@ movhi
1275:common/lib.stm32/STM32F10x_StdPeriph_Driver/src/stm32f10x_tim.c **** 
1276:common/lib.stm32/STM32F10x_StdPeriph_Driver/src/stm32f10x_tim.c ****   /* Write to TIMx CCMR1 */
1277:common/lib.stm32/STM32F10x_StdPeriph_Driver/src/stm32f10x_tim.c ****   TIMx->CCMR1 = tmpccmr1;
 2862              		.loc 1 1277 15
 2863 0080 FB68     		ldr	r3, [r7, #12]
 2864 0082 BA8A     		ldrh	r2, [r7, #20]	@ movhi
 2865 0084 1A83     		strh	r2, [r3, #24]	@ movhi
1278:common/lib.stm32/STM32F10x_StdPeriph_Driver/src/stm32f10x_tim.c **** 
1279:common/lib.stm32/STM32F10x_StdPeriph_Driver/src/stm32f10x_tim.c ****   /* Write to TIMx CCER */
1280:common/lib.stm32/STM32F10x_StdPeriph_Driver/src/stm32f10x_tim.c ****   TIMx->CCER = tmpccer;
 2866              		.loc 1 1280 14
 2867 0086 FB68     		ldr	r3, [r7, #12]
 2868 0088 7A8A     		ldrh	r2, [r7, #18]	@ movhi
 2869 008a 1A84     		strh	r2, [r3, #32]	@ movhi
1281:common/lib.stm32/STM32F10x_StdPeriph_Driver/src/stm32f10x_tim.c **** }
 2870              		.loc 1 1281 1
 2871 008c 00BF     		nop
 2872 008e 1C37     		adds	r7, r7, #28
 2873              	.LCFI164:
 2874              		.cfi_def_cfa_offset 4
 2875 0090 BD46     		mov	sp, r7
 2876              	.LCFI165:
 2877              		.cfi_def_cfa_register 13
 2878              		@ sp needed
 2879 0092 80BC     		pop	{r7}
 2880              	.LCFI166:
 2881              		.cfi_restore 7
 2882              		.cfi_def_cfa_offset 0
 2883 0094 7047     		bx	lr
 2884              		.cfi_endproc
 2885              	.LFE55:
 2887              		.section	.text.TIM_ForcedOC1Config,"ax",%progbits
 2888              		.align	1
 2889              		.global	TIM_ForcedOC1Config
 2890              		.syntax unified
 2891              		.thumb
 2892              		.thumb_func
 2894              	TIM_ForcedOC1Config:
 2895              	.LFB56:
1282:common/lib.stm32/STM32F10x_StdPeriph_Driver/src/stm32f10x_tim.c **** 
1283:common/lib.stm32/STM32F10x_StdPeriph_Driver/src/stm32f10x_tim.c **** /**
1284:common/lib.stm32/STM32F10x_StdPeriph_Driver/src/stm32f10x_tim.c ****   * @brief  Forces the TIMx output 1 waveform to active or inactive level.
1285:common/lib.stm32/STM32F10x_StdPeriph_Driver/src/stm32f10x_tim.c ****   * @param  TIMx: where x can be  1, 2, 3, 4, 5 or 8 to select the TIM peripheral.
1286:common/lib.stm32/STM32F10x_StdPeriph_Driver/src/stm32f10x_tim.c ****   * @param  TIM_ForcedAction: specifies the forced Action to be set to the output waveform.
1287:common/lib.stm32/STM32F10x_StdPeriph_Driver/src/stm32f10x_tim.c ****   *   This parameter can be one of the following values:
1288:common/lib.stm32/STM32F10x_StdPeriph_Driver/src/stm32f10x_tim.c ****   *     @arg TIM_ForcedAction_Active: Force active level on OC1REF
1289:common/lib.stm32/STM32F10x_StdPeriph_Driver/src/stm32f10x_tim.c ****   *     @arg TIM_ForcedAction_InActive: Force inactive level on OC1REF.
1290:common/lib.stm32/STM32F10x_StdPeriph_Driver/src/stm32f10x_tim.c ****   * @retval None
1291:common/lib.stm32/STM32F10x_StdPeriph_Driver/src/stm32f10x_tim.c ****   */
1292:common/lib.stm32/STM32F10x_StdPeriph_Driver/src/stm32f10x_tim.c **** void TIM_ForcedOC1Config(TIM_TypeDef* TIMx, uint16_t TIM_ForcedAction)
1293:common/lib.stm32/STM32F10x_StdPeriph_Driver/src/stm32f10x_tim.c **** {
 2896              		.loc 1 1293 1
 2897              		.cfi_startproc
 2898              		@ args = 0, pretend = 0, frame = 16
 2899              		@ frame_needed = 1, uses_anonymous_args = 0
 2900              		@ link register save eliminated.
 2901 0000 80B4     		push	{r7}
 2902              	.LCFI167:
 2903              		.cfi_def_cfa_offset 4
 2904              		.cfi_offset 7, -4
 2905 0002 85B0     		sub	sp, sp, #20
 2906              	.LCFI168:
 2907              		.cfi_def_cfa_offset 24
 2908 0004 00AF     		add	r7, sp, #0
 2909              	.LCFI169:
 2910              		.cfi_def_cfa_register 7
 2911 0006 7860     		str	r0, [r7, #4]
 2912 0008 0B46     		mov	r3, r1
 2913 000a 7B80     		strh	r3, [r7, #2]	@ movhi
1294:common/lib.stm32/STM32F10x_StdPeriph_Driver/src/stm32f10x_tim.c ****   uint16_t tmpccmr1 = 0;
 2914              		.loc 1 1294 12
 2915 000c 0023     		movs	r3, #0
 2916 000e FB81     		strh	r3, [r7, #14]	@ movhi
1295:common/lib.stm32/STM32F10x_StdPeriph_Driver/src/stm32f10x_tim.c ****   /* Check the parameters */
1296:common/lib.stm32/STM32F10x_StdPeriph_Driver/src/stm32f10x_tim.c ****   assert_param(IS_TIM_123458_PERIPH(TIMx));
1297:common/lib.stm32/STM32F10x_StdPeriph_Driver/src/stm32f10x_tim.c ****   assert_param(IS_TIM_FORCED_ACTION(TIM_ForcedAction));
1298:common/lib.stm32/STM32F10x_StdPeriph_Driver/src/stm32f10x_tim.c ****   tmpccmr1 = TIMx->CCMR1;
 2917              		.loc 1 1298 12
 2918 0010 7B68     		ldr	r3, [r7, #4]
 2919 0012 1B8B     		ldrh	r3, [r3, #24]	@ movhi
 2920 0014 FB81     		strh	r3, [r7, #14]	@ movhi
1299:common/lib.stm32/STM32F10x_StdPeriph_Driver/src/stm32f10x_tim.c ****   /* Reset the OC1M Bits */
1300:common/lib.stm32/STM32F10x_StdPeriph_Driver/src/stm32f10x_tim.c ****   tmpccmr1 &= CCMR_OC13M_Mask;
 2921              		.loc 1 1300 12
 2922 0016 FB89     		ldrh	r3, [r7, #14]	@ movhi
 2923 0018 23F07003 		bic	r3, r3, #112
 2924 001c FB81     		strh	r3, [r7, #14]	@ movhi
1301:common/lib.stm32/STM32F10x_StdPeriph_Driver/src/stm32f10x_tim.c ****   /* Configure The Forced output Mode */
1302:common/lib.stm32/STM32F10x_StdPeriph_Driver/src/stm32f10x_tim.c ****   tmpccmr1 |= TIM_ForcedAction;
 2925              		.loc 1 1302 12
 2926 001e FA89     		ldrh	r2, [r7, #14]	@ movhi
 2927 0020 7B88     		ldrh	r3, [r7, #2]	@ movhi
 2928 0022 1343     		orrs	r3, r3, r2
 2929 0024 FB81     		strh	r3, [r7, #14]	@ movhi
1303:common/lib.stm32/STM32F10x_StdPeriph_Driver/src/stm32f10x_tim.c ****   /* Write to TIMx CCMR1 register */
1304:common/lib.stm32/STM32F10x_StdPeriph_Driver/src/stm32f10x_tim.c ****   TIMx->CCMR1 = tmpccmr1;
 2930              		.loc 1 1304 15
 2931 0026 7B68     		ldr	r3, [r7, #4]
 2932 0028 FA89     		ldrh	r2, [r7, #14]	@ movhi
 2933 002a 1A83     		strh	r2, [r3, #24]	@ movhi
1305:common/lib.stm32/STM32F10x_StdPeriph_Driver/src/stm32f10x_tim.c **** }
 2934              		.loc 1 1305 1
 2935 002c 00BF     		nop
 2936 002e 1437     		adds	r7, r7, #20
 2937              	.LCFI170:
 2938              		.cfi_def_cfa_offset 4
 2939 0030 BD46     		mov	sp, r7
 2940              	.LCFI171:
 2941              		.cfi_def_cfa_register 13
 2942              		@ sp needed
 2943 0032 80BC     		pop	{r7}
 2944              	.LCFI172:
 2945              		.cfi_restore 7
 2946              		.cfi_def_cfa_offset 0
 2947 0034 7047     		bx	lr
 2948              		.cfi_endproc
 2949              	.LFE56:
 2951              		.section	.text.TIM_ForcedOC2Config,"ax",%progbits
 2952              		.align	1
 2953              		.global	TIM_ForcedOC2Config
 2954              		.syntax unified
 2955              		.thumb
 2956              		.thumb_func
 2958              	TIM_ForcedOC2Config:
 2959              	.LFB57:
1306:common/lib.stm32/STM32F10x_StdPeriph_Driver/src/stm32f10x_tim.c **** 
1307:common/lib.stm32/STM32F10x_StdPeriph_Driver/src/stm32f10x_tim.c **** /**
1308:common/lib.stm32/STM32F10x_StdPeriph_Driver/src/stm32f10x_tim.c ****   * @brief  Forces the TIMx output 2 waveform to active or inactive level.
1309:common/lib.stm32/STM32F10x_StdPeriph_Driver/src/stm32f10x_tim.c ****   * @param  TIMx: where x can be  1, 2, 3, 4, 5 or 8 to select the TIM peripheral.
1310:common/lib.stm32/STM32F10x_StdPeriph_Driver/src/stm32f10x_tim.c ****   * @param  TIM_ForcedAction: specifies the forced Action to be set to the output waveform.
1311:common/lib.stm32/STM32F10x_StdPeriph_Driver/src/stm32f10x_tim.c ****   *   This parameter can be one of the following values:
1312:common/lib.stm32/STM32F10x_StdPeriph_Driver/src/stm32f10x_tim.c ****   *     @arg TIM_ForcedAction_Active: Force active level on OC2REF
1313:common/lib.stm32/STM32F10x_StdPeriph_Driver/src/stm32f10x_tim.c ****   *     @arg TIM_ForcedAction_InActive: Force inactive level on OC2REF.
1314:common/lib.stm32/STM32F10x_StdPeriph_Driver/src/stm32f10x_tim.c ****   * @retval None
1315:common/lib.stm32/STM32F10x_StdPeriph_Driver/src/stm32f10x_tim.c ****   */
1316:common/lib.stm32/STM32F10x_StdPeriph_Driver/src/stm32f10x_tim.c **** void TIM_ForcedOC2Config(TIM_TypeDef* TIMx, uint16_t TIM_ForcedAction)
1317:common/lib.stm32/STM32F10x_StdPeriph_Driver/src/stm32f10x_tim.c **** {
 2960              		.loc 1 1317 1
 2961              		.cfi_startproc
 2962              		@ args = 0, pretend = 0, frame = 16
 2963              		@ frame_needed = 1, uses_anonymous_args = 0
 2964              		@ link register save eliminated.
 2965 0000 80B4     		push	{r7}
 2966              	.LCFI173:
 2967              		.cfi_def_cfa_offset 4
 2968              		.cfi_offset 7, -4
 2969 0002 85B0     		sub	sp, sp, #20
 2970              	.LCFI174:
 2971              		.cfi_def_cfa_offset 24
 2972 0004 00AF     		add	r7, sp, #0
 2973              	.LCFI175:
 2974              		.cfi_def_cfa_register 7
 2975 0006 7860     		str	r0, [r7, #4]
 2976 0008 0B46     		mov	r3, r1
 2977 000a 7B80     		strh	r3, [r7, #2]	@ movhi
1318:common/lib.stm32/STM32F10x_StdPeriph_Driver/src/stm32f10x_tim.c ****   uint16_t tmpccmr1 = 0;
 2978              		.loc 1 1318 12
 2979 000c 0023     		movs	r3, #0
 2980 000e FB81     		strh	r3, [r7, #14]	@ movhi
1319:common/lib.stm32/STM32F10x_StdPeriph_Driver/src/stm32f10x_tim.c ****   /* Check the parameters */
1320:common/lib.stm32/STM32F10x_StdPeriph_Driver/src/stm32f10x_tim.c ****   assert_param(IS_TIM_123458_PERIPH(TIMx));
1321:common/lib.stm32/STM32F10x_StdPeriph_Driver/src/stm32f10x_tim.c ****   assert_param(IS_TIM_FORCED_ACTION(TIM_ForcedAction));
1322:common/lib.stm32/STM32F10x_StdPeriph_Driver/src/stm32f10x_tim.c ****   tmpccmr1 = TIMx->CCMR1;
 2981              		.loc 1 1322 12
 2982 0010 7B68     		ldr	r3, [r7, #4]
 2983 0012 1B8B     		ldrh	r3, [r3, #24]	@ movhi
 2984 0014 FB81     		strh	r3, [r7, #14]	@ movhi
1323:common/lib.stm32/STM32F10x_StdPeriph_Driver/src/stm32f10x_tim.c ****   /* Reset the OC2M Bits */
1324:common/lib.stm32/STM32F10x_StdPeriph_Driver/src/stm32f10x_tim.c ****   tmpccmr1 &= CCMR_OC24M_Mask;
 2985              		.loc 1 1324 12
 2986 0016 FB89     		ldrh	r3, [r7, #14]	@ movhi
 2987 0018 23F4E043 		bic	r3, r3, #28672
 2988 001c FB81     		strh	r3, [r7, #14]	@ movhi
1325:common/lib.stm32/STM32F10x_StdPeriph_Driver/src/stm32f10x_tim.c ****   /* Configure The Forced output Mode */
1326:common/lib.stm32/STM32F10x_StdPeriph_Driver/src/stm32f10x_tim.c ****   tmpccmr1 |= (uint16_t)(TIM_ForcedAction << 8);
 2989              		.loc 1 1326 15
 2990 001e 7B88     		ldrh	r3, [r7, #2]	@ movhi
 2991 0020 1B02     		lsls	r3, r3, #8
 2992 0022 9AB2     		uxth	r2, r3
 2993              		.loc 1 1326 12
 2994 0024 FB89     		ldrh	r3, [r7, #14]	@ movhi
 2995 0026 1343     		orrs	r3, r3, r2
 2996 0028 FB81     		strh	r3, [r7, #14]	@ movhi
1327:common/lib.stm32/STM32F10x_StdPeriph_Driver/src/stm32f10x_tim.c ****   /* Write to TIMx CCMR1 register */
1328:common/lib.stm32/STM32F10x_StdPeriph_Driver/src/stm32f10x_tim.c ****   TIMx->CCMR1 = tmpccmr1;
 2997              		.loc 1 1328 15
 2998 002a 7B68     		ldr	r3, [r7, #4]
 2999 002c FA89     		ldrh	r2, [r7, #14]	@ movhi
 3000 002e 1A83     		strh	r2, [r3, #24]	@ movhi
1329:common/lib.stm32/STM32F10x_StdPeriph_Driver/src/stm32f10x_tim.c **** }
 3001              		.loc 1 1329 1
 3002 0030 00BF     		nop
 3003 0032 1437     		adds	r7, r7, #20
 3004              	.LCFI176:
 3005              		.cfi_def_cfa_offset 4
 3006 0034 BD46     		mov	sp, r7
 3007              	.LCFI177:
 3008              		.cfi_def_cfa_register 13
 3009              		@ sp needed
 3010 0036 80BC     		pop	{r7}
 3011              	.LCFI178:
 3012              		.cfi_restore 7
 3013              		.cfi_def_cfa_offset 0
 3014 0038 7047     		bx	lr
 3015              		.cfi_endproc
 3016              	.LFE57:
 3018              		.section	.text.TIM_ForcedOC3Config,"ax",%progbits
 3019              		.align	1
 3020              		.global	TIM_ForcedOC3Config
 3021              		.syntax unified
 3022              		.thumb
 3023              		.thumb_func
 3025              	TIM_ForcedOC3Config:
 3026              	.LFB58:
1330:common/lib.stm32/STM32F10x_StdPeriph_Driver/src/stm32f10x_tim.c **** 
1331:common/lib.stm32/STM32F10x_StdPeriph_Driver/src/stm32f10x_tim.c **** /**
1332:common/lib.stm32/STM32F10x_StdPeriph_Driver/src/stm32f10x_tim.c ****   * @brief  Forces the TIMx output 3 waveform to active or inactive level.
1333:common/lib.stm32/STM32F10x_StdPeriph_Driver/src/stm32f10x_tim.c ****   * @param  TIMx: where x can be  1, 2, 3, 4, 5 or 8 to select the TIM peripheral.
1334:common/lib.stm32/STM32F10x_StdPeriph_Driver/src/stm32f10x_tim.c ****   * @param  TIM_ForcedAction: specifies the forced Action to be set to the output waveform.
1335:common/lib.stm32/STM32F10x_StdPeriph_Driver/src/stm32f10x_tim.c ****   *   This parameter can be one of the following values:
1336:common/lib.stm32/STM32F10x_StdPeriph_Driver/src/stm32f10x_tim.c ****   *     @arg TIM_ForcedAction_Active: Force active level on OC3REF
1337:common/lib.stm32/STM32F10x_StdPeriph_Driver/src/stm32f10x_tim.c ****   *     @arg TIM_ForcedAction_InActive: Force inactive level on OC3REF.
1338:common/lib.stm32/STM32F10x_StdPeriph_Driver/src/stm32f10x_tim.c ****   * @retval None
1339:common/lib.stm32/STM32F10x_StdPeriph_Driver/src/stm32f10x_tim.c ****   */
1340:common/lib.stm32/STM32F10x_StdPeriph_Driver/src/stm32f10x_tim.c **** void TIM_ForcedOC3Config(TIM_TypeDef* TIMx, uint16_t TIM_ForcedAction)
1341:common/lib.stm32/STM32F10x_StdPeriph_Driver/src/stm32f10x_tim.c **** {
 3027              		.loc 1 1341 1
 3028              		.cfi_startproc
 3029              		@ args = 0, pretend = 0, frame = 16
 3030              		@ frame_needed = 1, uses_anonymous_args = 0
 3031              		@ link register save eliminated.
 3032 0000 80B4     		push	{r7}
 3033              	.LCFI179:
 3034              		.cfi_def_cfa_offset 4
 3035              		.cfi_offset 7, -4
 3036 0002 85B0     		sub	sp, sp, #20
 3037              	.LCFI180:
 3038              		.cfi_def_cfa_offset 24
 3039 0004 00AF     		add	r7, sp, #0
 3040              	.LCFI181:
 3041              		.cfi_def_cfa_register 7
 3042 0006 7860     		str	r0, [r7, #4]
 3043 0008 0B46     		mov	r3, r1
 3044 000a 7B80     		strh	r3, [r7, #2]	@ movhi
1342:common/lib.stm32/STM32F10x_StdPeriph_Driver/src/stm32f10x_tim.c ****   uint16_t tmpccmr2 = 0;
 3045              		.loc 1 1342 12
 3046 000c 0023     		movs	r3, #0
 3047 000e FB81     		strh	r3, [r7, #14]	@ movhi
1343:common/lib.stm32/STM32F10x_StdPeriph_Driver/src/stm32f10x_tim.c ****   /* Check the parameters */
1344:common/lib.stm32/STM32F10x_StdPeriph_Driver/src/stm32f10x_tim.c ****   assert_param(IS_TIM_123458_PERIPH(TIMx));
1345:common/lib.stm32/STM32F10x_StdPeriph_Driver/src/stm32f10x_tim.c ****   assert_param(IS_TIM_FORCED_ACTION(TIM_ForcedAction));
1346:common/lib.stm32/STM32F10x_StdPeriph_Driver/src/stm32f10x_tim.c ****   tmpccmr2 = TIMx->CCMR2;
 3048              		.loc 1 1346 12
 3049 0010 7B68     		ldr	r3, [r7, #4]
 3050 0012 9B8B     		ldrh	r3, [r3, #28]	@ movhi
 3051 0014 FB81     		strh	r3, [r7, #14]	@ movhi
1347:common/lib.stm32/STM32F10x_StdPeriph_Driver/src/stm32f10x_tim.c ****   /* Reset the OC1M Bits */
1348:common/lib.stm32/STM32F10x_StdPeriph_Driver/src/stm32f10x_tim.c ****   tmpccmr2 &= CCMR_OC13M_Mask;
 3052              		.loc 1 1348 12
 3053 0016 FB89     		ldrh	r3, [r7, #14]	@ movhi
 3054 0018 23F07003 		bic	r3, r3, #112
 3055 001c FB81     		strh	r3, [r7, #14]	@ movhi
1349:common/lib.stm32/STM32F10x_StdPeriph_Driver/src/stm32f10x_tim.c ****   /* Configure The Forced output Mode */
1350:common/lib.stm32/STM32F10x_StdPeriph_Driver/src/stm32f10x_tim.c ****   tmpccmr2 |= TIM_ForcedAction;
 3056              		.loc 1 1350 12
 3057 001e FA89     		ldrh	r2, [r7, #14]	@ movhi
 3058 0020 7B88     		ldrh	r3, [r7, #2]	@ movhi
 3059 0022 1343     		orrs	r3, r3, r2
 3060 0024 FB81     		strh	r3, [r7, #14]	@ movhi
1351:common/lib.stm32/STM32F10x_StdPeriph_Driver/src/stm32f10x_tim.c ****   /* Write to TIMx CCMR2 register */
1352:common/lib.stm32/STM32F10x_StdPeriph_Driver/src/stm32f10x_tim.c ****   TIMx->CCMR2 = tmpccmr2;
 3061              		.loc 1 1352 15
 3062 0026 7B68     		ldr	r3, [r7, #4]
 3063 0028 FA89     		ldrh	r2, [r7, #14]	@ movhi
 3064 002a 9A83     		strh	r2, [r3, #28]	@ movhi
1353:common/lib.stm32/STM32F10x_StdPeriph_Driver/src/stm32f10x_tim.c **** }
 3065              		.loc 1 1353 1
 3066 002c 00BF     		nop
 3067 002e 1437     		adds	r7, r7, #20
 3068              	.LCFI182:
 3069              		.cfi_def_cfa_offset 4
 3070 0030 BD46     		mov	sp, r7
 3071              	.LCFI183:
 3072              		.cfi_def_cfa_register 13
 3073              		@ sp needed
 3074 0032 80BC     		pop	{r7}
 3075              	.LCFI184:
 3076              		.cfi_restore 7
 3077              		.cfi_def_cfa_offset 0
 3078 0034 7047     		bx	lr
 3079              		.cfi_endproc
 3080              	.LFE58:
 3082              		.section	.text.TIM_ForcedOC4Config,"ax",%progbits
 3083              		.align	1
 3084              		.global	TIM_ForcedOC4Config
 3085              		.syntax unified
 3086              		.thumb
 3087              		.thumb_func
 3089              	TIM_ForcedOC4Config:
 3090              	.LFB59:
1354:common/lib.stm32/STM32F10x_StdPeriph_Driver/src/stm32f10x_tim.c **** 
1355:common/lib.stm32/STM32F10x_StdPeriph_Driver/src/stm32f10x_tim.c **** /**
1356:common/lib.stm32/STM32F10x_StdPeriph_Driver/src/stm32f10x_tim.c ****   * @brief  Forces the TIMx output 4 waveform to active or inactive level.
1357:common/lib.stm32/STM32F10x_StdPeriph_Driver/src/stm32f10x_tim.c ****   * @param  TIMx: where x can be  1, 2, 3, 4, 5 or 8 to select the TIM peripheral.
1358:common/lib.stm32/STM32F10x_StdPeriph_Driver/src/stm32f10x_tim.c ****   * @param  TIM_ForcedAction: specifies the forced Action to be set to the output waveform.
1359:common/lib.stm32/STM32F10x_StdPeriph_Driver/src/stm32f10x_tim.c ****   *   This parameter can be one of the following values:
1360:common/lib.stm32/STM32F10x_StdPeriph_Driver/src/stm32f10x_tim.c ****   *     @arg TIM_ForcedAction_Active: Force active level on OC4REF
1361:common/lib.stm32/STM32F10x_StdPeriph_Driver/src/stm32f10x_tim.c ****   *     @arg TIM_ForcedAction_InActive: Force inactive level on OC4REF.
1362:common/lib.stm32/STM32F10x_StdPeriph_Driver/src/stm32f10x_tim.c ****   * @retval None
1363:common/lib.stm32/STM32F10x_StdPeriph_Driver/src/stm32f10x_tim.c ****   */
1364:common/lib.stm32/STM32F10x_StdPeriph_Driver/src/stm32f10x_tim.c **** void TIM_ForcedOC4Config(TIM_TypeDef* TIMx, uint16_t TIM_ForcedAction)
1365:common/lib.stm32/STM32F10x_StdPeriph_Driver/src/stm32f10x_tim.c **** {
 3091              		.loc 1 1365 1
 3092              		.cfi_startproc
 3093              		@ args = 0, pretend = 0, frame = 16
 3094              		@ frame_needed = 1, uses_anonymous_args = 0
 3095              		@ link register save eliminated.
 3096 0000 80B4     		push	{r7}
 3097              	.LCFI185:
 3098              		.cfi_def_cfa_offset 4
 3099              		.cfi_offset 7, -4
 3100 0002 85B0     		sub	sp, sp, #20
 3101              	.LCFI186:
 3102              		.cfi_def_cfa_offset 24
 3103 0004 00AF     		add	r7, sp, #0
 3104              	.LCFI187:
 3105              		.cfi_def_cfa_register 7
 3106 0006 7860     		str	r0, [r7, #4]
 3107 0008 0B46     		mov	r3, r1
 3108 000a 7B80     		strh	r3, [r7, #2]	@ movhi
1366:common/lib.stm32/STM32F10x_StdPeriph_Driver/src/stm32f10x_tim.c ****   uint16_t tmpccmr2 = 0;
 3109              		.loc 1 1366 12
 3110 000c 0023     		movs	r3, #0
 3111 000e FB81     		strh	r3, [r7, #14]	@ movhi
1367:common/lib.stm32/STM32F10x_StdPeriph_Driver/src/stm32f10x_tim.c ****   /* Check the parameters */
1368:common/lib.stm32/STM32F10x_StdPeriph_Driver/src/stm32f10x_tim.c ****   assert_param(IS_TIM_123458_PERIPH(TIMx));
1369:common/lib.stm32/STM32F10x_StdPeriph_Driver/src/stm32f10x_tim.c ****   assert_param(IS_TIM_FORCED_ACTION(TIM_ForcedAction));
1370:common/lib.stm32/STM32F10x_StdPeriph_Driver/src/stm32f10x_tim.c ****   tmpccmr2 = TIMx->CCMR2;
 3112              		.loc 1 1370 12
 3113 0010 7B68     		ldr	r3, [r7, #4]
 3114 0012 9B8B     		ldrh	r3, [r3, #28]	@ movhi
 3115 0014 FB81     		strh	r3, [r7, #14]	@ movhi
1371:common/lib.stm32/STM32F10x_StdPeriph_Driver/src/stm32f10x_tim.c ****   /* Reset the OC2M Bits */
1372:common/lib.stm32/STM32F10x_StdPeriph_Driver/src/stm32f10x_tim.c ****   tmpccmr2 &= CCMR_OC24M_Mask;
 3116              		.loc 1 1372 12
 3117 0016 FB89     		ldrh	r3, [r7, #14]	@ movhi
 3118 0018 23F4E043 		bic	r3, r3, #28672
 3119 001c FB81     		strh	r3, [r7, #14]	@ movhi
1373:common/lib.stm32/STM32F10x_StdPeriph_Driver/src/stm32f10x_tim.c ****   /* Configure The Forced output Mode */
1374:common/lib.stm32/STM32F10x_StdPeriph_Driver/src/stm32f10x_tim.c ****   tmpccmr2 |= (uint16_t)(TIM_ForcedAction << 8);
 3120              		.loc 1 1374 15
 3121 001e 7B88     		ldrh	r3, [r7, #2]	@ movhi
 3122 0020 1B02     		lsls	r3, r3, #8
 3123 0022 9AB2     		uxth	r2, r3
 3124              		.loc 1 1374 12
 3125 0024 FB89     		ldrh	r3, [r7, #14]	@ movhi
 3126 0026 1343     		orrs	r3, r3, r2
 3127 0028 FB81     		strh	r3, [r7, #14]	@ movhi
1375:common/lib.stm32/STM32F10x_StdPeriph_Driver/src/stm32f10x_tim.c ****   /* Write to TIMx CCMR2 register */
1376:common/lib.stm32/STM32F10x_StdPeriph_Driver/src/stm32f10x_tim.c ****   TIMx->CCMR2 = tmpccmr2;
 3128              		.loc 1 1376 15
 3129 002a 7B68     		ldr	r3, [r7, #4]
 3130 002c FA89     		ldrh	r2, [r7, #14]	@ movhi
 3131 002e 9A83     		strh	r2, [r3, #28]	@ movhi
1377:common/lib.stm32/STM32F10x_StdPeriph_Driver/src/stm32f10x_tim.c **** }
 3132              		.loc 1 1377 1
 3133 0030 00BF     		nop
 3134 0032 1437     		adds	r7, r7, #20
 3135              	.LCFI188:
 3136              		.cfi_def_cfa_offset 4
 3137 0034 BD46     		mov	sp, r7
 3138              	.LCFI189:
 3139              		.cfi_def_cfa_register 13
 3140              		@ sp needed
 3141 0036 80BC     		pop	{r7}
 3142              	.LCFI190:
 3143              		.cfi_restore 7
 3144              		.cfi_def_cfa_offset 0
 3145 0038 7047     		bx	lr
 3146              		.cfi_endproc
 3147              	.LFE59:
 3149              		.section	.text.TIM_ARRPreloadConfig,"ax",%progbits
 3150              		.align	1
 3151              		.global	TIM_ARRPreloadConfig
 3152              		.syntax unified
 3153              		.thumb
 3154              		.thumb_func
 3156              	TIM_ARRPreloadConfig:
 3157              	.LFB60:
1378:common/lib.stm32/STM32F10x_StdPeriph_Driver/src/stm32f10x_tim.c **** 
1379:common/lib.stm32/STM32F10x_StdPeriph_Driver/src/stm32f10x_tim.c **** /**
1380:common/lib.stm32/STM32F10x_StdPeriph_Driver/src/stm32f10x_tim.c ****   * @brief  Enables or disables TIMx peripheral Preload register on ARR.
1381:common/lib.stm32/STM32F10x_StdPeriph_Driver/src/stm32f10x_tim.c ****   * @param  TIMx: where x can be  1, 2, 3, 4, 5 or 8 to select the TIM peripheral.
1382:common/lib.stm32/STM32F10x_StdPeriph_Driver/src/stm32f10x_tim.c ****   * @param  NewState: new state of the TIMx peripheral Preload register
1383:common/lib.stm32/STM32F10x_StdPeriph_Driver/src/stm32f10x_tim.c ****   *   This parameter can be: ENABLE or DISABLE.
1384:common/lib.stm32/STM32F10x_StdPeriph_Driver/src/stm32f10x_tim.c ****   * @retval None
1385:common/lib.stm32/STM32F10x_StdPeriph_Driver/src/stm32f10x_tim.c ****   */
1386:common/lib.stm32/STM32F10x_StdPeriph_Driver/src/stm32f10x_tim.c **** void TIM_ARRPreloadConfig(TIM_TypeDef* TIMx, FunctionalState NewState)
1387:common/lib.stm32/STM32F10x_StdPeriph_Driver/src/stm32f10x_tim.c **** {
 3158              		.loc 1 1387 1
 3159              		.cfi_startproc
 3160              		@ args = 0, pretend = 0, frame = 8
 3161              		@ frame_needed = 1, uses_anonymous_args = 0
 3162              		@ link register save eliminated.
 3163 0000 80B4     		push	{r7}
 3164              	.LCFI191:
 3165              		.cfi_def_cfa_offset 4
 3166              		.cfi_offset 7, -4
 3167 0002 83B0     		sub	sp, sp, #12
 3168              	.LCFI192:
 3169              		.cfi_def_cfa_offset 16
 3170 0004 00AF     		add	r7, sp, #0
 3171              	.LCFI193:
 3172              		.cfi_def_cfa_register 7
 3173 0006 7860     		str	r0, [r7, #4]
 3174 0008 0B46     		mov	r3, r1
 3175 000a FB70     		strb	r3, [r7, #3]
1388:common/lib.stm32/STM32F10x_StdPeriph_Driver/src/stm32f10x_tim.c ****   /* Check the parameters */
1389:common/lib.stm32/STM32F10x_StdPeriph_Driver/src/stm32f10x_tim.c ****   assert_param(IS_TIM_ALL_PERIPH(TIMx));
1390:common/lib.stm32/STM32F10x_StdPeriph_Driver/src/stm32f10x_tim.c ****   assert_param(IS_FUNCTIONAL_STATE(NewState));
1391:common/lib.stm32/STM32F10x_StdPeriph_Driver/src/stm32f10x_tim.c ****   if (NewState != DISABLE)
 3176              		.loc 1 1391 6
 3177 000c FB78     		ldrb	r3, [r7, #3]	@ zero_extendqisi2
 3178 000e 002B     		cmp	r3, #0
 3179 0010 08D0     		beq	.L104
1392:common/lib.stm32/STM32F10x_StdPeriph_Driver/src/stm32f10x_tim.c ****   {
1393:common/lib.stm32/STM32F10x_StdPeriph_Driver/src/stm32f10x_tim.c ****     /* Set the ARR Preload Bit */
1394:common/lib.stm32/STM32F10x_StdPeriph_Driver/src/stm32f10x_tim.c ****     TIMx->CR1 |= CR1_ARPE_Set;
 3180              		.loc 1 1394 15
 3181 0012 7B68     		ldr	r3, [r7, #4]
 3182 0014 1B88     		ldrh	r3, [r3]	@ movhi
 3183 0016 9BB2     		uxth	r3, r3
 3184 0018 43F08003 		orr	r3, r3, #128
 3185 001c 9AB2     		uxth	r2, r3
 3186 001e 7B68     		ldr	r3, [r7, #4]
 3187 0020 1A80     		strh	r2, [r3]	@ movhi
1395:common/lib.stm32/STM32F10x_StdPeriph_Driver/src/stm32f10x_tim.c ****   }
1396:common/lib.stm32/STM32F10x_StdPeriph_Driver/src/stm32f10x_tim.c ****   else
1397:common/lib.stm32/STM32F10x_StdPeriph_Driver/src/stm32f10x_tim.c ****   {
1398:common/lib.stm32/STM32F10x_StdPeriph_Driver/src/stm32f10x_tim.c ****     /* Reset the ARR Preload Bit */
1399:common/lib.stm32/STM32F10x_StdPeriph_Driver/src/stm32f10x_tim.c ****     TIMx->CR1 &= CR1_ARPE_Reset;
1400:common/lib.stm32/STM32F10x_StdPeriph_Driver/src/stm32f10x_tim.c ****   }
1401:common/lib.stm32/STM32F10x_StdPeriph_Driver/src/stm32f10x_tim.c **** }
 3188              		.loc 1 1401 1
 3189 0022 08E0     		b	.L106
 3190              	.L104:
1399:common/lib.stm32/STM32F10x_StdPeriph_Driver/src/stm32f10x_tim.c ****   }
 3191              		.loc 1 1399 15
 3192 0024 7B68     		ldr	r3, [r7, #4]
 3193 0026 1B88     		ldrh	r3, [r3]	@ movhi
 3194 0028 9AB2     		uxth	r2, r3
 3195 002a 40F27F33 		movw	r3, #895
 3196 002e 1340     		ands	r3, r3, r2
 3197 0030 9AB2     		uxth	r2, r3
 3198 0032 7B68     		ldr	r3, [r7, #4]
 3199 0034 1A80     		strh	r2, [r3]	@ movhi
 3200              	.L106:
 3201              		.loc 1 1401 1
 3202 0036 00BF     		nop
 3203 0038 0C37     		adds	r7, r7, #12
 3204              	.LCFI194:
 3205              		.cfi_def_cfa_offset 4
 3206 003a BD46     		mov	sp, r7
 3207              	.LCFI195:
 3208              		.cfi_def_cfa_register 13
 3209              		@ sp needed
 3210 003c 80BC     		pop	{r7}
 3211              	.LCFI196:
 3212              		.cfi_restore 7
 3213              		.cfi_def_cfa_offset 0
 3214 003e 7047     		bx	lr
 3215              		.cfi_endproc
 3216              	.LFE60:
 3218              		.section	.text.TIM_SelectCOM,"ax",%progbits
 3219              		.align	1
 3220              		.global	TIM_SelectCOM
 3221              		.syntax unified
 3222              		.thumb
 3223              		.thumb_func
 3225              	TIM_SelectCOM:
 3226              	.LFB61:
1402:common/lib.stm32/STM32F10x_StdPeriph_Driver/src/stm32f10x_tim.c **** 
1403:common/lib.stm32/STM32F10x_StdPeriph_Driver/src/stm32f10x_tim.c **** /**
1404:common/lib.stm32/STM32F10x_StdPeriph_Driver/src/stm32f10x_tim.c ****   * @brief  Selects the TIM peripheral Commutation event.
1405:common/lib.stm32/STM32F10x_StdPeriph_Driver/src/stm32f10x_tim.c ****   * @param  TIMx: where x can be  1 or 8 to select the TIMx peripheral
1406:common/lib.stm32/STM32F10x_StdPeriph_Driver/src/stm32f10x_tim.c ****   * @param  NewState: new state of the Commutation event.
1407:common/lib.stm32/STM32F10x_StdPeriph_Driver/src/stm32f10x_tim.c ****   *   This parameter can be: ENABLE or DISABLE.
1408:common/lib.stm32/STM32F10x_StdPeriph_Driver/src/stm32f10x_tim.c ****   * @retval None
1409:common/lib.stm32/STM32F10x_StdPeriph_Driver/src/stm32f10x_tim.c ****   */
1410:common/lib.stm32/STM32F10x_StdPeriph_Driver/src/stm32f10x_tim.c **** void TIM_SelectCOM(TIM_TypeDef* TIMx, FunctionalState NewState)
1411:common/lib.stm32/STM32F10x_StdPeriph_Driver/src/stm32f10x_tim.c **** {
 3227              		.loc 1 1411 1
 3228              		.cfi_startproc
 3229              		@ args = 0, pretend = 0, frame = 8
 3230              		@ frame_needed = 1, uses_anonymous_args = 0
 3231              		@ link register save eliminated.
 3232 0000 80B4     		push	{r7}
 3233              	.LCFI197:
 3234              		.cfi_def_cfa_offset 4
 3235              		.cfi_offset 7, -4
 3236 0002 83B0     		sub	sp, sp, #12
 3237              	.LCFI198:
 3238              		.cfi_def_cfa_offset 16
 3239 0004 00AF     		add	r7, sp, #0
 3240              	.LCFI199:
 3241              		.cfi_def_cfa_register 7
 3242 0006 7860     		str	r0, [r7, #4]
 3243 0008 0B46     		mov	r3, r1
 3244 000a FB70     		strb	r3, [r7, #3]
1412:common/lib.stm32/STM32F10x_StdPeriph_Driver/src/stm32f10x_tim.c ****   /* Check the parameters */
1413:common/lib.stm32/STM32F10x_StdPeriph_Driver/src/stm32f10x_tim.c ****   assert_param(IS_TIM_18_PERIPH(TIMx));
1414:common/lib.stm32/STM32F10x_StdPeriph_Driver/src/stm32f10x_tim.c ****   assert_param(IS_FUNCTIONAL_STATE(NewState));
1415:common/lib.stm32/STM32F10x_StdPeriph_Driver/src/stm32f10x_tim.c ****   if (NewState != DISABLE)
 3245              		.loc 1 1415 6
 3246 000c FB78     		ldrb	r3, [r7, #3]	@ zero_extendqisi2
 3247 000e 002B     		cmp	r3, #0
 3248 0010 08D0     		beq	.L108
1416:common/lib.stm32/STM32F10x_StdPeriph_Driver/src/stm32f10x_tim.c ****   {
1417:common/lib.stm32/STM32F10x_StdPeriph_Driver/src/stm32f10x_tim.c ****     /* Set the COM Bit */
1418:common/lib.stm32/STM32F10x_StdPeriph_Driver/src/stm32f10x_tim.c ****     TIMx->CR2 |= CR2_CCUS_Set;
 3249              		.loc 1 1418 15
 3250 0012 7B68     		ldr	r3, [r7, #4]
 3251 0014 9B88     		ldrh	r3, [r3, #4]	@ movhi
 3252 0016 9BB2     		uxth	r3, r3
 3253 0018 43F00403 		orr	r3, r3, #4
 3254 001c 9AB2     		uxth	r2, r3
 3255 001e 7B68     		ldr	r3, [r7, #4]
 3256 0020 9A80     		strh	r2, [r3, #4]	@ movhi
1419:common/lib.stm32/STM32F10x_StdPeriph_Driver/src/stm32f10x_tim.c ****   }
1420:common/lib.stm32/STM32F10x_StdPeriph_Driver/src/stm32f10x_tim.c ****   else
1421:common/lib.stm32/STM32F10x_StdPeriph_Driver/src/stm32f10x_tim.c ****   {
1422:common/lib.stm32/STM32F10x_StdPeriph_Driver/src/stm32f10x_tim.c ****     /* Reset the COM Bit */
1423:common/lib.stm32/STM32F10x_StdPeriph_Driver/src/stm32f10x_tim.c ****     TIMx->CR2 &= CR2_CCUS_Reset;
1424:common/lib.stm32/STM32F10x_StdPeriph_Driver/src/stm32f10x_tim.c ****   }
1425:common/lib.stm32/STM32F10x_StdPeriph_Driver/src/stm32f10x_tim.c **** }
 3257              		.loc 1 1425 1
 3258 0022 07E0     		b	.L110
 3259              	.L108:
1423:common/lib.stm32/STM32F10x_StdPeriph_Driver/src/stm32f10x_tim.c ****   }
 3260              		.loc 1 1423 15
 3261 0024 7B68     		ldr	r3, [r7, #4]
 3262 0026 9B88     		ldrh	r3, [r3, #4]	@ movhi
 3263 0028 9BB2     		uxth	r3, r3
 3264 002a 23F00403 		bic	r3, r3, #4
 3265 002e 9AB2     		uxth	r2, r3
 3266 0030 7B68     		ldr	r3, [r7, #4]
 3267 0032 9A80     		strh	r2, [r3, #4]	@ movhi
 3268              	.L110:
 3269              		.loc 1 1425 1
 3270 0034 00BF     		nop
 3271 0036 0C37     		adds	r7, r7, #12
 3272              	.LCFI200:
 3273              		.cfi_def_cfa_offset 4
 3274 0038 BD46     		mov	sp, r7
 3275              	.LCFI201:
 3276              		.cfi_def_cfa_register 13
 3277              		@ sp needed
 3278 003a 80BC     		pop	{r7}
 3279              	.LCFI202:
 3280              		.cfi_restore 7
 3281              		.cfi_def_cfa_offset 0
 3282 003c 7047     		bx	lr
 3283              		.cfi_endproc
 3284              	.LFE61:
 3286              		.section	.text.TIM_SelectCCDMA,"ax",%progbits
 3287              		.align	1
 3288              		.global	TIM_SelectCCDMA
 3289              		.syntax unified
 3290              		.thumb
 3291              		.thumb_func
 3293              	TIM_SelectCCDMA:
 3294              	.LFB62:
1426:common/lib.stm32/STM32F10x_StdPeriph_Driver/src/stm32f10x_tim.c **** 
1427:common/lib.stm32/STM32F10x_StdPeriph_Driver/src/stm32f10x_tim.c **** /**
1428:common/lib.stm32/STM32F10x_StdPeriph_Driver/src/stm32f10x_tim.c ****   * @brief  Selects the TIMx peripheral Capture Compare DMA source.
1429:common/lib.stm32/STM32F10x_StdPeriph_Driver/src/stm32f10x_tim.c ****   * @param  TIMx: where x can be  1, 2, 3, 4, 5 or 8 to select the TIM peripheral.
1430:common/lib.stm32/STM32F10x_StdPeriph_Driver/src/stm32f10x_tim.c ****   * @param  NewState: new state of the Capture Compare DMA source
1431:common/lib.stm32/STM32F10x_StdPeriph_Driver/src/stm32f10x_tim.c ****   *   This parameter can be: ENABLE or DISABLE.
1432:common/lib.stm32/STM32F10x_StdPeriph_Driver/src/stm32f10x_tim.c ****   * @retval None
1433:common/lib.stm32/STM32F10x_StdPeriph_Driver/src/stm32f10x_tim.c ****   */
1434:common/lib.stm32/STM32F10x_StdPeriph_Driver/src/stm32f10x_tim.c **** void TIM_SelectCCDMA(TIM_TypeDef* TIMx, FunctionalState NewState)
1435:common/lib.stm32/STM32F10x_StdPeriph_Driver/src/stm32f10x_tim.c **** {
 3295              		.loc 1 1435 1
 3296              		.cfi_startproc
 3297              		@ args = 0, pretend = 0, frame = 8
 3298              		@ frame_needed = 1, uses_anonymous_args = 0
 3299              		@ link register save eliminated.
 3300 0000 80B4     		push	{r7}
 3301              	.LCFI203:
 3302              		.cfi_def_cfa_offset 4
 3303              		.cfi_offset 7, -4
 3304 0002 83B0     		sub	sp, sp, #12
 3305              	.LCFI204:
 3306              		.cfi_def_cfa_offset 16
 3307 0004 00AF     		add	r7, sp, #0
 3308              	.LCFI205:
 3309              		.cfi_def_cfa_register 7
 3310 0006 7860     		str	r0, [r7, #4]
 3311 0008 0B46     		mov	r3, r1
 3312 000a FB70     		strb	r3, [r7, #3]
1436:common/lib.stm32/STM32F10x_StdPeriph_Driver/src/stm32f10x_tim.c ****   /* Check the parameters */
1437:common/lib.stm32/STM32F10x_StdPeriph_Driver/src/stm32f10x_tim.c ****   assert_param(IS_TIM_123458_PERIPH(TIMx));
1438:common/lib.stm32/STM32F10x_StdPeriph_Driver/src/stm32f10x_tim.c ****   assert_param(IS_FUNCTIONAL_STATE(NewState));
1439:common/lib.stm32/STM32F10x_StdPeriph_Driver/src/stm32f10x_tim.c ****   if (NewState != DISABLE)
 3313              		.loc 1 1439 6
 3314 000c FB78     		ldrb	r3, [r7, #3]	@ zero_extendqisi2
 3315 000e 002B     		cmp	r3, #0
 3316 0010 08D0     		beq	.L112
1440:common/lib.stm32/STM32F10x_StdPeriph_Driver/src/stm32f10x_tim.c ****   {
1441:common/lib.stm32/STM32F10x_StdPeriph_Driver/src/stm32f10x_tim.c ****     /* Set the CCDS Bit */
1442:common/lib.stm32/STM32F10x_StdPeriph_Driver/src/stm32f10x_tim.c ****     TIMx->CR2 |= CR2_CCDS_Set;
 3317              		.loc 1 1442 15
 3318 0012 7B68     		ldr	r3, [r7, #4]
 3319 0014 9B88     		ldrh	r3, [r3, #4]	@ movhi
 3320 0016 9BB2     		uxth	r3, r3
 3321 0018 43F00803 		orr	r3, r3, #8
 3322 001c 9AB2     		uxth	r2, r3
 3323 001e 7B68     		ldr	r3, [r7, #4]
 3324 0020 9A80     		strh	r2, [r3, #4]	@ movhi
1443:common/lib.stm32/STM32F10x_StdPeriph_Driver/src/stm32f10x_tim.c ****   }
1444:common/lib.stm32/STM32F10x_StdPeriph_Driver/src/stm32f10x_tim.c ****   else
1445:common/lib.stm32/STM32F10x_StdPeriph_Driver/src/stm32f10x_tim.c ****   {
1446:common/lib.stm32/STM32F10x_StdPeriph_Driver/src/stm32f10x_tim.c ****     /* Reset the CCDS Bit */
1447:common/lib.stm32/STM32F10x_StdPeriph_Driver/src/stm32f10x_tim.c ****     TIMx->CR2 &= CR2_CCDS_Reset;
1448:common/lib.stm32/STM32F10x_StdPeriph_Driver/src/stm32f10x_tim.c ****   }
1449:common/lib.stm32/STM32F10x_StdPeriph_Driver/src/stm32f10x_tim.c **** }
 3325              		.loc 1 1449 1
 3326 0022 07E0     		b	.L114
 3327              	.L112:
1447:common/lib.stm32/STM32F10x_StdPeriph_Driver/src/stm32f10x_tim.c ****   }
 3328              		.loc 1 1447 15
 3329 0024 7B68     		ldr	r3, [r7, #4]
 3330 0026 9B88     		ldrh	r3, [r3, #4]	@ movhi
 3331 0028 9BB2     		uxth	r3, r3
 3332 002a 23F00803 		bic	r3, r3, #8
 3333 002e 9AB2     		uxth	r2, r3
 3334 0030 7B68     		ldr	r3, [r7, #4]
 3335 0032 9A80     		strh	r2, [r3, #4]	@ movhi
 3336              	.L114:
 3337              		.loc 1 1449 1
 3338 0034 00BF     		nop
 3339 0036 0C37     		adds	r7, r7, #12
 3340              	.LCFI206:
 3341              		.cfi_def_cfa_offset 4
 3342 0038 BD46     		mov	sp, r7
 3343              	.LCFI207:
 3344              		.cfi_def_cfa_register 13
 3345              		@ sp needed
 3346 003a 80BC     		pop	{r7}
 3347              	.LCFI208:
 3348              		.cfi_restore 7
 3349              		.cfi_def_cfa_offset 0
 3350 003c 7047     		bx	lr
 3351              		.cfi_endproc
 3352              	.LFE62:
 3354              		.section	.text.TIM_CCPreloadControl,"ax",%progbits
 3355              		.align	1
 3356              		.global	TIM_CCPreloadControl
 3357              		.syntax unified
 3358              		.thumb
 3359              		.thumb_func
 3361              	TIM_CCPreloadControl:
 3362              	.LFB63:
1450:common/lib.stm32/STM32F10x_StdPeriph_Driver/src/stm32f10x_tim.c **** 
1451:common/lib.stm32/STM32F10x_StdPeriph_Driver/src/stm32f10x_tim.c **** /**
1452:common/lib.stm32/STM32F10x_StdPeriph_Driver/src/stm32f10x_tim.c ****   * @brief  Sets or Resets the TIM peripheral Capture Compare Preload Control bit.
1453:common/lib.stm32/STM32F10x_StdPeriph_Driver/src/stm32f10x_tim.c ****   * @param  TIMx: where x can be  1 or 8 to select the TIMx peripheral
1454:common/lib.stm32/STM32F10x_StdPeriph_Driver/src/stm32f10x_tim.c ****   * @param  NewState: new state of the Capture Compare Preload Control bit
1455:common/lib.stm32/STM32F10x_StdPeriph_Driver/src/stm32f10x_tim.c ****   *   This parameter can be: ENABLE or DISABLE.
1456:common/lib.stm32/STM32F10x_StdPeriph_Driver/src/stm32f10x_tim.c ****   * @retval None
1457:common/lib.stm32/STM32F10x_StdPeriph_Driver/src/stm32f10x_tim.c ****   */
1458:common/lib.stm32/STM32F10x_StdPeriph_Driver/src/stm32f10x_tim.c **** void TIM_CCPreloadControl(TIM_TypeDef* TIMx, FunctionalState NewState)
1459:common/lib.stm32/STM32F10x_StdPeriph_Driver/src/stm32f10x_tim.c **** { 
 3363              		.loc 1 1459 1
 3364              		.cfi_startproc
 3365              		@ args = 0, pretend = 0, frame = 8
 3366              		@ frame_needed = 1, uses_anonymous_args = 0
 3367              		@ link register save eliminated.
 3368 0000 80B4     		push	{r7}
 3369              	.LCFI209:
 3370              		.cfi_def_cfa_offset 4
 3371              		.cfi_offset 7, -4
 3372 0002 83B0     		sub	sp, sp, #12
 3373              	.LCFI210:
 3374              		.cfi_def_cfa_offset 16
 3375 0004 00AF     		add	r7, sp, #0
 3376              	.LCFI211:
 3377              		.cfi_def_cfa_register 7
 3378 0006 7860     		str	r0, [r7, #4]
 3379 0008 0B46     		mov	r3, r1
 3380 000a FB70     		strb	r3, [r7, #3]
1460:common/lib.stm32/STM32F10x_StdPeriph_Driver/src/stm32f10x_tim.c ****   /* Check the parameters */
1461:common/lib.stm32/STM32F10x_StdPeriph_Driver/src/stm32f10x_tim.c ****   assert_param(IS_TIM_18_PERIPH(TIMx));
1462:common/lib.stm32/STM32F10x_StdPeriph_Driver/src/stm32f10x_tim.c ****   assert_param(IS_FUNCTIONAL_STATE(NewState));
1463:common/lib.stm32/STM32F10x_StdPeriph_Driver/src/stm32f10x_tim.c ****   if (NewState != DISABLE)
 3381              		.loc 1 1463 6
 3382 000c FB78     		ldrb	r3, [r7, #3]	@ zero_extendqisi2
 3383 000e 002B     		cmp	r3, #0
 3384 0010 08D0     		beq	.L116
1464:common/lib.stm32/STM32F10x_StdPeriph_Driver/src/stm32f10x_tim.c ****   {
1465:common/lib.stm32/STM32F10x_StdPeriph_Driver/src/stm32f10x_tim.c ****     /* Set the CCPC Bit */
1466:common/lib.stm32/STM32F10x_StdPeriph_Driver/src/stm32f10x_tim.c ****     TIMx->CR2 |= CR2_CCPC_Set;
 3385              		.loc 1 1466 15
 3386 0012 7B68     		ldr	r3, [r7, #4]
 3387 0014 9B88     		ldrh	r3, [r3, #4]	@ movhi
 3388 0016 9BB2     		uxth	r3, r3
 3389 0018 43F00103 		orr	r3, r3, #1
 3390 001c 9AB2     		uxth	r2, r3
 3391 001e 7B68     		ldr	r3, [r7, #4]
 3392 0020 9A80     		strh	r2, [r3, #4]	@ movhi
1467:common/lib.stm32/STM32F10x_StdPeriph_Driver/src/stm32f10x_tim.c ****   }
1468:common/lib.stm32/STM32F10x_StdPeriph_Driver/src/stm32f10x_tim.c ****   else
1469:common/lib.stm32/STM32F10x_StdPeriph_Driver/src/stm32f10x_tim.c ****   {
1470:common/lib.stm32/STM32F10x_StdPeriph_Driver/src/stm32f10x_tim.c ****     /* Reset the CCPC Bit */
1471:common/lib.stm32/STM32F10x_StdPeriph_Driver/src/stm32f10x_tim.c ****     TIMx->CR2 &= CR2_CCPC_Reset;
1472:common/lib.stm32/STM32F10x_StdPeriph_Driver/src/stm32f10x_tim.c ****   }
1473:common/lib.stm32/STM32F10x_StdPeriph_Driver/src/stm32f10x_tim.c **** }
 3393              		.loc 1 1473 1
 3394 0022 07E0     		b	.L118
 3395              	.L116:
1471:common/lib.stm32/STM32F10x_StdPeriph_Driver/src/stm32f10x_tim.c ****   }
 3396              		.loc 1 1471 15
 3397 0024 7B68     		ldr	r3, [r7, #4]
 3398 0026 9B88     		ldrh	r3, [r3, #4]	@ movhi
 3399 0028 9BB2     		uxth	r3, r3
 3400 002a 23F00103 		bic	r3, r3, #1
 3401 002e 9AB2     		uxth	r2, r3
 3402 0030 7B68     		ldr	r3, [r7, #4]
 3403 0032 9A80     		strh	r2, [r3, #4]	@ movhi
 3404              	.L118:
 3405              		.loc 1 1473 1
 3406 0034 00BF     		nop
 3407 0036 0C37     		adds	r7, r7, #12
 3408              	.LCFI212:
 3409              		.cfi_def_cfa_offset 4
 3410 0038 BD46     		mov	sp, r7
 3411              	.LCFI213:
 3412              		.cfi_def_cfa_register 13
 3413              		@ sp needed
 3414 003a 80BC     		pop	{r7}
 3415              	.LCFI214:
 3416              		.cfi_restore 7
 3417              		.cfi_def_cfa_offset 0
 3418 003c 7047     		bx	lr
 3419              		.cfi_endproc
 3420              	.LFE63:
 3422              		.section	.text.TIM_OC1PreloadConfig,"ax",%progbits
 3423              		.align	1
 3424              		.global	TIM_OC1PreloadConfig
 3425              		.syntax unified
 3426              		.thumb
 3427              		.thumb_func
 3429              	TIM_OC1PreloadConfig:
 3430              	.LFB64:
1474:common/lib.stm32/STM32F10x_StdPeriph_Driver/src/stm32f10x_tim.c **** 
1475:common/lib.stm32/STM32F10x_StdPeriph_Driver/src/stm32f10x_tim.c **** /**
1476:common/lib.stm32/STM32F10x_StdPeriph_Driver/src/stm32f10x_tim.c ****   * @brief  Enables or disables the TIMx peripheral Preload register on CCR1.
1477:common/lib.stm32/STM32F10x_StdPeriph_Driver/src/stm32f10x_tim.c ****   * @param  TIMx: where x can be  1, 2, 3, 4, 5 or 8 to select the TIM peripheral.
1478:common/lib.stm32/STM32F10x_StdPeriph_Driver/src/stm32f10x_tim.c ****   * @param  TIM_OCPreload: new state of the TIMx peripheral Preload register
1479:common/lib.stm32/STM32F10x_StdPeriph_Driver/src/stm32f10x_tim.c ****   *   This parameter can be one of the following values:
1480:common/lib.stm32/STM32F10x_StdPeriph_Driver/src/stm32f10x_tim.c ****   *     @arg TIM_OCPreload_Enable
1481:common/lib.stm32/STM32F10x_StdPeriph_Driver/src/stm32f10x_tim.c ****   *     @arg TIM_OCPreload_Disable
1482:common/lib.stm32/STM32F10x_StdPeriph_Driver/src/stm32f10x_tim.c ****   * @retval None
1483:common/lib.stm32/STM32F10x_StdPeriph_Driver/src/stm32f10x_tim.c ****   */
1484:common/lib.stm32/STM32F10x_StdPeriph_Driver/src/stm32f10x_tim.c **** void TIM_OC1PreloadConfig(TIM_TypeDef* TIMx, uint16_t TIM_OCPreload)
1485:common/lib.stm32/STM32F10x_StdPeriph_Driver/src/stm32f10x_tim.c **** {
 3431              		.loc 1 1485 1
 3432              		.cfi_startproc
 3433              		@ args = 0, pretend = 0, frame = 16
 3434              		@ frame_needed = 1, uses_anonymous_args = 0
 3435              		@ link register save eliminated.
 3436 0000 80B4     		push	{r7}
 3437              	.LCFI215:
 3438              		.cfi_def_cfa_offset 4
 3439              		.cfi_offset 7, -4
 3440 0002 85B0     		sub	sp, sp, #20
 3441              	.LCFI216:
 3442              		.cfi_def_cfa_offset 24
 3443 0004 00AF     		add	r7, sp, #0
 3444              	.LCFI217:
 3445              		.cfi_def_cfa_register 7
 3446 0006 7860     		str	r0, [r7, #4]
 3447 0008 0B46     		mov	r3, r1
 3448 000a 7B80     		strh	r3, [r7, #2]	@ movhi
1486:common/lib.stm32/STM32F10x_StdPeriph_Driver/src/stm32f10x_tim.c ****   uint16_t tmpccmr1 = 0;
 3449              		.loc 1 1486 12
 3450 000c 0023     		movs	r3, #0
 3451 000e FB81     		strh	r3, [r7, #14]	@ movhi
1487:common/lib.stm32/STM32F10x_StdPeriph_Driver/src/stm32f10x_tim.c ****   /* Check the parameters */
1488:common/lib.stm32/STM32F10x_StdPeriph_Driver/src/stm32f10x_tim.c ****   assert_param(IS_TIM_123458_PERIPH(TIMx));
1489:common/lib.stm32/STM32F10x_StdPeriph_Driver/src/stm32f10x_tim.c ****   assert_param(IS_TIM_OCPRELOAD_STATE(TIM_OCPreload));
1490:common/lib.stm32/STM32F10x_StdPeriph_Driver/src/stm32f10x_tim.c ****   tmpccmr1 = TIMx->CCMR1;
 3452              		.loc 1 1490 12
 3453 0010 7B68     		ldr	r3, [r7, #4]
 3454 0012 1B8B     		ldrh	r3, [r3, #24]	@ movhi
 3455 0014 FB81     		strh	r3, [r7, #14]	@ movhi
1491:common/lib.stm32/STM32F10x_StdPeriph_Driver/src/stm32f10x_tim.c ****   /* Reset the OC1PE Bit */
1492:common/lib.stm32/STM32F10x_StdPeriph_Driver/src/stm32f10x_tim.c ****   tmpccmr1 &= CCMR_OC13PE_Reset;
 3456              		.loc 1 1492 12
 3457 0016 FB89     		ldrh	r3, [r7, #14]	@ movhi
 3458 0018 23F00803 		bic	r3, r3, #8
 3459 001c FB81     		strh	r3, [r7, #14]	@ movhi
1493:common/lib.stm32/STM32F10x_StdPeriph_Driver/src/stm32f10x_tim.c ****   /* Enable or Disable the Output Compare Preload feature */
1494:common/lib.stm32/STM32F10x_StdPeriph_Driver/src/stm32f10x_tim.c ****   tmpccmr1 |= TIM_OCPreload;
 3460              		.loc 1 1494 12
 3461 001e FA89     		ldrh	r2, [r7, #14]	@ movhi
 3462 0020 7B88     		ldrh	r3, [r7, #2]	@ movhi
 3463 0022 1343     		orrs	r3, r3, r2
 3464 0024 FB81     		strh	r3, [r7, #14]	@ movhi
1495:common/lib.stm32/STM32F10x_StdPeriph_Driver/src/stm32f10x_tim.c ****   /* Write to TIMx CCMR1 register */
1496:common/lib.stm32/STM32F10x_StdPeriph_Driver/src/stm32f10x_tim.c ****   TIMx->CCMR1 = tmpccmr1;
 3465              		.loc 1 1496 15
 3466 0026 7B68     		ldr	r3, [r7, #4]
 3467 0028 FA89     		ldrh	r2, [r7, #14]	@ movhi
 3468 002a 1A83     		strh	r2, [r3, #24]	@ movhi
1497:common/lib.stm32/STM32F10x_StdPeriph_Driver/src/stm32f10x_tim.c **** }
 3469              		.loc 1 1497 1
 3470 002c 00BF     		nop
 3471 002e 1437     		adds	r7, r7, #20
 3472              	.LCFI218:
 3473              		.cfi_def_cfa_offset 4
 3474 0030 BD46     		mov	sp, r7
 3475              	.LCFI219:
 3476              		.cfi_def_cfa_register 13
 3477              		@ sp needed
 3478 0032 80BC     		pop	{r7}
 3479              	.LCFI220:
 3480              		.cfi_restore 7
 3481              		.cfi_def_cfa_offset 0
 3482 0034 7047     		bx	lr
 3483              		.cfi_endproc
 3484              	.LFE64:
 3486              		.section	.text.TIM_OC2PreloadConfig,"ax",%progbits
 3487              		.align	1
 3488              		.global	TIM_OC2PreloadConfig
 3489              		.syntax unified
 3490              		.thumb
 3491              		.thumb_func
 3493              	TIM_OC2PreloadConfig:
 3494              	.LFB65:
1498:common/lib.stm32/STM32F10x_StdPeriph_Driver/src/stm32f10x_tim.c **** 
1499:common/lib.stm32/STM32F10x_StdPeriph_Driver/src/stm32f10x_tim.c **** /**
1500:common/lib.stm32/STM32F10x_StdPeriph_Driver/src/stm32f10x_tim.c ****   * @brief  Enables or disables the TIMx peripheral Preload register on CCR2.
1501:common/lib.stm32/STM32F10x_StdPeriph_Driver/src/stm32f10x_tim.c ****   * @param  TIMx: where x can be  1, 2, 3, 4, 5 or 8 to select the TIM peripheral.
1502:common/lib.stm32/STM32F10x_StdPeriph_Driver/src/stm32f10x_tim.c ****   * @param  TIM_OCPreload: new state of the TIMx peripheral Preload register
1503:common/lib.stm32/STM32F10x_StdPeriph_Driver/src/stm32f10x_tim.c ****   *   This parameter can be one of the following values:
1504:common/lib.stm32/STM32F10x_StdPeriph_Driver/src/stm32f10x_tim.c ****   *     @arg TIM_OCPreload_Enable
1505:common/lib.stm32/STM32F10x_StdPeriph_Driver/src/stm32f10x_tim.c ****   *     @arg TIM_OCPreload_Disable
1506:common/lib.stm32/STM32F10x_StdPeriph_Driver/src/stm32f10x_tim.c ****   * @retval None
1507:common/lib.stm32/STM32F10x_StdPeriph_Driver/src/stm32f10x_tim.c ****   */
1508:common/lib.stm32/STM32F10x_StdPeriph_Driver/src/stm32f10x_tim.c **** void TIM_OC2PreloadConfig(TIM_TypeDef* TIMx, uint16_t TIM_OCPreload)
1509:common/lib.stm32/STM32F10x_StdPeriph_Driver/src/stm32f10x_tim.c **** {
 3495              		.loc 1 1509 1
 3496              		.cfi_startproc
 3497              		@ args = 0, pretend = 0, frame = 16
 3498              		@ frame_needed = 1, uses_anonymous_args = 0
 3499              		@ link register save eliminated.
 3500 0000 80B4     		push	{r7}
 3501              	.LCFI221:
 3502              		.cfi_def_cfa_offset 4
 3503              		.cfi_offset 7, -4
 3504 0002 85B0     		sub	sp, sp, #20
 3505              	.LCFI222:
 3506              		.cfi_def_cfa_offset 24
 3507 0004 00AF     		add	r7, sp, #0
 3508              	.LCFI223:
 3509              		.cfi_def_cfa_register 7
 3510 0006 7860     		str	r0, [r7, #4]
 3511 0008 0B46     		mov	r3, r1
 3512 000a 7B80     		strh	r3, [r7, #2]	@ movhi
1510:common/lib.stm32/STM32F10x_StdPeriph_Driver/src/stm32f10x_tim.c ****   uint16_t tmpccmr1 = 0;
 3513              		.loc 1 1510 12
 3514 000c 0023     		movs	r3, #0
 3515 000e FB81     		strh	r3, [r7, #14]	@ movhi
1511:common/lib.stm32/STM32F10x_StdPeriph_Driver/src/stm32f10x_tim.c ****   /* Check the parameters */
1512:common/lib.stm32/STM32F10x_StdPeriph_Driver/src/stm32f10x_tim.c ****   assert_param(IS_TIM_123458_PERIPH(TIMx));
1513:common/lib.stm32/STM32F10x_StdPeriph_Driver/src/stm32f10x_tim.c ****   assert_param(IS_TIM_OCPRELOAD_STATE(TIM_OCPreload));
1514:common/lib.stm32/STM32F10x_StdPeriph_Driver/src/stm32f10x_tim.c ****   tmpccmr1 = TIMx->CCMR1;
 3516              		.loc 1 1514 12
 3517 0010 7B68     		ldr	r3, [r7, #4]
 3518 0012 1B8B     		ldrh	r3, [r3, #24]	@ movhi
 3519 0014 FB81     		strh	r3, [r7, #14]	@ movhi
1515:common/lib.stm32/STM32F10x_StdPeriph_Driver/src/stm32f10x_tim.c ****   /* Reset the OC2PE Bit */
1516:common/lib.stm32/STM32F10x_StdPeriph_Driver/src/stm32f10x_tim.c ****   tmpccmr1 &= CCMR_OC24PE_Reset;
 3520              		.loc 1 1516 12
 3521 0016 FB89     		ldrh	r3, [r7, #14]	@ movhi
 3522 0018 23F40063 		bic	r3, r3, #2048
 3523 001c FB81     		strh	r3, [r7, #14]	@ movhi
1517:common/lib.stm32/STM32F10x_StdPeriph_Driver/src/stm32f10x_tim.c ****   /* Enable or Disable the Output Compare Preload feature */
1518:common/lib.stm32/STM32F10x_StdPeriph_Driver/src/stm32f10x_tim.c ****   tmpccmr1 |= (uint16_t)(TIM_OCPreload << 8);
 3524              		.loc 1 1518 15
 3525 001e 7B88     		ldrh	r3, [r7, #2]	@ movhi
 3526 0020 1B02     		lsls	r3, r3, #8
 3527 0022 9AB2     		uxth	r2, r3
 3528              		.loc 1 1518 12
 3529 0024 FB89     		ldrh	r3, [r7, #14]	@ movhi
 3530 0026 1343     		orrs	r3, r3, r2
 3531 0028 FB81     		strh	r3, [r7, #14]	@ movhi
1519:common/lib.stm32/STM32F10x_StdPeriph_Driver/src/stm32f10x_tim.c ****   /* Write to TIMx CCMR1 register */
1520:common/lib.stm32/STM32F10x_StdPeriph_Driver/src/stm32f10x_tim.c ****   TIMx->CCMR1 = tmpccmr1;
 3532              		.loc 1 1520 15
 3533 002a 7B68     		ldr	r3, [r7, #4]
 3534 002c FA89     		ldrh	r2, [r7, #14]	@ movhi
 3535 002e 1A83     		strh	r2, [r3, #24]	@ movhi
1521:common/lib.stm32/STM32F10x_StdPeriph_Driver/src/stm32f10x_tim.c **** }
 3536              		.loc 1 1521 1
 3537 0030 00BF     		nop
 3538 0032 1437     		adds	r7, r7, #20
 3539              	.LCFI224:
 3540              		.cfi_def_cfa_offset 4
 3541 0034 BD46     		mov	sp, r7
 3542              	.LCFI225:
 3543              		.cfi_def_cfa_register 13
 3544              		@ sp needed
 3545 0036 80BC     		pop	{r7}
 3546              	.LCFI226:
 3547              		.cfi_restore 7
 3548              		.cfi_def_cfa_offset 0
 3549 0038 7047     		bx	lr
 3550              		.cfi_endproc
 3551              	.LFE65:
 3553              		.section	.text.TIM_OC3PreloadConfig,"ax",%progbits
 3554              		.align	1
 3555              		.global	TIM_OC3PreloadConfig
 3556              		.syntax unified
 3557              		.thumb
 3558              		.thumb_func
 3560              	TIM_OC3PreloadConfig:
 3561              	.LFB66:
1522:common/lib.stm32/STM32F10x_StdPeriph_Driver/src/stm32f10x_tim.c **** 
1523:common/lib.stm32/STM32F10x_StdPeriph_Driver/src/stm32f10x_tim.c **** /**
1524:common/lib.stm32/STM32F10x_StdPeriph_Driver/src/stm32f10x_tim.c ****   * @brief  Enables or disables the TIMx peripheral Preload register on CCR3.
1525:common/lib.stm32/STM32F10x_StdPeriph_Driver/src/stm32f10x_tim.c ****   * @param  TIMx: where x can be  1, 2, 3, 4, 5 or 8 to select the TIM peripheral.
1526:common/lib.stm32/STM32F10x_StdPeriph_Driver/src/stm32f10x_tim.c ****   * @param  TIM_OCPreload: new state of the TIMx peripheral Preload register
1527:common/lib.stm32/STM32F10x_StdPeriph_Driver/src/stm32f10x_tim.c ****   *   This parameter can be one of the following values:
1528:common/lib.stm32/STM32F10x_StdPeriph_Driver/src/stm32f10x_tim.c ****   *     @arg TIM_OCPreload_Enable
1529:common/lib.stm32/STM32F10x_StdPeriph_Driver/src/stm32f10x_tim.c ****   *     @arg TIM_OCPreload_Disable
1530:common/lib.stm32/STM32F10x_StdPeriph_Driver/src/stm32f10x_tim.c ****   * @retval None
1531:common/lib.stm32/STM32F10x_StdPeriph_Driver/src/stm32f10x_tim.c ****   */
1532:common/lib.stm32/STM32F10x_StdPeriph_Driver/src/stm32f10x_tim.c **** void TIM_OC3PreloadConfig(TIM_TypeDef* TIMx, uint16_t TIM_OCPreload)
1533:common/lib.stm32/STM32F10x_StdPeriph_Driver/src/stm32f10x_tim.c **** {
 3562              		.loc 1 1533 1
 3563              		.cfi_startproc
 3564              		@ args = 0, pretend = 0, frame = 16
 3565              		@ frame_needed = 1, uses_anonymous_args = 0
 3566              		@ link register save eliminated.
 3567 0000 80B4     		push	{r7}
 3568              	.LCFI227:
 3569              		.cfi_def_cfa_offset 4
 3570              		.cfi_offset 7, -4
 3571 0002 85B0     		sub	sp, sp, #20
 3572              	.LCFI228:
 3573              		.cfi_def_cfa_offset 24
 3574 0004 00AF     		add	r7, sp, #0
 3575              	.LCFI229:
 3576              		.cfi_def_cfa_register 7
 3577 0006 7860     		str	r0, [r7, #4]
 3578 0008 0B46     		mov	r3, r1
 3579 000a 7B80     		strh	r3, [r7, #2]	@ movhi
1534:common/lib.stm32/STM32F10x_StdPeriph_Driver/src/stm32f10x_tim.c ****   uint16_t tmpccmr2 = 0;
 3580              		.loc 1 1534 12
 3581 000c 0023     		movs	r3, #0
 3582 000e FB81     		strh	r3, [r7, #14]	@ movhi
1535:common/lib.stm32/STM32F10x_StdPeriph_Driver/src/stm32f10x_tim.c ****   /* Check the parameters */
1536:common/lib.stm32/STM32F10x_StdPeriph_Driver/src/stm32f10x_tim.c ****   assert_param(IS_TIM_123458_PERIPH(TIMx));
1537:common/lib.stm32/STM32F10x_StdPeriph_Driver/src/stm32f10x_tim.c ****   assert_param(IS_TIM_OCPRELOAD_STATE(TIM_OCPreload));
1538:common/lib.stm32/STM32F10x_StdPeriph_Driver/src/stm32f10x_tim.c ****   tmpccmr2 = TIMx->CCMR2;
 3583              		.loc 1 1538 12
 3584 0010 7B68     		ldr	r3, [r7, #4]
 3585 0012 9B8B     		ldrh	r3, [r3, #28]	@ movhi
 3586 0014 FB81     		strh	r3, [r7, #14]	@ movhi
1539:common/lib.stm32/STM32F10x_StdPeriph_Driver/src/stm32f10x_tim.c ****   /* Reset the OC3PE Bit */
1540:common/lib.stm32/STM32F10x_StdPeriph_Driver/src/stm32f10x_tim.c ****   tmpccmr2 &= CCMR_OC13PE_Reset;
 3587              		.loc 1 1540 12
 3588 0016 FB89     		ldrh	r3, [r7, #14]	@ movhi
 3589 0018 23F00803 		bic	r3, r3, #8
 3590 001c FB81     		strh	r3, [r7, #14]	@ movhi
1541:common/lib.stm32/STM32F10x_StdPeriph_Driver/src/stm32f10x_tim.c ****   /* Enable or Disable the Output Compare Preload feature */
1542:common/lib.stm32/STM32F10x_StdPeriph_Driver/src/stm32f10x_tim.c ****   tmpccmr2 |= TIM_OCPreload;
 3591              		.loc 1 1542 12
 3592 001e FA89     		ldrh	r2, [r7, #14]	@ movhi
 3593 0020 7B88     		ldrh	r3, [r7, #2]	@ movhi
 3594 0022 1343     		orrs	r3, r3, r2
 3595 0024 FB81     		strh	r3, [r7, #14]	@ movhi
1543:common/lib.stm32/STM32F10x_StdPeriph_Driver/src/stm32f10x_tim.c ****   /* Write to TIMx CCMR2 register */
1544:common/lib.stm32/STM32F10x_StdPeriph_Driver/src/stm32f10x_tim.c ****   TIMx->CCMR2 = tmpccmr2;
 3596              		.loc 1 1544 15
 3597 0026 7B68     		ldr	r3, [r7, #4]
 3598 0028 FA89     		ldrh	r2, [r7, #14]	@ movhi
 3599 002a 9A83     		strh	r2, [r3, #28]	@ movhi
1545:common/lib.stm32/STM32F10x_StdPeriph_Driver/src/stm32f10x_tim.c **** }
 3600              		.loc 1 1545 1
 3601 002c 00BF     		nop
 3602 002e 1437     		adds	r7, r7, #20
 3603              	.LCFI230:
 3604              		.cfi_def_cfa_offset 4
 3605 0030 BD46     		mov	sp, r7
 3606              	.LCFI231:
 3607              		.cfi_def_cfa_register 13
 3608              		@ sp needed
 3609 0032 80BC     		pop	{r7}
 3610              	.LCFI232:
 3611              		.cfi_restore 7
 3612              		.cfi_def_cfa_offset 0
 3613 0034 7047     		bx	lr
 3614              		.cfi_endproc
 3615              	.LFE66:
 3617              		.section	.text.TIM_OC4PreloadConfig,"ax",%progbits
 3618              		.align	1
 3619              		.global	TIM_OC4PreloadConfig
 3620              		.syntax unified
 3621              		.thumb
 3622              		.thumb_func
 3624              	TIM_OC4PreloadConfig:
 3625              	.LFB67:
1546:common/lib.stm32/STM32F10x_StdPeriph_Driver/src/stm32f10x_tim.c **** 
1547:common/lib.stm32/STM32F10x_StdPeriph_Driver/src/stm32f10x_tim.c **** /**
1548:common/lib.stm32/STM32F10x_StdPeriph_Driver/src/stm32f10x_tim.c ****   * @brief  Enables or disables the TIMx peripheral Preload register on CCR4.
1549:common/lib.stm32/STM32F10x_StdPeriph_Driver/src/stm32f10x_tim.c ****   * @param  TIMx: where x can be  1, 2, 3, 4, 5 or 8 to select the TIM peripheral.
1550:common/lib.stm32/STM32F10x_StdPeriph_Driver/src/stm32f10x_tim.c ****   * @param  TIM_OCPreload: new state of the TIMx peripheral Preload register
1551:common/lib.stm32/STM32F10x_StdPeriph_Driver/src/stm32f10x_tim.c ****   *   This parameter can be one of the following values:
1552:common/lib.stm32/STM32F10x_StdPeriph_Driver/src/stm32f10x_tim.c ****   *     @arg TIM_OCPreload_Enable
1553:common/lib.stm32/STM32F10x_StdPeriph_Driver/src/stm32f10x_tim.c ****   *     @arg TIM_OCPreload_Disable
1554:common/lib.stm32/STM32F10x_StdPeriph_Driver/src/stm32f10x_tim.c ****   * @retval None
1555:common/lib.stm32/STM32F10x_StdPeriph_Driver/src/stm32f10x_tim.c ****   */
1556:common/lib.stm32/STM32F10x_StdPeriph_Driver/src/stm32f10x_tim.c **** void TIM_OC4PreloadConfig(TIM_TypeDef* TIMx, uint16_t TIM_OCPreload)
1557:common/lib.stm32/STM32F10x_StdPeriph_Driver/src/stm32f10x_tim.c **** {
 3626              		.loc 1 1557 1
 3627              		.cfi_startproc
 3628              		@ args = 0, pretend = 0, frame = 16
 3629              		@ frame_needed = 1, uses_anonymous_args = 0
 3630              		@ link register save eliminated.
 3631 0000 80B4     		push	{r7}
 3632              	.LCFI233:
 3633              		.cfi_def_cfa_offset 4
 3634              		.cfi_offset 7, -4
 3635 0002 85B0     		sub	sp, sp, #20
 3636              	.LCFI234:
 3637              		.cfi_def_cfa_offset 24
 3638 0004 00AF     		add	r7, sp, #0
 3639              	.LCFI235:
 3640              		.cfi_def_cfa_register 7
 3641 0006 7860     		str	r0, [r7, #4]
 3642 0008 0B46     		mov	r3, r1
 3643 000a 7B80     		strh	r3, [r7, #2]	@ movhi
1558:common/lib.stm32/STM32F10x_StdPeriph_Driver/src/stm32f10x_tim.c ****   uint16_t tmpccmr2 = 0;
 3644              		.loc 1 1558 12
 3645 000c 0023     		movs	r3, #0
 3646 000e FB81     		strh	r3, [r7, #14]	@ movhi
1559:common/lib.stm32/STM32F10x_StdPeriph_Driver/src/stm32f10x_tim.c ****   /* Check the parameters */
1560:common/lib.stm32/STM32F10x_StdPeriph_Driver/src/stm32f10x_tim.c ****   assert_param(IS_TIM_123458_PERIPH(TIMx));
1561:common/lib.stm32/STM32F10x_StdPeriph_Driver/src/stm32f10x_tim.c ****   assert_param(IS_TIM_OCPRELOAD_STATE(TIM_OCPreload));
1562:common/lib.stm32/STM32F10x_StdPeriph_Driver/src/stm32f10x_tim.c ****   tmpccmr2 = TIMx->CCMR2;
 3647              		.loc 1 1562 12
 3648 0010 7B68     		ldr	r3, [r7, #4]
 3649 0012 9B8B     		ldrh	r3, [r3, #28]	@ movhi
 3650 0014 FB81     		strh	r3, [r7, #14]	@ movhi
1563:common/lib.stm32/STM32F10x_StdPeriph_Driver/src/stm32f10x_tim.c ****   /* Reset the OC4PE Bit */
1564:common/lib.stm32/STM32F10x_StdPeriph_Driver/src/stm32f10x_tim.c ****   tmpccmr2 &= CCMR_OC24PE_Reset;
 3651              		.loc 1 1564 12
 3652 0016 FB89     		ldrh	r3, [r7, #14]	@ movhi
 3653 0018 23F40063 		bic	r3, r3, #2048
 3654 001c FB81     		strh	r3, [r7, #14]	@ movhi
1565:common/lib.stm32/STM32F10x_StdPeriph_Driver/src/stm32f10x_tim.c ****   /* Enable or Disable the Output Compare Preload feature */
1566:common/lib.stm32/STM32F10x_StdPeriph_Driver/src/stm32f10x_tim.c ****   tmpccmr2 |= (uint16_t)(TIM_OCPreload << 8);
 3655              		.loc 1 1566 15
 3656 001e 7B88     		ldrh	r3, [r7, #2]	@ movhi
 3657 0020 1B02     		lsls	r3, r3, #8
 3658 0022 9AB2     		uxth	r2, r3
 3659              		.loc 1 1566 12
 3660 0024 FB89     		ldrh	r3, [r7, #14]	@ movhi
 3661 0026 1343     		orrs	r3, r3, r2
 3662 0028 FB81     		strh	r3, [r7, #14]	@ movhi
1567:common/lib.stm32/STM32F10x_StdPeriph_Driver/src/stm32f10x_tim.c ****   /* Write to TIMx CCMR2 register */
1568:common/lib.stm32/STM32F10x_StdPeriph_Driver/src/stm32f10x_tim.c ****   TIMx->CCMR2 = tmpccmr2;
 3663              		.loc 1 1568 15
 3664 002a 7B68     		ldr	r3, [r7, #4]
 3665 002c FA89     		ldrh	r2, [r7, #14]	@ movhi
 3666 002e 9A83     		strh	r2, [r3, #28]	@ movhi
1569:common/lib.stm32/STM32F10x_StdPeriph_Driver/src/stm32f10x_tim.c **** }
 3667              		.loc 1 1569 1
 3668 0030 00BF     		nop
 3669 0032 1437     		adds	r7, r7, #20
 3670              	.LCFI236:
 3671              		.cfi_def_cfa_offset 4
 3672 0034 BD46     		mov	sp, r7
 3673              	.LCFI237:
 3674              		.cfi_def_cfa_register 13
 3675              		@ sp needed
 3676 0036 80BC     		pop	{r7}
 3677              	.LCFI238:
 3678              		.cfi_restore 7
 3679              		.cfi_def_cfa_offset 0
 3680 0038 7047     		bx	lr
 3681              		.cfi_endproc
 3682              	.LFE67:
 3684              		.section	.text.TIM_OC1FastConfig,"ax",%progbits
 3685              		.align	1
 3686              		.global	TIM_OC1FastConfig
 3687              		.syntax unified
 3688              		.thumb
 3689              		.thumb_func
 3691              	TIM_OC1FastConfig:
 3692              	.LFB68:
1570:common/lib.stm32/STM32F10x_StdPeriph_Driver/src/stm32f10x_tim.c **** 
1571:common/lib.stm32/STM32F10x_StdPeriph_Driver/src/stm32f10x_tim.c **** /**
1572:common/lib.stm32/STM32F10x_StdPeriph_Driver/src/stm32f10x_tim.c ****   * @brief  Configures the TIMx Output Compare 1 Fast feature.
1573:common/lib.stm32/STM32F10x_StdPeriph_Driver/src/stm32f10x_tim.c ****   * @param  TIMx: where x can be  1, 2, 3, 4, 5 or 8 to select the TIM peripheral.
1574:common/lib.stm32/STM32F10x_StdPeriph_Driver/src/stm32f10x_tim.c ****   * @param  TIM_OCFast: new state of the Output Compare Fast Enable Bit.
1575:common/lib.stm32/STM32F10x_StdPeriph_Driver/src/stm32f10x_tim.c ****   *   This parameter can be one of the following values:
1576:common/lib.stm32/STM32F10x_StdPeriph_Driver/src/stm32f10x_tim.c ****   *     @arg TIM_OCFast_Enable: TIM output compare fast enable
1577:common/lib.stm32/STM32F10x_StdPeriph_Driver/src/stm32f10x_tim.c ****   *     @arg TIM_OCFast_Disable: TIM output compare fast disable
1578:common/lib.stm32/STM32F10x_StdPeriph_Driver/src/stm32f10x_tim.c ****   * @retval None
1579:common/lib.stm32/STM32F10x_StdPeriph_Driver/src/stm32f10x_tim.c ****   */
1580:common/lib.stm32/STM32F10x_StdPeriph_Driver/src/stm32f10x_tim.c **** void TIM_OC1FastConfig(TIM_TypeDef* TIMx, uint16_t TIM_OCFast)
1581:common/lib.stm32/STM32F10x_StdPeriph_Driver/src/stm32f10x_tim.c **** {
 3693              		.loc 1 1581 1
 3694              		.cfi_startproc
 3695              		@ args = 0, pretend = 0, frame = 16
 3696              		@ frame_needed = 1, uses_anonymous_args = 0
 3697              		@ link register save eliminated.
 3698 0000 80B4     		push	{r7}
 3699              	.LCFI239:
 3700              		.cfi_def_cfa_offset 4
 3701              		.cfi_offset 7, -4
 3702 0002 85B0     		sub	sp, sp, #20
 3703              	.LCFI240:
 3704              		.cfi_def_cfa_offset 24
 3705 0004 00AF     		add	r7, sp, #0
 3706              	.LCFI241:
 3707              		.cfi_def_cfa_register 7
 3708 0006 7860     		str	r0, [r7, #4]
 3709 0008 0B46     		mov	r3, r1
 3710 000a 7B80     		strh	r3, [r7, #2]	@ movhi
1582:common/lib.stm32/STM32F10x_StdPeriph_Driver/src/stm32f10x_tim.c ****   uint16_t tmpccmr1 = 0;
 3711              		.loc 1 1582 12
 3712 000c 0023     		movs	r3, #0
 3713 000e FB81     		strh	r3, [r7, #14]	@ movhi
1583:common/lib.stm32/STM32F10x_StdPeriph_Driver/src/stm32f10x_tim.c ****   /* Check the parameters */
1584:common/lib.stm32/STM32F10x_StdPeriph_Driver/src/stm32f10x_tim.c ****   assert_param(IS_TIM_123458_PERIPH(TIMx));
1585:common/lib.stm32/STM32F10x_StdPeriph_Driver/src/stm32f10x_tim.c ****   assert_param(IS_TIM_OCFAST_STATE(TIM_OCFast));
1586:common/lib.stm32/STM32F10x_StdPeriph_Driver/src/stm32f10x_tim.c ****   /* Get the TIMx CCMR1 register value */
1587:common/lib.stm32/STM32F10x_StdPeriph_Driver/src/stm32f10x_tim.c ****   tmpccmr1 = TIMx->CCMR1;
 3714              		.loc 1 1587 12
 3715 0010 7B68     		ldr	r3, [r7, #4]
 3716 0012 1B8B     		ldrh	r3, [r3, #24]	@ movhi
 3717 0014 FB81     		strh	r3, [r7, #14]	@ movhi
1588:common/lib.stm32/STM32F10x_StdPeriph_Driver/src/stm32f10x_tim.c ****   /* Reset the OC1FE Bit */
1589:common/lib.stm32/STM32F10x_StdPeriph_Driver/src/stm32f10x_tim.c ****   tmpccmr1 &= CCMR_OC13FE_Reset;
 3718              		.loc 1 1589 12
 3719 0016 FB89     		ldrh	r3, [r7, #14]	@ movhi
 3720 0018 23F00403 		bic	r3, r3, #4
 3721 001c FB81     		strh	r3, [r7, #14]	@ movhi
1590:common/lib.stm32/STM32F10x_StdPeriph_Driver/src/stm32f10x_tim.c ****   /* Enable or Disable the Output Compare Fast Bit */
1591:common/lib.stm32/STM32F10x_StdPeriph_Driver/src/stm32f10x_tim.c ****   tmpccmr1 |= TIM_OCFast;
 3722              		.loc 1 1591 12
 3723 001e FA89     		ldrh	r2, [r7, #14]	@ movhi
 3724 0020 7B88     		ldrh	r3, [r7, #2]	@ movhi
 3725 0022 1343     		orrs	r3, r3, r2
 3726 0024 FB81     		strh	r3, [r7, #14]	@ movhi
1592:common/lib.stm32/STM32F10x_StdPeriph_Driver/src/stm32f10x_tim.c ****   /* Write to TIMx CCMR1 */
1593:common/lib.stm32/STM32F10x_StdPeriph_Driver/src/stm32f10x_tim.c ****   TIMx->CCMR1 = tmpccmr1;
 3727              		.loc 1 1593 15
 3728 0026 7B68     		ldr	r3, [r7, #4]
 3729 0028 FA89     		ldrh	r2, [r7, #14]	@ movhi
 3730 002a 1A83     		strh	r2, [r3, #24]	@ movhi
1594:common/lib.stm32/STM32F10x_StdPeriph_Driver/src/stm32f10x_tim.c **** }
 3731              		.loc 1 1594 1
 3732 002c 00BF     		nop
 3733 002e 1437     		adds	r7, r7, #20
 3734              	.LCFI242:
 3735              		.cfi_def_cfa_offset 4
 3736 0030 BD46     		mov	sp, r7
 3737              	.LCFI243:
 3738              		.cfi_def_cfa_register 13
 3739              		@ sp needed
 3740 0032 80BC     		pop	{r7}
 3741              	.LCFI244:
 3742              		.cfi_restore 7
 3743              		.cfi_def_cfa_offset 0
 3744 0034 7047     		bx	lr
 3745              		.cfi_endproc
 3746              	.LFE68:
 3748              		.section	.text.TIM_OC2FastConfig,"ax",%progbits
 3749              		.align	1
 3750              		.global	TIM_OC2FastConfig
 3751              		.syntax unified
 3752              		.thumb
 3753              		.thumb_func
 3755              	TIM_OC2FastConfig:
 3756              	.LFB69:
1595:common/lib.stm32/STM32F10x_StdPeriph_Driver/src/stm32f10x_tim.c **** 
1596:common/lib.stm32/STM32F10x_StdPeriph_Driver/src/stm32f10x_tim.c **** /**
1597:common/lib.stm32/STM32F10x_StdPeriph_Driver/src/stm32f10x_tim.c ****   * @brief  Configures the TIMx Output Compare 2 Fast feature.
1598:common/lib.stm32/STM32F10x_StdPeriph_Driver/src/stm32f10x_tim.c ****   * @param  TIMx: where x can be  1, 2, 3, 4, 5 or 8 to select the TIM peripheral.
1599:common/lib.stm32/STM32F10x_StdPeriph_Driver/src/stm32f10x_tim.c ****   * @param  TIM_OCFast: new state of the Output Compare Fast Enable Bit.
1600:common/lib.stm32/STM32F10x_StdPeriph_Driver/src/stm32f10x_tim.c ****   *   This parameter can be one of the following values:
1601:common/lib.stm32/STM32F10x_StdPeriph_Driver/src/stm32f10x_tim.c ****   *     @arg TIM_OCFast_Enable: TIM output compare fast enable
1602:common/lib.stm32/STM32F10x_StdPeriph_Driver/src/stm32f10x_tim.c ****   *     @arg TIM_OCFast_Disable: TIM output compare fast disable
1603:common/lib.stm32/STM32F10x_StdPeriph_Driver/src/stm32f10x_tim.c ****   * @retval None
1604:common/lib.stm32/STM32F10x_StdPeriph_Driver/src/stm32f10x_tim.c ****   */
1605:common/lib.stm32/STM32F10x_StdPeriph_Driver/src/stm32f10x_tim.c **** void TIM_OC2FastConfig(TIM_TypeDef* TIMx, uint16_t TIM_OCFast)
1606:common/lib.stm32/STM32F10x_StdPeriph_Driver/src/stm32f10x_tim.c **** {
 3757              		.loc 1 1606 1
 3758              		.cfi_startproc
 3759              		@ args = 0, pretend = 0, frame = 16
 3760              		@ frame_needed = 1, uses_anonymous_args = 0
 3761              		@ link register save eliminated.
 3762 0000 80B4     		push	{r7}
 3763              	.LCFI245:
 3764              		.cfi_def_cfa_offset 4
 3765              		.cfi_offset 7, -4
 3766 0002 85B0     		sub	sp, sp, #20
 3767              	.LCFI246:
 3768              		.cfi_def_cfa_offset 24
 3769 0004 00AF     		add	r7, sp, #0
 3770              	.LCFI247:
 3771              		.cfi_def_cfa_register 7
 3772 0006 7860     		str	r0, [r7, #4]
 3773 0008 0B46     		mov	r3, r1
 3774 000a 7B80     		strh	r3, [r7, #2]	@ movhi
1607:common/lib.stm32/STM32F10x_StdPeriph_Driver/src/stm32f10x_tim.c ****   uint16_t tmpccmr1 = 0;
 3775              		.loc 1 1607 12
 3776 000c 0023     		movs	r3, #0
 3777 000e FB81     		strh	r3, [r7, #14]	@ movhi
1608:common/lib.stm32/STM32F10x_StdPeriph_Driver/src/stm32f10x_tim.c ****   /* Check the parameters */
1609:common/lib.stm32/STM32F10x_StdPeriph_Driver/src/stm32f10x_tim.c ****   assert_param(IS_TIM_123458_PERIPH(TIMx));
1610:common/lib.stm32/STM32F10x_StdPeriph_Driver/src/stm32f10x_tim.c ****   assert_param(IS_TIM_OCFAST_STATE(TIM_OCFast));
1611:common/lib.stm32/STM32F10x_StdPeriph_Driver/src/stm32f10x_tim.c ****   /* Get the TIMx CCMR1 register value */
1612:common/lib.stm32/STM32F10x_StdPeriph_Driver/src/stm32f10x_tim.c ****   tmpccmr1 = TIMx->CCMR1;
 3778              		.loc 1 1612 12
 3779 0010 7B68     		ldr	r3, [r7, #4]
 3780 0012 1B8B     		ldrh	r3, [r3, #24]	@ movhi
 3781 0014 FB81     		strh	r3, [r7, #14]	@ movhi
1613:common/lib.stm32/STM32F10x_StdPeriph_Driver/src/stm32f10x_tim.c ****   /* Reset the OC2FE Bit */
1614:common/lib.stm32/STM32F10x_StdPeriph_Driver/src/stm32f10x_tim.c ****   tmpccmr1 &= CCMR_OC24FE_Reset;
 3782              		.loc 1 1614 12
 3783 0016 FB89     		ldrh	r3, [r7, #14]	@ movhi
 3784 0018 23F48063 		bic	r3, r3, #1024
 3785 001c FB81     		strh	r3, [r7, #14]	@ movhi
1615:common/lib.stm32/STM32F10x_StdPeriph_Driver/src/stm32f10x_tim.c ****   /* Enable or Disable the Output Compare Fast Bit */
1616:common/lib.stm32/STM32F10x_StdPeriph_Driver/src/stm32f10x_tim.c ****   tmpccmr1 |= (uint16_t)(TIM_OCFast << 8);
 3786              		.loc 1 1616 15
 3787 001e 7B88     		ldrh	r3, [r7, #2]	@ movhi
 3788 0020 1B02     		lsls	r3, r3, #8
 3789 0022 9AB2     		uxth	r2, r3
 3790              		.loc 1 1616 12
 3791 0024 FB89     		ldrh	r3, [r7, #14]	@ movhi
 3792 0026 1343     		orrs	r3, r3, r2
 3793 0028 FB81     		strh	r3, [r7, #14]	@ movhi
1617:common/lib.stm32/STM32F10x_StdPeriph_Driver/src/stm32f10x_tim.c ****   /* Write to TIMx CCMR1 */
1618:common/lib.stm32/STM32F10x_StdPeriph_Driver/src/stm32f10x_tim.c ****   TIMx->CCMR1 = tmpccmr1;
 3794              		.loc 1 1618 15
 3795 002a 7B68     		ldr	r3, [r7, #4]
 3796 002c FA89     		ldrh	r2, [r7, #14]	@ movhi
 3797 002e 1A83     		strh	r2, [r3, #24]	@ movhi
1619:common/lib.stm32/STM32F10x_StdPeriph_Driver/src/stm32f10x_tim.c **** }
 3798              		.loc 1 1619 1
 3799 0030 00BF     		nop
 3800 0032 1437     		adds	r7, r7, #20
 3801              	.LCFI248:
 3802              		.cfi_def_cfa_offset 4
 3803 0034 BD46     		mov	sp, r7
 3804              	.LCFI249:
 3805              		.cfi_def_cfa_register 13
 3806              		@ sp needed
 3807 0036 80BC     		pop	{r7}
 3808              	.LCFI250:
 3809              		.cfi_restore 7
 3810              		.cfi_def_cfa_offset 0
 3811 0038 7047     		bx	lr
 3812              		.cfi_endproc
 3813              	.LFE69:
 3815              		.section	.text.TIM_OC3FastConfig,"ax",%progbits
 3816              		.align	1
 3817              		.global	TIM_OC3FastConfig
 3818              		.syntax unified
 3819              		.thumb
 3820              		.thumb_func
 3822              	TIM_OC3FastConfig:
 3823              	.LFB70:
1620:common/lib.stm32/STM32F10x_StdPeriph_Driver/src/stm32f10x_tim.c **** 
1621:common/lib.stm32/STM32F10x_StdPeriph_Driver/src/stm32f10x_tim.c **** /**
1622:common/lib.stm32/STM32F10x_StdPeriph_Driver/src/stm32f10x_tim.c ****   * @brief  Configures the TIMx Output Compare 3 Fast feature.
1623:common/lib.stm32/STM32F10x_StdPeriph_Driver/src/stm32f10x_tim.c ****   * @param  TIMx: where x can be  1, 2, 3, 4, 5 or 8 to select the TIM peripheral.
1624:common/lib.stm32/STM32F10x_StdPeriph_Driver/src/stm32f10x_tim.c ****   * @param  TIM_OCFast: new state of the Output Compare Fast Enable Bit.
1625:common/lib.stm32/STM32F10x_StdPeriph_Driver/src/stm32f10x_tim.c ****   *   This parameter can be one of the following values:
1626:common/lib.stm32/STM32F10x_StdPeriph_Driver/src/stm32f10x_tim.c ****   *     @arg TIM_OCFast_Enable: TIM output compare fast enable
1627:common/lib.stm32/STM32F10x_StdPeriph_Driver/src/stm32f10x_tim.c ****   *     @arg TIM_OCFast_Disable: TIM output compare fast disable
1628:common/lib.stm32/STM32F10x_StdPeriph_Driver/src/stm32f10x_tim.c ****   * @retval None
1629:common/lib.stm32/STM32F10x_StdPeriph_Driver/src/stm32f10x_tim.c ****   */
1630:common/lib.stm32/STM32F10x_StdPeriph_Driver/src/stm32f10x_tim.c **** void TIM_OC3FastConfig(TIM_TypeDef* TIMx, uint16_t TIM_OCFast)
1631:common/lib.stm32/STM32F10x_StdPeriph_Driver/src/stm32f10x_tim.c **** {
 3824              		.loc 1 1631 1
 3825              		.cfi_startproc
 3826              		@ args = 0, pretend = 0, frame = 16
 3827              		@ frame_needed = 1, uses_anonymous_args = 0
 3828              		@ link register save eliminated.
 3829 0000 80B4     		push	{r7}
 3830              	.LCFI251:
 3831              		.cfi_def_cfa_offset 4
 3832              		.cfi_offset 7, -4
 3833 0002 85B0     		sub	sp, sp, #20
 3834              	.LCFI252:
 3835              		.cfi_def_cfa_offset 24
 3836 0004 00AF     		add	r7, sp, #0
 3837              	.LCFI253:
 3838              		.cfi_def_cfa_register 7
 3839 0006 7860     		str	r0, [r7, #4]
 3840 0008 0B46     		mov	r3, r1
 3841 000a 7B80     		strh	r3, [r7, #2]	@ movhi
1632:common/lib.stm32/STM32F10x_StdPeriph_Driver/src/stm32f10x_tim.c ****   uint16_t tmpccmr2 = 0;
 3842              		.loc 1 1632 12
 3843 000c 0023     		movs	r3, #0
 3844 000e FB81     		strh	r3, [r7, #14]	@ movhi
1633:common/lib.stm32/STM32F10x_StdPeriph_Driver/src/stm32f10x_tim.c ****   /* Check the parameters */
1634:common/lib.stm32/STM32F10x_StdPeriph_Driver/src/stm32f10x_tim.c ****   assert_param(IS_TIM_123458_PERIPH(TIMx));
1635:common/lib.stm32/STM32F10x_StdPeriph_Driver/src/stm32f10x_tim.c ****   assert_param(IS_TIM_OCFAST_STATE(TIM_OCFast));
1636:common/lib.stm32/STM32F10x_StdPeriph_Driver/src/stm32f10x_tim.c ****   /* Get the TIMx CCMR2 register value */
1637:common/lib.stm32/STM32F10x_StdPeriph_Driver/src/stm32f10x_tim.c ****   tmpccmr2 = TIMx->CCMR2;
 3845              		.loc 1 1637 12
 3846 0010 7B68     		ldr	r3, [r7, #4]
 3847 0012 9B8B     		ldrh	r3, [r3, #28]	@ movhi
 3848 0014 FB81     		strh	r3, [r7, #14]	@ movhi
1638:common/lib.stm32/STM32F10x_StdPeriph_Driver/src/stm32f10x_tim.c ****   /* Reset the OC3FE Bit */
1639:common/lib.stm32/STM32F10x_StdPeriph_Driver/src/stm32f10x_tim.c ****   tmpccmr2 &= CCMR_OC13FE_Reset;
 3849              		.loc 1 1639 12
 3850 0016 FB89     		ldrh	r3, [r7, #14]	@ movhi
 3851 0018 23F00403 		bic	r3, r3, #4
 3852 001c FB81     		strh	r3, [r7, #14]	@ movhi
1640:common/lib.stm32/STM32F10x_StdPeriph_Driver/src/stm32f10x_tim.c ****   /* Enable or Disable the Output Compare Fast Bit */
1641:common/lib.stm32/STM32F10x_StdPeriph_Driver/src/stm32f10x_tim.c ****   tmpccmr2 |= TIM_OCFast;
 3853              		.loc 1 1641 12
 3854 001e FA89     		ldrh	r2, [r7, #14]	@ movhi
 3855 0020 7B88     		ldrh	r3, [r7, #2]	@ movhi
 3856 0022 1343     		orrs	r3, r3, r2
 3857 0024 FB81     		strh	r3, [r7, #14]	@ movhi
1642:common/lib.stm32/STM32F10x_StdPeriph_Driver/src/stm32f10x_tim.c ****   /* Write to TIMx CCMR2 */
1643:common/lib.stm32/STM32F10x_StdPeriph_Driver/src/stm32f10x_tim.c ****   TIMx->CCMR2 = tmpccmr2;
 3858              		.loc 1 1643 15
 3859 0026 7B68     		ldr	r3, [r7, #4]
 3860 0028 FA89     		ldrh	r2, [r7, #14]	@ movhi
 3861 002a 9A83     		strh	r2, [r3, #28]	@ movhi
1644:common/lib.stm32/STM32F10x_StdPeriph_Driver/src/stm32f10x_tim.c **** }
 3862              		.loc 1 1644 1
 3863 002c 00BF     		nop
 3864 002e 1437     		adds	r7, r7, #20
 3865              	.LCFI254:
 3866              		.cfi_def_cfa_offset 4
 3867 0030 BD46     		mov	sp, r7
 3868              	.LCFI255:
 3869              		.cfi_def_cfa_register 13
 3870              		@ sp needed
 3871 0032 80BC     		pop	{r7}
 3872              	.LCFI256:
 3873              		.cfi_restore 7
 3874              		.cfi_def_cfa_offset 0
 3875 0034 7047     		bx	lr
 3876              		.cfi_endproc
 3877              	.LFE70:
 3879              		.section	.text.TIM_OC4FastConfig,"ax",%progbits
 3880              		.align	1
 3881              		.global	TIM_OC4FastConfig
 3882              		.syntax unified
 3883              		.thumb
 3884              		.thumb_func
 3886              	TIM_OC4FastConfig:
 3887              	.LFB71:
1645:common/lib.stm32/STM32F10x_StdPeriph_Driver/src/stm32f10x_tim.c **** 
1646:common/lib.stm32/STM32F10x_StdPeriph_Driver/src/stm32f10x_tim.c **** /**
1647:common/lib.stm32/STM32F10x_StdPeriph_Driver/src/stm32f10x_tim.c ****   * @brief  Configures the TIMx Output Compare 4 Fast feature.
1648:common/lib.stm32/STM32F10x_StdPeriph_Driver/src/stm32f10x_tim.c ****   * @param  TIMx: where x can be  1, 2, 3, 4, 5 or 8 to select the TIM peripheral.
1649:common/lib.stm32/STM32F10x_StdPeriph_Driver/src/stm32f10x_tim.c ****   * @param  TIM_OCFast: new state of the Output Compare Fast Enable Bit.
1650:common/lib.stm32/STM32F10x_StdPeriph_Driver/src/stm32f10x_tim.c ****   *   This parameter can be one of the following values:
1651:common/lib.stm32/STM32F10x_StdPeriph_Driver/src/stm32f10x_tim.c ****   *     @arg TIM_OCFast_Enable: TIM output compare fast enable
1652:common/lib.stm32/STM32F10x_StdPeriph_Driver/src/stm32f10x_tim.c ****   *     @arg TIM_OCFast_Disable: TIM output compare fast disable
1653:common/lib.stm32/STM32F10x_StdPeriph_Driver/src/stm32f10x_tim.c ****   * @retval None
1654:common/lib.stm32/STM32F10x_StdPeriph_Driver/src/stm32f10x_tim.c ****   */
1655:common/lib.stm32/STM32F10x_StdPeriph_Driver/src/stm32f10x_tim.c **** void TIM_OC4FastConfig(TIM_TypeDef* TIMx, uint16_t TIM_OCFast)
1656:common/lib.stm32/STM32F10x_StdPeriph_Driver/src/stm32f10x_tim.c **** {
 3888              		.loc 1 1656 1
 3889              		.cfi_startproc
 3890              		@ args = 0, pretend = 0, frame = 16
 3891              		@ frame_needed = 1, uses_anonymous_args = 0
 3892              		@ link register save eliminated.
 3893 0000 80B4     		push	{r7}
 3894              	.LCFI257:
 3895              		.cfi_def_cfa_offset 4
 3896              		.cfi_offset 7, -4
 3897 0002 85B0     		sub	sp, sp, #20
 3898              	.LCFI258:
 3899              		.cfi_def_cfa_offset 24
 3900 0004 00AF     		add	r7, sp, #0
 3901              	.LCFI259:
 3902              		.cfi_def_cfa_register 7
 3903 0006 7860     		str	r0, [r7, #4]
 3904 0008 0B46     		mov	r3, r1
 3905 000a 7B80     		strh	r3, [r7, #2]	@ movhi
1657:common/lib.stm32/STM32F10x_StdPeriph_Driver/src/stm32f10x_tim.c ****   uint16_t tmpccmr2 = 0;
 3906              		.loc 1 1657 12
 3907 000c 0023     		movs	r3, #0
 3908 000e FB81     		strh	r3, [r7, #14]	@ movhi
1658:common/lib.stm32/STM32F10x_StdPeriph_Driver/src/stm32f10x_tim.c ****   /* Check the parameters */
1659:common/lib.stm32/STM32F10x_StdPeriph_Driver/src/stm32f10x_tim.c ****   assert_param(IS_TIM_123458_PERIPH(TIMx));
1660:common/lib.stm32/STM32F10x_StdPeriph_Driver/src/stm32f10x_tim.c ****   assert_param(IS_TIM_OCFAST_STATE(TIM_OCFast));
1661:common/lib.stm32/STM32F10x_StdPeriph_Driver/src/stm32f10x_tim.c ****   /* Get the TIMx CCMR2 register value */
1662:common/lib.stm32/STM32F10x_StdPeriph_Driver/src/stm32f10x_tim.c ****   tmpccmr2 = TIMx->CCMR2;
 3909              		.loc 1 1662 12
 3910 0010 7B68     		ldr	r3, [r7, #4]
 3911 0012 9B8B     		ldrh	r3, [r3, #28]	@ movhi
 3912 0014 FB81     		strh	r3, [r7, #14]	@ movhi
1663:common/lib.stm32/STM32F10x_StdPeriph_Driver/src/stm32f10x_tim.c ****   /* Reset the OC4FE Bit */
1664:common/lib.stm32/STM32F10x_StdPeriph_Driver/src/stm32f10x_tim.c ****   tmpccmr2 &= CCMR_OC24FE_Reset;
 3913              		.loc 1 1664 12
 3914 0016 FB89     		ldrh	r3, [r7, #14]	@ movhi
 3915 0018 23F48063 		bic	r3, r3, #1024
 3916 001c FB81     		strh	r3, [r7, #14]	@ movhi
1665:common/lib.stm32/STM32F10x_StdPeriph_Driver/src/stm32f10x_tim.c ****   /* Enable or Disable the Output Compare Fast Bit */
1666:common/lib.stm32/STM32F10x_StdPeriph_Driver/src/stm32f10x_tim.c ****   tmpccmr2 |= (uint16_t)(TIM_OCFast << 8);
 3917              		.loc 1 1666 15
 3918 001e 7B88     		ldrh	r3, [r7, #2]	@ movhi
 3919 0020 1B02     		lsls	r3, r3, #8
 3920 0022 9AB2     		uxth	r2, r3
 3921              		.loc 1 1666 12
 3922 0024 FB89     		ldrh	r3, [r7, #14]	@ movhi
 3923 0026 1343     		orrs	r3, r3, r2
 3924 0028 FB81     		strh	r3, [r7, #14]	@ movhi
1667:common/lib.stm32/STM32F10x_StdPeriph_Driver/src/stm32f10x_tim.c ****   /* Write to TIMx CCMR2 */
1668:common/lib.stm32/STM32F10x_StdPeriph_Driver/src/stm32f10x_tim.c ****   TIMx->CCMR2 = tmpccmr2;
 3925              		.loc 1 1668 15
 3926 002a 7B68     		ldr	r3, [r7, #4]
 3927 002c FA89     		ldrh	r2, [r7, #14]	@ movhi
 3928 002e 9A83     		strh	r2, [r3, #28]	@ movhi
1669:common/lib.stm32/STM32F10x_StdPeriph_Driver/src/stm32f10x_tim.c **** }
 3929              		.loc 1 1669 1
 3930 0030 00BF     		nop
 3931 0032 1437     		adds	r7, r7, #20
 3932              	.LCFI260:
 3933              		.cfi_def_cfa_offset 4
 3934 0034 BD46     		mov	sp, r7
 3935              	.LCFI261:
 3936              		.cfi_def_cfa_register 13
 3937              		@ sp needed
 3938 0036 80BC     		pop	{r7}
 3939              	.LCFI262:
 3940              		.cfi_restore 7
 3941              		.cfi_def_cfa_offset 0
 3942 0038 7047     		bx	lr
 3943              		.cfi_endproc
 3944              	.LFE71:
 3946              		.section	.text.TIM_ClearOC1Ref,"ax",%progbits
 3947              		.align	1
 3948              		.global	TIM_ClearOC1Ref
 3949              		.syntax unified
 3950              		.thumb
 3951              		.thumb_func
 3953              	TIM_ClearOC1Ref:
 3954              	.LFB72:
1670:common/lib.stm32/STM32F10x_StdPeriph_Driver/src/stm32f10x_tim.c **** 
1671:common/lib.stm32/STM32F10x_StdPeriph_Driver/src/stm32f10x_tim.c **** /**
1672:common/lib.stm32/STM32F10x_StdPeriph_Driver/src/stm32f10x_tim.c ****   * @brief  Clears or safeguards the OCREF1 signal on an external event
1673:common/lib.stm32/STM32F10x_StdPeriph_Driver/src/stm32f10x_tim.c ****   * @param  TIMx: where x can be  1, 2, 3, 4, 5 or 8 to select the TIM peripheral.
1674:common/lib.stm32/STM32F10x_StdPeriph_Driver/src/stm32f10x_tim.c ****   * @param  TIM_OCClear: new state of the Output Compare Clear Enable Bit.
1675:common/lib.stm32/STM32F10x_StdPeriph_Driver/src/stm32f10x_tim.c ****   *   This parameter can be one of the following values:
1676:common/lib.stm32/STM32F10x_StdPeriph_Driver/src/stm32f10x_tim.c ****   *     @arg TIM_OCClear_Enable: TIM Output clear enable
1677:common/lib.stm32/STM32F10x_StdPeriph_Driver/src/stm32f10x_tim.c ****   *     @arg TIM_OCClear_Disable: TIM Output clear disable
1678:common/lib.stm32/STM32F10x_StdPeriph_Driver/src/stm32f10x_tim.c ****   * @retval None
1679:common/lib.stm32/STM32F10x_StdPeriph_Driver/src/stm32f10x_tim.c ****   */
1680:common/lib.stm32/STM32F10x_StdPeriph_Driver/src/stm32f10x_tim.c **** void TIM_ClearOC1Ref(TIM_TypeDef* TIMx, uint16_t TIM_OCClear)
1681:common/lib.stm32/STM32F10x_StdPeriph_Driver/src/stm32f10x_tim.c **** {
 3955              		.loc 1 1681 1
 3956              		.cfi_startproc
 3957              		@ args = 0, pretend = 0, frame = 16
 3958              		@ frame_needed = 1, uses_anonymous_args = 0
 3959              		@ link register save eliminated.
 3960 0000 80B4     		push	{r7}
 3961              	.LCFI263:
 3962              		.cfi_def_cfa_offset 4
 3963              		.cfi_offset 7, -4
 3964 0002 85B0     		sub	sp, sp, #20
 3965              	.LCFI264:
 3966              		.cfi_def_cfa_offset 24
 3967 0004 00AF     		add	r7, sp, #0
 3968              	.LCFI265:
 3969              		.cfi_def_cfa_register 7
 3970 0006 7860     		str	r0, [r7, #4]
 3971 0008 0B46     		mov	r3, r1
 3972 000a 7B80     		strh	r3, [r7, #2]	@ movhi
1682:common/lib.stm32/STM32F10x_StdPeriph_Driver/src/stm32f10x_tim.c ****   uint16_t tmpccmr1 = 0;
 3973              		.loc 1 1682 12
 3974 000c 0023     		movs	r3, #0
 3975 000e FB81     		strh	r3, [r7, #14]	@ movhi
1683:common/lib.stm32/STM32F10x_StdPeriph_Driver/src/stm32f10x_tim.c ****   /* Check the parameters */
1684:common/lib.stm32/STM32F10x_StdPeriph_Driver/src/stm32f10x_tim.c ****   assert_param(IS_TIM_123458_PERIPH(TIMx));
1685:common/lib.stm32/STM32F10x_StdPeriph_Driver/src/stm32f10x_tim.c ****   assert_param(IS_TIM_OCCLEAR_STATE(TIM_OCClear));
1686:common/lib.stm32/STM32F10x_StdPeriph_Driver/src/stm32f10x_tim.c ****   tmpccmr1 = TIMx->CCMR1;
 3976              		.loc 1 1686 12
 3977 0010 7B68     		ldr	r3, [r7, #4]
 3978 0012 1B8B     		ldrh	r3, [r3, #24]	@ movhi
 3979 0014 FB81     		strh	r3, [r7, #14]	@ movhi
1687:common/lib.stm32/STM32F10x_StdPeriph_Driver/src/stm32f10x_tim.c ****   /* Reset the OC1CE Bit */
1688:common/lib.stm32/STM32F10x_StdPeriph_Driver/src/stm32f10x_tim.c ****   tmpccmr1 &= CCMR_OC13CE_Reset;
 3980              		.loc 1 1688 12
 3981 0016 FB89     		ldrh	r3, [r7, #14]	@ movhi
 3982 0018 23F08003 		bic	r3, r3, #128
 3983 001c FB81     		strh	r3, [r7, #14]	@ movhi
1689:common/lib.stm32/STM32F10x_StdPeriph_Driver/src/stm32f10x_tim.c ****   /* Enable or Disable the Output Compare Clear Bit */
1690:common/lib.stm32/STM32F10x_StdPeriph_Driver/src/stm32f10x_tim.c ****   tmpccmr1 |= TIM_OCClear;
 3984              		.loc 1 1690 12
 3985 001e FA89     		ldrh	r2, [r7, #14]	@ movhi
 3986 0020 7B88     		ldrh	r3, [r7, #2]	@ movhi
 3987 0022 1343     		orrs	r3, r3, r2
 3988 0024 FB81     		strh	r3, [r7, #14]	@ movhi
1691:common/lib.stm32/STM32F10x_StdPeriph_Driver/src/stm32f10x_tim.c ****   /* Write to TIMx CCMR1 register */
1692:common/lib.stm32/STM32F10x_StdPeriph_Driver/src/stm32f10x_tim.c ****   TIMx->CCMR1 = tmpccmr1;
 3989              		.loc 1 1692 15
 3990 0026 7B68     		ldr	r3, [r7, #4]
 3991 0028 FA89     		ldrh	r2, [r7, #14]	@ movhi
 3992 002a 1A83     		strh	r2, [r3, #24]	@ movhi
1693:common/lib.stm32/STM32F10x_StdPeriph_Driver/src/stm32f10x_tim.c **** }
 3993              		.loc 1 1693 1
 3994 002c 00BF     		nop
 3995 002e 1437     		adds	r7, r7, #20
 3996              	.LCFI266:
 3997              		.cfi_def_cfa_offset 4
 3998 0030 BD46     		mov	sp, r7
 3999              	.LCFI267:
 4000              		.cfi_def_cfa_register 13
 4001              		@ sp needed
 4002 0032 80BC     		pop	{r7}
 4003              	.LCFI268:
 4004              		.cfi_restore 7
 4005              		.cfi_def_cfa_offset 0
 4006 0034 7047     		bx	lr
 4007              		.cfi_endproc
 4008              	.LFE72:
 4010              		.section	.text.TIM_ClearOC2Ref,"ax",%progbits
 4011              		.align	1
 4012              		.global	TIM_ClearOC2Ref
 4013              		.syntax unified
 4014              		.thumb
 4015              		.thumb_func
 4017              	TIM_ClearOC2Ref:
 4018              	.LFB73:
1694:common/lib.stm32/STM32F10x_StdPeriph_Driver/src/stm32f10x_tim.c **** 
1695:common/lib.stm32/STM32F10x_StdPeriph_Driver/src/stm32f10x_tim.c **** /**
1696:common/lib.stm32/STM32F10x_StdPeriph_Driver/src/stm32f10x_tim.c ****   * @brief  Clears or safeguards the OCREF2 signal on an external event
1697:common/lib.stm32/STM32F10x_StdPeriph_Driver/src/stm32f10x_tim.c ****   * @param  TIMx: where x can be  1, 2, 3, 4, 5 or 8 to select the TIM peripheral.
1698:common/lib.stm32/STM32F10x_StdPeriph_Driver/src/stm32f10x_tim.c ****   * @param  TIM_OCClear: new state of the Output Compare Clear Enable Bit.
1699:common/lib.stm32/STM32F10x_StdPeriph_Driver/src/stm32f10x_tim.c ****   *   This parameter can be one of the following values:
1700:common/lib.stm32/STM32F10x_StdPeriph_Driver/src/stm32f10x_tim.c ****   *     @arg TIM_OCClear_Enable: TIM Output clear enable
1701:common/lib.stm32/STM32F10x_StdPeriph_Driver/src/stm32f10x_tim.c ****   *     @arg TIM_OCClear_Disable: TIM Output clear disable
1702:common/lib.stm32/STM32F10x_StdPeriph_Driver/src/stm32f10x_tim.c ****   * @retval None
1703:common/lib.stm32/STM32F10x_StdPeriph_Driver/src/stm32f10x_tim.c ****   */
1704:common/lib.stm32/STM32F10x_StdPeriph_Driver/src/stm32f10x_tim.c **** void TIM_ClearOC2Ref(TIM_TypeDef* TIMx, uint16_t TIM_OCClear)
1705:common/lib.stm32/STM32F10x_StdPeriph_Driver/src/stm32f10x_tim.c **** {
 4019              		.loc 1 1705 1
 4020              		.cfi_startproc
 4021              		@ args = 0, pretend = 0, frame = 16
 4022              		@ frame_needed = 1, uses_anonymous_args = 0
 4023              		@ link register save eliminated.
 4024 0000 80B4     		push	{r7}
 4025              	.LCFI269:
 4026              		.cfi_def_cfa_offset 4
 4027              		.cfi_offset 7, -4
 4028 0002 85B0     		sub	sp, sp, #20
 4029              	.LCFI270:
 4030              		.cfi_def_cfa_offset 24
 4031 0004 00AF     		add	r7, sp, #0
 4032              	.LCFI271:
 4033              		.cfi_def_cfa_register 7
 4034 0006 7860     		str	r0, [r7, #4]
 4035 0008 0B46     		mov	r3, r1
 4036 000a 7B80     		strh	r3, [r7, #2]	@ movhi
1706:common/lib.stm32/STM32F10x_StdPeriph_Driver/src/stm32f10x_tim.c ****   uint16_t tmpccmr1 = 0;
 4037              		.loc 1 1706 12
 4038 000c 0023     		movs	r3, #0
 4039 000e FB81     		strh	r3, [r7, #14]	@ movhi
1707:common/lib.stm32/STM32F10x_StdPeriph_Driver/src/stm32f10x_tim.c ****   /* Check the parameters */
1708:common/lib.stm32/STM32F10x_StdPeriph_Driver/src/stm32f10x_tim.c ****   assert_param(IS_TIM_123458_PERIPH(TIMx));
1709:common/lib.stm32/STM32F10x_StdPeriph_Driver/src/stm32f10x_tim.c ****   assert_param(IS_TIM_OCCLEAR_STATE(TIM_OCClear));
1710:common/lib.stm32/STM32F10x_StdPeriph_Driver/src/stm32f10x_tim.c ****   tmpccmr1 = TIMx->CCMR1;
 4040              		.loc 1 1710 12
 4041 0010 7B68     		ldr	r3, [r7, #4]
 4042 0012 1B8B     		ldrh	r3, [r3, #24]	@ movhi
 4043 0014 FB81     		strh	r3, [r7, #14]	@ movhi
1711:common/lib.stm32/STM32F10x_StdPeriph_Driver/src/stm32f10x_tim.c ****   /* Reset the OC2CE Bit */
1712:common/lib.stm32/STM32F10x_StdPeriph_Driver/src/stm32f10x_tim.c ****   tmpccmr1 &= CCMR_OC24CE_Reset;
 4044              		.loc 1 1712 12
 4045 0016 FB89     		ldrh	r3, [r7, #14]	@ movhi
 4046 0018 C3F30E03 		ubfx	r3, r3, #0, #15
 4047 001c FB81     		strh	r3, [r7, #14]	@ movhi
1713:common/lib.stm32/STM32F10x_StdPeriph_Driver/src/stm32f10x_tim.c ****   /* Enable or Disable the Output Compare Clear Bit */
1714:common/lib.stm32/STM32F10x_StdPeriph_Driver/src/stm32f10x_tim.c ****   tmpccmr1 |= (uint16_t)(TIM_OCClear << 8);
 4048              		.loc 1 1714 15
 4049 001e 7B88     		ldrh	r3, [r7, #2]	@ movhi
 4050 0020 1B02     		lsls	r3, r3, #8
 4051 0022 9AB2     		uxth	r2, r3
 4052              		.loc 1 1714 12
 4053 0024 FB89     		ldrh	r3, [r7, #14]	@ movhi
 4054 0026 1343     		orrs	r3, r3, r2
 4055 0028 FB81     		strh	r3, [r7, #14]	@ movhi
1715:common/lib.stm32/STM32F10x_StdPeriph_Driver/src/stm32f10x_tim.c ****   /* Write to TIMx CCMR1 register */
1716:common/lib.stm32/STM32F10x_StdPeriph_Driver/src/stm32f10x_tim.c ****   TIMx->CCMR1 = tmpccmr1;
 4056              		.loc 1 1716 15
 4057 002a 7B68     		ldr	r3, [r7, #4]
 4058 002c FA89     		ldrh	r2, [r7, #14]	@ movhi
 4059 002e 1A83     		strh	r2, [r3, #24]	@ movhi
1717:common/lib.stm32/STM32F10x_StdPeriph_Driver/src/stm32f10x_tim.c **** }
 4060              		.loc 1 1717 1
 4061 0030 00BF     		nop
 4062 0032 1437     		adds	r7, r7, #20
 4063              	.LCFI272:
 4064              		.cfi_def_cfa_offset 4
 4065 0034 BD46     		mov	sp, r7
 4066              	.LCFI273:
 4067              		.cfi_def_cfa_register 13
 4068              		@ sp needed
 4069 0036 80BC     		pop	{r7}
 4070              	.LCFI274:
 4071              		.cfi_restore 7
 4072              		.cfi_def_cfa_offset 0
 4073 0038 7047     		bx	lr
 4074              		.cfi_endproc
 4075              	.LFE73:
 4077              		.section	.text.TIM_ClearOC3Ref,"ax",%progbits
 4078              		.align	1
 4079              		.global	TIM_ClearOC3Ref
 4080              		.syntax unified
 4081              		.thumb
 4082              		.thumb_func
 4084              	TIM_ClearOC3Ref:
 4085              	.LFB74:
1718:common/lib.stm32/STM32F10x_StdPeriph_Driver/src/stm32f10x_tim.c **** 
1719:common/lib.stm32/STM32F10x_StdPeriph_Driver/src/stm32f10x_tim.c **** /**
1720:common/lib.stm32/STM32F10x_StdPeriph_Driver/src/stm32f10x_tim.c ****   * @brief  Clears or safeguards the OCREF3 signal on an external event
1721:common/lib.stm32/STM32F10x_StdPeriph_Driver/src/stm32f10x_tim.c ****   * @param  TIMx: where x can be  1, 2, 3, 4, 5 or 8 to select the TIM peripheral.
1722:common/lib.stm32/STM32F10x_StdPeriph_Driver/src/stm32f10x_tim.c ****   * @param  TIM_OCClear: new state of the Output Compare Clear Enable Bit.
1723:common/lib.stm32/STM32F10x_StdPeriph_Driver/src/stm32f10x_tim.c ****   *   This parameter can be one of the following values:
1724:common/lib.stm32/STM32F10x_StdPeriph_Driver/src/stm32f10x_tim.c ****   *     @arg TIM_OCClear_Enable: TIM Output clear enable
1725:common/lib.stm32/STM32F10x_StdPeriph_Driver/src/stm32f10x_tim.c ****   *     @arg TIM_OCClear_Disable: TIM Output clear disable
1726:common/lib.stm32/STM32F10x_StdPeriph_Driver/src/stm32f10x_tim.c ****   * @retval None
1727:common/lib.stm32/STM32F10x_StdPeriph_Driver/src/stm32f10x_tim.c ****   */
1728:common/lib.stm32/STM32F10x_StdPeriph_Driver/src/stm32f10x_tim.c **** void TIM_ClearOC3Ref(TIM_TypeDef* TIMx, uint16_t TIM_OCClear)
1729:common/lib.stm32/STM32F10x_StdPeriph_Driver/src/stm32f10x_tim.c **** {
 4086              		.loc 1 1729 1
 4087              		.cfi_startproc
 4088              		@ args = 0, pretend = 0, frame = 16
 4089              		@ frame_needed = 1, uses_anonymous_args = 0
 4090              		@ link register save eliminated.
 4091 0000 80B4     		push	{r7}
 4092              	.LCFI275:
 4093              		.cfi_def_cfa_offset 4
 4094              		.cfi_offset 7, -4
 4095 0002 85B0     		sub	sp, sp, #20
 4096              	.LCFI276:
 4097              		.cfi_def_cfa_offset 24
 4098 0004 00AF     		add	r7, sp, #0
 4099              	.LCFI277:
 4100              		.cfi_def_cfa_register 7
 4101 0006 7860     		str	r0, [r7, #4]
 4102 0008 0B46     		mov	r3, r1
 4103 000a 7B80     		strh	r3, [r7, #2]	@ movhi
1730:common/lib.stm32/STM32F10x_StdPeriph_Driver/src/stm32f10x_tim.c ****   uint16_t tmpccmr2 = 0;
 4104              		.loc 1 1730 12
 4105 000c 0023     		movs	r3, #0
 4106 000e FB81     		strh	r3, [r7, #14]	@ movhi
1731:common/lib.stm32/STM32F10x_StdPeriph_Driver/src/stm32f10x_tim.c ****   /* Check the parameters */
1732:common/lib.stm32/STM32F10x_StdPeriph_Driver/src/stm32f10x_tim.c ****   assert_param(IS_TIM_123458_PERIPH(TIMx));
1733:common/lib.stm32/STM32F10x_StdPeriph_Driver/src/stm32f10x_tim.c ****   assert_param(IS_TIM_OCCLEAR_STATE(TIM_OCClear));
1734:common/lib.stm32/STM32F10x_StdPeriph_Driver/src/stm32f10x_tim.c ****   tmpccmr2 = TIMx->CCMR2;
 4107              		.loc 1 1734 12
 4108 0010 7B68     		ldr	r3, [r7, #4]
 4109 0012 9B8B     		ldrh	r3, [r3, #28]	@ movhi
 4110 0014 FB81     		strh	r3, [r7, #14]	@ movhi
1735:common/lib.stm32/STM32F10x_StdPeriph_Driver/src/stm32f10x_tim.c ****   /* Reset the OC3CE Bit */
1736:common/lib.stm32/STM32F10x_StdPeriph_Driver/src/stm32f10x_tim.c ****   tmpccmr2 &= CCMR_OC13CE_Reset;
 4111              		.loc 1 1736 12
 4112 0016 FB89     		ldrh	r3, [r7, #14]	@ movhi
 4113 0018 23F08003 		bic	r3, r3, #128
 4114 001c FB81     		strh	r3, [r7, #14]	@ movhi
1737:common/lib.stm32/STM32F10x_StdPeriph_Driver/src/stm32f10x_tim.c ****   /* Enable or Disable the Output Compare Clear Bit */
1738:common/lib.stm32/STM32F10x_StdPeriph_Driver/src/stm32f10x_tim.c ****   tmpccmr2 |= TIM_OCClear;
 4115              		.loc 1 1738 12
 4116 001e FA89     		ldrh	r2, [r7, #14]	@ movhi
 4117 0020 7B88     		ldrh	r3, [r7, #2]	@ movhi
 4118 0022 1343     		orrs	r3, r3, r2
 4119 0024 FB81     		strh	r3, [r7, #14]	@ movhi
1739:common/lib.stm32/STM32F10x_StdPeriph_Driver/src/stm32f10x_tim.c ****   /* Write to TIMx CCMR2 register */
1740:common/lib.stm32/STM32F10x_StdPeriph_Driver/src/stm32f10x_tim.c ****   TIMx->CCMR2 = tmpccmr2;
 4120              		.loc 1 1740 15
 4121 0026 7B68     		ldr	r3, [r7, #4]
 4122 0028 FA89     		ldrh	r2, [r7, #14]	@ movhi
 4123 002a 9A83     		strh	r2, [r3, #28]	@ movhi
1741:common/lib.stm32/STM32F10x_StdPeriph_Driver/src/stm32f10x_tim.c **** }
 4124              		.loc 1 1741 1
 4125 002c 00BF     		nop
 4126 002e 1437     		adds	r7, r7, #20
 4127              	.LCFI278:
 4128              		.cfi_def_cfa_offset 4
 4129 0030 BD46     		mov	sp, r7
 4130              	.LCFI279:
 4131              		.cfi_def_cfa_register 13
 4132              		@ sp needed
 4133 0032 80BC     		pop	{r7}
 4134              	.LCFI280:
 4135              		.cfi_restore 7
 4136              		.cfi_def_cfa_offset 0
 4137 0034 7047     		bx	lr
 4138              		.cfi_endproc
 4139              	.LFE74:
 4141              		.section	.text.TIM_ClearOC4Ref,"ax",%progbits
 4142              		.align	1
 4143              		.global	TIM_ClearOC4Ref
 4144              		.syntax unified
 4145              		.thumb
 4146              		.thumb_func
 4148              	TIM_ClearOC4Ref:
 4149              	.LFB75:
1742:common/lib.stm32/STM32F10x_StdPeriph_Driver/src/stm32f10x_tim.c **** 
1743:common/lib.stm32/STM32F10x_StdPeriph_Driver/src/stm32f10x_tim.c **** /**
1744:common/lib.stm32/STM32F10x_StdPeriph_Driver/src/stm32f10x_tim.c ****   * @brief  Clears or safeguards the OCREF4 signal on an external event
1745:common/lib.stm32/STM32F10x_StdPeriph_Driver/src/stm32f10x_tim.c ****   * @param  TIMx: where x can be  1, 2, 3, 4, 5 or 8 to select the TIM peripheral.
1746:common/lib.stm32/STM32F10x_StdPeriph_Driver/src/stm32f10x_tim.c ****   * @param  TIM_OCClear: new state of the Output Compare Clear Enable Bit.
1747:common/lib.stm32/STM32F10x_StdPeriph_Driver/src/stm32f10x_tim.c ****   *   This parameter can be one of the following values:
1748:common/lib.stm32/STM32F10x_StdPeriph_Driver/src/stm32f10x_tim.c ****   *     @arg TIM_OCClear_Enable: TIM Output clear enable
1749:common/lib.stm32/STM32F10x_StdPeriph_Driver/src/stm32f10x_tim.c ****   *     @arg TIM_OCClear_Disable: TIM Output clear disable
1750:common/lib.stm32/STM32F10x_StdPeriph_Driver/src/stm32f10x_tim.c ****   * @retval None
1751:common/lib.stm32/STM32F10x_StdPeriph_Driver/src/stm32f10x_tim.c ****   */
1752:common/lib.stm32/STM32F10x_StdPeriph_Driver/src/stm32f10x_tim.c **** void TIM_ClearOC4Ref(TIM_TypeDef* TIMx, uint16_t TIM_OCClear)
1753:common/lib.stm32/STM32F10x_StdPeriph_Driver/src/stm32f10x_tim.c **** {
 4150              		.loc 1 1753 1
 4151              		.cfi_startproc
 4152              		@ args = 0, pretend = 0, frame = 16
 4153              		@ frame_needed = 1, uses_anonymous_args = 0
 4154              		@ link register save eliminated.
 4155 0000 80B4     		push	{r7}
 4156              	.LCFI281:
 4157              		.cfi_def_cfa_offset 4
 4158              		.cfi_offset 7, -4
 4159 0002 85B0     		sub	sp, sp, #20
 4160              	.LCFI282:
 4161              		.cfi_def_cfa_offset 24
 4162 0004 00AF     		add	r7, sp, #0
 4163              	.LCFI283:
 4164              		.cfi_def_cfa_register 7
 4165 0006 7860     		str	r0, [r7, #4]
 4166 0008 0B46     		mov	r3, r1
 4167 000a 7B80     		strh	r3, [r7, #2]	@ movhi
1754:common/lib.stm32/STM32F10x_StdPeriph_Driver/src/stm32f10x_tim.c ****   uint16_t tmpccmr2 = 0;
 4168              		.loc 1 1754 12
 4169 000c 0023     		movs	r3, #0
 4170 000e FB81     		strh	r3, [r7, #14]	@ movhi
1755:common/lib.stm32/STM32F10x_StdPeriph_Driver/src/stm32f10x_tim.c ****   /* Check the parameters */
1756:common/lib.stm32/STM32F10x_StdPeriph_Driver/src/stm32f10x_tim.c ****   assert_param(IS_TIM_123458_PERIPH(TIMx));
1757:common/lib.stm32/STM32F10x_StdPeriph_Driver/src/stm32f10x_tim.c ****   assert_param(IS_TIM_OCCLEAR_STATE(TIM_OCClear));
1758:common/lib.stm32/STM32F10x_StdPeriph_Driver/src/stm32f10x_tim.c ****   tmpccmr2 = TIMx->CCMR2;
 4171              		.loc 1 1758 12
 4172 0010 7B68     		ldr	r3, [r7, #4]
 4173 0012 9B8B     		ldrh	r3, [r3, #28]	@ movhi
 4174 0014 FB81     		strh	r3, [r7, #14]	@ movhi
1759:common/lib.stm32/STM32F10x_StdPeriph_Driver/src/stm32f10x_tim.c ****   /* Reset the OC4CE Bit */
1760:common/lib.stm32/STM32F10x_StdPeriph_Driver/src/stm32f10x_tim.c ****   tmpccmr2 &= CCMR_OC24CE_Reset;
 4175              		.loc 1 1760 12
 4176 0016 FB89     		ldrh	r3, [r7, #14]	@ movhi
 4177 0018 C3F30E03 		ubfx	r3, r3, #0, #15
 4178 001c FB81     		strh	r3, [r7, #14]	@ movhi
1761:common/lib.stm32/STM32F10x_StdPeriph_Driver/src/stm32f10x_tim.c ****   /* Enable or Disable the Output Compare Clear Bit */
1762:common/lib.stm32/STM32F10x_StdPeriph_Driver/src/stm32f10x_tim.c ****   tmpccmr2 |= (uint16_t)(TIM_OCClear << 8);
 4179              		.loc 1 1762 15
 4180 001e 7B88     		ldrh	r3, [r7, #2]	@ movhi
 4181 0020 1B02     		lsls	r3, r3, #8
 4182 0022 9AB2     		uxth	r2, r3
 4183              		.loc 1 1762 12
 4184 0024 FB89     		ldrh	r3, [r7, #14]	@ movhi
 4185 0026 1343     		orrs	r3, r3, r2
 4186 0028 FB81     		strh	r3, [r7, #14]	@ movhi
1763:common/lib.stm32/STM32F10x_StdPeriph_Driver/src/stm32f10x_tim.c ****   /* Write to TIMx CCMR2 register */
1764:common/lib.stm32/STM32F10x_StdPeriph_Driver/src/stm32f10x_tim.c ****   TIMx->CCMR2 = tmpccmr2;
 4187              		.loc 1 1764 15
 4188 002a 7B68     		ldr	r3, [r7, #4]
 4189 002c FA89     		ldrh	r2, [r7, #14]	@ movhi
 4190 002e 9A83     		strh	r2, [r3, #28]	@ movhi
1765:common/lib.stm32/STM32F10x_StdPeriph_Driver/src/stm32f10x_tim.c **** }
 4191              		.loc 1 1765 1
 4192 0030 00BF     		nop
 4193 0032 1437     		adds	r7, r7, #20
 4194              	.LCFI284:
 4195              		.cfi_def_cfa_offset 4
 4196 0034 BD46     		mov	sp, r7
 4197              	.LCFI285:
 4198              		.cfi_def_cfa_register 13
 4199              		@ sp needed
 4200 0036 80BC     		pop	{r7}
 4201              	.LCFI286:
 4202              		.cfi_restore 7
 4203              		.cfi_def_cfa_offset 0
 4204 0038 7047     		bx	lr
 4205              		.cfi_endproc
 4206              	.LFE75:
 4208              		.section	.text.TIM_OC1PolarityConfig,"ax",%progbits
 4209              		.align	1
 4210              		.global	TIM_OC1PolarityConfig
 4211              		.syntax unified
 4212              		.thumb
 4213              		.thumb_func
 4215              	TIM_OC1PolarityConfig:
 4216              	.LFB76:
1766:common/lib.stm32/STM32F10x_StdPeriph_Driver/src/stm32f10x_tim.c **** 
1767:common/lib.stm32/STM32F10x_StdPeriph_Driver/src/stm32f10x_tim.c **** /**
1768:common/lib.stm32/STM32F10x_StdPeriph_Driver/src/stm32f10x_tim.c ****   * @brief  Configures the TIMx channel 1 polarity.
1769:common/lib.stm32/STM32F10x_StdPeriph_Driver/src/stm32f10x_tim.c ****   * @param  TIMx: where x can be 1, 2, 3, 4, 5 or 8 to select the TIM peripheral.
1770:common/lib.stm32/STM32F10x_StdPeriph_Driver/src/stm32f10x_tim.c ****   * @param  TIM_OCPolarity: specifies the OC1 Polarity
1771:common/lib.stm32/STM32F10x_StdPeriph_Driver/src/stm32f10x_tim.c ****   *   This parmeter can be one of the following values:
1772:common/lib.stm32/STM32F10x_StdPeriph_Driver/src/stm32f10x_tim.c ****   *     @arg TIM_OCPolarity_High: Output Compare active high
1773:common/lib.stm32/STM32F10x_StdPeriph_Driver/src/stm32f10x_tim.c ****   *     @arg TIM_OCPolarity_Low: Output Compare active low
1774:common/lib.stm32/STM32F10x_StdPeriph_Driver/src/stm32f10x_tim.c ****   * @retval None
1775:common/lib.stm32/STM32F10x_StdPeriph_Driver/src/stm32f10x_tim.c ****   */
1776:common/lib.stm32/STM32F10x_StdPeriph_Driver/src/stm32f10x_tim.c **** void TIM_OC1PolarityConfig(TIM_TypeDef* TIMx, uint16_t TIM_OCPolarity)
1777:common/lib.stm32/STM32F10x_StdPeriph_Driver/src/stm32f10x_tim.c **** {
 4217              		.loc 1 1777 1
 4218              		.cfi_startproc
 4219              		@ args = 0, pretend = 0, frame = 16
 4220              		@ frame_needed = 1, uses_anonymous_args = 0
 4221              		@ link register save eliminated.
 4222 0000 80B4     		push	{r7}
 4223              	.LCFI287:
 4224              		.cfi_def_cfa_offset 4
 4225              		.cfi_offset 7, -4
 4226 0002 85B0     		sub	sp, sp, #20
 4227              	.LCFI288:
 4228              		.cfi_def_cfa_offset 24
 4229 0004 00AF     		add	r7, sp, #0
 4230              	.LCFI289:
 4231              		.cfi_def_cfa_register 7
 4232 0006 7860     		str	r0, [r7, #4]
 4233 0008 0B46     		mov	r3, r1
 4234 000a 7B80     		strh	r3, [r7, #2]	@ movhi
1778:common/lib.stm32/STM32F10x_StdPeriph_Driver/src/stm32f10x_tim.c ****   uint16_t tmpccer = 0;
 4235              		.loc 1 1778 12
 4236 000c 0023     		movs	r3, #0
 4237 000e FB81     		strh	r3, [r7, #14]	@ movhi
1779:common/lib.stm32/STM32F10x_StdPeriph_Driver/src/stm32f10x_tim.c ****   /* Check the parameters */
1780:common/lib.stm32/STM32F10x_StdPeriph_Driver/src/stm32f10x_tim.c ****   assert_param(IS_TIM_123458_PERIPH(TIMx));
1781:common/lib.stm32/STM32F10x_StdPeriph_Driver/src/stm32f10x_tim.c ****   assert_param(IS_TIM_OC_POLARITY(TIM_OCPolarity));
1782:common/lib.stm32/STM32F10x_StdPeriph_Driver/src/stm32f10x_tim.c ****   tmpccer = TIMx->CCER;
 4238              		.loc 1 1782 11
 4239 0010 7B68     		ldr	r3, [r7, #4]
 4240 0012 1B8C     		ldrh	r3, [r3, #32]	@ movhi
 4241 0014 FB81     		strh	r3, [r7, #14]	@ movhi
1783:common/lib.stm32/STM32F10x_StdPeriph_Driver/src/stm32f10x_tim.c ****   /* Set or Reset the CC1P Bit */
1784:common/lib.stm32/STM32F10x_StdPeriph_Driver/src/stm32f10x_tim.c ****   tmpccer &= CCER_CC1P_Reset;
 4242              		.loc 1 1784 11
 4243 0016 FB89     		ldrh	r3, [r7, #14]	@ movhi
 4244 0018 23F00203 		bic	r3, r3, #2
 4245 001c FB81     		strh	r3, [r7, #14]	@ movhi
1785:common/lib.stm32/STM32F10x_StdPeriph_Driver/src/stm32f10x_tim.c ****   tmpccer |= TIM_OCPolarity;
 4246              		.loc 1 1785 11
 4247 001e FA89     		ldrh	r2, [r7, #14]	@ movhi
 4248 0020 7B88     		ldrh	r3, [r7, #2]	@ movhi
 4249 0022 1343     		orrs	r3, r3, r2
 4250 0024 FB81     		strh	r3, [r7, #14]	@ movhi
1786:common/lib.stm32/STM32F10x_StdPeriph_Driver/src/stm32f10x_tim.c ****   /* Write to TIMx CCER register */
1787:common/lib.stm32/STM32F10x_StdPeriph_Driver/src/stm32f10x_tim.c ****   TIMx->CCER = tmpccer;
 4251              		.loc 1 1787 14
 4252 0026 7B68     		ldr	r3, [r7, #4]
 4253 0028 FA89     		ldrh	r2, [r7, #14]	@ movhi
 4254 002a 1A84     		strh	r2, [r3, #32]	@ movhi
1788:common/lib.stm32/STM32F10x_StdPeriph_Driver/src/stm32f10x_tim.c **** }
 4255              		.loc 1 1788 1
 4256 002c 00BF     		nop
 4257 002e 1437     		adds	r7, r7, #20
 4258              	.LCFI290:
 4259              		.cfi_def_cfa_offset 4
 4260 0030 BD46     		mov	sp, r7
 4261              	.LCFI291:
 4262              		.cfi_def_cfa_register 13
 4263              		@ sp needed
 4264 0032 80BC     		pop	{r7}
 4265              	.LCFI292:
 4266              		.cfi_restore 7
 4267              		.cfi_def_cfa_offset 0
 4268 0034 7047     		bx	lr
 4269              		.cfi_endproc
 4270              	.LFE76:
 4272              		.section	.text.TIM_OC1NPolarityConfig,"ax",%progbits
 4273              		.align	1
 4274              		.global	TIM_OC1NPolarityConfig
 4275              		.syntax unified
 4276              		.thumb
 4277              		.thumb_func
 4279              	TIM_OC1NPolarityConfig:
 4280              	.LFB77:
1789:common/lib.stm32/STM32F10x_StdPeriph_Driver/src/stm32f10x_tim.c **** 
1790:common/lib.stm32/STM32F10x_StdPeriph_Driver/src/stm32f10x_tim.c **** /**
1791:common/lib.stm32/STM32F10x_StdPeriph_Driver/src/stm32f10x_tim.c ****   * @brief  Configures the TIMx Channel 1N polarity.
1792:common/lib.stm32/STM32F10x_StdPeriph_Driver/src/stm32f10x_tim.c ****   * @param  TIMx: where x can be 1 or 8 to select the TIM peripheral.
1793:common/lib.stm32/STM32F10x_StdPeriph_Driver/src/stm32f10x_tim.c ****   * @param  TIM_OCNPolarity: specifies the OC1N Polarity
1794:common/lib.stm32/STM32F10x_StdPeriph_Driver/src/stm32f10x_tim.c ****   *   This parmeter can be one of the following values:
1795:common/lib.stm32/STM32F10x_StdPeriph_Driver/src/stm32f10x_tim.c ****   *     @arg TIM_OCNPolarity_High: Output Compare active high
1796:common/lib.stm32/STM32F10x_StdPeriph_Driver/src/stm32f10x_tim.c ****   *     @arg TIM_OCNPolarity_Low: Output Compare active low
1797:common/lib.stm32/STM32F10x_StdPeriph_Driver/src/stm32f10x_tim.c ****   * @retval None
1798:common/lib.stm32/STM32F10x_StdPeriph_Driver/src/stm32f10x_tim.c ****   */
1799:common/lib.stm32/STM32F10x_StdPeriph_Driver/src/stm32f10x_tim.c **** void TIM_OC1NPolarityConfig(TIM_TypeDef* TIMx, uint16_t TIM_OCNPolarity)
1800:common/lib.stm32/STM32F10x_StdPeriph_Driver/src/stm32f10x_tim.c **** {
 4281              		.loc 1 1800 1
 4282              		.cfi_startproc
 4283              		@ args = 0, pretend = 0, frame = 16
 4284              		@ frame_needed = 1, uses_anonymous_args = 0
 4285              		@ link register save eliminated.
 4286 0000 80B4     		push	{r7}
 4287              	.LCFI293:
 4288              		.cfi_def_cfa_offset 4
 4289              		.cfi_offset 7, -4
 4290 0002 85B0     		sub	sp, sp, #20
 4291              	.LCFI294:
 4292              		.cfi_def_cfa_offset 24
 4293 0004 00AF     		add	r7, sp, #0
 4294              	.LCFI295:
 4295              		.cfi_def_cfa_register 7
 4296 0006 7860     		str	r0, [r7, #4]
 4297 0008 0B46     		mov	r3, r1
 4298 000a 7B80     		strh	r3, [r7, #2]	@ movhi
1801:common/lib.stm32/STM32F10x_StdPeriph_Driver/src/stm32f10x_tim.c ****   uint16_t tmpccer = 0;
 4299              		.loc 1 1801 12
 4300 000c 0023     		movs	r3, #0
 4301 000e FB81     		strh	r3, [r7, #14]	@ movhi
1802:common/lib.stm32/STM32F10x_StdPeriph_Driver/src/stm32f10x_tim.c ****   /* Check the parameters */
1803:common/lib.stm32/STM32F10x_StdPeriph_Driver/src/stm32f10x_tim.c ****   assert_param(IS_TIM_18_PERIPH(TIMx));
1804:common/lib.stm32/STM32F10x_StdPeriph_Driver/src/stm32f10x_tim.c ****   assert_param(IS_TIM_OCN_POLARITY(TIM_OCNPolarity));
1805:common/lib.stm32/STM32F10x_StdPeriph_Driver/src/stm32f10x_tim.c ****    
1806:common/lib.stm32/STM32F10x_StdPeriph_Driver/src/stm32f10x_tim.c ****   tmpccer = TIMx->CCER;
 4302              		.loc 1 1806 11
 4303 0010 7B68     		ldr	r3, [r7, #4]
 4304 0012 1B8C     		ldrh	r3, [r3, #32]	@ movhi
 4305 0014 FB81     		strh	r3, [r7, #14]	@ movhi
1807:common/lib.stm32/STM32F10x_StdPeriph_Driver/src/stm32f10x_tim.c ****   /* Set or Reset the CC1NP Bit */
1808:common/lib.stm32/STM32F10x_StdPeriph_Driver/src/stm32f10x_tim.c ****   tmpccer &= CCER_CC1NP_Reset;
 4306              		.loc 1 1808 11
 4307 0016 FB89     		ldrh	r3, [r7, #14]	@ movhi
 4308 0018 23F00803 		bic	r3, r3, #8
 4309 001c FB81     		strh	r3, [r7, #14]	@ movhi
1809:common/lib.stm32/STM32F10x_StdPeriph_Driver/src/stm32f10x_tim.c ****   tmpccer |= TIM_OCNPolarity;
 4310              		.loc 1 1809 11
 4311 001e FA89     		ldrh	r2, [r7, #14]	@ movhi
 4312 0020 7B88     		ldrh	r3, [r7, #2]	@ movhi
 4313 0022 1343     		orrs	r3, r3, r2
 4314 0024 FB81     		strh	r3, [r7, #14]	@ movhi
1810:common/lib.stm32/STM32F10x_StdPeriph_Driver/src/stm32f10x_tim.c ****   /* Write to TIMx CCER register */
1811:common/lib.stm32/STM32F10x_StdPeriph_Driver/src/stm32f10x_tim.c ****   TIMx->CCER = tmpccer;
 4315              		.loc 1 1811 14
 4316 0026 7B68     		ldr	r3, [r7, #4]
 4317 0028 FA89     		ldrh	r2, [r7, #14]	@ movhi
 4318 002a 1A84     		strh	r2, [r3, #32]	@ movhi
1812:common/lib.stm32/STM32F10x_StdPeriph_Driver/src/stm32f10x_tim.c **** }
 4319              		.loc 1 1812 1
 4320 002c 00BF     		nop
 4321 002e 1437     		adds	r7, r7, #20
 4322              	.LCFI296:
 4323              		.cfi_def_cfa_offset 4
 4324 0030 BD46     		mov	sp, r7
 4325              	.LCFI297:
 4326              		.cfi_def_cfa_register 13
 4327              		@ sp needed
 4328 0032 80BC     		pop	{r7}
 4329              	.LCFI298:
 4330              		.cfi_restore 7
 4331              		.cfi_def_cfa_offset 0
 4332 0034 7047     		bx	lr
 4333              		.cfi_endproc
 4334              	.LFE77:
 4336              		.section	.text.TIM_OC2PolarityConfig,"ax",%progbits
 4337              		.align	1
 4338              		.global	TIM_OC2PolarityConfig
 4339              		.syntax unified
 4340              		.thumb
 4341              		.thumb_func
 4343              	TIM_OC2PolarityConfig:
 4344              	.LFB78:
1813:common/lib.stm32/STM32F10x_StdPeriph_Driver/src/stm32f10x_tim.c **** 
1814:common/lib.stm32/STM32F10x_StdPeriph_Driver/src/stm32f10x_tim.c **** /**
1815:common/lib.stm32/STM32F10x_StdPeriph_Driver/src/stm32f10x_tim.c ****   * @brief  Configures the TIMx channel 2 polarity.
1816:common/lib.stm32/STM32F10x_StdPeriph_Driver/src/stm32f10x_tim.c ****   * @param  TIMx: where x can be 1, 2, 3, 4, 5 or 8 to select the TIM peripheral.
1817:common/lib.stm32/STM32F10x_StdPeriph_Driver/src/stm32f10x_tim.c ****   * @param  TIM_OCPolarity: specifies the OC2 Polarity
1818:common/lib.stm32/STM32F10x_StdPeriph_Driver/src/stm32f10x_tim.c ****   *   This parmeter can be one of the following values:
1819:common/lib.stm32/STM32F10x_StdPeriph_Driver/src/stm32f10x_tim.c ****   *     @arg TIM_OCPolarity_High: Output Compare active high
1820:common/lib.stm32/STM32F10x_StdPeriph_Driver/src/stm32f10x_tim.c ****   *     @arg TIM_OCPolarity_Low: Output Compare active low
1821:common/lib.stm32/STM32F10x_StdPeriph_Driver/src/stm32f10x_tim.c ****   * @retval None
1822:common/lib.stm32/STM32F10x_StdPeriph_Driver/src/stm32f10x_tim.c ****   */
1823:common/lib.stm32/STM32F10x_StdPeriph_Driver/src/stm32f10x_tim.c **** void TIM_OC2PolarityConfig(TIM_TypeDef* TIMx, uint16_t TIM_OCPolarity)
1824:common/lib.stm32/STM32F10x_StdPeriph_Driver/src/stm32f10x_tim.c **** {
 4345              		.loc 1 1824 1
 4346              		.cfi_startproc
 4347              		@ args = 0, pretend = 0, frame = 16
 4348              		@ frame_needed = 1, uses_anonymous_args = 0
 4349              		@ link register save eliminated.
 4350 0000 80B4     		push	{r7}
 4351              	.LCFI299:
 4352              		.cfi_def_cfa_offset 4
 4353              		.cfi_offset 7, -4
 4354 0002 85B0     		sub	sp, sp, #20
 4355              	.LCFI300:
 4356              		.cfi_def_cfa_offset 24
 4357 0004 00AF     		add	r7, sp, #0
 4358              	.LCFI301:
 4359              		.cfi_def_cfa_register 7
 4360 0006 7860     		str	r0, [r7, #4]
 4361 0008 0B46     		mov	r3, r1
 4362 000a 7B80     		strh	r3, [r7, #2]	@ movhi
1825:common/lib.stm32/STM32F10x_StdPeriph_Driver/src/stm32f10x_tim.c ****   uint16_t tmpccer = 0;
 4363              		.loc 1 1825 12
 4364 000c 0023     		movs	r3, #0
 4365 000e FB81     		strh	r3, [r7, #14]	@ movhi
1826:common/lib.stm32/STM32F10x_StdPeriph_Driver/src/stm32f10x_tim.c ****   /* Check the parameters */
1827:common/lib.stm32/STM32F10x_StdPeriph_Driver/src/stm32f10x_tim.c ****   assert_param(IS_TIM_123458_PERIPH(TIMx));
1828:common/lib.stm32/STM32F10x_StdPeriph_Driver/src/stm32f10x_tim.c ****   assert_param(IS_TIM_OC_POLARITY(TIM_OCPolarity));
1829:common/lib.stm32/STM32F10x_StdPeriph_Driver/src/stm32f10x_tim.c ****   tmpccer = TIMx->CCER;
 4366              		.loc 1 1829 11
 4367 0010 7B68     		ldr	r3, [r7, #4]
 4368 0012 1B8C     		ldrh	r3, [r3, #32]	@ movhi
 4369 0014 FB81     		strh	r3, [r7, #14]	@ movhi
1830:common/lib.stm32/STM32F10x_StdPeriph_Driver/src/stm32f10x_tim.c ****   /* Set or Reset the CC2P Bit */
1831:common/lib.stm32/STM32F10x_StdPeriph_Driver/src/stm32f10x_tim.c ****   tmpccer &= CCER_CC2P_Reset;
 4370              		.loc 1 1831 11
 4371 0016 FB89     		ldrh	r3, [r7, #14]	@ movhi
 4372 0018 23F02003 		bic	r3, r3, #32
 4373 001c FB81     		strh	r3, [r7, #14]	@ movhi
1832:common/lib.stm32/STM32F10x_StdPeriph_Driver/src/stm32f10x_tim.c ****   tmpccer |= (uint16_t)(TIM_OCPolarity << 4);
 4374              		.loc 1 1832 14
 4375 001e 7B88     		ldrh	r3, [r7, #2]	@ movhi
 4376 0020 1B01     		lsls	r3, r3, #4
 4377 0022 9AB2     		uxth	r2, r3
 4378              		.loc 1 1832 11
 4379 0024 FB89     		ldrh	r3, [r7, #14]	@ movhi
 4380 0026 1343     		orrs	r3, r3, r2
 4381 0028 FB81     		strh	r3, [r7, #14]	@ movhi
1833:common/lib.stm32/STM32F10x_StdPeriph_Driver/src/stm32f10x_tim.c ****   /* Write to TIMx CCER register */
1834:common/lib.stm32/STM32F10x_StdPeriph_Driver/src/stm32f10x_tim.c ****   TIMx->CCER = tmpccer;
 4382              		.loc 1 1834 14
 4383 002a 7B68     		ldr	r3, [r7, #4]
 4384 002c FA89     		ldrh	r2, [r7, #14]	@ movhi
 4385 002e 1A84     		strh	r2, [r3, #32]	@ movhi
1835:common/lib.stm32/STM32F10x_StdPeriph_Driver/src/stm32f10x_tim.c **** }
 4386              		.loc 1 1835 1
 4387 0030 00BF     		nop
 4388 0032 1437     		adds	r7, r7, #20
 4389              	.LCFI302:
 4390              		.cfi_def_cfa_offset 4
 4391 0034 BD46     		mov	sp, r7
 4392              	.LCFI303:
 4393              		.cfi_def_cfa_register 13
 4394              		@ sp needed
 4395 0036 80BC     		pop	{r7}
 4396              	.LCFI304:
 4397              		.cfi_restore 7
 4398              		.cfi_def_cfa_offset 0
 4399 0038 7047     		bx	lr
 4400              		.cfi_endproc
 4401              	.LFE78:
 4403              		.section	.text.TIM_OC2NPolarityConfig,"ax",%progbits
 4404              		.align	1
 4405              		.global	TIM_OC2NPolarityConfig
 4406              		.syntax unified
 4407              		.thumb
 4408              		.thumb_func
 4410              	TIM_OC2NPolarityConfig:
 4411              	.LFB79:
1836:common/lib.stm32/STM32F10x_StdPeriph_Driver/src/stm32f10x_tim.c **** 
1837:common/lib.stm32/STM32F10x_StdPeriph_Driver/src/stm32f10x_tim.c **** /**
1838:common/lib.stm32/STM32F10x_StdPeriph_Driver/src/stm32f10x_tim.c ****   * @brief  Configures the TIMx Channel 2N polarity.
1839:common/lib.stm32/STM32F10x_StdPeriph_Driver/src/stm32f10x_tim.c ****   * @param  TIMx: where x can be 1 or 8 to select the TIM peripheral.
1840:common/lib.stm32/STM32F10x_StdPeriph_Driver/src/stm32f10x_tim.c ****   * @param  TIM_OCNPolarity: specifies the OC2N Polarity
1841:common/lib.stm32/STM32F10x_StdPeriph_Driver/src/stm32f10x_tim.c ****   *   This parmeter can be one of the following values:
1842:common/lib.stm32/STM32F10x_StdPeriph_Driver/src/stm32f10x_tim.c ****   *     @arg TIM_OCNPolarity_High: Output Compare active high
1843:common/lib.stm32/STM32F10x_StdPeriph_Driver/src/stm32f10x_tim.c ****   *     @arg TIM_OCNPolarity_Low: Output Compare active low
1844:common/lib.stm32/STM32F10x_StdPeriph_Driver/src/stm32f10x_tim.c ****   * @retval None
1845:common/lib.stm32/STM32F10x_StdPeriph_Driver/src/stm32f10x_tim.c ****   */
1846:common/lib.stm32/STM32F10x_StdPeriph_Driver/src/stm32f10x_tim.c **** void TIM_OC2NPolarityConfig(TIM_TypeDef* TIMx, uint16_t TIM_OCNPolarity)
1847:common/lib.stm32/STM32F10x_StdPeriph_Driver/src/stm32f10x_tim.c **** {
 4412              		.loc 1 1847 1
 4413              		.cfi_startproc
 4414              		@ args = 0, pretend = 0, frame = 16
 4415              		@ frame_needed = 1, uses_anonymous_args = 0
 4416              		@ link register save eliminated.
 4417 0000 80B4     		push	{r7}
 4418              	.LCFI305:
 4419              		.cfi_def_cfa_offset 4
 4420              		.cfi_offset 7, -4
 4421 0002 85B0     		sub	sp, sp, #20
 4422              	.LCFI306:
 4423              		.cfi_def_cfa_offset 24
 4424 0004 00AF     		add	r7, sp, #0
 4425              	.LCFI307:
 4426              		.cfi_def_cfa_register 7
 4427 0006 7860     		str	r0, [r7, #4]
 4428 0008 0B46     		mov	r3, r1
 4429 000a 7B80     		strh	r3, [r7, #2]	@ movhi
1848:common/lib.stm32/STM32F10x_StdPeriph_Driver/src/stm32f10x_tim.c ****   uint16_t tmpccer = 0;
 4430              		.loc 1 1848 12
 4431 000c 0023     		movs	r3, #0
 4432 000e FB81     		strh	r3, [r7, #14]	@ movhi
1849:common/lib.stm32/STM32F10x_StdPeriph_Driver/src/stm32f10x_tim.c ****   /* Check the parameters */
1850:common/lib.stm32/STM32F10x_StdPeriph_Driver/src/stm32f10x_tim.c ****   assert_param(IS_TIM_18_PERIPH(TIMx));
1851:common/lib.stm32/STM32F10x_StdPeriph_Driver/src/stm32f10x_tim.c ****   assert_param(IS_TIM_OCN_POLARITY(TIM_OCNPolarity));
1852:common/lib.stm32/STM32F10x_StdPeriph_Driver/src/stm32f10x_tim.c ****   
1853:common/lib.stm32/STM32F10x_StdPeriph_Driver/src/stm32f10x_tim.c ****   tmpccer = TIMx->CCER;
 4433              		.loc 1 1853 11
 4434 0010 7B68     		ldr	r3, [r7, #4]
 4435 0012 1B8C     		ldrh	r3, [r3, #32]	@ movhi
 4436 0014 FB81     		strh	r3, [r7, #14]	@ movhi
1854:common/lib.stm32/STM32F10x_StdPeriph_Driver/src/stm32f10x_tim.c ****   /* Set or Reset the CC2NP Bit */
1855:common/lib.stm32/STM32F10x_StdPeriph_Driver/src/stm32f10x_tim.c ****   tmpccer &= CCER_CC2NP_Reset;
 4437              		.loc 1 1855 11
 4438 0016 FB89     		ldrh	r3, [r7, #14]	@ movhi
 4439 0018 23F08003 		bic	r3, r3, #128
 4440 001c FB81     		strh	r3, [r7, #14]	@ movhi
1856:common/lib.stm32/STM32F10x_StdPeriph_Driver/src/stm32f10x_tim.c ****   tmpccer |= (uint16_t)(TIM_OCNPolarity << 4);
 4441              		.loc 1 1856 14
 4442 001e 7B88     		ldrh	r3, [r7, #2]	@ movhi
 4443 0020 1B01     		lsls	r3, r3, #4
 4444 0022 9AB2     		uxth	r2, r3
 4445              		.loc 1 1856 11
 4446 0024 FB89     		ldrh	r3, [r7, #14]	@ movhi
 4447 0026 1343     		orrs	r3, r3, r2
 4448 0028 FB81     		strh	r3, [r7, #14]	@ movhi
1857:common/lib.stm32/STM32F10x_StdPeriph_Driver/src/stm32f10x_tim.c ****   /* Write to TIMx CCER register */
1858:common/lib.stm32/STM32F10x_StdPeriph_Driver/src/stm32f10x_tim.c ****   TIMx->CCER = tmpccer;
 4449              		.loc 1 1858 14
 4450 002a 7B68     		ldr	r3, [r7, #4]
 4451 002c FA89     		ldrh	r2, [r7, #14]	@ movhi
 4452 002e 1A84     		strh	r2, [r3, #32]	@ movhi
1859:common/lib.stm32/STM32F10x_StdPeriph_Driver/src/stm32f10x_tim.c **** }
 4453              		.loc 1 1859 1
 4454 0030 00BF     		nop
 4455 0032 1437     		adds	r7, r7, #20
 4456              	.LCFI308:
 4457              		.cfi_def_cfa_offset 4
 4458 0034 BD46     		mov	sp, r7
 4459              	.LCFI309:
 4460              		.cfi_def_cfa_register 13
 4461              		@ sp needed
 4462 0036 80BC     		pop	{r7}
 4463              	.LCFI310:
 4464              		.cfi_restore 7
 4465              		.cfi_def_cfa_offset 0
 4466 0038 7047     		bx	lr
 4467              		.cfi_endproc
 4468              	.LFE79:
 4470              		.section	.text.TIM_OC3PolarityConfig,"ax",%progbits
 4471              		.align	1
 4472              		.global	TIM_OC3PolarityConfig
 4473              		.syntax unified
 4474              		.thumb
 4475              		.thumb_func
 4477              	TIM_OC3PolarityConfig:
 4478              	.LFB80:
1860:common/lib.stm32/STM32F10x_StdPeriph_Driver/src/stm32f10x_tim.c **** 
1861:common/lib.stm32/STM32F10x_StdPeriph_Driver/src/stm32f10x_tim.c **** /**
1862:common/lib.stm32/STM32F10x_StdPeriph_Driver/src/stm32f10x_tim.c ****   * @brief  Configures the TIMx channel 3 polarity.
1863:common/lib.stm32/STM32F10x_StdPeriph_Driver/src/stm32f10x_tim.c ****   * @param  TIMx: where x can be 1, 2, 3, 4, 5 or 8 to select the TIM peripheral.
1864:common/lib.stm32/STM32F10x_StdPeriph_Driver/src/stm32f10x_tim.c ****   * @param  TIM_OCPolarity: specifies the OC3 Polarity
1865:common/lib.stm32/STM32F10x_StdPeriph_Driver/src/stm32f10x_tim.c ****   *   This parmeter can be one of the following values:
1866:common/lib.stm32/STM32F10x_StdPeriph_Driver/src/stm32f10x_tim.c ****   *     @arg TIM_OCPolarity_High: Output Compare active high
1867:common/lib.stm32/STM32F10x_StdPeriph_Driver/src/stm32f10x_tim.c ****   *     @arg TIM_OCPolarity_Low: Output Compare active low
1868:common/lib.stm32/STM32F10x_StdPeriph_Driver/src/stm32f10x_tim.c ****   * @retval None
1869:common/lib.stm32/STM32F10x_StdPeriph_Driver/src/stm32f10x_tim.c ****   */
1870:common/lib.stm32/STM32F10x_StdPeriph_Driver/src/stm32f10x_tim.c **** void TIM_OC3PolarityConfig(TIM_TypeDef* TIMx, uint16_t TIM_OCPolarity)
1871:common/lib.stm32/STM32F10x_StdPeriph_Driver/src/stm32f10x_tim.c **** {
 4479              		.loc 1 1871 1
 4480              		.cfi_startproc
 4481              		@ args = 0, pretend = 0, frame = 16
 4482              		@ frame_needed = 1, uses_anonymous_args = 0
 4483              		@ link register save eliminated.
 4484 0000 80B4     		push	{r7}
 4485              	.LCFI311:
 4486              		.cfi_def_cfa_offset 4
 4487              		.cfi_offset 7, -4
 4488 0002 85B0     		sub	sp, sp, #20
 4489              	.LCFI312:
 4490              		.cfi_def_cfa_offset 24
 4491 0004 00AF     		add	r7, sp, #0
 4492              	.LCFI313:
 4493              		.cfi_def_cfa_register 7
 4494 0006 7860     		str	r0, [r7, #4]
 4495 0008 0B46     		mov	r3, r1
 4496 000a 7B80     		strh	r3, [r7, #2]	@ movhi
1872:common/lib.stm32/STM32F10x_StdPeriph_Driver/src/stm32f10x_tim.c ****   uint16_t tmpccer = 0;
 4497              		.loc 1 1872 12
 4498 000c 0023     		movs	r3, #0
 4499 000e FB81     		strh	r3, [r7, #14]	@ movhi
1873:common/lib.stm32/STM32F10x_StdPeriph_Driver/src/stm32f10x_tim.c ****   /* Check the parameters */
1874:common/lib.stm32/STM32F10x_StdPeriph_Driver/src/stm32f10x_tim.c ****   assert_param(IS_TIM_123458_PERIPH(TIMx));
1875:common/lib.stm32/STM32F10x_StdPeriph_Driver/src/stm32f10x_tim.c ****   assert_param(IS_TIM_OC_POLARITY(TIM_OCPolarity));
1876:common/lib.stm32/STM32F10x_StdPeriph_Driver/src/stm32f10x_tim.c ****   tmpccer = TIMx->CCER;
 4500              		.loc 1 1876 11
 4501 0010 7B68     		ldr	r3, [r7, #4]
 4502 0012 1B8C     		ldrh	r3, [r3, #32]	@ movhi
 4503 0014 FB81     		strh	r3, [r7, #14]	@ movhi
1877:common/lib.stm32/STM32F10x_StdPeriph_Driver/src/stm32f10x_tim.c ****   /* Set or Reset the CC3P Bit */
1878:common/lib.stm32/STM32F10x_StdPeriph_Driver/src/stm32f10x_tim.c ****   tmpccer &= CCER_CC3P_Reset;
 4504              		.loc 1 1878 11
 4505 0016 FB89     		ldrh	r3, [r7, #14]	@ movhi
 4506 0018 23F40073 		bic	r3, r3, #512
 4507 001c FB81     		strh	r3, [r7, #14]	@ movhi
1879:common/lib.stm32/STM32F10x_StdPeriph_Driver/src/stm32f10x_tim.c ****   tmpccer |= (uint16_t)(TIM_OCPolarity << 8);
 4508              		.loc 1 1879 14
 4509 001e 7B88     		ldrh	r3, [r7, #2]	@ movhi
 4510 0020 1B02     		lsls	r3, r3, #8
 4511 0022 9AB2     		uxth	r2, r3
 4512              		.loc 1 1879 11
 4513 0024 FB89     		ldrh	r3, [r7, #14]	@ movhi
 4514 0026 1343     		orrs	r3, r3, r2
 4515 0028 FB81     		strh	r3, [r7, #14]	@ movhi
1880:common/lib.stm32/STM32F10x_StdPeriph_Driver/src/stm32f10x_tim.c ****   /* Write to TIMx CCER register */
1881:common/lib.stm32/STM32F10x_StdPeriph_Driver/src/stm32f10x_tim.c ****   TIMx->CCER = tmpccer;
 4516              		.loc 1 1881 14
 4517 002a 7B68     		ldr	r3, [r7, #4]
 4518 002c FA89     		ldrh	r2, [r7, #14]	@ movhi
 4519 002e 1A84     		strh	r2, [r3, #32]	@ movhi
1882:common/lib.stm32/STM32F10x_StdPeriph_Driver/src/stm32f10x_tim.c **** }
 4520              		.loc 1 1882 1
 4521 0030 00BF     		nop
 4522 0032 1437     		adds	r7, r7, #20
 4523              	.LCFI314:
 4524              		.cfi_def_cfa_offset 4
 4525 0034 BD46     		mov	sp, r7
 4526              	.LCFI315:
 4527              		.cfi_def_cfa_register 13
 4528              		@ sp needed
 4529 0036 80BC     		pop	{r7}
 4530              	.LCFI316:
 4531              		.cfi_restore 7
 4532              		.cfi_def_cfa_offset 0
 4533 0038 7047     		bx	lr
 4534              		.cfi_endproc
 4535              	.LFE80:
 4537              		.section	.text.TIM_OC3NPolarityConfig,"ax",%progbits
 4538              		.align	1
 4539              		.global	TIM_OC3NPolarityConfig
 4540              		.syntax unified
 4541              		.thumb
 4542              		.thumb_func
 4544              	TIM_OC3NPolarityConfig:
 4545              	.LFB81:
1883:common/lib.stm32/STM32F10x_StdPeriph_Driver/src/stm32f10x_tim.c **** 
1884:common/lib.stm32/STM32F10x_StdPeriph_Driver/src/stm32f10x_tim.c **** /**
1885:common/lib.stm32/STM32F10x_StdPeriph_Driver/src/stm32f10x_tim.c ****   * @brief  Configures the TIMx Channel 3N polarity.
1886:common/lib.stm32/STM32F10x_StdPeriph_Driver/src/stm32f10x_tim.c ****   * @param  TIMx: where x can be 1 or 8 to select the TIM peripheral.
1887:common/lib.stm32/STM32F10x_StdPeriph_Driver/src/stm32f10x_tim.c ****   * @param  TIM_OCNPolarity: specifies the OC3N Polarity
1888:common/lib.stm32/STM32F10x_StdPeriph_Driver/src/stm32f10x_tim.c ****   *   This parmeter can be one of the following values:
1889:common/lib.stm32/STM32F10x_StdPeriph_Driver/src/stm32f10x_tim.c ****   *     @arg TIM_OCNPolarity_High: Output Compare active high
1890:common/lib.stm32/STM32F10x_StdPeriph_Driver/src/stm32f10x_tim.c ****   *     @arg TIM_OCNPolarity_Low: Output Compare active low
1891:common/lib.stm32/STM32F10x_StdPeriph_Driver/src/stm32f10x_tim.c ****   * @retval None
1892:common/lib.stm32/STM32F10x_StdPeriph_Driver/src/stm32f10x_tim.c ****   */
1893:common/lib.stm32/STM32F10x_StdPeriph_Driver/src/stm32f10x_tim.c **** void TIM_OC3NPolarityConfig(TIM_TypeDef* TIMx, uint16_t TIM_OCNPolarity)
1894:common/lib.stm32/STM32F10x_StdPeriph_Driver/src/stm32f10x_tim.c **** {
 4546              		.loc 1 1894 1
 4547              		.cfi_startproc
 4548              		@ args = 0, pretend = 0, frame = 16
 4549              		@ frame_needed = 1, uses_anonymous_args = 0
 4550              		@ link register save eliminated.
 4551 0000 80B4     		push	{r7}
 4552              	.LCFI317:
 4553              		.cfi_def_cfa_offset 4
 4554              		.cfi_offset 7, -4
 4555 0002 85B0     		sub	sp, sp, #20
 4556              	.LCFI318:
 4557              		.cfi_def_cfa_offset 24
 4558 0004 00AF     		add	r7, sp, #0
 4559              	.LCFI319:
 4560              		.cfi_def_cfa_register 7
 4561 0006 7860     		str	r0, [r7, #4]
 4562 0008 0B46     		mov	r3, r1
 4563 000a 7B80     		strh	r3, [r7, #2]	@ movhi
1895:common/lib.stm32/STM32F10x_StdPeriph_Driver/src/stm32f10x_tim.c ****   uint16_t tmpccer = 0;
 4564              		.loc 1 1895 12
 4565 000c 0023     		movs	r3, #0
 4566 000e FB81     		strh	r3, [r7, #14]	@ movhi
1896:common/lib.stm32/STM32F10x_StdPeriph_Driver/src/stm32f10x_tim.c ****  
1897:common/lib.stm32/STM32F10x_StdPeriph_Driver/src/stm32f10x_tim.c ****   /* Check the parameters */
1898:common/lib.stm32/STM32F10x_StdPeriph_Driver/src/stm32f10x_tim.c ****   assert_param(IS_TIM_18_PERIPH(TIMx));
1899:common/lib.stm32/STM32F10x_StdPeriph_Driver/src/stm32f10x_tim.c ****   assert_param(IS_TIM_OCN_POLARITY(TIM_OCNPolarity));
1900:common/lib.stm32/STM32F10x_StdPeriph_Driver/src/stm32f10x_tim.c ****     
1901:common/lib.stm32/STM32F10x_StdPeriph_Driver/src/stm32f10x_tim.c ****   tmpccer = TIMx->CCER;
 4567              		.loc 1 1901 11
 4568 0010 7B68     		ldr	r3, [r7, #4]
 4569 0012 1B8C     		ldrh	r3, [r3, #32]	@ movhi
 4570 0014 FB81     		strh	r3, [r7, #14]	@ movhi
1902:common/lib.stm32/STM32F10x_StdPeriph_Driver/src/stm32f10x_tim.c ****   /* Set or Reset the CC3NP Bit */
1903:common/lib.stm32/STM32F10x_StdPeriph_Driver/src/stm32f10x_tim.c ****   tmpccer &= CCER_CC3NP_Reset;
 4571              		.loc 1 1903 11
 4572 0016 FB89     		ldrh	r3, [r7, #14]	@ movhi
 4573 0018 23F40063 		bic	r3, r3, #2048
 4574 001c FB81     		strh	r3, [r7, #14]	@ movhi
1904:common/lib.stm32/STM32F10x_StdPeriph_Driver/src/stm32f10x_tim.c ****   tmpccer |= (uint16_t)(TIM_OCNPolarity << 8);
 4575              		.loc 1 1904 14
 4576 001e 7B88     		ldrh	r3, [r7, #2]	@ movhi
 4577 0020 1B02     		lsls	r3, r3, #8
 4578 0022 9AB2     		uxth	r2, r3
 4579              		.loc 1 1904 11
 4580 0024 FB89     		ldrh	r3, [r7, #14]	@ movhi
 4581 0026 1343     		orrs	r3, r3, r2
 4582 0028 FB81     		strh	r3, [r7, #14]	@ movhi
1905:common/lib.stm32/STM32F10x_StdPeriph_Driver/src/stm32f10x_tim.c ****   /* Write to TIMx CCER register */
1906:common/lib.stm32/STM32F10x_StdPeriph_Driver/src/stm32f10x_tim.c ****   TIMx->CCER = tmpccer;
 4583              		.loc 1 1906 14
 4584 002a 7B68     		ldr	r3, [r7, #4]
 4585 002c FA89     		ldrh	r2, [r7, #14]	@ movhi
 4586 002e 1A84     		strh	r2, [r3, #32]	@ movhi
1907:common/lib.stm32/STM32F10x_StdPeriph_Driver/src/stm32f10x_tim.c **** }
 4587              		.loc 1 1907 1
 4588 0030 00BF     		nop
 4589 0032 1437     		adds	r7, r7, #20
 4590              	.LCFI320:
 4591              		.cfi_def_cfa_offset 4
 4592 0034 BD46     		mov	sp, r7
 4593              	.LCFI321:
 4594              		.cfi_def_cfa_register 13
 4595              		@ sp needed
 4596 0036 80BC     		pop	{r7}
 4597              	.LCFI322:
 4598              		.cfi_restore 7
 4599              		.cfi_def_cfa_offset 0
 4600 0038 7047     		bx	lr
 4601              		.cfi_endproc
 4602              	.LFE81:
 4604              		.section	.text.TIM_OC4PolarityConfig,"ax",%progbits
 4605              		.align	1
 4606              		.global	TIM_OC4PolarityConfig
 4607              		.syntax unified
 4608              		.thumb
 4609              		.thumb_func
 4611              	TIM_OC4PolarityConfig:
 4612              	.LFB82:
1908:common/lib.stm32/STM32F10x_StdPeriph_Driver/src/stm32f10x_tim.c **** 
1909:common/lib.stm32/STM32F10x_StdPeriph_Driver/src/stm32f10x_tim.c **** /**
1910:common/lib.stm32/STM32F10x_StdPeriph_Driver/src/stm32f10x_tim.c ****   * @brief  Configures the TIMx channel 4 polarity.
1911:common/lib.stm32/STM32F10x_StdPeriph_Driver/src/stm32f10x_tim.c ****   * @param  TIMx: where x can be 1, 2, 3, 4, 5 or 8 to select the TIM peripheral.
1912:common/lib.stm32/STM32F10x_StdPeriph_Driver/src/stm32f10x_tim.c ****   * @param  TIM_OCPolarity: specifies the OC4 Polarity
1913:common/lib.stm32/STM32F10x_StdPeriph_Driver/src/stm32f10x_tim.c ****   *   This parmeter can be one of the following values:
1914:common/lib.stm32/STM32F10x_StdPeriph_Driver/src/stm32f10x_tim.c ****   *     @arg TIM_OCPolarity_High: Output Compare active high
1915:common/lib.stm32/STM32F10x_StdPeriph_Driver/src/stm32f10x_tim.c ****   *     @arg TIM_OCPolarity_Low: Output Compare active low
1916:common/lib.stm32/STM32F10x_StdPeriph_Driver/src/stm32f10x_tim.c ****   * @retval None
1917:common/lib.stm32/STM32F10x_StdPeriph_Driver/src/stm32f10x_tim.c ****   */
1918:common/lib.stm32/STM32F10x_StdPeriph_Driver/src/stm32f10x_tim.c **** void TIM_OC4PolarityConfig(TIM_TypeDef* TIMx, uint16_t TIM_OCPolarity)
1919:common/lib.stm32/STM32F10x_StdPeriph_Driver/src/stm32f10x_tim.c **** {
 4613              		.loc 1 1919 1
 4614              		.cfi_startproc
 4615              		@ args = 0, pretend = 0, frame = 16
 4616              		@ frame_needed = 1, uses_anonymous_args = 0
 4617              		@ link register save eliminated.
 4618 0000 80B4     		push	{r7}
 4619              	.LCFI323:
 4620              		.cfi_def_cfa_offset 4
 4621              		.cfi_offset 7, -4
 4622 0002 85B0     		sub	sp, sp, #20
 4623              	.LCFI324:
 4624              		.cfi_def_cfa_offset 24
 4625 0004 00AF     		add	r7, sp, #0
 4626              	.LCFI325:
 4627              		.cfi_def_cfa_register 7
 4628 0006 7860     		str	r0, [r7, #4]
 4629 0008 0B46     		mov	r3, r1
 4630 000a 7B80     		strh	r3, [r7, #2]	@ movhi
1920:common/lib.stm32/STM32F10x_StdPeriph_Driver/src/stm32f10x_tim.c ****   uint16_t tmpccer = 0;
 4631              		.loc 1 1920 12
 4632 000c 0023     		movs	r3, #0
 4633 000e FB81     		strh	r3, [r7, #14]	@ movhi
1921:common/lib.stm32/STM32F10x_StdPeriph_Driver/src/stm32f10x_tim.c ****   /* Check the parameters */
1922:common/lib.stm32/STM32F10x_StdPeriph_Driver/src/stm32f10x_tim.c ****   assert_param(IS_TIM_123458_PERIPH(TIMx));
1923:common/lib.stm32/STM32F10x_StdPeriph_Driver/src/stm32f10x_tim.c ****   assert_param(IS_TIM_OC_POLARITY(TIM_OCPolarity));
1924:common/lib.stm32/STM32F10x_StdPeriph_Driver/src/stm32f10x_tim.c ****   tmpccer = TIMx->CCER;
 4634              		.loc 1 1924 11
 4635 0010 7B68     		ldr	r3, [r7, #4]
 4636 0012 1B8C     		ldrh	r3, [r3, #32]	@ movhi
 4637 0014 FB81     		strh	r3, [r7, #14]	@ movhi
1925:common/lib.stm32/STM32F10x_StdPeriph_Driver/src/stm32f10x_tim.c ****   /* Set or Reset the CC4P Bit */
1926:common/lib.stm32/STM32F10x_StdPeriph_Driver/src/stm32f10x_tim.c ****   tmpccer &= CCER_CC4P_Reset;
 4638              		.loc 1 1926 11
 4639 0016 FB89     		ldrh	r3, [r7, #14]	@ movhi
 4640 0018 23F40053 		bic	r3, r3, #8192
 4641 001c FB81     		strh	r3, [r7, #14]	@ movhi
1927:common/lib.stm32/STM32F10x_StdPeriph_Driver/src/stm32f10x_tim.c ****   tmpccer |= (uint16_t)(TIM_OCPolarity << 12);
 4642              		.loc 1 1927 14
 4643 001e 7B88     		ldrh	r3, [r7, #2]	@ movhi
 4644 0020 1B03     		lsls	r3, r3, #12
 4645 0022 9AB2     		uxth	r2, r3
 4646              		.loc 1 1927 11
 4647 0024 FB89     		ldrh	r3, [r7, #14]	@ movhi
 4648 0026 1343     		orrs	r3, r3, r2
 4649 0028 FB81     		strh	r3, [r7, #14]	@ movhi
1928:common/lib.stm32/STM32F10x_StdPeriph_Driver/src/stm32f10x_tim.c ****   /* Write to TIMx CCER register */
1929:common/lib.stm32/STM32F10x_StdPeriph_Driver/src/stm32f10x_tim.c ****   TIMx->CCER = tmpccer;
 4650              		.loc 1 1929 14
 4651 002a 7B68     		ldr	r3, [r7, #4]
 4652 002c FA89     		ldrh	r2, [r7, #14]	@ movhi
 4653 002e 1A84     		strh	r2, [r3, #32]	@ movhi
1930:common/lib.stm32/STM32F10x_StdPeriph_Driver/src/stm32f10x_tim.c **** }
 4654              		.loc 1 1930 1
 4655 0030 00BF     		nop
 4656 0032 1437     		adds	r7, r7, #20
 4657              	.LCFI326:
 4658              		.cfi_def_cfa_offset 4
 4659 0034 BD46     		mov	sp, r7
 4660              	.LCFI327:
 4661              		.cfi_def_cfa_register 13
 4662              		@ sp needed
 4663 0036 80BC     		pop	{r7}
 4664              	.LCFI328:
 4665              		.cfi_restore 7
 4666              		.cfi_def_cfa_offset 0
 4667 0038 7047     		bx	lr
 4668              		.cfi_endproc
 4669              	.LFE82:
 4671              		.section	.text.TIM_CCxCmd,"ax",%progbits
 4672              		.align	1
 4673              		.global	TIM_CCxCmd
 4674              		.syntax unified
 4675              		.thumb
 4676              		.thumb_func
 4678              	TIM_CCxCmd:
 4679              	.LFB83:
1931:common/lib.stm32/STM32F10x_StdPeriph_Driver/src/stm32f10x_tim.c **** 
1932:common/lib.stm32/STM32F10x_StdPeriph_Driver/src/stm32f10x_tim.c **** /**
1933:common/lib.stm32/STM32F10x_StdPeriph_Driver/src/stm32f10x_tim.c ****   * @brief  Enables or disables the TIM Capture Compare Channel x.
1934:common/lib.stm32/STM32F10x_StdPeriph_Driver/src/stm32f10x_tim.c ****   * @param  TIMx: where x can be 1, 2, 3, 4, 5 or 8 to select the TIM peripheral.
1935:common/lib.stm32/STM32F10x_StdPeriph_Driver/src/stm32f10x_tim.c ****   * @param  TIM_Channel: specifies the TIM Channel
1936:common/lib.stm32/STM32F10x_StdPeriph_Driver/src/stm32f10x_tim.c ****   *   This parmeter can be one of the following values:
1937:common/lib.stm32/STM32F10x_StdPeriph_Driver/src/stm32f10x_tim.c ****   *     @arg TIM_Channel_1: TIM Channel 1
1938:common/lib.stm32/STM32F10x_StdPeriph_Driver/src/stm32f10x_tim.c ****   *     @arg TIM_Channel_2: TIM Channel 2
1939:common/lib.stm32/STM32F10x_StdPeriph_Driver/src/stm32f10x_tim.c ****   *     @arg TIM_Channel_3: TIM Channel 3
1940:common/lib.stm32/STM32F10x_StdPeriph_Driver/src/stm32f10x_tim.c ****   *     @arg TIM_Channel_4: TIM Channel 4
1941:common/lib.stm32/STM32F10x_StdPeriph_Driver/src/stm32f10x_tim.c ****   * @param  TIM_CCx: specifies the TIM Channel CCxE bit new state.
1942:common/lib.stm32/STM32F10x_StdPeriph_Driver/src/stm32f10x_tim.c ****   *   This parameter can be: TIM_CCx_Enable or TIM_CCx_Disable. 
1943:common/lib.stm32/STM32F10x_StdPeriph_Driver/src/stm32f10x_tim.c ****   * @retval None
1944:common/lib.stm32/STM32F10x_StdPeriph_Driver/src/stm32f10x_tim.c ****   */
1945:common/lib.stm32/STM32F10x_StdPeriph_Driver/src/stm32f10x_tim.c **** void TIM_CCxCmd(TIM_TypeDef* TIMx, uint16_t TIM_Channel, uint16_t TIM_CCx)
1946:common/lib.stm32/STM32F10x_StdPeriph_Driver/src/stm32f10x_tim.c **** {
 4680              		.loc 1 1946 1
 4681              		.cfi_startproc
 4682              		@ args = 0, pretend = 0, frame = 16
 4683              		@ frame_needed = 1, uses_anonymous_args = 0
 4684              		@ link register save eliminated.
 4685 0000 80B4     		push	{r7}
 4686              	.LCFI329:
 4687              		.cfi_def_cfa_offset 4
 4688              		.cfi_offset 7, -4
 4689 0002 85B0     		sub	sp, sp, #20
 4690              	.LCFI330:
 4691              		.cfi_def_cfa_offset 24
 4692 0004 00AF     		add	r7, sp, #0
 4693              	.LCFI331:
 4694              		.cfi_def_cfa_register 7
 4695 0006 7860     		str	r0, [r7, #4]
 4696 0008 0B46     		mov	r3, r1
 4697 000a 7B80     		strh	r3, [r7, #2]	@ movhi
 4698 000c 1346     		mov	r3, r2	@ movhi
 4699 000e 3B80     		strh	r3, [r7]	@ movhi
1947:common/lib.stm32/STM32F10x_StdPeriph_Driver/src/stm32f10x_tim.c ****   uint16_t tmp = 0;
 4700              		.loc 1 1947 12
 4701 0010 0023     		movs	r3, #0
 4702 0012 FB81     		strh	r3, [r7, #14]	@ movhi
1948:common/lib.stm32/STM32F10x_StdPeriph_Driver/src/stm32f10x_tim.c **** 
1949:common/lib.stm32/STM32F10x_StdPeriph_Driver/src/stm32f10x_tim.c ****   /* Check the parameters */
1950:common/lib.stm32/STM32F10x_StdPeriph_Driver/src/stm32f10x_tim.c ****   assert_param(IS_TIM_123458_PERIPH(TIMx));
1951:common/lib.stm32/STM32F10x_StdPeriph_Driver/src/stm32f10x_tim.c ****   assert_param(IS_TIM_CHANNEL(TIM_Channel));
1952:common/lib.stm32/STM32F10x_StdPeriph_Driver/src/stm32f10x_tim.c ****   assert_param(IS_TIM_CCX(TIM_CCx));
1953:common/lib.stm32/STM32F10x_StdPeriph_Driver/src/stm32f10x_tim.c **** 
1954:common/lib.stm32/STM32F10x_StdPeriph_Driver/src/stm32f10x_tim.c ****   tmp = CCER_CCE_Set << TIM_Channel;
 4703              		.loc 1 1954 22
 4704 0014 7B88     		ldrh	r3, [r7, #2]
 4705 0016 0122     		movs	r2, #1
 4706 0018 02FA03F3 		lsl	r3, r2, r3
 4707              		.loc 1 1954 7
 4708 001c FB81     		strh	r3, [r7, #14]	@ movhi
1955:common/lib.stm32/STM32F10x_StdPeriph_Driver/src/stm32f10x_tim.c **** 
1956:common/lib.stm32/STM32F10x_StdPeriph_Driver/src/stm32f10x_tim.c ****   /* Reset the CCxE Bit */
1957:common/lib.stm32/STM32F10x_StdPeriph_Driver/src/stm32f10x_tim.c ****   TIMx->CCER &= (uint16_t)~ tmp;
 4709              		.loc 1 1957 14
 4710 001e 7B68     		ldr	r3, [r7, #4]
 4711 0020 1B8C     		ldrh	r3, [r3, #32]	@ movhi
 4712 0022 9AB2     		uxth	r2, r3
 4713              		.loc 1 1957 17
 4714 0024 FB89     		ldrh	r3, [r7, #14]	@ movhi
 4715 0026 DB43     		mvns	r3, r3
 4716 0028 9BB2     		uxth	r3, r3
 4717              		.loc 1 1957 14
 4718 002a 1340     		ands	r3, r3, r2
 4719 002c 9AB2     		uxth	r2, r3
 4720 002e 7B68     		ldr	r3, [r7, #4]
 4721 0030 1A84     		strh	r2, [r3, #32]	@ movhi
1958:common/lib.stm32/STM32F10x_StdPeriph_Driver/src/stm32f10x_tim.c **** 
1959:common/lib.stm32/STM32F10x_StdPeriph_Driver/src/stm32f10x_tim.c ****   /* Set or reset the CCxE Bit */ 
1960:common/lib.stm32/STM32F10x_StdPeriph_Driver/src/stm32f10x_tim.c ****   TIMx->CCER |=  (uint16_t)(TIM_CCx << TIM_Channel);
 4722              		.loc 1 1960 14
 4723 0032 7B68     		ldr	r3, [r7, #4]
 4724 0034 1B8C     		ldrh	r3, [r3, #32]	@ movhi
 4725 0036 9AB2     		uxth	r2, r3
 4726              		.loc 1 1960 37
 4727 0038 3988     		ldrh	r1, [r7]
 4728 003a 7B88     		ldrh	r3, [r7, #2]
 4729 003c 01FA03F3 		lsl	r3, r1, r3
 4730              		.loc 1 1960 18
 4731 0040 9BB2     		uxth	r3, r3
 4732              		.loc 1 1960 14
 4733 0042 1343     		orrs	r3, r3, r2
 4734 0044 9AB2     		uxth	r2, r3
 4735 0046 7B68     		ldr	r3, [r7, #4]
 4736 0048 1A84     		strh	r2, [r3, #32]	@ movhi
1961:common/lib.stm32/STM32F10x_StdPeriph_Driver/src/stm32f10x_tim.c **** }
 4737              		.loc 1 1961 1
 4738 004a 00BF     		nop
 4739 004c 1437     		adds	r7, r7, #20
 4740              	.LCFI332:
 4741              		.cfi_def_cfa_offset 4
 4742 004e BD46     		mov	sp, r7
 4743              	.LCFI333:
 4744              		.cfi_def_cfa_register 13
 4745              		@ sp needed
 4746 0050 80BC     		pop	{r7}
 4747              	.LCFI334:
 4748              		.cfi_restore 7
 4749              		.cfi_def_cfa_offset 0
 4750 0052 7047     		bx	lr
 4751              		.cfi_endproc
 4752              	.LFE83:
 4754              		.section	.text.TIM_CCxNCmd,"ax",%progbits
 4755              		.align	1
 4756              		.global	TIM_CCxNCmd
 4757              		.syntax unified
 4758              		.thumb
 4759              		.thumb_func
 4761              	TIM_CCxNCmd:
 4762              	.LFB84:
1962:common/lib.stm32/STM32F10x_StdPeriph_Driver/src/stm32f10x_tim.c **** 
1963:common/lib.stm32/STM32F10x_StdPeriph_Driver/src/stm32f10x_tim.c **** /**
1964:common/lib.stm32/STM32F10x_StdPeriph_Driver/src/stm32f10x_tim.c ****   * @brief  Enables or disables the TIM Capture Compare Channel xN.
1965:common/lib.stm32/STM32F10x_StdPeriph_Driver/src/stm32f10x_tim.c ****   * @param  TIMx: where x can be 1 or 8 to select the TIM peripheral.
1966:common/lib.stm32/STM32F10x_StdPeriph_Driver/src/stm32f10x_tim.c ****   * @param  TIM_Channel: specifies the TIM Channel
1967:common/lib.stm32/STM32F10x_StdPeriph_Driver/src/stm32f10x_tim.c ****   *   This parmeter can be one of the following values:
1968:common/lib.stm32/STM32F10x_StdPeriph_Driver/src/stm32f10x_tim.c ****   *     @arg TIM_Channel_1: TIM Channel 1
1969:common/lib.stm32/STM32F10x_StdPeriph_Driver/src/stm32f10x_tim.c ****   *     @arg TIM_Channel_2: TIM Channel 2
1970:common/lib.stm32/STM32F10x_StdPeriph_Driver/src/stm32f10x_tim.c ****   *     @arg TIM_Channel_3: TIM Channel 3
1971:common/lib.stm32/STM32F10x_StdPeriph_Driver/src/stm32f10x_tim.c ****   * @param  TIM_CCxN: specifies the TIM Channel CCxNE bit new state.
1972:common/lib.stm32/STM32F10x_StdPeriph_Driver/src/stm32f10x_tim.c ****   *   This parameter can be: TIM_CCxN_Enable or TIM_CCxN_Disable. 
1973:common/lib.stm32/STM32F10x_StdPeriph_Driver/src/stm32f10x_tim.c ****   * @retval None
1974:common/lib.stm32/STM32F10x_StdPeriph_Driver/src/stm32f10x_tim.c ****   */
1975:common/lib.stm32/STM32F10x_StdPeriph_Driver/src/stm32f10x_tim.c **** void TIM_CCxNCmd(TIM_TypeDef* TIMx, uint16_t TIM_Channel, uint16_t TIM_CCxN)
1976:common/lib.stm32/STM32F10x_StdPeriph_Driver/src/stm32f10x_tim.c **** {
 4763              		.loc 1 1976 1
 4764              		.cfi_startproc
 4765              		@ args = 0, pretend = 0, frame = 16
 4766              		@ frame_needed = 1, uses_anonymous_args = 0
 4767              		@ link register save eliminated.
 4768 0000 80B4     		push	{r7}
 4769              	.LCFI335:
 4770              		.cfi_def_cfa_offset 4
 4771              		.cfi_offset 7, -4
 4772 0002 85B0     		sub	sp, sp, #20
 4773              	.LCFI336:
 4774              		.cfi_def_cfa_offset 24
 4775 0004 00AF     		add	r7, sp, #0
 4776              	.LCFI337:
 4777              		.cfi_def_cfa_register 7
 4778 0006 7860     		str	r0, [r7, #4]
 4779 0008 0B46     		mov	r3, r1
 4780 000a 7B80     		strh	r3, [r7, #2]	@ movhi
 4781 000c 1346     		mov	r3, r2	@ movhi
 4782 000e 3B80     		strh	r3, [r7]	@ movhi
1977:common/lib.stm32/STM32F10x_StdPeriph_Driver/src/stm32f10x_tim.c ****   uint16_t tmp = 0;
 4783              		.loc 1 1977 12
 4784 0010 0023     		movs	r3, #0
 4785 0012 FB81     		strh	r3, [r7, #14]	@ movhi
1978:common/lib.stm32/STM32F10x_StdPeriph_Driver/src/stm32f10x_tim.c **** 
1979:common/lib.stm32/STM32F10x_StdPeriph_Driver/src/stm32f10x_tim.c ****   /* Check the parameters */
1980:common/lib.stm32/STM32F10x_StdPeriph_Driver/src/stm32f10x_tim.c ****   assert_param(IS_TIM_18_PERIPH(TIMx));
1981:common/lib.stm32/STM32F10x_StdPeriph_Driver/src/stm32f10x_tim.c ****   assert_param(IS_TIM_COMPLEMENTARY_CHANNEL(TIM_Channel));
1982:common/lib.stm32/STM32F10x_StdPeriph_Driver/src/stm32f10x_tim.c ****   assert_param(IS_TIM_CCXN(TIM_CCxN));
1983:common/lib.stm32/STM32F10x_StdPeriph_Driver/src/stm32f10x_tim.c **** 
1984:common/lib.stm32/STM32F10x_StdPeriph_Driver/src/stm32f10x_tim.c ****   tmp = CCER_CCNE_Set << TIM_Channel;
 4786              		.loc 1 1984 23
 4787 0014 7B88     		ldrh	r3, [r7, #2]
 4788 0016 0422     		movs	r2, #4
 4789 0018 02FA03F3 		lsl	r3, r2, r3
 4790              		.loc 1 1984 7
 4791 001c FB81     		strh	r3, [r7, #14]	@ movhi
1985:common/lib.stm32/STM32F10x_StdPeriph_Driver/src/stm32f10x_tim.c **** 
1986:common/lib.stm32/STM32F10x_StdPeriph_Driver/src/stm32f10x_tim.c ****   /* Reset the CCxNE Bit */
1987:common/lib.stm32/STM32F10x_StdPeriph_Driver/src/stm32f10x_tim.c ****   TIMx->CCER &= (uint16_t) ~tmp;
 4792              		.loc 1 1987 14
 4793 001e 7B68     		ldr	r3, [r7, #4]
 4794 0020 1B8C     		ldrh	r3, [r3, #32]	@ movhi
 4795 0022 9AB2     		uxth	r2, r3
 4796              		.loc 1 1987 17
 4797 0024 FB89     		ldrh	r3, [r7, #14]	@ movhi
 4798 0026 DB43     		mvns	r3, r3
 4799 0028 9BB2     		uxth	r3, r3
 4800              		.loc 1 1987 14
 4801 002a 1340     		ands	r3, r3, r2
 4802 002c 9AB2     		uxth	r2, r3
 4803 002e 7B68     		ldr	r3, [r7, #4]
 4804 0030 1A84     		strh	r2, [r3, #32]	@ movhi
1988:common/lib.stm32/STM32F10x_StdPeriph_Driver/src/stm32f10x_tim.c **** 
1989:common/lib.stm32/STM32F10x_StdPeriph_Driver/src/stm32f10x_tim.c ****   /* Set or reset the CCxNE Bit */ 
1990:common/lib.stm32/STM32F10x_StdPeriph_Driver/src/stm32f10x_tim.c ****   TIMx->CCER |=  (uint16_t)(TIM_CCxN << TIM_Channel);
 4805              		.loc 1 1990 14
 4806 0032 7B68     		ldr	r3, [r7, #4]
 4807 0034 1B8C     		ldrh	r3, [r3, #32]	@ movhi
 4808 0036 9AB2     		uxth	r2, r3
 4809              		.loc 1 1990 38
 4810 0038 3988     		ldrh	r1, [r7]
 4811 003a 7B88     		ldrh	r3, [r7, #2]
 4812 003c 01FA03F3 		lsl	r3, r1, r3
 4813              		.loc 1 1990 18
 4814 0040 9BB2     		uxth	r3, r3
 4815              		.loc 1 1990 14
 4816 0042 1343     		orrs	r3, r3, r2
 4817 0044 9AB2     		uxth	r2, r3
 4818 0046 7B68     		ldr	r3, [r7, #4]
 4819 0048 1A84     		strh	r2, [r3, #32]	@ movhi
1991:common/lib.stm32/STM32F10x_StdPeriph_Driver/src/stm32f10x_tim.c **** }
 4820              		.loc 1 1991 1
 4821 004a 00BF     		nop
 4822 004c 1437     		adds	r7, r7, #20
 4823              	.LCFI338:
 4824              		.cfi_def_cfa_offset 4
 4825 004e BD46     		mov	sp, r7
 4826              	.LCFI339:
 4827              		.cfi_def_cfa_register 13
 4828              		@ sp needed
 4829 0050 80BC     		pop	{r7}
 4830              	.LCFI340:
 4831              		.cfi_restore 7
 4832              		.cfi_def_cfa_offset 0
 4833 0052 7047     		bx	lr
 4834              		.cfi_endproc
 4835              	.LFE84:
 4837              		.section	.text.TIM_SelectOCxM,"ax",%progbits
 4838              		.align	1
 4839              		.global	TIM_SelectOCxM
 4840              		.syntax unified
 4841              		.thumb
 4842              		.thumb_func
 4844              	TIM_SelectOCxM:
 4845              	.LFB85:
1992:common/lib.stm32/STM32F10x_StdPeriph_Driver/src/stm32f10x_tim.c **** 
1993:common/lib.stm32/STM32F10x_StdPeriph_Driver/src/stm32f10x_tim.c **** /**
1994:common/lib.stm32/STM32F10x_StdPeriph_Driver/src/stm32f10x_tim.c ****   * @brief  Selects the TIM Ouput Compare Mode.
1995:common/lib.stm32/STM32F10x_StdPeriph_Driver/src/stm32f10x_tim.c ****   * @note   This function disables the selected channel before changing the Ouput
1996:common/lib.stm32/STM32F10x_StdPeriph_Driver/src/stm32f10x_tim.c ****   *         Compare Mode.
1997:common/lib.stm32/STM32F10x_StdPeriph_Driver/src/stm32f10x_tim.c ****   *         User has to enable this channel using TIM_CCxCmd and TIM_CCxNCmd functions.
1998:common/lib.stm32/STM32F10x_StdPeriph_Driver/src/stm32f10x_tim.c ****   * @param  TIMx: where x can be 1, 2, 3, 4, 5 or 8 to select the TIM peripheral.
1999:common/lib.stm32/STM32F10x_StdPeriph_Driver/src/stm32f10x_tim.c ****   * @param  TIM_Channel: specifies the TIM Channel
2000:common/lib.stm32/STM32F10x_StdPeriph_Driver/src/stm32f10x_tim.c ****   *   This parmeter can be one of the following values:
2001:common/lib.stm32/STM32F10x_StdPeriph_Driver/src/stm32f10x_tim.c ****   *     @arg TIM_Channel_1: TIM Channel 1
2002:common/lib.stm32/STM32F10x_StdPeriph_Driver/src/stm32f10x_tim.c ****   *     @arg TIM_Channel_2: TIM Channel 2
2003:common/lib.stm32/STM32F10x_StdPeriph_Driver/src/stm32f10x_tim.c ****   *     @arg TIM_Channel_3: TIM Channel 3
2004:common/lib.stm32/STM32F10x_StdPeriph_Driver/src/stm32f10x_tim.c ****   *     @arg TIM_Channel_4: TIM Channel 4
2005:common/lib.stm32/STM32F10x_StdPeriph_Driver/src/stm32f10x_tim.c ****   * @param  TIM_OCMode: specifies the TIM Output Compare Mode.
2006:common/lib.stm32/STM32F10x_StdPeriph_Driver/src/stm32f10x_tim.c ****   *   This paramter can be one of the following values:
2007:common/lib.stm32/STM32F10x_StdPeriph_Driver/src/stm32f10x_tim.c ****   *     @arg TIM_OCMode_Timing
2008:common/lib.stm32/STM32F10x_StdPeriph_Driver/src/stm32f10x_tim.c ****   *     @arg TIM_OCMode_Active
2009:common/lib.stm32/STM32F10x_StdPeriph_Driver/src/stm32f10x_tim.c ****   *     @arg TIM_OCMode_Toggle
2010:common/lib.stm32/STM32F10x_StdPeriph_Driver/src/stm32f10x_tim.c ****   *     @arg TIM_OCMode_PWM1
2011:common/lib.stm32/STM32F10x_StdPeriph_Driver/src/stm32f10x_tim.c ****   *     @arg TIM_OCMode_PWM2
2012:common/lib.stm32/STM32F10x_StdPeriph_Driver/src/stm32f10x_tim.c ****   *     @arg TIM_ForcedAction_Active
2013:common/lib.stm32/STM32F10x_StdPeriph_Driver/src/stm32f10x_tim.c ****   *     @arg TIM_ForcedAction_InActive
2014:common/lib.stm32/STM32F10x_StdPeriph_Driver/src/stm32f10x_tim.c ****   * @retval None
2015:common/lib.stm32/STM32F10x_StdPeriph_Driver/src/stm32f10x_tim.c ****   */
2016:common/lib.stm32/STM32F10x_StdPeriph_Driver/src/stm32f10x_tim.c **** void TIM_SelectOCxM(TIM_TypeDef* TIMx, uint16_t TIM_Channel, uint16_t TIM_OCMode)
2017:common/lib.stm32/STM32F10x_StdPeriph_Driver/src/stm32f10x_tim.c **** {
 4846              		.loc 1 2017 1
 4847              		.cfi_startproc
 4848              		@ args = 0, pretend = 0, frame = 16
 4849              		@ frame_needed = 1, uses_anonymous_args = 0
 4850              		@ link register save eliminated.
 4851 0000 80B4     		push	{r7}
 4852              	.LCFI341:
 4853              		.cfi_def_cfa_offset 4
 4854              		.cfi_offset 7, -4
 4855 0002 85B0     		sub	sp, sp, #20
 4856              	.LCFI342:
 4857              		.cfi_def_cfa_offset 24
 4858 0004 00AF     		add	r7, sp, #0
 4859              	.LCFI343:
 4860              		.cfi_def_cfa_register 7
 4861 0006 7860     		str	r0, [r7, #4]
 4862 0008 0B46     		mov	r3, r1
 4863 000a 7B80     		strh	r3, [r7, #2]	@ movhi
 4864 000c 1346     		mov	r3, r2	@ movhi
 4865 000e 3B80     		strh	r3, [r7]	@ movhi
2018:common/lib.stm32/STM32F10x_StdPeriph_Driver/src/stm32f10x_tim.c ****   uint32_t tmp = 0;
 4866              		.loc 1 2018 12
 4867 0010 0023     		movs	r3, #0
 4868 0012 FB60     		str	r3, [r7, #12]
2019:common/lib.stm32/STM32F10x_StdPeriph_Driver/src/stm32f10x_tim.c ****   uint16_t tmp1 = 0;
 4869              		.loc 1 2019 12
 4870 0014 0023     		movs	r3, #0
 4871 0016 7B81     		strh	r3, [r7, #10]	@ movhi
2020:common/lib.stm32/STM32F10x_StdPeriph_Driver/src/stm32f10x_tim.c **** 
2021:common/lib.stm32/STM32F10x_StdPeriph_Driver/src/stm32f10x_tim.c ****   /* Check the parameters */
2022:common/lib.stm32/STM32F10x_StdPeriph_Driver/src/stm32f10x_tim.c ****   assert_param(IS_TIM_123458_PERIPH(TIMx));
2023:common/lib.stm32/STM32F10x_StdPeriph_Driver/src/stm32f10x_tim.c ****   assert_param(IS_TIM_CHANNEL(TIM_Channel));
2024:common/lib.stm32/STM32F10x_StdPeriph_Driver/src/stm32f10x_tim.c ****   assert_param(IS_TIM_OCM(TIM_OCMode));
2025:common/lib.stm32/STM32F10x_StdPeriph_Driver/src/stm32f10x_tim.c **** 
2026:common/lib.stm32/STM32F10x_StdPeriph_Driver/src/stm32f10x_tim.c ****   tmp = (uint32_t) TIMx;
 4872              		.loc 1 2026 7
 4873 0018 7B68     		ldr	r3, [r7, #4]
 4874 001a FB60     		str	r3, [r7, #12]
2027:common/lib.stm32/STM32F10x_StdPeriph_Driver/src/stm32f10x_tim.c ****   tmp += CCMR_Offset;
 4875              		.loc 1 2027 7
 4876 001c FB68     		ldr	r3, [r7, #12]
 4877 001e 1833     		adds	r3, r3, #24
 4878 0020 FB60     		str	r3, [r7, #12]
2028:common/lib.stm32/STM32F10x_StdPeriph_Driver/src/stm32f10x_tim.c **** 
2029:common/lib.stm32/STM32F10x_StdPeriph_Driver/src/stm32f10x_tim.c ****   tmp1 = CCER_CCE_Set << (uint16_t)TIM_Channel;
 4879              		.loc 1 2029 26
 4880 0022 7B88     		ldrh	r3, [r7, #2]
 4881              		.loc 1 2029 23
 4882 0024 0122     		movs	r2, #1
 4883 0026 02FA03F3 		lsl	r3, r2, r3
 4884              		.loc 1 2029 8
 4885 002a 7B81     		strh	r3, [r7, #10]	@ movhi
2030:common/lib.stm32/STM32F10x_StdPeriph_Driver/src/stm32f10x_tim.c **** 
2031:common/lib.stm32/STM32F10x_StdPeriph_Driver/src/stm32f10x_tim.c ****   /* Disable the Channel: Reset the CCxE Bit */
2032:common/lib.stm32/STM32F10x_StdPeriph_Driver/src/stm32f10x_tim.c ****   TIMx->CCER &= (uint16_t) ~tmp1;
 4886              		.loc 1 2032 14
 4887 002c 7B68     		ldr	r3, [r7, #4]
 4888 002e 1B8C     		ldrh	r3, [r3, #32]	@ movhi
 4889 0030 9AB2     		uxth	r2, r3
 4890              		.loc 1 2032 17
 4891 0032 7B89     		ldrh	r3, [r7, #10]	@ movhi
 4892 0034 DB43     		mvns	r3, r3
 4893 0036 9BB2     		uxth	r3, r3
 4894              		.loc 1 2032 14
 4895 0038 1340     		ands	r3, r3, r2
 4896 003a 9AB2     		uxth	r2, r3
 4897 003c 7B68     		ldr	r3, [r7, #4]
 4898 003e 1A84     		strh	r2, [r3, #32]	@ movhi
2033:common/lib.stm32/STM32F10x_StdPeriph_Driver/src/stm32f10x_tim.c **** 
2034:common/lib.stm32/STM32F10x_StdPeriph_Driver/src/stm32f10x_tim.c ****   if((TIM_Channel == TIM_Channel_1) ||(TIM_Channel == TIM_Channel_3))
 4899              		.loc 1 2034 5
 4900 0040 7B88     		ldrh	r3, [r7, #2]
 4901 0042 002B     		cmp	r3, #0
 4902 0044 02D0     		beq	.L141
 4903              		.loc 1 2034 37 discriminator 1
 4904 0046 7B88     		ldrh	r3, [r7, #2]
 4905 0048 082B     		cmp	r3, #8
 4906 004a 14D1     		bne	.L142
 4907              	.L141:
2035:common/lib.stm32/STM32F10x_StdPeriph_Driver/src/stm32f10x_tim.c ****   {
2036:common/lib.stm32/STM32F10x_StdPeriph_Driver/src/stm32f10x_tim.c ****     tmp += (TIM_Channel>>1);
 4908              		.loc 1 2036 24
 4909 004c 7B88     		ldrh	r3, [r7, #2]
 4910 004e 5B08     		lsrs	r3, r3, #1
 4911 0050 9BB2     		uxth	r3, r3
 4912 0052 1A46     		mov	r2, r3
 4913              		.loc 1 2036 9
 4914 0054 FB68     		ldr	r3, [r7, #12]
 4915 0056 1344     		add	r3, r3, r2
 4916 0058 FB60     		str	r3, [r7, #12]
2037:common/lib.stm32/STM32F10x_StdPeriph_Driver/src/stm32f10x_tim.c **** 
2038:common/lib.stm32/STM32F10x_StdPeriph_Driver/src/stm32f10x_tim.c ****     /* Reset the OCxM bits in the CCMRx register */
2039:common/lib.stm32/STM32F10x_StdPeriph_Driver/src/stm32f10x_tim.c ****     *(__IO uint32_t *) tmp &= CCMR_OC13M_Mask;
 4917              		.loc 1 2039 28
 4918 005a FB68     		ldr	r3, [r7, #12]
 4919 005c 1968     		ldr	r1, [r3]
 4920 005e FA68     		ldr	r2, [r7, #12]
 4921 0060 4FF68F73 		movw	r3, #65423
 4922 0064 0B40     		ands	r3, r3, r1
 4923 0066 1360     		str	r3, [r2]
2040:common/lib.stm32/STM32F10x_StdPeriph_Driver/src/stm32f10x_tim.c ****    
2041:common/lib.stm32/STM32F10x_StdPeriph_Driver/src/stm32f10x_tim.c ****     /* Configure the OCxM bits in the CCMRx register */
2042:common/lib.stm32/STM32F10x_StdPeriph_Driver/src/stm32f10x_tim.c ****     *(__IO uint32_t *) tmp |= TIM_OCMode;
 4924              		.loc 1 2042 28
 4925 0068 FB68     		ldr	r3, [r7, #12]
 4926 006a 1968     		ldr	r1, [r3]
 4927 006c 3A88     		ldrh	r2, [r7]
 4928 006e FB68     		ldr	r3, [r7, #12]
 4929 0070 0A43     		orrs	r2, r2, r1
 4930 0072 1A60     		str	r2, [r3]
 4931 0074 19E0     		b	.L143
 4932              	.L142:
2043:common/lib.stm32/STM32F10x_StdPeriph_Driver/src/stm32f10x_tim.c ****   }
2044:common/lib.stm32/STM32F10x_StdPeriph_Driver/src/stm32f10x_tim.c ****   else
2045:common/lib.stm32/STM32F10x_StdPeriph_Driver/src/stm32f10x_tim.c ****   {
2046:common/lib.stm32/STM32F10x_StdPeriph_Driver/src/stm32f10x_tim.c ****     tmp += (uint16_t)(TIM_Channel - (uint16_t)4)>> (uint16_t)1;
 4933              		.loc 1 2046 12
 4934 0076 7B88     		ldrh	r3, [r7, #2]	@ movhi
 4935 0078 043B     		subs	r3, r3, #4
 4936 007a 9BB2     		uxth	r3, r3
 4937              		.loc 1 2046 49
 4938 007c 5B08     		lsrs	r3, r3, #1
 4939 007e 9BB2     		uxth	r3, r3
 4940 0080 1A46     		mov	r2, r3
 4941              		.loc 1 2046 9
 4942 0082 FB68     		ldr	r3, [r7, #12]
 4943 0084 1344     		add	r3, r3, r2
 4944 0086 FB60     		str	r3, [r7, #12]
2047:common/lib.stm32/STM32F10x_StdPeriph_Driver/src/stm32f10x_tim.c **** 
2048:common/lib.stm32/STM32F10x_StdPeriph_Driver/src/stm32f10x_tim.c ****     /* Reset the OCxM bits in the CCMRx register */
2049:common/lib.stm32/STM32F10x_StdPeriph_Driver/src/stm32f10x_tim.c ****     *(__IO uint32_t *) tmp &= CCMR_OC24M_Mask;
 4945              		.loc 1 2049 28
 4946 0088 FB68     		ldr	r3, [r7, #12]
 4947 008a 1968     		ldr	r1, [r3]
 4948 008c FA68     		ldr	r2, [r7, #12]
 4949 008e 48F6FF73 		movw	r3, #36863
 4950 0092 0B40     		ands	r3, r3, r1
 4951 0094 1360     		str	r3, [r2]
2050:common/lib.stm32/STM32F10x_StdPeriph_Driver/src/stm32f10x_tim.c ****     
2051:common/lib.stm32/STM32F10x_StdPeriph_Driver/src/stm32f10x_tim.c ****     /* Configure the OCxM bits in the CCMRx register */
2052:common/lib.stm32/STM32F10x_StdPeriph_Driver/src/stm32f10x_tim.c ****     *(__IO uint32_t *) tmp |= (uint16_t)(TIM_OCMode << 8);
 4952              		.loc 1 2052 28
 4953 0096 FB68     		ldr	r3, [r7, #12]
 4954 0098 1A68     		ldr	r2, [r3]
 4955              		.loc 1 2052 31
 4956 009a 3B88     		ldrh	r3, [r7]	@ movhi
 4957 009c 1B02     		lsls	r3, r3, #8
 4958 009e 9BB2     		uxth	r3, r3
 4959 00a0 1946     		mov	r1, r3
 4960              		.loc 1 2052 28
 4961 00a2 FB68     		ldr	r3, [r7, #12]
 4962 00a4 0A43     		orrs	r2, r2, r1
 4963 00a6 1A60     		str	r2, [r3]
2053:common/lib.stm32/STM32F10x_StdPeriph_Driver/src/stm32f10x_tim.c ****   }
2054:common/lib.stm32/STM32F10x_StdPeriph_Driver/src/stm32f10x_tim.c **** }
 4964              		.loc 1 2054 1
 4965 00a8 00BF     		nop
 4966              	.L143:
 4967 00aa 00BF     		nop
 4968 00ac 1437     		adds	r7, r7, #20
 4969              	.LCFI344:
 4970              		.cfi_def_cfa_offset 4
 4971 00ae BD46     		mov	sp, r7
 4972              	.LCFI345:
 4973              		.cfi_def_cfa_register 13
 4974              		@ sp needed
 4975 00b0 80BC     		pop	{r7}
 4976              	.LCFI346:
 4977              		.cfi_restore 7
 4978              		.cfi_def_cfa_offset 0
 4979 00b2 7047     		bx	lr
 4980              		.cfi_endproc
 4981              	.LFE85:
 4983              		.section	.text.TIM_UpdateDisableConfig,"ax",%progbits
 4984              		.align	1
 4985              		.global	TIM_UpdateDisableConfig
 4986              		.syntax unified
 4987              		.thumb
 4988              		.thumb_func
 4990              	TIM_UpdateDisableConfig:
 4991              	.LFB86:
2055:common/lib.stm32/STM32F10x_StdPeriph_Driver/src/stm32f10x_tim.c **** 
2056:common/lib.stm32/STM32F10x_StdPeriph_Driver/src/stm32f10x_tim.c **** /**
2057:common/lib.stm32/STM32F10x_StdPeriph_Driver/src/stm32f10x_tim.c ****   * @brief  Enables or Disables the TIMx Update event.
2058:common/lib.stm32/STM32F10x_StdPeriph_Driver/src/stm32f10x_tim.c ****   * @param  TIMx: where x can be 1 to 8 to select the TIM peripheral.
2059:common/lib.stm32/STM32F10x_StdPeriph_Driver/src/stm32f10x_tim.c ****   * @param  NewState: new state of the TIMx UDIS bit
2060:common/lib.stm32/STM32F10x_StdPeriph_Driver/src/stm32f10x_tim.c ****   *   This parameter can be: ENABLE or DISABLE.
2061:common/lib.stm32/STM32F10x_StdPeriph_Driver/src/stm32f10x_tim.c ****   * @retval None
2062:common/lib.stm32/STM32F10x_StdPeriph_Driver/src/stm32f10x_tim.c ****   */
2063:common/lib.stm32/STM32F10x_StdPeriph_Driver/src/stm32f10x_tim.c **** void TIM_UpdateDisableConfig(TIM_TypeDef* TIMx, FunctionalState NewState)
2064:common/lib.stm32/STM32F10x_StdPeriph_Driver/src/stm32f10x_tim.c **** {
 4992              		.loc 1 2064 1
 4993              		.cfi_startproc
 4994              		@ args = 0, pretend = 0, frame = 8
 4995              		@ frame_needed = 1, uses_anonymous_args = 0
 4996              		@ link register save eliminated.
 4997 0000 80B4     		push	{r7}
 4998              	.LCFI347:
 4999              		.cfi_def_cfa_offset 4
 5000              		.cfi_offset 7, -4
 5001 0002 83B0     		sub	sp, sp, #12
 5002              	.LCFI348:
 5003              		.cfi_def_cfa_offset 16
 5004 0004 00AF     		add	r7, sp, #0
 5005              	.LCFI349:
 5006              		.cfi_def_cfa_register 7
 5007 0006 7860     		str	r0, [r7, #4]
 5008 0008 0B46     		mov	r3, r1
 5009 000a FB70     		strb	r3, [r7, #3]
2065:common/lib.stm32/STM32F10x_StdPeriph_Driver/src/stm32f10x_tim.c ****   /* Check the parameters */
2066:common/lib.stm32/STM32F10x_StdPeriph_Driver/src/stm32f10x_tim.c ****   assert_param(IS_TIM_ALL_PERIPH(TIMx));
2067:common/lib.stm32/STM32F10x_StdPeriph_Driver/src/stm32f10x_tim.c ****   assert_param(IS_FUNCTIONAL_STATE(NewState));
2068:common/lib.stm32/STM32F10x_StdPeriph_Driver/src/stm32f10x_tim.c ****   if (NewState != DISABLE)
 5010              		.loc 1 2068 6
 5011 000c FB78     		ldrb	r3, [r7, #3]	@ zero_extendqisi2
 5012 000e 002B     		cmp	r3, #0
 5013 0010 08D0     		beq	.L145
2069:common/lib.stm32/STM32F10x_StdPeriph_Driver/src/stm32f10x_tim.c ****   {
2070:common/lib.stm32/STM32F10x_StdPeriph_Driver/src/stm32f10x_tim.c ****     /* Set the Update Disable Bit */
2071:common/lib.stm32/STM32F10x_StdPeriph_Driver/src/stm32f10x_tim.c ****     TIMx->CR1 |= CR1_UDIS_Set;
 5014              		.loc 1 2071 15
 5015 0012 7B68     		ldr	r3, [r7, #4]
 5016 0014 1B88     		ldrh	r3, [r3]	@ movhi
 5017 0016 9BB2     		uxth	r3, r3
 5018 0018 43F00203 		orr	r3, r3, #2
 5019 001c 9AB2     		uxth	r2, r3
 5020 001e 7B68     		ldr	r3, [r7, #4]
 5021 0020 1A80     		strh	r2, [r3]	@ movhi
2072:common/lib.stm32/STM32F10x_StdPeriph_Driver/src/stm32f10x_tim.c ****   }
2073:common/lib.stm32/STM32F10x_StdPeriph_Driver/src/stm32f10x_tim.c ****   else
2074:common/lib.stm32/STM32F10x_StdPeriph_Driver/src/stm32f10x_tim.c ****   {
2075:common/lib.stm32/STM32F10x_StdPeriph_Driver/src/stm32f10x_tim.c ****     /* Reset the Update Disable Bit */
2076:common/lib.stm32/STM32F10x_StdPeriph_Driver/src/stm32f10x_tim.c ****     TIMx->CR1 &= CR1_UDIS_Reset;
2077:common/lib.stm32/STM32F10x_StdPeriph_Driver/src/stm32f10x_tim.c ****   }
2078:common/lib.stm32/STM32F10x_StdPeriph_Driver/src/stm32f10x_tim.c **** }
 5022              		.loc 1 2078 1
 5023 0022 08E0     		b	.L147
 5024              	.L145:
2076:common/lib.stm32/STM32F10x_StdPeriph_Driver/src/stm32f10x_tim.c ****   }
 5025              		.loc 1 2076 15
 5026 0024 7B68     		ldr	r3, [r7, #4]
 5027 0026 1B88     		ldrh	r3, [r3]	@ movhi
 5028 0028 9AB2     		uxth	r2, r3
 5029 002a 40F2FD33 		movw	r3, #1021
 5030 002e 1340     		ands	r3, r3, r2
 5031 0030 9AB2     		uxth	r2, r3
 5032 0032 7B68     		ldr	r3, [r7, #4]
 5033 0034 1A80     		strh	r2, [r3]	@ movhi
 5034              	.L147:
 5035              		.loc 1 2078 1
 5036 0036 00BF     		nop
 5037 0038 0C37     		adds	r7, r7, #12
 5038              	.LCFI350:
 5039              		.cfi_def_cfa_offset 4
 5040 003a BD46     		mov	sp, r7
 5041              	.LCFI351:
 5042              		.cfi_def_cfa_register 13
 5043              		@ sp needed
 5044 003c 80BC     		pop	{r7}
 5045              	.LCFI352:
 5046              		.cfi_restore 7
 5047              		.cfi_def_cfa_offset 0
 5048 003e 7047     		bx	lr
 5049              		.cfi_endproc
 5050              	.LFE86:
 5052              		.section	.text.TIM_UpdateRequestConfig,"ax",%progbits
 5053              		.align	1
 5054              		.global	TIM_UpdateRequestConfig
 5055              		.syntax unified
 5056              		.thumb
 5057              		.thumb_func
 5059              	TIM_UpdateRequestConfig:
 5060              	.LFB87:
2079:common/lib.stm32/STM32F10x_StdPeriph_Driver/src/stm32f10x_tim.c **** 
2080:common/lib.stm32/STM32F10x_StdPeriph_Driver/src/stm32f10x_tim.c **** /**
2081:common/lib.stm32/STM32F10x_StdPeriph_Driver/src/stm32f10x_tim.c ****   * @brief  Configures the TIMx Update Request Interrupt source.
2082:common/lib.stm32/STM32F10x_StdPeriph_Driver/src/stm32f10x_tim.c ****   * @param  TIMx: where x can be 1 to 8 to select the TIM peripheral.
2083:common/lib.stm32/STM32F10x_StdPeriph_Driver/src/stm32f10x_tim.c ****   * @param  TIM_UpdateSource: specifies the Update source.
2084:common/lib.stm32/STM32F10x_StdPeriph_Driver/src/stm32f10x_tim.c ****   *   This parameter can be one of the following values:
2085:common/lib.stm32/STM32F10x_StdPeriph_Driver/src/stm32f10x_tim.c ****   *     @arg TIM_UpdateSource_Regular: Source of update is the counter overflow/underflow
2086:common/lib.stm32/STM32F10x_StdPeriph_Driver/src/stm32f10x_tim.c ****                                        or the setting of UG bit, or an update generation
2087:common/lib.stm32/STM32F10x_StdPeriph_Driver/src/stm32f10x_tim.c ****                                        through the slave mode controller.
2088:common/lib.stm32/STM32F10x_StdPeriph_Driver/src/stm32f10x_tim.c ****   *     @arg TIM_UpdateSource_Global: Source of update is counter overflow/underflow.
2089:common/lib.stm32/STM32F10x_StdPeriph_Driver/src/stm32f10x_tim.c ****   * @retval None
2090:common/lib.stm32/STM32F10x_StdPeriph_Driver/src/stm32f10x_tim.c ****   */
2091:common/lib.stm32/STM32F10x_StdPeriph_Driver/src/stm32f10x_tim.c **** void TIM_UpdateRequestConfig(TIM_TypeDef* TIMx, uint16_t TIM_UpdateSource)
2092:common/lib.stm32/STM32F10x_StdPeriph_Driver/src/stm32f10x_tim.c **** {
 5061              		.loc 1 2092 1
 5062              		.cfi_startproc
 5063              		@ args = 0, pretend = 0, frame = 8
 5064              		@ frame_needed = 1, uses_anonymous_args = 0
 5065              		@ link register save eliminated.
 5066 0000 80B4     		push	{r7}
 5067              	.LCFI353:
 5068              		.cfi_def_cfa_offset 4
 5069              		.cfi_offset 7, -4
 5070 0002 83B0     		sub	sp, sp, #12
 5071              	.LCFI354:
 5072              		.cfi_def_cfa_offset 16
 5073 0004 00AF     		add	r7, sp, #0
 5074              	.LCFI355:
 5075              		.cfi_def_cfa_register 7
 5076 0006 7860     		str	r0, [r7, #4]
 5077 0008 0B46     		mov	r3, r1
 5078 000a 7B80     		strh	r3, [r7, #2]	@ movhi
2093:common/lib.stm32/STM32F10x_StdPeriph_Driver/src/stm32f10x_tim.c ****   /* Check the parameters */
2094:common/lib.stm32/STM32F10x_StdPeriph_Driver/src/stm32f10x_tim.c ****   assert_param(IS_TIM_ALL_PERIPH(TIMx));
2095:common/lib.stm32/STM32F10x_StdPeriph_Driver/src/stm32f10x_tim.c ****   assert_param(IS_TIM_UPDATE_SOURCE(TIM_UpdateSource));
2096:common/lib.stm32/STM32F10x_StdPeriph_Driver/src/stm32f10x_tim.c ****   if (TIM_UpdateSource != TIM_UpdateSource_Global)
 5079              		.loc 1 2096 6
 5080 000c 7B88     		ldrh	r3, [r7, #2]
 5081 000e 002B     		cmp	r3, #0
 5082 0010 08D0     		beq	.L149
2097:common/lib.stm32/STM32F10x_StdPeriph_Driver/src/stm32f10x_tim.c ****   {
2098:common/lib.stm32/STM32F10x_StdPeriph_Driver/src/stm32f10x_tim.c ****     /* Set the URS Bit */
2099:common/lib.stm32/STM32F10x_StdPeriph_Driver/src/stm32f10x_tim.c ****     TIMx->CR1 |= CR1_URS_Set;
 5083              		.loc 1 2099 15
 5084 0012 7B68     		ldr	r3, [r7, #4]
 5085 0014 1B88     		ldrh	r3, [r3]	@ movhi
 5086 0016 9BB2     		uxth	r3, r3
 5087 0018 43F00403 		orr	r3, r3, #4
 5088 001c 9AB2     		uxth	r2, r3
 5089 001e 7B68     		ldr	r3, [r7, #4]
 5090 0020 1A80     		strh	r2, [r3]	@ movhi
2100:common/lib.stm32/STM32F10x_StdPeriph_Driver/src/stm32f10x_tim.c ****   }
2101:common/lib.stm32/STM32F10x_StdPeriph_Driver/src/stm32f10x_tim.c ****   else
2102:common/lib.stm32/STM32F10x_StdPeriph_Driver/src/stm32f10x_tim.c ****   {
2103:common/lib.stm32/STM32F10x_StdPeriph_Driver/src/stm32f10x_tim.c ****     /* Reset the URS Bit */
2104:common/lib.stm32/STM32F10x_StdPeriph_Driver/src/stm32f10x_tim.c ****     TIMx->CR1 &= CR1_URS_Reset;
2105:common/lib.stm32/STM32F10x_StdPeriph_Driver/src/stm32f10x_tim.c ****   }
2106:common/lib.stm32/STM32F10x_StdPeriph_Driver/src/stm32f10x_tim.c **** }
 5091              		.loc 1 2106 1
 5092 0022 08E0     		b	.L151
 5093              	.L149:
2104:common/lib.stm32/STM32F10x_StdPeriph_Driver/src/stm32f10x_tim.c ****   }
 5094              		.loc 1 2104 15
 5095 0024 7B68     		ldr	r3, [r7, #4]
 5096 0026 1B88     		ldrh	r3, [r3]	@ movhi
 5097 0028 9AB2     		uxth	r2, r3
 5098 002a 40F2FB33 		movw	r3, #1019
 5099 002e 1340     		ands	r3, r3, r2
 5100 0030 9AB2     		uxth	r2, r3
 5101 0032 7B68     		ldr	r3, [r7, #4]
 5102 0034 1A80     		strh	r2, [r3]	@ movhi
 5103              	.L151:
 5104              		.loc 1 2106 1
 5105 0036 00BF     		nop
 5106 0038 0C37     		adds	r7, r7, #12
 5107              	.LCFI356:
 5108              		.cfi_def_cfa_offset 4
 5109 003a BD46     		mov	sp, r7
 5110              	.LCFI357:
 5111              		.cfi_def_cfa_register 13
 5112              		@ sp needed
 5113 003c 80BC     		pop	{r7}
 5114              	.LCFI358:
 5115              		.cfi_restore 7
 5116              		.cfi_def_cfa_offset 0
 5117 003e 7047     		bx	lr
 5118              		.cfi_endproc
 5119              	.LFE87:
 5121              		.section	.text.TIM_SelectHallSensor,"ax",%progbits
 5122              		.align	1
 5123              		.global	TIM_SelectHallSensor
 5124              		.syntax unified
 5125              		.thumb
 5126              		.thumb_func
 5128              	TIM_SelectHallSensor:
 5129              	.LFB88:
2107:common/lib.stm32/STM32F10x_StdPeriph_Driver/src/stm32f10x_tim.c **** 
2108:common/lib.stm32/STM32F10x_StdPeriph_Driver/src/stm32f10x_tim.c **** /**
2109:common/lib.stm32/STM32F10x_StdPeriph_Driver/src/stm32f10x_tim.c ****   * @brief  Enables or disables the TIMxs Hall sensor interface.
2110:common/lib.stm32/STM32F10x_StdPeriph_Driver/src/stm32f10x_tim.c ****   * @param  TIMx: where x can be 1, 2, 3, 4, 5 or 8 to select the TIM peripheral.
2111:common/lib.stm32/STM32F10x_StdPeriph_Driver/src/stm32f10x_tim.c ****   * @param  NewState: new state of the TIMx Hall sensor interface.
2112:common/lib.stm32/STM32F10x_StdPeriph_Driver/src/stm32f10x_tim.c ****   *   This parameter can be: ENABLE or DISABLE.
2113:common/lib.stm32/STM32F10x_StdPeriph_Driver/src/stm32f10x_tim.c ****   * @retval None
2114:common/lib.stm32/STM32F10x_StdPeriph_Driver/src/stm32f10x_tim.c ****   */
2115:common/lib.stm32/STM32F10x_StdPeriph_Driver/src/stm32f10x_tim.c **** void TIM_SelectHallSensor(TIM_TypeDef* TIMx, FunctionalState NewState)
2116:common/lib.stm32/STM32F10x_StdPeriph_Driver/src/stm32f10x_tim.c **** {
 5130              		.loc 1 2116 1
 5131              		.cfi_startproc
 5132              		@ args = 0, pretend = 0, frame = 8
 5133              		@ frame_needed = 1, uses_anonymous_args = 0
 5134              		@ link register save eliminated.
 5135 0000 80B4     		push	{r7}
 5136              	.LCFI359:
 5137              		.cfi_def_cfa_offset 4
 5138              		.cfi_offset 7, -4
 5139 0002 83B0     		sub	sp, sp, #12
 5140              	.LCFI360:
 5141              		.cfi_def_cfa_offset 16
 5142 0004 00AF     		add	r7, sp, #0
 5143              	.LCFI361:
 5144              		.cfi_def_cfa_register 7
 5145 0006 7860     		str	r0, [r7, #4]
 5146 0008 0B46     		mov	r3, r1
 5147 000a FB70     		strb	r3, [r7, #3]
2117:common/lib.stm32/STM32F10x_StdPeriph_Driver/src/stm32f10x_tim.c ****   /* Check the parameters */
2118:common/lib.stm32/STM32F10x_StdPeriph_Driver/src/stm32f10x_tim.c ****   assert_param(IS_TIM_123458_PERIPH(TIMx));
2119:common/lib.stm32/STM32F10x_StdPeriph_Driver/src/stm32f10x_tim.c ****   assert_param(IS_FUNCTIONAL_STATE(NewState));
2120:common/lib.stm32/STM32F10x_StdPeriph_Driver/src/stm32f10x_tim.c ****   if (NewState != DISABLE)
 5148              		.loc 1 2120 6
 5149 000c FB78     		ldrb	r3, [r7, #3]	@ zero_extendqisi2
 5150 000e 002B     		cmp	r3, #0
 5151 0010 08D0     		beq	.L153
2121:common/lib.stm32/STM32F10x_StdPeriph_Driver/src/stm32f10x_tim.c ****   {
2122:common/lib.stm32/STM32F10x_StdPeriph_Driver/src/stm32f10x_tim.c ****     /* Set the TI1S Bit */
2123:common/lib.stm32/STM32F10x_StdPeriph_Driver/src/stm32f10x_tim.c ****     TIMx->CR2 |= CR2_TI1S_Set;
 5152              		.loc 1 2123 15
 5153 0012 7B68     		ldr	r3, [r7, #4]
 5154 0014 9B88     		ldrh	r3, [r3, #4]	@ movhi
 5155 0016 9BB2     		uxth	r3, r3
 5156 0018 43F08003 		orr	r3, r3, #128
 5157 001c 9AB2     		uxth	r2, r3
 5158 001e 7B68     		ldr	r3, [r7, #4]
 5159 0020 9A80     		strh	r2, [r3, #4]	@ movhi
2124:common/lib.stm32/STM32F10x_StdPeriph_Driver/src/stm32f10x_tim.c ****   }
2125:common/lib.stm32/STM32F10x_StdPeriph_Driver/src/stm32f10x_tim.c ****   else
2126:common/lib.stm32/STM32F10x_StdPeriph_Driver/src/stm32f10x_tim.c ****   {
2127:common/lib.stm32/STM32F10x_StdPeriph_Driver/src/stm32f10x_tim.c ****     /* Reset the TI1S Bit */
2128:common/lib.stm32/STM32F10x_StdPeriph_Driver/src/stm32f10x_tim.c ****     TIMx->CR2 &= CR2_TI1S_Reset;
2129:common/lib.stm32/STM32F10x_StdPeriph_Driver/src/stm32f10x_tim.c ****   }
2130:common/lib.stm32/STM32F10x_StdPeriph_Driver/src/stm32f10x_tim.c **** }
 5160              		.loc 1 2130 1
 5161 0022 07E0     		b	.L155
 5162              	.L153:
2128:common/lib.stm32/STM32F10x_StdPeriph_Driver/src/stm32f10x_tim.c ****   }
 5163              		.loc 1 2128 15
 5164 0024 7B68     		ldr	r3, [r7, #4]
 5165 0026 9B88     		ldrh	r3, [r3, #4]	@ movhi
 5166 0028 9BB2     		uxth	r3, r3
 5167 002a 23F08003 		bic	r3, r3, #128
 5168 002e 9AB2     		uxth	r2, r3
 5169 0030 7B68     		ldr	r3, [r7, #4]
 5170 0032 9A80     		strh	r2, [r3, #4]	@ movhi
 5171              	.L155:
 5172              		.loc 1 2130 1
 5173 0034 00BF     		nop
 5174 0036 0C37     		adds	r7, r7, #12
 5175              	.LCFI362:
 5176              		.cfi_def_cfa_offset 4
 5177 0038 BD46     		mov	sp, r7
 5178              	.LCFI363:
 5179              		.cfi_def_cfa_register 13
 5180              		@ sp needed
 5181 003a 80BC     		pop	{r7}
 5182              	.LCFI364:
 5183              		.cfi_restore 7
 5184              		.cfi_def_cfa_offset 0
 5185 003c 7047     		bx	lr
 5186              		.cfi_endproc
 5187              	.LFE88:
 5189              		.section	.text.TIM_SelectOnePulseMode,"ax",%progbits
 5190              		.align	1
 5191              		.global	TIM_SelectOnePulseMode
 5192              		.syntax unified
 5193              		.thumb
 5194              		.thumb_func
 5196              	TIM_SelectOnePulseMode:
 5197              	.LFB89:
2131:common/lib.stm32/STM32F10x_StdPeriph_Driver/src/stm32f10x_tim.c **** 
2132:common/lib.stm32/STM32F10x_StdPeriph_Driver/src/stm32f10x_tim.c **** /**
2133:common/lib.stm32/STM32F10x_StdPeriph_Driver/src/stm32f10x_tim.c ****   * @brief  Selects the TIMxs One Pulse Mode.
2134:common/lib.stm32/STM32F10x_StdPeriph_Driver/src/stm32f10x_tim.c ****   * @param  TIMx: where x can be 1 to 8 to select the TIM peripheral.
2135:common/lib.stm32/STM32F10x_StdPeriph_Driver/src/stm32f10x_tim.c ****   * @param  TIM_OPMode: specifies the OPM Mode to be used.
2136:common/lib.stm32/STM32F10x_StdPeriph_Driver/src/stm32f10x_tim.c ****   *   This parameter can be one of the following values:
2137:common/lib.stm32/STM32F10x_StdPeriph_Driver/src/stm32f10x_tim.c ****   *     @arg TIM_OPMode_Single
2138:common/lib.stm32/STM32F10x_StdPeriph_Driver/src/stm32f10x_tim.c ****   *     @arg TIM_OPMode_Repetitive
2139:common/lib.stm32/STM32F10x_StdPeriph_Driver/src/stm32f10x_tim.c ****   * @retval None
2140:common/lib.stm32/STM32F10x_StdPeriph_Driver/src/stm32f10x_tim.c ****   */
2141:common/lib.stm32/STM32F10x_StdPeriph_Driver/src/stm32f10x_tim.c **** void TIM_SelectOnePulseMode(TIM_TypeDef* TIMx, uint16_t TIM_OPMode)
2142:common/lib.stm32/STM32F10x_StdPeriph_Driver/src/stm32f10x_tim.c **** {
 5198              		.loc 1 2142 1
 5199              		.cfi_startproc
 5200              		@ args = 0, pretend = 0, frame = 8
 5201              		@ frame_needed = 1, uses_anonymous_args = 0
 5202              		@ link register save eliminated.
 5203 0000 80B4     		push	{r7}
 5204              	.LCFI365:
 5205              		.cfi_def_cfa_offset 4
 5206              		.cfi_offset 7, -4
 5207 0002 83B0     		sub	sp, sp, #12
 5208              	.LCFI366:
 5209              		.cfi_def_cfa_offset 16
 5210 0004 00AF     		add	r7, sp, #0
 5211              	.LCFI367:
 5212              		.cfi_def_cfa_register 7
 5213 0006 7860     		str	r0, [r7, #4]
 5214 0008 0B46     		mov	r3, r1
 5215 000a 7B80     		strh	r3, [r7, #2]	@ movhi
2143:common/lib.stm32/STM32F10x_StdPeriph_Driver/src/stm32f10x_tim.c ****   /* Check the parameters */
2144:common/lib.stm32/STM32F10x_StdPeriph_Driver/src/stm32f10x_tim.c ****   assert_param(IS_TIM_ALL_PERIPH(TIMx));
2145:common/lib.stm32/STM32F10x_StdPeriph_Driver/src/stm32f10x_tim.c ****   assert_param(IS_TIM_OPM_MODE(TIM_OPMode));
2146:common/lib.stm32/STM32F10x_StdPeriph_Driver/src/stm32f10x_tim.c ****   /* Reset the OPM Bit */
2147:common/lib.stm32/STM32F10x_StdPeriph_Driver/src/stm32f10x_tim.c ****   TIMx->CR1 &= CR1_OPM_Reset;
 5216              		.loc 1 2147 13
 5217 000c 7B68     		ldr	r3, [r7, #4]
 5218 000e 1B88     		ldrh	r3, [r3]	@ movhi
 5219 0010 9AB2     		uxth	r2, r3
 5220 0012 40F2F733 		movw	r3, #1015
 5221 0016 1340     		ands	r3, r3, r2
 5222 0018 9AB2     		uxth	r2, r3
 5223 001a 7B68     		ldr	r3, [r7, #4]
 5224 001c 1A80     		strh	r2, [r3]	@ movhi
2148:common/lib.stm32/STM32F10x_StdPeriph_Driver/src/stm32f10x_tim.c ****   /* Configure the OPM Mode */
2149:common/lib.stm32/STM32F10x_StdPeriph_Driver/src/stm32f10x_tim.c ****   TIMx->CR1 |= TIM_OPMode;
 5225              		.loc 1 2149 13
 5226 001e 7B68     		ldr	r3, [r7, #4]
 5227 0020 1B88     		ldrh	r3, [r3]	@ movhi
 5228 0022 9AB2     		uxth	r2, r3
 5229 0024 7B88     		ldrh	r3, [r7, #2]	@ movhi
 5230 0026 1343     		orrs	r3, r3, r2
 5231 0028 9AB2     		uxth	r2, r3
 5232 002a 7B68     		ldr	r3, [r7, #4]
 5233 002c 1A80     		strh	r2, [r3]	@ movhi
2150:common/lib.stm32/STM32F10x_StdPeriph_Driver/src/stm32f10x_tim.c **** }
 5234              		.loc 1 2150 1
 5235 002e 00BF     		nop
 5236 0030 0C37     		adds	r7, r7, #12
 5237              	.LCFI368:
 5238              		.cfi_def_cfa_offset 4
 5239 0032 BD46     		mov	sp, r7
 5240              	.LCFI369:
 5241              		.cfi_def_cfa_register 13
 5242              		@ sp needed
 5243 0034 80BC     		pop	{r7}
 5244              	.LCFI370:
 5245              		.cfi_restore 7
 5246              		.cfi_def_cfa_offset 0
 5247 0036 7047     		bx	lr
 5248              		.cfi_endproc
 5249              	.LFE89:
 5251              		.section	.text.TIM_SelectOutputTrigger,"ax",%progbits
 5252              		.align	1
 5253              		.global	TIM_SelectOutputTrigger
 5254              		.syntax unified
 5255              		.thumb
 5256              		.thumb_func
 5258              	TIM_SelectOutputTrigger:
 5259              	.LFB90:
2151:common/lib.stm32/STM32F10x_StdPeriph_Driver/src/stm32f10x_tim.c **** 
2152:common/lib.stm32/STM32F10x_StdPeriph_Driver/src/stm32f10x_tim.c **** /**
2153:common/lib.stm32/STM32F10x_StdPeriph_Driver/src/stm32f10x_tim.c ****   * @brief  Selects the TIMx Trigger Output Mode.
2154:common/lib.stm32/STM32F10x_StdPeriph_Driver/src/stm32f10x_tim.c ****   * @param  TIMx: where x can be 1 to 8 to select the TIM peripheral.
2155:common/lib.stm32/STM32F10x_StdPeriph_Driver/src/stm32f10x_tim.c ****   * @param  TIM_TRGOSource: specifies the Trigger Output source.
2156:common/lib.stm32/STM32F10x_StdPeriph_Driver/src/stm32f10x_tim.c ****   *   This paramter can be one of the following values:
2157:common/lib.stm32/STM32F10x_StdPeriph_Driver/src/stm32f10x_tim.c ****   *
2158:common/lib.stm32/STM32F10x_StdPeriph_Driver/src/stm32f10x_tim.c ****   *  - For all TIMx
2159:common/lib.stm32/STM32F10x_StdPeriph_Driver/src/stm32f10x_tim.c ****   *     @arg TIM_TRGOSource_Reset:  The UG bit in the TIM_EGR register is used as the trigger outpu
2160:common/lib.stm32/STM32F10x_StdPeriph_Driver/src/stm32f10x_tim.c ****   *     @arg TIM_TRGOSource_Enable: The Counter Enable CEN is used as the trigger output (TRGO).
2161:common/lib.stm32/STM32F10x_StdPeriph_Driver/src/stm32f10x_tim.c ****   *     @arg TIM_TRGOSource_Update: The update event is selected as the trigger output (TRGO).
2162:common/lib.stm32/STM32F10x_StdPeriph_Driver/src/stm32f10x_tim.c ****   *
2163:common/lib.stm32/STM32F10x_StdPeriph_Driver/src/stm32f10x_tim.c ****   *  - For all TIMx except TIM6 and TIM7
2164:common/lib.stm32/STM32F10x_StdPeriph_Driver/src/stm32f10x_tim.c ****   *     @arg TIM_TRGOSource_OC1: The trigger output sends a positive pulse when the CC1IF flag
2165:common/lib.stm32/STM32F10x_StdPeriph_Driver/src/stm32f10x_tim.c ****   *                              is to be set, as soon as a capture or compare match occurs (TRGO).
2166:common/lib.stm32/STM32F10x_StdPeriph_Driver/src/stm32f10x_tim.c ****   *     @arg TIM_TRGOSource_OC1Ref: OC1REF signal is used as the trigger output (TRGO).
2167:common/lib.stm32/STM32F10x_StdPeriph_Driver/src/stm32f10x_tim.c ****   *     @arg TIM_TRGOSource_OC2Ref: OC2REF signal is used as the trigger output (TRGO).
2168:common/lib.stm32/STM32F10x_StdPeriph_Driver/src/stm32f10x_tim.c ****   *     @arg TIM_TRGOSource_OC3Ref: OC3REF signal is used as the trigger output (TRGO).
2169:common/lib.stm32/STM32F10x_StdPeriph_Driver/src/stm32f10x_tim.c ****   *     @arg TIM_TRGOSource_OC4Ref: OC4REF signal is used as the trigger output (TRGO).
2170:common/lib.stm32/STM32F10x_StdPeriph_Driver/src/stm32f10x_tim.c ****   *
2171:common/lib.stm32/STM32F10x_StdPeriph_Driver/src/stm32f10x_tim.c ****   * @retval None
2172:common/lib.stm32/STM32F10x_StdPeriph_Driver/src/stm32f10x_tim.c ****   */
2173:common/lib.stm32/STM32F10x_StdPeriph_Driver/src/stm32f10x_tim.c **** void TIM_SelectOutputTrigger(TIM_TypeDef* TIMx, uint16_t TIM_TRGOSource)
2174:common/lib.stm32/STM32F10x_StdPeriph_Driver/src/stm32f10x_tim.c **** {
 5260              		.loc 1 2174 1
 5261              		.cfi_startproc
 5262              		@ args = 0, pretend = 0, frame = 8
 5263              		@ frame_needed = 1, uses_anonymous_args = 0
 5264              		@ link register save eliminated.
 5265 0000 80B4     		push	{r7}
 5266              	.LCFI371:
 5267              		.cfi_def_cfa_offset 4
 5268              		.cfi_offset 7, -4
 5269 0002 83B0     		sub	sp, sp, #12
 5270              	.LCFI372:
 5271              		.cfi_def_cfa_offset 16
 5272 0004 00AF     		add	r7, sp, #0
 5273              	.LCFI373:
 5274              		.cfi_def_cfa_register 7
 5275 0006 7860     		str	r0, [r7, #4]
 5276 0008 0B46     		mov	r3, r1
 5277 000a 7B80     		strh	r3, [r7, #2]	@ movhi
2175:common/lib.stm32/STM32F10x_StdPeriph_Driver/src/stm32f10x_tim.c ****   /* Check the parameters */
2176:common/lib.stm32/STM32F10x_StdPeriph_Driver/src/stm32f10x_tim.c ****   assert_param(IS_TIM_ALL_PERIPH(TIMx));
2177:common/lib.stm32/STM32F10x_StdPeriph_Driver/src/stm32f10x_tim.c ****   assert_param(IS_TIM_TRGO_SOURCE(TIM_TRGOSource));
2178:common/lib.stm32/STM32F10x_StdPeriph_Driver/src/stm32f10x_tim.c ****   /* Reset the MMS Bits */
2179:common/lib.stm32/STM32F10x_StdPeriph_Driver/src/stm32f10x_tim.c ****   TIMx->CR2 &= CR2_MMS_Mask;
 5278              		.loc 1 2179 13
 5279 000c 7B68     		ldr	r3, [r7, #4]
 5280 000e 9B88     		ldrh	r3, [r3, #4]	@ movhi
 5281 0010 9BB2     		uxth	r3, r3
 5282 0012 23F07003 		bic	r3, r3, #112
 5283 0016 9AB2     		uxth	r2, r3
 5284 0018 7B68     		ldr	r3, [r7, #4]
 5285 001a 9A80     		strh	r2, [r3, #4]	@ movhi
2180:common/lib.stm32/STM32F10x_StdPeriph_Driver/src/stm32f10x_tim.c ****   /* Select the TRGO source */
2181:common/lib.stm32/STM32F10x_StdPeriph_Driver/src/stm32f10x_tim.c ****   TIMx->CR2 |=  TIM_TRGOSource;
 5286              		.loc 1 2181 13
 5287 001c 7B68     		ldr	r3, [r7, #4]
 5288 001e 9B88     		ldrh	r3, [r3, #4]	@ movhi
 5289 0020 9AB2     		uxth	r2, r3
 5290 0022 7B88     		ldrh	r3, [r7, #2]	@ movhi
 5291 0024 1343     		orrs	r3, r3, r2
 5292 0026 9AB2     		uxth	r2, r3
 5293 0028 7B68     		ldr	r3, [r7, #4]
 5294 002a 9A80     		strh	r2, [r3, #4]	@ movhi
2182:common/lib.stm32/STM32F10x_StdPeriph_Driver/src/stm32f10x_tim.c **** }
 5295              		.loc 1 2182 1
 5296 002c 00BF     		nop
 5297 002e 0C37     		adds	r7, r7, #12
 5298              	.LCFI374:
 5299              		.cfi_def_cfa_offset 4
 5300 0030 BD46     		mov	sp, r7
 5301              	.LCFI375:
 5302              		.cfi_def_cfa_register 13
 5303              		@ sp needed
 5304 0032 80BC     		pop	{r7}
 5305              	.LCFI376:
 5306              		.cfi_restore 7
 5307              		.cfi_def_cfa_offset 0
 5308 0034 7047     		bx	lr
 5309              		.cfi_endproc
 5310              	.LFE90:
 5312              		.section	.text.TIM_SelectSlaveMode,"ax",%progbits
 5313              		.align	1
 5314              		.global	TIM_SelectSlaveMode
 5315              		.syntax unified
 5316              		.thumb
 5317              		.thumb_func
 5319              	TIM_SelectSlaveMode:
 5320              	.LFB91:
2183:common/lib.stm32/STM32F10x_StdPeriph_Driver/src/stm32f10x_tim.c **** 
2184:common/lib.stm32/STM32F10x_StdPeriph_Driver/src/stm32f10x_tim.c **** /**
2185:common/lib.stm32/STM32F10x_StdPeriph_Driver/src/stm32f10x_tim.c ****   * @brief  Selects the TIMx Slave Mode.
2186:common/lib.stm32/STM32F10x_StdPeriph_Driver/src/stm32f10x_tim.c ****   * @param  TIMx: where x can be 1, 2, 3, 4, 5 or 8 to select the TIM peripheral.
2187:common/lib.stm32/STM32F10x_StdPeriph_Driver/src/stm32f10x_tim.c ****   * @param  TIM_SlaveMode: specifies the Timer Slave Mode.
2188:common/lib.stm32/STM32F10x_StdPeriph_Driver/src/stm32f10x_tim.c ****   *   This paramter can be one of the following values:
2189:common/lib.stm32/STM32F10x_StdPeriph_Driver/src/stm32f10x_tim.c ****   *     @arg TIM_SlaveMode_Reset: Rising edge of the selected trigger signal (TRGI) re-initializes
2190:common/lib.stm32/STM32F10x_StdPeriph_Driver/src/stm32f10x_tim.c ****   *                               the counter and triggers an update of the registers.
2191:common/lib.stm32/STM32F10x_StdPeriph_Driver/src/stm32f10x_tim.c ****   *     @arg TIM_SlaveMode_Gated:     The counter clock is enabled when the trigger signal (TRGI) i
2192:common/lib.stm32/STM32F10x_StdPeriph_Driver/src/stm32f10x_tim.c ****   *     @arg TIM_SlaveMode_Trigger:   The counter starts at a rising edge of the trigger TRGI.
2193:common/lib.stm32/STM32F10x_StdPeriph_Driver/src/stm32f10x_tim.c ****   *     @arg TIM_SlaveMode_External1: Rising edges of the selected trigger (TRGI) clock the counter
2194:common/lib.stm32/STM32F10x_StdPeriph_Driver/src/stm32f10x_tim.c ****   * @retval None
2195:common/lib.stm32/STM32F10x_StdPeriph_Driver/src/stm32f10x_tim.c ****   */
2196:common/lib.stm32/STM32F10x_StdPeriph_Driver/src/stm32f10x_tim.c **** void TIM_SelectSlaveMode(TIM_TypeDef* TIMx, uint16_t TIM_SlaveMode)
2197:common/lib.stm32/STM32F10x_StdPeriph_Driver/src/stm32f10x_tim.c **** {
 5321              		.loc 1 2197 1
 5322              		.cfi_startproc
 5323              		@ args = 0, pretend = 0, frame = 8
 5324              		@ frame_needed = 1, uses_anonymous_args = 0
 5325              		@ link register save eliminated.
 5326 0000 80B4     		push	{r7}
 5327              	.LCFI377:
 5328              		.cfi_def_cfa_offset 4
 5329              		.cfi_offset 7, -4
 5330 0002 83B0     		sub	sp, sp, #12
 5331              	.LCFI378:
 5332              		.cfi_def_cfa_offset 16
 5333 0004 00AF     		add	r7, sp, #0
 5334              	.LCFI379:
 5335              		.cfi_def_cfa_register 7
 5336 0006 7860     		str	r0, [r7, #4]
 5337 0008 0B46     		mov	r3, r1
 5338 000a 7B80     		strh	r3, [r7, #2]	@ movhi
2198:common/lib.stm32/STM32F10x_StdPeriph_Driver/src/stm32f10x_tim.c ****   /* Check the parameters */
2199:common/lib.stm32/STM32F10x_StdPeriph_Driver/src/stm32f10x_tim.c ****   assert_param(IS_TIM_123458_PERIPH(TIMx));
2200:common/lib.stm32/STM32F10x_StdPeriph_Driver/src/stm32f10x_tim.c ****   assert_param(IS_TIM_SLAVE_MODE(TIM_SlaveMode));
2201:common/lib.stm32/STM32F10x_StdPeriph_Driver/src/stm32f10x_tim.c ****   /* Reset the SMS Bits */
2202:common/lib.stm32/STM32F10x_StdPeriph_Driver/src/stm32f10x_tim.c ****   TIMx->SMCR &= SMCR_SMS_Mask;
 5339              		.loc 1 2202 14
 5340 000c 7B68     		ldr	r3, [r7, #4]
 5341 000e 1B89     		ldrh	r3, [r3, #8]	@ movhi
 5342 0010 9BB2     		uxth	r3, r3
 5343 0012 23F00703 		bic	r3, r3, #7
 5344 0016 9AB2     		uxth	r2, r3
 5345 0018 7B68     		ldr	r3, [r7, #4]
 5346 001a 1A81     		strh	r2, [r3, #8]	@ movhi
2203:common/lib.stm32/STM32F10x_StdPeriph_Driver/src/stm32f10x_tim.c ****   /* Select the Slave Mode */
2204:common/lib.stm32/STM32F10x_StdPeriph_Driver/src/stm32f10x_tim.c ****   TIMx->SMCR |= TIM_SlaveMode;
 5347              		.loc 1 2204 14
 5348 001c 7B68     		ldr	r3, [r7, #4]
 5349 001e 1B89     		ldrh	r3, [r3, #8]	@ movhi
 5350 0020 9AB2     		uxth	r2, r3
 5351 0022 7B88     		ldrh	r3, [r7, #2]	@ movhi
 5352 0024 1343     		orrs	r3, r3, r2
 5353 0026 9AB2     		uxth	r2, r3
 5354 0028 7B68     		ldr	r3, [r7, #4]
 5355 002a 1A81     		strh	r2, [r3, #8]	@ movhi
2205:common/lib.stm32/STM32F10x_StdPeriph_Driver/src/stm32f10x_tim.c **** }
 5356              		.loc 1 2205 1
 5357 002c 00BF     		nop
 5358 002e 0C37     		adds	r7, r7, #12
 5359              	.LCFI380:
 5360              		.cfi_def_cfa_offset 4
 5361 0030 BD46     		mov	sp, r7
 5362              	.LCFI381:
 5363              		.cfi_def_cfa_register 13
 5364              		@ sp needed
 5365 0032 80BC     		pop	{r7}
 5366              	.LCFI382:
 5367              		.cfi_restore 7
 5368              		.cfi_def_cfa_offset 0
 5369 0034 7047     		bx	lr
 5370              		.cfi_endproc
 5371              	.LFE91:
 5373              		.section	.text.TIM_SelectMasterSlaveMode,"ax",%progbits
 5374              		.align	1
 5375              		.global	TIM_SelectMasterSlaveMode
 5376              		.syntax unified
 5377              		.thumb
 5378              		.thumb_func
 5380              	TIM_SelectMasterSlaveMode:
 5381              	.LFB92:
2206:common/lib.stm32/STM32F10x_StdPeriph_Driver/src/stm32f10x_tim.c **** 
2207:common/lib.stm32/STM32F10x_StdPeriph_Driver/src/stm32f10x_tim.c **** /**
2208:common/lib.stm32/STM32F10x_StdPeriph_Driver/src/stm32f10x_tim.c ****   * @brief  Sets or Resets the TIMx Master/Slave Mode.
2209:common/lib.stm32/STM32F10x_StdPeriph_Driver/src/stm32f10x_tim.c ****   * @param  TIMx: where x can be 1, 2, 3, 4, 5 or 8 to select the TIM peripheral.
2210:common/lib.stm32/STM32F10x_StdPeriph_Driver/src/stm32f10x_tim.c ****   * @param  TIM_MasterSlaveMode: specifies the Timer Master Slave Mode.
2211:common/lib.stm32/STM32F10x_StdPeriph_Driver/src/stm32f10x_tim.c ****   *   This paramter can be one of the following values:
2212:common/lib.stm32/STM32F10x_StdPeriph_Driver/src/stm32f10x_tim.c ****   *     @arg TIM_MasterSlaveMode_Enable: synchronization between the current timer
2213:common/lib.stm32/STM32F10x_StdPeriph_Driver/src/stm32f10x_tim.c ****   *                                      and its slaves (through TRGO).
2214:common/lib.stm32/STM32F10x_StdPeriph_Driver/src/stm32f10x_tim.c ****   *     @arg TIM_MasterSlaveMode_Disable: No action
2215:common/lib.stm32/STM32F10x_StdPeriph_Driver/src/stm32f10x_tim.c ****   * @retval None
2216:common/lib.stm32/STM32F10x_StdPeriph_Driver/src/stm32f10x_tim.c ****   */
2217:common/lib.stm32/STM32F10x_StdPeriph_Driver/src/stm32f10x_tim.c **** void TIM_SelectMasterSlaveMode(TIM_TypeDef* TIMx, uint16_t TIM_MasterSlaveMode)
2218:common/lib.stm32/STM32F10x_StdPeriph_Driver/src/stm32f10x_tim.c **** {
 5382              		.loc 1 2218 1
 5383              		.cfi_startproc
 5384              		@ args = 0, pretend = 0, frame = 8
 5385              		@ frame_needed = 1, uses_anonymous_args = 0
 5386              		@ link register save eliminated.
 5387 0000 80B4     		push	{r7}
 5388              	.LCFI383:
 5389              		.cfi_def_cfa_offset 4
 5390              		.cfi_offset 7, -4
 5391 0002 83B0     		sub	sp, sp, #12
 5392              	.LCFI384:
 5393              		.cfi_def_cfa_offset 16
 5394 0004 00AF     		add	r7, sp, #0
 5395              	.LCFI385:
 5396              		.cfi_def_cfa_register 7
 5397 0006 7860     		str	r0, [r7, #4]
 5398 0008 0B46     		mov	r3, r1
 5399 000a 7B80     		strh	r3, [r7, #2]	@ movhi
2219:common/lib.stm32/STM32F10x_StdPeriph_Driver/src/stm32f10x_tim.c ****   /* Check the parameters */
2220:common/lib.stm32/STM32F10x_StdPeriph_Driver/src/stm32f10x_tim.c ****   assert_param(IS_TIM_123458_PERIPH(TIMx));
2221:common/lib.stm32/STM32F10x_StdPeriph_Driver/src/stm32f10x_tim.c ****   assert_param(IS_TIM_MSM_STATE(TIM_MasterSlaveMode));
2222:common/lib.stm32/STM32F10x_StdPeriph_Driver/src/stm32f10x_tim.c ****   /* Reset the MSM Bit */
2223:common/lib.stm32/STM32F10x_StdPeriph_Driver/src/stm32f10x_tim.c ****   TIMx->SMCR &= SMCR_MSM_Reset;
 5400              		.loc 1 2223 14
 5401 000c 7B68     		ldr	r3, [r7, #4]
 5402 000e 1B89     		ldrh	r3, [r3, #8]	@ movhi
 5403 0010 9BB2     		uxth	r3, r3
 5404 0012 23F08003 		bic	r3, r3, #128
 5405 0016 9AB2     		uxth	r2, r3
 5406 0018 7B68     		ldr	r3, [r7, #4]
 5407 001a 1A81     		strh	r2, [r3, #8]	@ movhi
2224:common/lib.stm32/STM32F10x_StdPeriph_Driver/src/stm32f10x_tim.c ****   
2225:common/lib.stm32/STM32F10x_StdPeriph_Driver/src/stm32f10x_tim.c ****   /* Set or Reset the MSM Bit */
2226:common/lib.stm32/STM32F10x_StdPeriph_Driver/src/stm32f10x_tim.c ****   TIMx->SMCR |= TIM_MasterSlaveMode;
 5408              		.loc 1 2226 14
 5409 001c 7B68     		ldr	r3, [r7, #4]
 5410 001e 1B89     		ldrh	r3, [r3, #8]	@ movhi
 5411 0020 9AB2     		uxth	r2, r3
 5412 0022 7B88     		ldrh	r3, [r7, #2]	@ movhi
 5413 0024 1343     		orrs	r3, r3, r2
 5414 0026 9AB2     		uxth	r2, r3
 5415 0028 7B68     		ldr	r3, [r7, #4]
 5416 002a 1A81     		strh	r2, [r3, #8]	@ movhi
2227:common/lib.stm32/STM32F10x_StdPeriph_Driver/src/stm32f10x_tim.c **** }
 5417              		.loc 1 2227 1
 5418 002c 00BF     		nop
 5419 002e 0C37     		adds	r7, r7, #12
 5420              	.LCFI386:
 5421              		.cfi_def_cfa_offset 4
 5422 0030 BD46     		mov	sp, r7
 5423              	.LCFI387:
 5424              		.cfi_def_cfa_register 13
 5425              		@ sp needed
 5426 0032 80BC     		pop	{r7}
 5427              	.LCFI388:
 5428              		.cfi_restore 7
 5429              		.cfi_def_cfa_offset 0
 5430 0034 7047     		bx	lr
 5431              		.cfi_endproc
 5432              	.LFE92:
 5434              		.section	.text.TIM_SetCounter,"ax",%progbits
 5435              		.align	1
 5436              		.global	TIM_SetCounter
 5437              		.syntax unified
 5438              		.thumb
 5439              		.thumb_func
 5441              	TIM_SetCounter:
 5442              	.LFB93:
2228:common/lib.stm32/STM32F10x_StdPeriph_Driver/src/stm32f10x_tim.c **** 
2229:common/lib.stm32/STM32F10x_StdPeriph_Driver/src/stm32f10x_tim.c **** /**
2230:common/lib.stm32/STM32F10x_StdPeriph_Driver/src/stm32f10x_tim.c ****   * @brief  Sets the TIMx Counter Register value
2231:common/lib.stm32/STM32F10x_StdPeriph_Driver/src/stm32f10x_tim.c ****   * @param  TIMx: where x can be 1 to 8 to select the TIM peripheral.
2232:common/lib.stm32/STM32F10x_StdPeriph_Driver/src/stm32f10x_tim.c ****   * @param  Counter: specifies the Counter register new value.
2233:common/lib.stm32/STM32F10x_StdPeriph_Driver/src/stm32f10x_tim.c ****   * @retval None
2234:common/lib.stm32/STM32F10x_StdPeriph_Driver/src/stm32f10x_tim.c ****   */
2235:common/lib.stm32/STM32F10x_StdPeriph_Driver/src/stm32f10x_tim.c **** void TIM_SetCounter(TIM_TypeDef* TIMx, uint16_t Counter)
2236:common/lib.stm32/STM32F10x_StdPeriph_Driver/src/stm32f10x_tim.c **** {
 5443              		.loc 1 2236 1
 5444              		.cfi_startproc
 5445              		@ args = 0, pretend = 0, frame = 8
 5446              		@ frame_needed = 1, uses_anonymous_args = 0
 5447              		@ link register save eliminated.
 5448 0000 80B4     		push	{r7}
 5449              	.LCFI389:
 5450              		.cfi_def_cfa_offset 4
 5451              		.cfi_offset 7, -4
 5452 0002 83B0     		sub	sp, sp, #12
 5453              	.LCFI390:
 5454              		.cfi_def_cfa_offset 16
 5455 0004 00AF     		add	r7, sp, #0
 5456              	.LCFI391:
 5457              		.cfi_def_cfa_register 7
 5458 0006 7860     		str	r0, [r7, #4]
 5459 0008 0B46     		mov	r3, r1
 5460 000a 7B80     		strh	r3, [r7, #2]	@ movhi
2237:common/lib.stm32/STM32F10x_StdPeriph_Driver/src/stm32f10x_tim.c ****   /* Check the parameters */
2238:common/lib.stm32/STM32F10x_StdPeriph_Driver/src/stm32f10x_tim.c ****   assert_param(IS_TIM_ALL_PERIPH(TIMx));
2239:common/lib.stm32/STM32F10x_StdPeriph_Driver/src/stm32f10x_tim.c ****   /* Set the Counter Register value */
2240:common/lib.stm32/STM32F10x_StdPeriph_Driver/src/stm32f10x_tim.c ****   TIMx->CNT = Counter;
 5461              		.loc 1 2240 13
 5462 000c 7B68     		ldr	r3, [r7, #4]
 5463 000e 7A88     		ldrh	r2, [r7, #2]	@ movhi
 5464 0010 9A84     		strh	r2, [r3, #36]	@ movhi
2241:common/lib.stm32/STM32F10x_StdPeriph_Driver/src/stm32f10x_tim.c **** }
 5465              		.loc 1 2241 1
 5466 0012 00BF     		nop
 5467 0014 0C37     		adds	r7, r7, #12
 5468              	.LCFI392:
 5469              		.cfi_def_cfa_offset 4
 5470 0016 BD46     		mov	sp, r7
 5471              	.LCFI393:
 5472              		.cfi_def_cfa_register 13
 5473              		@ sp needed
 5474 0018 80BC     		pop	{r7}
 5475              	.LCFI394:
 5476              		.cfi_restore 7
 5477              		.cfi_def_cfa_offset 0
 5478 001a 7047     		bx	lr
 5479              		.cfi_endproc
 5480              	.LFE93:
 5482              		.section	.text.TIM_SetAutoreload,"ax",%progbits
 5483              		.align	1
 5484              		.global	TIM_SetAutoreload
 5485              		.syntax unified
 5486              		.thumb
 5487              		.thumb_func
 5489              	TIM_SetAutoreload:
 5490              	.LFB94:
2242:common/lib.stm32/STM32F10x_StdPeriph_Driver/src/stm32f10x_tim.c **** 
2243:common/lib.stm32/STM32F10x_StdPeriph_Driver/src/stm32f10x_tim.c **** /**
2244:common/lib.stm32/STM32F10x_StdPeriph_Driver/src/stm32f10x_tim.c ****   * @brief  Sets the TIMx Autoreload Register value
2245:common/lib.stm32/STM32F10x_StdPeriph_Driver/src/stm32f10x_tim.c ****   * @param  TIMx: where x can be 1 to 8 to select the TIM peripheral.
2246:common/lib.stm32/STM32F10x_StdPeriph_Driver/src/stm32f10x_tim.c ****   * @param  Autoreload: specifies the Autoreload register new value.
2247:common/lib.stm32/STM32F10x_StdPeriph_Driver/src/stm32f10x_tim.c ****   * @retval None
2248:common/lib.stm32/STM32F10x_StdPeriph_Driver/src/stm32f10x_tim.c ****   */
2249:common/lib.stm32/STM32F10x_StdPeriph_Driver/src/stm32f10x_tim.c **** void TIM_SetAutoreload(TIM_TypeDef* TIMx, uint16_t Autoreload)
2250:common/lib.stm32/STM32F10x_StdPeriph_Driver/src/stm32f10x_tim.c **** {
 5491              		.loc 1 2250 1
 5492              		.cfi_startproc
 5493              		@ args = 0, pretend = 0, frame = 8
 5494              		@ frame_needed = 1, uses_anonymous_args = 0
 5495              		@ link register save eliminated.
 5496 0000 80B4     		push	{r7}
 5497              	.LCFI395:
 5498              		.cfi_def_cfa_offset 4
 5499              		.cfi_offset 7, -4
 5500 0002 83B0     		sub	sp, sp, #12
 5501              	.LCFI396:
 5502              		.cfi_def_cfa_offset 16
 5503 0004 00AF     		add	r7, sp, #0
 5504              	.LCFI397:
 5505              		.cfi_def_cfa_register 7
 5506 0006 7860     		str	r0, [r7, #4]
 5507 0008 0B46     		mov	r3, r1
 5508 000a 7B80     		strh	r3, [r7, #2]	@ movhi
2251:common/lib.stm32/STM32F10x_StdPeriph_Driver/src/stm32f10x_tim.c ****   /* Check the parameters */
2252:common/lib.stm32/STM32F10x_StdPeriph_Driver/src/stm32f10x_tim.c ****   assert_param(IS_TIM_ALL_PERIPH(TIMx));
2253:common/lib.stm32/STM32F10x_StdPeriph_Driver/src/stm32f10x_tim.c ****   /* Set the Autoreload Register value */
2254:common/lib.stm32/STM32F10x_StdPeriph_Driver/src/stm32f10x_tim.c ****   TIMx->ARR = Autoreload;
 5509              		.loc 1 2254 13
 5510 000c 7B68     		ldr	r3, [r7, #4]
 5511 000e 7A88     		ldrh	r2, [r7, #2]	@ movhi
 5512 0010 9A85     		strh	r2, [r3, #44]	@ movhi
2255:common/lib.stm32/STM32F10x_StdPeriph_Driver/src/stm32f10x_tim.c **** }
 5513              		.loc 1 2255 1
 5514 0012 00BF     		nop
 5515 0014 0C37     		adds	r7, r7, #12
 5516              	.LCFI398:
 5517              		.cfi_def_cfa_offset 4
 5518 0016 BD46     		mov	sp, r7
 5519              	.LCFI399:
 5520              		.cfi_def_cfa_register 13
 5521              		@ sp needed
 5522 0018 80BC     		pop	{r7}
 5523              	.LCFI400:
 5524              		.cfi_restore 7
 5525              		.cfi_def_cfa_offset 0
 5526 001a 7047     		bx	lr
 5527              		.cfi_endproc
 5528              	.LFE94:
 5530              		.section	.text.TIM_SetCompare1,"ax",%progbits
 5531              		.align	1
 5532              		.global	TIM_SetCompare1
 5533              		.syntax unified
 5534              		.thumb
 5535              		.thumb_func
 5537              	TIM_SetCompare1:
 5538              	.LFB95:
2256:common/lib.stm32/STM32F10x_StdPeriph_Driver/src/stm32f10x_tim.c **** 
2257:common/lib.stm32/STM32F10x_StdPeriph_Driver/src/stm32f10x_tim.c **** /**
2258:common/lib.stm32/STM32F10x_StdPeriph_Driver/src/stm32f10x_tim.c ****   * @brief  Sets the TIMx Capture Compare1 Register value
2259:common/lib.stm32/STM32F10x_StdPeriph_Driver/src/stm32f10x_tim.c ****   * @param  TIMx: where x can be 1, 2, 3, 4, 5 or 8 to select the TIM peripheral.
2260:common/lib.stm32/STM32F10x_StdPeriph_Driver/src/stm32f10x_tim.c ****   * @param  Compare1: specifies the Capture Compare1 register new value.
2261:common/lib.stm32/STM32F10x_StdPeriph_Driver/src/stm32f10x_tim.c ****   * @retval None
2262:common/lib.stm32/STM32F10x_StdPeriph_Driver/src/stm32f10x_tim.c ****   */
2263:common/lib.stm32/STM32F10x_StdPeriph_Driver/src/stm32f10x_tim.c **** void TIM_SetCompare1(TIM_TypeDef* TIMx, uint16_t Compare1)
2264:common/lib.stm32/STM32F10x_StdPeriph_Driver/src/stm32f10x_tim.c **** {
 5539              		.loc 1 2264 1
 5540              		.cfi_startproc
 5541              		@ args = 0, pretend = 0, frame = 8
 5542              		@ frame_needed = 1, uses_anonymous_args = 0
 5543              		@ link register save eliminated.
 5544 0000 80B4     		push	{r7}
 5545              	.LCFI401:
 5546              		.cfi_def_cfa_offset 4
 5547              		.cfi_offset 7, -4
 5548 0002 83B0     		sub	sp, sp, #12
 5549              	.LCFI402:
 5550              		.cfi_def_cfa_offset 16
 5551 0004 00AF     		add	r7, sp, #0
 5552              	.LCFI403:
 5553              		.cfi_def_cfa_register 7
 5554 0006 7860     		str	r0, [r7, #4]
 5555 0008 0B46     		mov	r3, r1
 5556 000a 7B80     		strh	r3, [r7, #2]	@ movhi
2265:common/lib.stm32/STM32F10x_StdPeriph_Driver/src/stm32f10x_tim.c ****   /* Check the parameters */
2266:common/lib.stm32/STM32F10x_StdPeriph_Driver/src/stm32f10x_tim.c ****   assert_param(IS_TIM_123458_PERIPH(TIMx));
2267:common/lib.stm32/STM32F10x_StdPeriph_Driver/src/stm32f10x_tim.c ****   /* Set the Capture Compare1 Register value */
2268:common/lib.stm32/STM32F10x_StdPeriph_Driver/src/stm32f10x_tim.c ****   TIMx->CCR1 = Compare1;
 5557              		.loc 1 2268 14
 5558 000c 7B68     		ldr	r3, [r7, #4]
 5559 000e 7A88     		ldrh	r2, [r7, #2]	@ movhi
 5560 0010 9A86     		strh	r2, [r3, #52]	@ movhi
2269:common/lib.stm32/STM32F10x_StdPeriph_Driver/src/stm32f10x_tim.c **** }
 5561              		.loc 1 2269 1
 5562 0012 00BF     		nop
 5563 0014 0C37     		adds	r7, r7, #12
 5564              	.LCFI404:
 5565              		.cfi_def_cfa_offset 4
 5566 0016 BD46     		mov	sp, r7
 5567              	.LCFI405:
 5568              		.cfi_def_cfa_register 13
 5569              		@ sp needed
 5570 0018 80BC     		pop	{r7}
 5571              	.LCFI406:
 5572              		.cfi_restore 7
 5573              		.cfi_def_cfa_offset 0
 5574 001a 7047     		bx	lr
 5575              		.cfi_endproc
 5576              	.LFE95:
 5578              		.section	.text.TIM_SetCompare2,"ax",%progbits
 5579              		.align	1
 5580              		.global	TIM_SetCompare2
 5581              		.syntax unified
 5582              		.thumb
 5583              		.thumb_func
 5585              	TIM_SetCompare2:
 5586              	.LFB96:
2270:common/lib.stm32/STM32F10x_StdPeriph_Driver/src/stm32f10x_tim.c **** 
2271:common/lib.stm32/STM32F10x_StdPeriph_Driver/src/stm32f10x_tim.c **** /**
2272:common/lib.stm32/STM32F10x_StdPeriph_Driver/src/stm32f10x_tim.c ****   * @brief  Sets the TIMx Capture Compare2 Register value
2273:common/lib.stm32/STM32F10x_StdPeriph_Driver/src/stm32f10x_tim.c ****   * @param  TIMx: where x can be 1, 2, 3, 4, 5 or 8 to select the TIM peripheral.
2274:common/lib.stm32/STM32F10x_StdPeriph_Driver/src/stm32f10x_tim.c ****   * @param  Compare2: specifies the Capture Compare2 register new value.
2275:common/lib.stm32/STM32F10x_StdPeriph_Driver/src/stm32f10x_tim.c ****   * @retval None
2276:common/lib.stm32/STM32F10x_StdPeriph_Driver/src/stm32f10x_tim.c ****   */
2277:common/lib.stm32/STM32F10x_StdPeriph_Driver/src/stm32f10x_tim.c **** void TIM_SetCompare2(TIM_TypeDef* TIMx, uint16_t Compare2)
2278:common/lib.stm32/STM32F10x_StdPeriph_Driver/src/stm32f10x_tim.c **** {
 5587              		.loc 1 2278 1
 5588              		.cfi_startproc
 5589              		@ args = 0, pretend = 0, frame = 8
 5590              		@ frame_needed = 1, uses_anonymous_args = 0
 5591              		@ link register save eliminated.
 5592 0000 80B4     		push	{r7}
 5593              	.LCFI407:
 5594              		.cfi_def_cfa_offset 4
 5595              		.cfi_offset 7, -4
 5596 0002 83B0     		sub	sp, sp, #12
 5597              	.LCFI408:
 5598              		.cfi_def_cfa_offset 16
 5599 0004 00AF     		add	r7, sp, #0
 5600              	.LCFI409:
 5601              		.cfi_def_cfa_register 7
 5602 0006 7860     		str	r0, [r7, #4]
 5603 0008 0B46     		mov	r3, r1
 5604 000a 7B80     		strh	r3, [r7, #2]	@ movhi
2279:common/lib.stm32/STM32F10x_StdPeriph_Driver/src/stm32f10x_tim.c ****   /* Check the parameters */
2280:common/lib.stm32/STM32F10x_StdPeriph_Driver/src/stm32f10x_tim.c ****   assert_param(IS_TIM_123458_PERIPH(TIMx));
2281:common/lib.stm32/STM32F10x_StdPeriph_Driver/src/stm32f10x_tim.c ****   /* Set the Capture Compare2 Register value */
2282:common/lib.stm32/STM32F10x_StdPeriph_Driver/src/stm32f10x_tim.c ****   TIMx->CCR2 = Compare2;
 5605              		.loc 1 2282 14
 5606 000c 7B68     		ldr	r3, [r7, #4]
 5607 000e 7A88     		ldrh	r2, [r7, #2]	@ movhi
 5608 0010 1A87     		strh	r2, [r3, #56]	@ movhi
2283:common/lib.stm32/STM32F10x_StdPeriph_Driver/src/stm32f10x_tim.c **** }
 5609              		.loc 1 2283 1
 5610 0012 00BF     		nop
 5611 0014 0C37     		adds	r7, r7, #12
 5612              	.LCFI410:
 5613              		.cfi_def_cfa_offset 4
 5614 0016 BD46     		mov	sp, r7
 5615              	.LCFI411:
 5616              		.cfi_def_cfa_register 13
 5617              		@ sp needed
 5618 0018 80BC     		pop	{r7}
 5619              	.LCFI412:
 5620              		.cfi_restore 7
 5621              		.cfi_def_cfa_offset 0
 5622 001a 7047     		bx	lr
 5623              		.cfi_endproc
 5624              	.LFE96:
 5626              		.section	.text.TIM_SetCompare3,"ax",%progbits
 5627              		.align	1
 5628              		.global	TIM_SetCompare3
 5629              		.syntax unified
 5630              		.thumb
 5631              		.thumb_func
 5633              	TIM_SetCompare3:
 5634              	.LFB97:
2284:common/lib.stm32/STM32F10x_StdPeriph_Driver/src/stm32f10x_tim.c **** 
2285:common/lib.stm32/STM32F10x_StdPeriph_Driver/src/stm32f10x_tim.c **** /**
2286:common/lib.stm32/STM32F10x_StdPeriph_Driver/src/stm32f10x_tim.c ****   * @brief  Sets the TIMx Capture Compare3 Register value
2287:common/lib.stm32/STM32F10x_StdPeriph_Driver/src/stm32f10x_tim.c ****   * @param  TIMx: where x can be 1, 2, 3, 4, 5 or 8 to select the TIM peripheral.
2288:common/lib.stm32/STM32F10x_StdPeriph_Driver/src/stm32f10x_tim.c ****   * @param  Compare3: specifies the Capture Compare3 register new value.
2289:common/lib.stm32/STM32F10x_StdPeriph_Driver/src/stm32f10x_tim.c ****   * @retval None
2290:common/lib.stm32/STM32F10x_StdPeriph_Driver/src/stm32f10x_tim.c ****   */
2291:common/lib.stm32/STM32F10x_StdPeriph_Driver/src/stm32f10x_tim.c **** void TIM_SetCompare3(TIM_TypeDef* TIMx, uint16_t Compare3)
2292:common/lib.stm32/STM32F10x_StdPeriph_Driver/src/stm32f10x_tim.c **** {
 5635              		.loc 1 2292 1
 5636              		.cfi_startproc
 5637              		@ args = 0, pretend = 0, frame = 8
 5638              		@ frame_needed = 1, uses_anonymous_args = 0
 5639              		@ link register save eliminated.
 5640 0000 80B4     		push	{r7}
 5641              	.LCFI413:
 5642              		.cfi_def_cfa_offset 4
 5643              		.cfi_offset 7, -4
 5644 0002 83B0     		sub	sp, sp, #12
 5645              	.LCFI414:
 5646              		.cfi_def_cfa_offset 16
 5647 0004 00AF     		add	r7, sp, #0
 5648              	.LCFI415:
 5649              		.cfi_def_cfa_register 7
 5650 0006 7860     		str	r0, [r7, #4]
 5651 0008 0B46     		mov	r3, r1
 5652 000a 7B80     		strh	r3, [r7, #2]	@ movhi
2293:common/lib.stm32/STM32F10x_StdPeriph_Driver/src/stm32f10x_tim.c ****   /* Check the parameters */
2294:common/lib.stm32/STM32F10x_StdPeriph_Driver/src/stm32f10x_tim.c ****   assert_param(IS_TIM_123458_PERIPH(TIMx));
2295:common/lib.stm32/STM32F10x_StdPeriph_Driver/src/stm32f10x_tim.c ****   /* Set the Capture Compare3 Register value */
2296:common/lib.stm32/STM32F10x_StdPeriph_Driver/src/stm32f10x_tim.c ****   TIMx->CCR3 = Compare3;
 5653              		.loc 1 2296 14
 5654 000c 7B68     		ldr	r3, [r7, #4]
 5655 000e 7A88     		ldrh	r2, [r7, #2]	@ movhi
 5656 0010 9A87     		strh	r2, [r3, #60]	@ movhi
2297:common/lib.stm32/STM32F10x_StdPeriph_Driver/src/stm32f10x_tim.c **** }
 5657              		.loc 1 2297 1
 5658 0012 00BF     		nop
 5659 0014 0C37     		adds	r7, r7, #12
 5660              	.LCFI416:
 5661              		.cfi_def_cfa_offset 4
 5662 0016 BD46     		mov	sp, r7
 5663              	.LCFI417:
 5664              		.cfi_def_cfa_register 13
 5665              		@ sp needed
 5666 0018 80BC     		pop	{r7}
 5667              	.LCFI418:
 5668              		.cfi_restore 7
 5669              		.cfi_def_cfa_offset 0
 5670 001a 7047     		bx	lr
 5671              		.cfi_endproc
 5672              	.LFE97:
 5674              		.section	.text.TIM_SetCompare4,"ax",%progbits
 5675              		.align	1
 5676              		.global	TIM_SetCompare4
 5677              		.syntax unified
 5678              		.thumb
 5679              		.thumb_func
 5681              	TIM_SetCompare4:
 5682              	.LFB98:
2298:common/lib.stm32/STM32F10x_StdPeriph_Driver/src/stm32f10x_tim.c **** 
2299:common/lib.stm32/STM32F10x_StdPeriph_Driver/src/stm32f10x_tim.c **** /**
2300:common/lib.stm32/STM32F10x_StdPeriph_Driver/src/stm32f10x_tim.c ****   * @brief  Sets the TIMx Capture Compare4 Register value
2301:common/lib.stm32/STM32F10x_StdPeriph_Driver/src/stm32f10x_tim.c ****   * @param  TIMx: where x can be 1, 2, 3, 4, 5 or 8 to select the TIM peripheral.
2302:common/lib.stm32/STM32F10x_StdPeriph_Driver/src/stm32f10x_tim.c ****   * @param  Compare4: specifies the Capture Compare4 register new value.
2303:common/lib.stm32/STM32F10x_StdPeriph_Driver/src/stm32f10x_tim.c ****   * @retval None
2304:common/lib.stm32/STM32F10x_StdPeriph_Driver/src/stm32f10x_tim.c ****   */
2305:common/lib.stm32/STM32F10x_StdPeriph_Driver/src/stm32f10x_tim.c **** void TIM_SetCompare4(TIM_TypeDef* TIMx, uint16_t Compare4)
2306:common/lib.stm32/STM32F10x_StdPeriph_Driver/src/stm32f10x_tim.c **** {
 5683              		.loc 1 2306 1
 5684              		.cfi_startproc
 5685              		@ args = 0, pretend = 0, frame = 8
 5686              		@ frame_needed = 1, uses_anonymous_args = 0
 5687              		@ link register save eliminated.
 5688 0000 80B4     		push	{r7}
 5689              	.LCFI419:
 5690              		.cfi_def_cfa_offset 4
 5691              		.cfi_offset 7, -4
 5692 0002 83B0     		sub	sp, sp, #12
 5693              	.LCFI420:
 5694              		.cfi_def_cfa_offset 16
 5695 0004 00AF     		add	r7, sp, #0
 5696              	.LCFI421:
 5697              		.cfi_def_cfa_register 7
 5698 0006 7860     		str	r0, [r7, #4]
 5699 0008 0B46     		mov	r3, r1
 5700 000a 7B80     		strh	r3, [r7, #2]	@ movhi
2307:common/lib.stm32/STM32F10x_StdPeriph_Driver/src/stm32f10x_tim.c ****   /* Check the parameters */
2308:common/lib.stm32/STM32F10x_StdPeriph_Driver/src/stm32f10x_tim.c ****   assert_param(IS_TIM_123458_PERIPH(TIMx));
2309:common/lib.stm32/STM32F10x_StdPeriph_Driver/src/stm32f10x_tim.c ****   /* Set the Capture Compare4 Register value */
2310:common/lib.stm32/STM32F10x_StdPeriph_Driver/src/stm32f10x_tim.c ****   TIMx->CCR4 = Compare4;
 5701              		.loc 1 2310 14
 5702 000c 7B68     		ldr	r3, [r7, #4]
 5703 000e 7A88     		ldrh	r2, [r7, #2]	@ movhi
 5704 0010 A3F84020 		strh	r2, [r3, #64]	@ movhi
2311:common/lib.stm32/STM32F10x_StdPeriph_Driver/src/stm32f10x_tim.c **** }
 5705              		.loc 1 2311 1
 5706 0014 00BF     		nop
 5707 0016 0C37     		adds	r7, r7, #12
 5708              	.LCFI422:
 5709              		.cfi_def_cfa_offset 4
 5710 0018 BD46     		mov	sp, r7
 5711              	.LCFI423:
 5712              		.cfi_def_cfa_register 13
 5713              		@ sp needed
 5714 001a 80BC     		pop	{r7}
 5715              	.LCFI424:
 5716              		.cfi_restore 7
 5717              		.cfi_def_cfa_offset 0
 5718 001c 7047     		bx	lr
 5719              		.cfi_endproc
 5720              	.LFE98:
 5722              		.section	.text.TIM_SetIC1Prescaler,"ax",%progbits
 5723              		.align	1
 5724              		.global	TIM_SetIC1Prescaler
 5725              		.syntax unified
 5726              		.thumb
 5727              		.thumb_func
 5729              	TIM_SetIC1Prescaler:
 5730              	.LFB99:
2312:common/lib.stm32/STM32F10x_StdPeriph_Driver/src/stm32f10x_tim.c **** 
2313:common/lib.stm32/STM32F10x_StdPeriph_Driver/src/stm32f10x_tim.c **** /**
2314:common/lib.stm32/STM32F10x_StdPeriph_Driver/src/stm32f10x_tim.c ****   * @brief  Sets the TIMx Input Capture 1 prescaler.
2315:common/lib.stm32/STM32F10x_StdPeriph_Driver/src/stm32f10x_tim.c ****   * @param  TIMx: where x can be 1, 2, 3, 4, 5 or 8 to select the TIM peripheral.
2316:common/lib.stm32/STM32F10x_StdPeriph_Driver/src/stm32f10x_tim.c ****   * @param  TIM_ICPSC: specifies the Input Capture1 prescaler new value.
2317:common/lib.stm32/STM32F10x_StdPeriph_Driver/src/stm32f10x_tim.c ****   *   This parameter can be one of the following values:
2318:common/lib.stm32/STM32F10x_StdPeriph_Driver/src/stm32f10x_tim.c ****   *     @arg TIM_ICPSC_DIV1: no prescaler
2319:common/lib.stm32/STM32F10x_StdPeriph_Driver/src/stm32f10x_tim.c ****   *     @arg TIM_ICPSC_DIV2: capture is done once every 2 events
2320:common/lib.stm32/STM32F10x_StdPeriph_Driver/src/stm32f10x_tim.c ****   *     @arg TIM_ICPSC_DIV4: capture is done once every 4 events
2321:common/lib.stm32/STM32F10x_StdPeriph_Driver/src/stm32f10x_tim.c ****   *     @arg TIM_ICPSC_DIV8: capture is done once every 8 events
2322:common/lib.stm32/STM32F10x_StdPeriph_Driver/src/stm32f10x_tim.c ****   * @retval None
2323:common/lib.stm32/STM32F10x_StdPeriph_Driver/src/stm32f10x_tim.c ****   */
2324:common/lib.stm32/STM32F10x_StdPeriph_Driver/src/stm32f10x_tim.c **** void TIM_SetIC1Prescaler(TIM_TypeDef* TIMx, uint16_t TIM_ICPSC)
2325:common/lib.stm32/STM32F10x_StdPeriph_Driver/src/stm32f10x_tim.c **** {
 5731              		.loc 1 2325 1
 5732              		.cfi_startproc
 5733              		@ args = 0, pretend = 0, frame = 8
 5734              		@ frame_needed = 1, uses_anonymous_args = 0
 5735              		@ link register save eliminated.
 5736 0000 80B4     		push	{r7}
 5737              	.LCFI425:
 5738              		.cfi_def_cfa_offset 4
 5739              		.cfi_offset 7, -4
 5740 0002 83B0     		sub	sp, sp, #12
 5741              	.LCFI426:
 5742              		.cfi_def_cfa_offset 16
 5743 0004 00AF     		add	r7, sp, #0
 5744              	.LCFI427:
 5745              		.cfi_def_cfa_register 7
 5746 0006 7860     		str	r0, [r7, #4]
 5747 0008 0B46     		mov	r3, r1
 5748 000a 7B80     		strh	r3, [r7, #2]	@ movhi
2326:common/lib.stm32/STM32F10x_StdPeriph_Driver/src/stm32f10x_tim.c ****   /* Check the parameters */
2327:common/lib.stm32/STM32F10x_StdPeriph_Driver/src/stm32f10x_tim.c ****   assert_param(IS_TIM_123458_PERIPH(TIMx));
2328:common/lib.stm32/STM32F10x_StdPeriph_Driver/src/stm32f10x_tim.c ****   assert_param(IS_TIM_IC_PRESCALER(TIM_ICPSC));
2329:common/lib.stm32/STM32F10x_StdPeriph_Driver/src/stm32f10x_tim.c ****   /* Reset the IC1PSC Bits */
2330:common/lib.stm32/STM32F10x_StdPeriph_Driver/src/stm32f10x_tim.c ****   TIMx->CCMR1 &= CCMR_IC13PSC_Mask;
 5749              		.loc 1 2330 15
 5750 000c 7B68     		ldr	r3, [r7, #4]
 5751 000e 1B8B     		ldrh	r3, [r3, #24]	@ movhi
 5752 0010 9BB2     		uxth	r3, r3
 5753 0012 23F00C03 		bic	r3, r3, #12
 5754 0016 9AB2     		uxth	r2, r3
 5755 0018 7B68     		ldr	r3, [r7, #4]
 5756 001a 1A83     		strh	r2, [r3, #24]	@ movhi
2331:common/lib.stm32/STM32F10x_StdPeriph_Driver/src/stm32f10x_tim.c ****   /* Set the IC1PSC value */
2332:common/lib.stm32/STM32F10x_StdPeriph_Driver/src/stm32f10x_tim.c ****   TIMx->CCMR1 |= TIM_ICPSC;
 5757              		.loc 1 2332 15
 5758 001c 7B68     		ldr	r3, [r7, #4]
 5759 001e 1B8B     		ldrh	r3, [r3, #24]	@ movhi
 5760 0020 9AB2     		uxth	r2, r3
 5761 0022 7B88     		ldrh	r3, [r7, #2]	@ movhi
 5762 0024 1343     		orrs	r3, r3, r2
 5763 0026 9AB2     		uxth	r2, r3
 5764 0028 7B68     		ldr	r3, [r7, #4]
 5765 002a 1A83     		strh	r2, [r3, #24]	@ movhi
2333:common/lib.stm32/STM32F10x_StdPeriph_Driver/src/stm32f10x_tim.c **** }
 5766              		.loc 1 2333 1
 5767 002c 00BF     		nop
 5768 002e 0C37     		adds	r7, r7, #12
 5769              	.LCFI428:
 5770              		.cfi_def_cfa_offset 4
 5771 0030 BD46     		mov	sp, r7
 5772              	.LCFI429:
 5773              		.cfi_def_cfa_register 13
 5774              		@ sp needed
 5775 0032 80BC     		pop	{r7}
 5776              	.LCFI430:
 5777              		.cfi_restore 7
 5778              		.cfi_def_cfa_offset 0
 5779 0034 7047     		bx	lr
 5780              		.cfi_endproc
 5781              	.LFE99:
 5783              		.section	.text.TIM_SetIC2Prescaler,"ax",%progbits
 5784              		.align	1
 5785              		.global	TIM_SetIC2Prescaler
 5786              		.syntax unified
 5787              		.thumb
 5788              		.thumb_func
 5790              	TIM_SetIC2Prescaler:
 5791              	.LFB100:
2334:common/lib.stm32/STM32F10x_StdPeriph_Driver/src/stm32f10x_tim.c **** 
2335:common/lib.stm32/STM32F10x_StdPeriph_Driver/src/stm32f10x_tim.c **** /**
2336:common/lib.stm32/STM32F10x_StdPeriph_Driver/src/stm32f10x_tim.c ****   * @brief  Sets the TIMx Input Capture 2 prescaler.
2337:common/lib.stm32/STM32F10x_StdPeriph_Driver/src/stm32f10x_tim.c ****   * @param  TIMx: where x can be 1, 2, 3, 4, 5 or 8 to select the TIM peripheral.
2338:common/lib.stm32/STM32F10x_StdPeriph_Driver/src/stm32f10x_tim.c ****   * @param  TIM_ICPSC: specifies the Input Capture2 prescaler new value.
2339:common/lib.stm32/STM32F10x_StdPeriph_Driver/src/stm32f10x_tim.c ****   *   This parameter can be one of the following values:
2340:common/lib.stm32/STM32F10x_StdPeriph_Driver/src/stm32f10x_tim.c ****   *     @arg TIM_ICPSC_DIV1: no prescaler
2341:common/lib.stm32/STM32F10x_StdPeriph_Driver/src/stm32f10x_tim.c ****   *     @arg TIM_ICPSC_DIV2: capture is done once every 2 events
2342:common/lib.stm32/STM32F10x_StdPeriph_Driver/src/stm32f10x_tim.c ****   *     @arg TIM_ICPSC_DIV4: capture is done once every 4 events
2343:common/lib.stm32/STM32F10x_StdPeriph_Driver/src/stm32f10x_tim.c ****   *     @arg TIM_ICPSC_DIV8: capture is done once every 8 events
2344:common/lib.stm32/STM32F10x_StdPeriph_Driver/src/stm32f10x_tim.c ****   * @retval None
2345:common/lib.stm32/STM32F10x_StdPeriph_Driver/src/stm32f10x_tim.c ****   */
2346:common/lib.stm32/STM32F10x_StdPeriph_Driver/src/stm32f10x_tim.c **** void TIM_SetIC2Prescaler(TIM_TypeDef* TIMx, uint16_t TIM_ICPSC)
2347:common/lib.stm32/STM32F10x_StdPeriph_Driver/src/stm32f10x_tim.c **** {
 5792              		.loc 1 2347 1
 5793              		.cfi_startproc
 5794              		@ args = 0, pretend = 0, frame = 8
 5795              		@ frame_needed = 1, uses_anonymous_args = 0
 5796              		@ link register save eliminated.
 5797 0000 80B4     		push	{r7}
 5798              	.LCFI431:
 5799              		.cfi_def_cfa_offset 4
 5800              		.cfi_offset 7, -4
 5801 0002 83B0     		sub	sp, sp, #12
 5802              	.LCFI432:
 5803              		.cfi_def_cfa_offset 16
 5804 0004 00AF     		add	r7, sp, #0
 5805              	.LCFI433:
 5806              		.cfi_def_cfa_register 7
 5807 0006 7860     		str	r0, [r7, #4]
 5808 0008 0B46     		mov	r3, r1
 5809 000a 7B80     		strh	r3, [r7, #2]	@ movhi
2348:common/lib.stm32/STM32F10x_StdPeriph_Driver/src/stm32f10x_tim.c ****   /* Check the parameters */
2349:common/lib.stm32/STM32F10x_StdPeriph_Driver/src/stm32f10x_tim.c ****   assert_param(IS_TIM_123458_PERIPH(TIMx));
2350:common/lib.stm32/STM32F10x_StdPeriph_Driver/src/stm32f10x_tim.c ****   assert_param(IS_TIM_IC_PRESCALER(TIM_ICPSC));
2351:common/lib.stm32/STM32F10x_StdPeriph_Driver/src/stm32f10x_tim.c ****   /* Reset the IC2PSC Bits */
2352:common/lib.stm32/STM32F10x_StdPeriph_Driver/src/stm32f10x_tim.c ****   TIMx->CCMR1 &= CCMR_IC24PSC_Mask;
 5810              		.loc 1 2352 15
 5811 000c 7B68     		ldr	r3, [r7, #4]
 5812 000e 1B8B     		ldrh	r3, [r3, #24]	@ movhi
 5813 0010 9BB2     		uxth	r3, r3
 5814 0012 23F44063 		bic	r3, r3, #3072
 5815 0016 9AB2     		uxth	r2, r3
 5816 0018 7B68     		ldr	r3, [r7, #4]
 5817 001a 1A83     		strh	r2, [r3, #24]	@ movhi
2353:common/lib.stm32/STM32F10x_StdPeriph_Driver/src/stm32f10x_tim.c ****   /* Set the IC2PSC value */
2354:common/lib.stm32/STM32F10x_StdPeriph_Driver/src/stm32f10x_tim.c ****   TIMx->CCMR1 |= (uint16_t)(TIM_ICPSC << 8);
 5818              		.loc 1 2354 15
 5819 001c 7B68     		ldr	r3, [r7, #4]
 5820 001e 1B8B     		ldrh	r3, [r3, #24]	@ movhi
 5821 0020 9AB2     		uxth	r2, r3
 5822              		.loc 1 2354 18
 5823 0022 7B88     		ldrh	r3, [r7, #2]	@ movhi
 5824 0024 1B02     		lsls	r3, r3, #8
 5825 0026 9BB2     		uxth	r3, r3
 5826              		.loc 1 2354 15
 5827 0028 1343     		orrs	r3, r3, r2
 5828 002a 9AB2     		uxth	r2, r3
 5829 002c 7B68     		ldr	r3, [r7, #4]
 5830 002e 1A83     		strh	r2, [r3, #24]	@ movhi
2355:common/lib.stm32/STM32F10x_StdPeriph_Driver/src/stm32f10x_tim.c **** }
 5831              		.loc 1 2355 1
 5832 0030 00BF     		nop
 5833 0032 0C37     		adds	r7, r7, #12
 5834              	.LCFI434:
 5835              		.cfi_def_cfa_offset 4
 5836 0034 BD46     		mov	sp, r7
 5837              	.LCFI435:
 5838              		.cfi_def_cfa_register 13
 5839              		@ sp needed
 5840 0036 80BC     		pop	{r7}
 5841              	.LCFI436:
 5842              		.cfi_restore 7
 5843              		.cfi_def_cfa_offset 0
 5844 0038 7047     		bx	lr
 5845              		.cfi_endproc
 5846              	.LFE100:
 5848              		.section	.text.TIM_SetIC3Prescaler,"ax",%progbits
 5849              		.align	1
 5850              		.global	TIM_SetIC3Prescaler
 5851              		.syntax unified
 5852              		.thumb
 5853              		.thumb_func
 5855              	TIM_SetIC3Prescaler:
 5856              	.LFB101:
2356:common/lib.stm32/STM32F10x_StdPeriph_Driver/src/stm32f10x_tim.c **** 
2357:common/lib.stm32/STM32F10x_StdPeriph_Driver/src/stm32f10x_tim.c **** /**
2358:common/lib.stm32/STM32F10x_StdPeriph_Driver/src/stm32f10x_tim.c ****   * @brief  Sets the TIMx Input Capture 3 prescaler.
2359:common/lib.stm32/STM32F10x_StdPeriph_Driver/src/stm32f10x_tim.c ****   * @param  TIMx: where x can be 1, 2, 3, 4, 5 or 8 to select the TIM peripheral.
2360:common/lib.stm32/STM32F10x_StdPeriph_Driver/src/stm32f10x_tim.c ****   * @param  TIM_ICPSC: specifies the Input Capture3 prescaler new value.
2361:common/lib.stm32/STM32F10x_StdPeriph_Driver/src/stm32f10x_tim.c ****   *   This parameter can be one of the following values:
2362:common/lib.stm32/STM32F10x_StdPeriph_Driver/src/stm32f10x_tim.c ****   *     @arg TIM_ICPSC_DIV1: no prescaler
2363:common/lib.stm32/STM32F10x_StdPeriph_Driver/src/stm32f10x_tim.c ****   *     @arg TIM_ICPSC_DIV2: capture is done once every 2 events
2364:common/lib.stm32/STM32F10x_StdPeriph_Driver/src/stm32f10x_tim.c ****   *     @arg TIM_ICPSC_DIV4: capture is done once every 4 events
2365:common/lib.stm32/STM32F10x_StdPeriph_Driver/src/stm32f10x_tim.c ****   *     @arg TIM_ICPSC_DIV8: capture is done once every 8 events
2366:common/lib.stm32/STM32F10x_StdPeriph_Driver/src/stm32f10x_tim.c ****   * @retval None
2367:common/lib.stm32/STM32F10x_StdPeriph_Driver/src/stm32f10x_tim.c ****   */
2368:common/lib.stm32/STM32F10x_StdPeriph_Driver/src/stm32f10x_tim.c **** void TIM_SetIC3Prescaler(TIM_TypeDef* TIMx, uint16_t TIM_ICPSC)
2369:common/lib.stm32/STM32F10x_StdPeriph_Driver/src/stm32f10x_tim.c **** {
 5857              		.loc 1 2369 1
 5858              		.cfi_startproc
 5859              		@ args = 0, pretend = 0, frame = 8
 5860              		@ frame_needed = 1, uses_anonymous_args = 0
 5861              		@ link register save eliminated.
 5862 0000 80B4     		push	{r7}
 5863              	.LCFI437:
 5864              		.cfi_def_cfa_offset 4
 5865              		.cfi_offset 7, -4
 5866 0002 83B0     		sub	sp, sp, #12
 5867              	.LCFI438:
 5868              		.cfi_def_cfa_offset 16
 5869 0004 00AF     		add	r7, sp, #0
 5870              	.LCFI439:
 5871              		.cfi_def_cfa_register 7
 5872 0006 7860     		str	r0, [r7, #4]
 5873 0008 0B46     		mov	r3, r1
 5874 000a 7B80     		strh	r3, [r7, #2]	@ movhi
2370:common/lib.stm32/STM32F10x_StdPeriph_Driver/src/stm32f10x_tim.c ****   /* Check the parameters */
2371:common/lib.stm32/STM32F10x_StdPeriph_Driver/src/stm32f10x_tim.c ****   assert_param(IS_TIM_123458_PERIPH(TIMx));
2372:common/lib.stm32/STM32F10x_StdPeriph_Driver/src/stm32f10x_tim.c ****   assert_param(IS_TIM_IC_PRESCALER(TIM_ICPSC));
2373:common/lib.stm32/STM32F10x_StdPeriph_Driver/src/stm32f10x_tim.c ****   /* Reset the IC3PSC Bits */
2374:common/lib.stm32/STM32F10x_StdPeriph_Driver/src/stm32f10x_tim.c ****   TIMx->CCMR2 &= CCMR_IC13PSC_Mask;
 5875              		.loc 1 2374 15
 5876 000c 7B68     		ldr	r3, [r7, #4]
 5877 000e 9B8B     		ldrh	r3, [r3, #28]	@ movhi
 5878 0010 9BB2     		uxth	r3, r3
 5879 0012 23F00C03 		bic	r3, r3, #12
 5880 0016 9AB2     		uxth	r2, r3
 5881 0018 7B68     		ldr	r3, [r7, #4]
 5882 001a 9A83     		strh	r2, [r3, #28]	@ movhi
2375:common/lib.stm32/STM32F10x_StdPeriph_Driver/src/stm32f10x_tim.c ****   /* Set the IC3PSC value */
2376:common/lib.stm32/STM32F10x_StdPeriph_Driver/src/stm32f10x_tim.c ****   TIMx->CCMR2 |= TIM_ICPSC;
 5883              		.loc 1 2376 15
 5884 001c 7B68     		ldr	r3, [r7, #4]
 5885 001e 9B8B     		ldrh	r3, [r3, #28]	@ movhi
 5886 0020 9AB2     		uxth	r2, r3
 5887 0022 7B88     		ldrh	r3, [r7, #2]	@ movhi
 5888 0024 1343     		orrs	r3, r3, r2
 5889 0026 9AB2     		uxth	r2, r3
 5890 0028 7B68     		ldr	r3, [r7, #4]
 5891 002a 9A83     		strh	r2, [r3, #28]	@ movhi
2377:common/lib.stm32/STM32F10x_StdPeriph_Driver/src/stm32f10x_tim.c **** }
 5892              		.loc 1 2377 1
 5893 002c 00BF     		nop
 5894 002e 0C37     		adds	r7, r7, #12
 5895              	.LCFI440:
 5896              		.cfi_def_cfa_offset 4
 5897 0030 BD46     		mov	sp, r7
 5898              	.LCFI441:
 5899              		.cfi_def_cfa_register 13
 5900              		@ sp needed
 5901 0032 80BC     		pop	{r7}
 5902              	.LCFI442:
 5903              		.cfi_restore 7
 5904              		.cfi_def_cfa_offset 0
 5905 0034 7047     		bx	lr
 5906              		.cfi_endproc
 5907              	.LFE101:
 5909              		.section	.text.TIM_SetIC4Prescaler,"ax",%progbits
 5910              		.align	1
 5911              		.global	TIM_SetIC4Prescaler
 5912              		.syntax unified
 5913              		.thumb
 5914              		.thumb_func
 5916              	TIM_SetIC4Prescaler:
 5917              	.LFB102:
2378:common/lib.stm32/STM32F10x_StdPeriph_Driver/src/stm32f10x_tim.c **** 
2379:common/lib.stm32/STM32F10x_StdPeriph_Driver/src/stm32f10x_tim.c **** /**
2380:common/lib.stm32/STM32F10x_StdPeriph_Driver/src/stm32f10x_tim.c ****   * @brief  Sets the TIMx Input Capture 4 prescaler.
2381:common/lib.stm32/STM32F10x_StdPeriph_Driver/src/stm32f10x_tim.c ****   * @param  TIMx: where x can be 1, 2, 3, 4, 5 or 8 to select the TIM peripheral.
2382:common/lib.stm32/STM32F10x_StdPeriph_Driver/src/stm32f10x_tim.c ****   * @param  TIM_ICPSC: specifies the Input Capture4 prescaler new value.
2383:common/lib.stm32/STM32F10x_StdPeriph_Driver/src/stm32f10x_tim.c ****   *   This parameter can be one of the following values:
2384:common/lib.stm32/STM32F10x_StdPeriph_Driver/src/stm32f10x_tim.c ****   *     @arg TIM_ICPSC_DIV1: no prescaler
2385:common/lib.stm32/STM32F10x_StdPeriph_Driver/src/stm32f10x_tim.c ****   *     @arg TIM_ICPSC_DIV2: capture is done once every 2 events
2386:common/lib.stm32/STM32F10x_StdPeriph_Driver/src/stm32f10x_tim.c ****   *     @arg TIM_ICPSC_DIV4: capture is done once every 4 events
2387:common/lib.stm32/STM32F10x_StdPeriph_Driver/src/stm32f10x_tim.c ****   *     @arg TIM_ICPSC_DIV8: capture is done once every 8 events
2388:common/lib.stm32/STM32F10x_StdPeriph_Driver/src/stm32f10x_tim.c ****   * @retval None
2389:common/lib.stm32/STM32F10x_StdPeriph_Driver/src/stm32f10x_tim.c ****   */
2390:common/lib.stm32/STM32F10x_StdPeriph_Driver/src/stm32f10x_tim.c **** void TIM_SetIC4Prescaler(TIM_TypeDef* TIMx, uint16_t TIM_ICPSC)
2391:common/lib.stm32/STM32F10x_StdPeriph_Driver/src/stm32f10x_tim.c **** {  
 5918              		.loc 1 2391 1
 5919              		.cfi_startproc
 5920              		@ args = 0, pretend = 0, frame = 8
 5921              		@ frame_needed = 1, uses_anonymous_args = 0
 5922              		@ link register save eliminated.
 5923 0000 80B4     		push	{r7}
 5924              	.LCFI443:
 5925              		.cfi_def_cfa_offset 4
 5926              		.cfi_offset 7, -4
 5927 0002 83B0     		sub	sp, sp, #12
 5928              	.LCFI444:
 5929              		.cfi_def_cfa_offset 16
 5930 0004 00AF     		add	r7, sp, #0
 5931              	.LCFI445:
 5932              		.cfi_def_cfa_register 7
 5933 0006 7860     		str	r0, [r7, #4]
 5934 0008 0B46     		mov	r3, r1
 5935 000a 7B80     		strh	r3, [r7, #2]	@ movhi
2392:common/lib.stm32/STM32F10x_StdPeriph_Driver/src/stm32f10x_tim.c ****   /* Check the parameters */
2393:common/lib.stm32/STM32F10x_StdPeriph_Driver/src/stm32f10x_tim.c ****   assert_param(IS_TIM_123458_PERIPH(TIMx));
2394:common/lib.stm32/STM32F10x_StdPeriph_Driver/src/stm32f10x_tim.c ****   assert_param(IS_TIM_IC_PRESCALER(TIM_ICPSC));
2395:common/lib.stm32/STM32F10x_StdPeriph_Driver/src/stm32f10x_tim.c ****   /* Reset the IC4PSC Bits */
2396:common/lib.stm32/STM32F10x_StdPeriph_Driver/src/stm32f10x_tim.c ****   TIMx->CCMR2 &= CCMR_IC24PSC_Mask;
 5936              		.loc 1 2396 15
 5937 000c 7B68     		ldr	r3, [r7, #4]
 5938 000e 9B8B     		ldrh	r3, [r3, #28]	@ movhi
 5939 0010 9BB2     		uxth	r3, r3
 5940 0012 23F44063 		bic	r3, r3, #3072
 5941 0016 9AB2     		uxth	r2, r3
 5942 0018 7B68     		ldr	r3, [r7, #4]
 5943 001a 9A83     		strh	r2, [r3, #28]	@ movhi
2397:common/lib.stm32/STM32F10x_StdPeriph_Driver/src/stm32f10x_tim.c ****   /* Set the IC4PSC value */
2398:common/lib.stm32/STM32F10x_StdPeriph_Driver/src/stm32f10x_tim.c ****   TIMx->CCMR2 |= (uint16_t)(TIM_ICPSC << 8);
 5944              		.loc 1 2398 15
 5945 001c 7B68     		ldr	r3, [r7, #4]
 5946 001e 9B8B     		ldrh	r3, [r3, #28]	@ movhi
 5947 0020 9AB2     		uxth	r2, r3
 5948              		.loc 1 2398 18
 5949 0022 7B88     		ldrh	r3, [r7, #2]	@ movhi
 5950 0024 1B02     		lsls	r3, r3, #8
 5951 0026 9BB2     		uxth	r3, r3
 5952              		.loc 1 2398 15
 5953 0028 1343     		orrs	r3, r3, r2
 5954 002a 9AB2     		uxth	r2, r3
 5955 002c 7B68     		ldr	r3, [r7, #4]
 5956 002e 9A83     		strh	r2, [r3, #28]	@ movhi
2399:common/lib.stm32/STM32F10x_StdPeriph_Driver/src/stm32f10x_tim.c **** }
 5957              		.loc 1 2399 1
 5958 0030 00BF     		nop
 5959 0032 0C37     		adds	r7, r7, #12
 5960              	.LCFI446:
 5961              		.cfi_def_cfa_offset 4
 5962 0034 BD46     		mov	sp, r7
 5963              	.LCFI447:
 5964              		.cfi_def_cfa_register 13
 5965              		@ sp needed
 5966 0036 80BC     		pop	{r7}
 5967              	.LCFI448:
 5968              		.cfi_restore 7
 5969              		.cfi_def_cfa_offset 0
 5970 0038 7047     		bx	lr
 5971              		.cfi_endproc
 5972              	.LFE102:
 5974              		.section	.text.TIM_SetClockDivision,"ax",%progbits
 5975              		.align	1
 5976              		.global	TIM_SetClockDivision
 5977              		.syntax unified
 5978              		.thumb
 5979              		.thumb_func
 5981              	TIM_SetClockDivision:
 5982              	.LFB103:
2400:common/lib.stm32/STM32F10x_StdPeriph_Driver/src/stm32f10x_tim.c **** 
2401:common/lib.stm32/STM32F10x_StdPeriph_Driver/src/stm32f10x_tim.c **** /**
2402:common/lib.stm32/STM32F10x_StdPeriph_Driver/src/stm32f10x_tim.c ****   * @brief  Sets the TIMx Clock Division value.
2403:common/lib.stm32/STM32F10x_StdPeriph_Driver/src/stm32f10x_tim.c ****   * @param  TIMx: where x can be 1, 2, 3, 4, 5 or 8 to select the TIM peripheral.
2404:common/lib.stm32/STM32F10x_StdPeriph_Driver/src/stm32f10x_tim.c ****   * @param  TIM_CKD: specifies the clock division value.
2405:common/lib.stm32/STM32F10x_StdPeriph_Driver/src/stm32f10x_tim.c ****   *   This parameter can be one of the following value:
2406:common/lib.stm32/STM32F10x_StdPeriph_Driver/src/stm32f10x_tim.c ****   *     @arg TIM_CKD_DIV1: TDTS = Tck_tim
2407:common/lib.stm32/STM32F10x_StdPeriph_Driver/src/stm32f10x_tim.c ****   *     @arg TIM_CKD_DIV2: TDTS = 2*Tck_tim
2408:common/lib.stm32/STM32F10x_StdPeriph_Driver/src/stm32f10x_tim.c ****   *     @arg TIM_CKD_DIV4: TDTS = 4*Tck_tim
2409:common/lib.stm32/STM32F10x_StdPeriph_Driver/src/stm32f10x_tim.c ****   * @retval None
2410:common/lib.stm32/STM32F10x_StdPeriph_Driver/src/stm32f10x_tim.c ****   */
2411:common/lib.stm32/STM32F10x_StdPeriph_Driver/src/stm32f10x_tim.c **** void TIM_SetClockDivision(TIM_TypeDef* TIMx, uint16_t TIM_CKD)
2412:common/lib.stm32/STM32F10x_StdPeriph_Driver/src/stm32f10x_tim.c **** {
 5983              		.loc 1 2412 1
 5984              		.cfi_startproc
 5985              		@ args = 0, pretend = 0, frame = 8
 5986              		@ frame_needed = 1, uses_anonymous_args = 0
 5987              		@ link register save eliminated.
 5988 0000 80B4     		push	{r7}
 5989              	.LCFI449:
 5990              		.cfi_def_cfa_offset 4
 5991              		.cfi_offset 7, -4
 5992 0002 83B0     		sub	sp, sp, #12
 5993              	.LCFI450:
 5994              		.cfi_def_cfa_offset 16
 5995 0004 00AF     		add	r7, sp, #0
 5996              	.LCFI451:
 5997              		.cfi_def_cfa_register 7
 5998 0006 7860     		str	r0, [r7, #4]
 5999 0008 0B46     		mov	r3, r1
 6000 000a 7B80     		strh	r3, [r7, #2]	@ movhi
2413:common/lib.stm32/STM32F10x_StdPeriph_Driver/src/stm32f10x_tim.c ****   /* Check the parameters */
2414:common/lib.stm32/STM32F10x_StdPeriph_Driver/src/stm32f10x_tim.c ****   assert_param(IS_TIM_123458_PERIPH(TIMx));
2415:common/lib.stm32/STM32F10x_StdPeriph_Driver/src/stm32f10x_tim.c ****   assert_param(IS_TIM_CKD_DIV(TIM_CKD));
2416:common/lib.stm32/STM32F10x_StdPeriph_Driver/src/stm32f10x_tim.c ****   /* Reset the CKD Bits */
2417:common/lib.stm32/STM32F10x_StdPeriph_Driver/src/stm32f10x_tim.c ****   TIMx->CR1 &= CR1_CKD_Mask;
 6001              		.loc 1 2417 13
 6002 000c 7B68     		ldr	r3, [r7, #4]
 6003 000e 1B88     		ldrh	r3, [r3]	@ movhi
 6004 0010 9BB2     		uxth	r3, r3
 6005 0012 DBB2     		uxtb	r3, r3
 6006 0014 9AB2     		uxth	r2, r3
 6007 0016 7B68     		ldr	r3, [r7, #4]
 6008 0018 1A80     		strh	r2, [r3]	@ movhi
2418:common/lib.stm32/STM32F10x_StdPeriph_Driver/src/stm32f10x_tim.c ****   /* Set the CKD value */
2419:common/lib.stm32/STM32F10x_StdPeriph_Driver/src/stm32f10x_tim.c ****   TIMx->CR1 |= TIM_CKD;
 6009              		.loc 1 2419 13
 6010 001a 7B68     		ldr	r3, [r7, #4]
 6011 001c 1B88     		ldrh	r3, [r3]	@ movhi
 6012 001e 9AB2     		uxth	r2, r3
 6013 0020 7B88     		ldrh	r3, [r7, #2]	@ movhi
 6014 0022 1343     		orrs	r3, r3, r2
 6015 0024 9AB2     		uxth	r2, r3
 6016 0026 7B68     		ldr	r3, [r7, #4]
 6017 0028 1A80     		strh	r2, [r3]	@ movhi
2420:common/lib.stm32/STM32F10x_StdPeriph_Driver/src/stm32f10x_tim.c **** }
 6018              		.loc 1 2420 1
 6019 002a 00BF     		nop
 6020 002c 0C37     		adds	r7, r7, #12
 6021              	.LCFI452:
 6022              		.cfi_def_cfa_offset 4
 6023 002e BD46     		mov	sp, r7
 6024              	.LCFI453:
 6025              		.cfi_def_cfa_register 13
 6026              		@ sp needed
 6027 0030 80BC     		pop	{r7}
 6028              	.LCFI454:
 6029              		.cfi_restore 7
 6030              		.cfi_def_cfa_offset 0
 6031 0032 7047     		bx	lr
 6032              		.cfi_endproc
 6033              	.LFE103:
 6035              		.section	.text.TIM_GetCapture1,"ax",%progbits
 6036              		.align	1
 6037              		.global	TIM_GetCapture1
 6038              		.syntax unified
 6039              		.thumb
 6040              		.thumb_func
 6042              	TIM_GetCapture1:
 6043              	.LFB104:
2421:common/lib.stm32/STM32F10x_StdPeriph_Driver/src/stm32f10x_tim.c **** 
2422:common/lib.stm32/STM32F10x_StdPeriph_Driver/src/stm32f10x_tim.c **** /**
2423:common/lib.stm32/STM32F10x_StdPeriph_Driver/src/stm32f10x_tim.c ****   * @brief  Gets the TIMx Input Capture 1 value.
2424:common/lib.stm32/STM32F10x_StdPeriph_Driver/src/stm32f10x_tim.c ****   * @param  TIMx: where x can be 1, 2, 3, 4, 5 or 8 to select the TIM peripheral.
2425:common/lib.stm32/STM32F10x_StdPeriph_Driver/src/stm32f10x_tim.c ****   * @retval Capture Compare 1 Register value.
2426:common/lib.stm32/STM32F10x_StdPeriph_Driver/src/stm32f10x_tim.c ****   */
2427:common/lib.stm32/STM32F10x_StdPeriph_Driver/src/stm32f10x_tim.c **** uint16_t TIM_GetCapture1(TIM_TypeDef* TIMx)
2428:common/lib.stm32/STM32F10x_StdPeriph_Driver/src/stm32f10x_tim.c **** {
 6044              		.loc 1 2428 1
 6045              		.cfi_startproc
 6046              		@ args = 0, pretend = 0, frame = 8
 6047              		@ frame_needed = 1, uses_anonymous_args = 0
 6048              		@ link register save eliminated.
 6049 0000 80B4     		push	{r7}
 6050              	.LCFI455:
 6051              		.cfi_def_cfa_offset 4
 6052              		.cfi_offset 7, -4
 6053 0002 83B0     		sub	sp, sp, #12
 6054              	.LCFI456:
 6055              		.cfi_def_cfa_offset 16
 6056 0004 00AF     		add	r7, sp, #0
 6057              	.LCFI457:
 6058              		.cfi_def_cfa_register 7
 6059 0006 7860     		str	r0, [r7, #4]
2429:common/lib.stm32/STM32F10x_StdPeriph_Driver/src/stm32f10x_tim.c ****   /* Check the parameters */
2430:common/lib.stm32/STM32F10x_StdPeriph_Driver/src/stm32f10x_tim.c ****   assert_param(IS_TIM_123458_PERIPH(TIMx));
2431:common/lib.stm32/STM32F10x_StdPeriph_Driver/src/stm32f10x_tim.c ****   /* Get the Capture 1 Register value */
2432:common/lib.stm32/STM32F10x_StdPeriph_Driver/src/stm32f10x_tim.c ****   return TIMx->CCR1;
 6060              		.loc 1 2432 14
 6061 0008 7B68     		ldr	r3, [r7, #4]
 6062 000a 9B8E     		ldrh	r3, [r3, #52]	@ movhi
 6063 000c 9BB2     		uxth	r3, r3
2433:common/lib.stm32/STM32F10x_StdPeriph_Driver/src/stm32f10x_tim.c **** }
 6064              		.loc 1 2433 1
 6065 000e 1846     		mov	r0, r3
 6066 0010 0C37     		adds	r7, r7, #12
 6067              	.LCFI458:
 6068              		.cfi_def_cfa_offset 4
 6069 0012 BD46     		mov	sp, r7
 6070              	.LCFI459:
 6071              		.cfi_def_cfa_register 13
 6072              		@ sp needed
 6073 0014 80BC     		pop	{r7}
 6074              	.LCFI460:
 6075              		.cfi_restore 7
 6076              		.cfi_def_cfa_offset 0
 6077 0016 7047     		bx	lr
 6078              		.cfi_endproc
 6079              	.LFE104:
 6081              		.section	.text.TIM_GetCapture2,"ax",%progbits
 6082              		.align	1
 6083              		.global	TIM_GetCapture2
 6084              		.syntax unified
 6085              		.thumb
 6086              		.thumb_func
 6088              	TIM_GetCapture2:
 6089              	.LFB105:
2434:common/lib.stm32/STM32F10x_StdPeriph_Driver/src/stm32f10x_tim.c **** 
2435:common/lib.stm32/STM32F10x_StdPeriph_Driver/src/stm32f10x_tim.c **** /**
2436:common/lib.stm32/STM32F10x_StdPeriph_Driver/src/stm32f10x_tim.c ****   * @brief  Gets the TIMx Input Capture 2 value.
2437:common/lib.stm32/STM32F10x_StdPeriph_Driver/src/stm32f10x_tim.c ****   * @param  TIMx: where x can be 1, 2, 3, 4, 5 or 8 to select the TIM peripheral.
2438:common/lib.stm32/STM32F10x_StdPeriph_Driver/src/stm32f10x_tim.c ****   * @retval Capture Compare 2 Register value.
2439:common/lib.stm32/STM32F10x_StdPeriph_Driver/src/stm32f10x_tim.c ****   */
2440:common/lib.stm32/STM32F10x_StdPeriph_Driver/src/stm32f10x_tim.c **** uint16_t TIM_GetCapture2(TIM_TypeDef* TIMx)
2441:common/lib.stm32/STM32F10x_StdPeriph_Driver/src/stm32f10x_tim.c **** {
 6090              		.loc 1 2441 1
 6091              		.cfi_startproc
 6092              		@ args = 0, pretend = 0, frame = 8
 6093              		@ frame_needed = 1, uses_anonymous_args = 0
 6094              		@ link register save eliminated.
 6095 0000 80B4     		push	{r7}
 6096              	.LCFI461:
 6097              		.cfi_def_cfa_offset 4
 6098              		.cfi_offset 7, -4
 6099 0002 83B0     		sub	sp, sp, #12
 6100              	.LCFI462:
 6101              		.cfi_def_cfa_offset 16
 6102 0004 00AF     		add	r7, sp, #0
 6103              	.LCFI463:
 6104              		.cfi_def_cfa_register 7
 6105 0006 7860     		str	r0, [r7, #4]
2442:common/lib.stm32/STM32F10x_StdPeriph_Driver/src/stm32f10x_tim.c ****   /* Check the parameters */
2443:common/lib.stm32/STM32F10x_StdPeriph_Driver/src/stm32f10x_tim.c ****   assert_param(IS_TIM_123458_PERIPH(TIMx));
2444:common/lib.stm32/STM32F10x_StdPeriph_Driver/src/stm32f10x_tim.c ****   /* Get the Capture 2 Register value */
2445:common/lib.stm32/STM32F10x_StdPeriph_Driver/src/stm32f10x_tim.c ****   return TIMx->CCR2;
 6106              		.loc 1 2445 14
 6107 0008 7B68     		ldr	r3, [r7, #4]
 6108 000a 1B8F     		ldrh	r3, [r3, #56]	@ movhi
 6109 000c 9BB2     		uxth	r3, r3
2446:common/lib.stm32/STM32F10x_StdPeriph_Driver/src/stm32f10x_tim.c **** }
 6110              		.loc 1 2446 1
 6111 000e 1846     		mov	r0, r3
 6112 0010 0C37     		adds	r7, r7, #12
 6113              	.LCFI464:
 6114              		.cfi_def_cfa_offset 4
 6115 0012 BD46     		mov	sp, r7
 6116              	.LCFI465:
 6117              		.cfi_def_cfa_register 13
 6118              		@ sp needed
 6119 0014 80BC     		pop	{r7}
 6120              	.LCFI466:
 6121              		.cfi_restore 7
 6122              		.cfi_def_cfa_offset 0
 6123 0016 7047     		bx	lr
 6124              		.cfi_endproc
 6125              	.LFE105:
 6127              		.section	.text.TIM_GetCapture3,"ax",%progbits
 6128              		.align	1
 6129              		.global	TIM_GetCapture3
 6130              		.syntax unified
 6131              		.thumb
 6132              		.thumb_func
 6134              	TIM_GetCapture3:
 6135              	.LFB106:
2447:common/lib.stm32/STM32F10x_StdPeriph_Driver/src/stm32f10x_tim.c **** 
2448:common/lib.stm32/STM32F10x_StdPeriph_Driver/src/stm32f10x_tim.c **** /**
2449:common/lib.stm32/STM32F10x_StdPeriph_Driver/src/stm32f10x_tim.c ****   * @brief  Gets the TIMx Input Capture 3 value.
2450:common/lib.stm32/STM32F10x_StdPeriph_Driver/src/stm32f10x_tim.c ****   * @param  TIMx: where x can be 1, 2, 3, 4, 5 or 8 to select the TIM peripheral.
2451:common/lib.stm32/STM32F10x_StdPeriph_Driver/src/stm32f10x_tim.c ****   * @retval Capture Compare 3 Register value.
2452:common/lib.stm32/STM32F10x_StdPeriph_Driver/src/stm32f10x_tim.c ****   */
2453:common/lib.stm32/STM32F10x_StdPeriph_Driver/src/stm32f10x_tim.c **** uint16_t TIM_GetCapture3(TIM_TypeDef* TIMx)
2454:common/lib.stm32/STM32F10x_StdPeriph_Driver/src/stm32f10x_tim.c **** {
 6136              		.loc 1 2454 1
 6137              		.cfi_startproc
 6138              		@ args = 0, pretend = 0, frame = 8
 6139              		@ frame_needed = 1, uses_anonymous_args = 0
 6140              		@ link register save eliminated.
 6141 0000 80B4     		push	{r7}
 6142              	.LCFI467:
 6143              		.cfi_def_cfa_offset 4
 6144              		.cfi_offset 7, -4
 6145 0002 83B0     		sub	sp, sp, #12
 6146              	.LCFI468:
 6147              		.cfi_def_cfa_offset 16
 6148 0004 00AF     		add	r7, sp, #0
 6149              	.LCFI469:
 6150              		.cfi_def_cfa_register 7
 6151 0006 7860     		str	r0, [r7, #4]
2455:common/lib.stm32/STM32F10x_StdPeriph_Driver/src/stm32f10x_tim.c ****   /* Check the parameters */
2456:common/lib.stm32/STM32F10x_StdPeriph_Driver/src/stm32f10x_tim.c ****   assert_param(IS_TIM_123458_PERIPH(TIMx)); 
2457:common/lib.stm32/STM32F10x_StdPeriph_Driver/src/stm32f10x_tim.c ****   /* Get the Capture 3 Register value */
2458:common/lib.stm32/STM32F10x_StdPeriph_Driver/src/stm32f10x_tim.c ****   return TIMx->CCR3;
 6152              		.loc 1 2458 14
 6153 0008 7B68     		ldr	r3, [r7, #4]
 6154 000a 9B8F     		ldrh	r3, [r3, #60]	@ movhi
 6155 000c 9BB2     		uxth	r3, r3
2459:common/lib.stm32/STM32F10x_StdPeriph_Driver/src/stm32f10x_tim.c **** }
 6156              		.loc 1 2459 1
 6157 000e 1846     		mov	r0, r3
 6158 0010 0C37     		adds	r7, r7, #12
 6159              	.LCFI470:
 6160              		.cfi_def_cfa_offset 4
 6161 0012 BD46     		mov	sp, r7
 6162              	.LCFI471:
 6163              		.cfi_def_cfa_register 13
 6164              		@ sp needed
 6165 0014 80BC     		pop	{r7}
 6166              	.LCFI472:
 6167              		.cfi_restore 7
 6168              		.cfi_def_cfa_offset 0
 6169 0016 7047     		bx	lr
 6170              		.cfi_endproc
 6171              	.LFE106:
 6173              		.section	.text.TIM_GetCapture4,"ax",%progbits
 6174              		.align	1
 6175              		.global	TIM_GetCapture4
 6176              		.syntax unified
 6177              		.thumb
 6178              		.thumb_func
 6180              	TIM_GetCapture4:
 6181              	.LFB107:
2460:common/lib.stm32/STM32F10x_StdPeriph_Driver/src/stm32f10x_tim.c **** 
2461:common/lib.stm32/STM32F10x_StdPeriph_Driver/src/stm32f10x_tim.c **** /**
2462:common/lib.stm32/STM32F10x_StdPeriph_Driver/src/stm32f10x_tim.c ****   * @brief  Gets the TIMx Input Capture 4 value.
2463:common/lib.stm32/STM32F10x_StdPeriph_Driver/src/stm32f10x_tim.c ****   * @param  TIMx: where x can be 1, 2, 3, 4, 5 or 8 to select the TIM peripheral.
2464:common/lib.stm32/STM32F10x_StdPeriph_Driver/src/stm32f10x_tim.c ****   * @retval Capture Compare 4 Register value.
2465:common/lib.stm32/STM32F10x_StdPeriph_Driver/src/stm32f10x_tim.c ****   */
2466:common/lib.stm32/STM32F10x_StdPeriph_Driver/src/stm32f10x_tim.c **** uint16_t TIM_GetCapture4(TIM_TypeDef* TIMx)
2467:common/lib.stm32/STM32F10x_StdPeriph_Driver/src/stm32f10x_tim.c **** {
 6182              		.loc 1 2467 1
 6183              		.cfi_startproc
 6184              		@ args = 0, pretend = 0, frame = 8
 6185              		@ frame_needed = 1, uses_anonymous_args = 0
 6186              		@ link register save eliminated.
 6187 0000 80B4     		push	{r7}
 6188              	.LCFI473:
 6189              		.cfi_def_cfa_offset 4
 6190              		.cfi_offset 7, -4
 6191 0002 83B0     		sub	sp, sp, #12
 6192              	.LCFI474:
 6193              		.cfi_def_cfa_offset 16
 6194 0004 00AF     		add	r7, sp, #0
 6195              	.LCFI475:
 6196              		.cfi_def_cfa_register 7
 6197 0006 7860     		str	r0, [r7, #4]
2468:common/lib.stm32/STM32F10x_StdPeriph_Driver/src/stm32f10x_tim.c ****   /* Check the parameters */
2469:common/lib.stm32/STM32F10x_StdPeriph_Driver/src/stm32f10x_tim.c ****   assert_param(IS_TIM_123458_PERIPH(TIMx));
2470:common/lib.stm32/STM32F10x_StdPeriph_Driver/src/stm32f10x_tim.c ****   /* Get the Capture 4 Register value */
2471:common/lib.stm32/STM32F10x_StdPeriph_Driver/src/stm32f10x_tim.c ****   return TIMx->CCR4;
 6198              		.loc 1 2471 14
 6199 0008 7B68     		ldr	r3, [r7, #4]
 6200 000a B3F84030 		ldrh	r3, [r3, #64]	@ movhi
 6201 000e 9BB2     		uxth	r3, r3
2472:common/lib.stm32/STM32F10x_StdPeriph_Driver/src/stm32f10x_tim.c **** }
 6202              		.loc 1 2472 1
 6203 0010 1846     		mov	r0, r3
 6204 0012 0C37     		adds	r7, r7, #12
 6205              	.LCFI476:
 6206              		.cfi_def_cfa_offset 4
 6207 0014 BD46     		mov	sp, r7
 6208              	.LCFI477:
 6209              		.cfi_def_cfa_register 13
 6210              		@ sp needed
 6211 0016 80BC     		pop	{r7}
 6212              	.LCFI478:
 6213              		.cfi_restore 7
 6214              		.cfi_def_cfa_offset 0
 6215 0018 7047     		bx	lr
 6216              		.cfi_endproc
 6217              	.LFE107:
 6219              		.section	.text.TIM_GetCounter,"ax",%progbits
 6220              		.align	1
 6221              		.global	TIM_GetCounter
 6222              		.syntax unified
 6223              		.thumb
 6224              		.thumb_func
 6226              	TIM_GetCounter:
 6227              	.LFB108:
2473:common/lib.stm32/STM32F10x_StdPeriph_Driver/src/stm32f10x_tim.c **** 
2474:common/lib.stm32/STM32F10x_StdPeriph_Driver/src/stm32f10x_tim.c **** /**
2475:common/lib.stm32/STM32F10x_StdPeriph_Driver/src/stm32f10x_tim.c ****   * @brief  Gets the TIMx Counter value.
2476:common/lib.stm32/STM32F10x_StdPeriph_Driver/src/stm32f10x_tim.c ****   * @param  TIMx: where x can be 1 to 8 to select the TIM peripheral.
2477:common/lib.stm32/STM32F10x_StdPeriph_Driver/src/stm32f10x_tim.c ****   * @retval Counter Register value.
2478:common/lib.stm32/STM32F10x_StdPeriph_Driver/src/stm32f10x_tim.c ****   */
2479:common/lib.stm32/STM32F10x_StdPeriph_Driver/src/stm32f10x_tim.c **** uint16_t TIM_GetCounter(TIM_TypeDef* TIMx)
2480:common/lib.stm32/STM32F10x_StdPeriph_Driver/src/stm32f10x_tim.c **** {
 6228              		.loc 1 2480 1
 6229              		.cfi_startproc
 6230              		@ args = 0, pretend = 0, frame = 8
 6231              		@ frame_needed = 1, uses_anonymous_args = 0
 6232              		@ link register save eliminated.
 6233 0000 80B4     		push	{r7}
 6234              	.LCFI479:
 6235              		.cfi_def_cfa_offset 4
 6236              		.cfi_offset 7, -4
 6237 0002 83B0     		sub	sp, sp, #12
 6238              	.LCFI480:
 6239              		.cfi_def_cfa_offset 16
 6240 0004 00AF     		add	r7, sp, #0
 6241              	.LCFI481:
 6242              		.cfi_def_cfa_register 7
 6243 0006 7860     		str	r0, [r7, #4]
2481:common/lib.stm32/STM32F10x_StdPeriph_Driver/src/stm32f10x_tim.c ****   /* Check the parameters */
2482:common/lib.stm32/STM32F10x_StdPeriph_Driver/src/stm32f10x_tim.c ****   assert_param(IS_TIM_ALL_PERIPH(TIMx));
2483:common/lib.stm32/STM32F10x_StdPeriph_Driver/src/stm32f10x_tim.c ****   /* Get the Counter Register value */
2484:common/lib.stm32/STM32F10x_StdPeriph_Driver/src/stm32f10x_tim.c ****   return TIMx->CNT;
 6244              		.loc 1 2484 14
 6245 0008 7B68     		ldr	r3, [r7, #4]
 6246 000a 9B8C     		ldrh	r3, [r3, #36]	@ movhi
 6247 000c 9BB2     		uxth	r3, r3
2485:common/lib.stm32/STM32F10x_StdPeriph_Driver/src/stm32f10x_tim.c **** }
 6248              		.loc 1 2485 1
 6249 000e 1846     		mov	r0, r3
 6250 0010 0C37     		adds	r7, r7, #12
 6251              	.LCFI482:
 6252              		.cfi_def_cfa_offset 4
 6253 0012 BD46     		mov	sp, r7
 6254              	.LCFI483:
 6255              		.cfi_def_cfa_register 13
 6256              		@ sp needed
 6257 0014 80BC     		pop	{r7}
 6258              	.LCFI484:
 6259              		.cfi_restore 7
 6260              		.cfi_def_cfa_offset 0
 6261 0016 7047     		bx	lr
 6262              		.cfi_endproc
 6263              	.LFE108:
 6265              		.section	.text.TIM_GetPrescaler,"ax",%progbits
 6266              		.align	1
 6267              		.global	TIM_GetPrescaler
 6268              		.syntax unified
 6269              		.thumb
 6270              		.thumb_func
 6272              	TIM_GetPrescaler:
 6273              	.LFB109:
2486:common/lib.stm32/STM32F10x_StdPeriph_Driver/src/stm32f10x_tim.c **** 
2487:common/lib.stm32/STM32F10x_StdPeriph_Driver/src/stm32f10x_tim.c **** /**
2488:common/lib.stm32/STM32F10x_StdPeriph_Driver/src/stm32f10x_tim.c ****   * @brief  Gets the TIMx Prescaler value.
2489:common/lib.stm32/STM32F10x_StdPeriph_Driver/src/stm32f10x_tim.c ****   * @param  TIMx: where x can be 1 to 8 to select the TIM peripheral.
2490:common/lib.stm32/STM32F10x_StdPeriph_Driver/src/stm32f10x_tim.c ****   * @retval Prescaler Register value.
2491:common/lib.stm32/STM32F10x_StdPeriph_Driver/src/stm32f10x_tim.c ****   */
2492:common/lib.stm32/STM32F10x_StdPeriph_Driver/src/stm32f10x_tim.c **** uint16_t TIM_GetPrescaler(TIM_TypeDef* TIMx)
2493:common/lib.stm32/STM32F10x_StdPeriph_Driver/src/stm32f10x_tim.c **** {
 6274              		.loc 1 2493 1
 6275              		.cfi_startproc
 6276              		@ args = 0, pretend = 0, frame = 8
 6277              		@ frame_needed = 1, uses_anonymous_args = 0
 6278              		@ link register save eliminated.
 6279 0000 80B4     		push	{r7}
 6280              	.LCFI485:
 6281              		.cfi_def_cfa_offset 4
 6282              		.cfi_offset 7, -4
 6283 0002 83B0     		sub	sp, sp, #12
 6284              	.LCFI486:
 6285              		.cfi_def_cfa_offset 16
 6286 0004 00AF     		add	r7, sp, #0
 6287              	.LCFI487:
 6288              		.cfi_def_cfa_register 7
 6289 0006 7860     		str	r0, [r7, #4]
2494:common/lib.stm32/STM32F10x_StdPeriph_Driver/src/stm32f10x_tim.c ****   /* Check the parameters */
2495:common/lib.stm32/STM32F10x_StdPeriph_Driver/src/stm32f10x_tim.c ****   assert_param(IS_TIM_ALL_PERIPH(TIMx));
2496:common/lib.stm32/STM32F10x_StdPeriph_Driver/src/stm32f10x_tim.c ****   /* Get the Prescaler Register value */
2497:common/lib.stm32/STM32F10x_StdPeriph_Driver/src/stm32f10x_tim.c ****   return TIMx->PSC;
 6290              		.loc 1 2497 14
 6291 0008 7B68     		ldr	r3, [r7, #4]
 6292 000a 1B8D     		ldrh	r3, [r3, #40]	@ movhi
 6293 000c 9BB2     		uxth	r3, r3
2498:common/lib.stm32/STM32F10x_StdPeriph_Driver/src/stm32f10x_tim.c **** }
 6294              		.loc 1 2498 1
 6295 000e 1846     		mov	r0, r3
 6296 0010 0C37     		adds	r7, r7, #12
 6297              	.LCFI488:
 6298              		.cfi_def_cfa_offset 4
 6299 0012 BD46     		mov	sp, r7
 6300              	.LCFI489:
 6301              		.cfi_def_cfa_register 13
 6302              		@ sp needed
 6303 0014 80BC     		pop	{r7}
 6304              	.LCFI490:
 6305              		.cfi_restore 7
 6306              		.cfi_def_cfa_offset 0
 6307 0016 7047     		bx	lr
 6308              		.cfi_endproc
 6309              	.LFE109:
 6311              		.section	.text.TIM_GetFlagStatus,"ax",%progbits
 6312              		.align	1
 6313              		.global	TIM_GetFlagStatus
 6314              		.syntax unified
 6315              		.thumb
 6316              		.thumb_func
 6318              	TIM_GetFlagStatus:
 6319              	.LFB110:
2499:common/lib.stm32/STM32F10x_StdPeriph_Driver/src/stm32f10x_tim.c **** 
2500:common/lib.stm32/STM32F10x_StdPeriph_Driver/src/stm32f10x_tim.c **** /**
2501:common/lib.stm32/STM32F10x_StdPeriph_Driver/src/stm32f10x_tim.c ****   * @brief  Checks whether the specified TIM flag is set or not.
2502:common/lib.stm32/STM32F10x_StdPeriph_Driver/src/stm32f10x_tim.c ****   * @param  TIMx: where x can be 1 to 8 to select the TIM peripheral.
2503:common/lib.stm32/STM32F10x_StdPeriph_Driver/src/stm32f10x_tim.c ****   * @param  TIM_FLAG: specifies the flag to check.
2504:common/lib.stm32/STM32F10x_StdPeriph_Driver/src/stm32f10x_tim.c ****   *   This parameter can be one of the following values:
2505:common/lib.stm32/STM32F10x_StdPeriph_Driver/src/stm32f10x_tim.c ****   *     @arg TIM_FLAG_Update: TIM update Flag
2506:common/lib.stm32/STM32F10x_StdPeriph_Driver/src/stm32f10x_tim.c ****   *     @arg TIM_FLAG_CC1: TIM Capture Compare 1 Flag
2507:common/lib.stm32/STM32F10x_StdPeriph_Driver/src/stm32f10x_tim.c ****   *     @arg TIM_FLAG_CC2: TIM Capture Compare 2 Flag
2508:common/lib.stm32/STM32F10x_StdPeriph_Driver/src/stm32f10x_tim.c ****   *     @arg TIM_FLAG_CC3: TIM Capture Compare 3 Flag
2509:common/lib.stm32/STM32F10x_StdPeriph_Driver/src/stm32f10x_tim.c ****   *     @arg TIM_FLAG_CC4: TIM Capture Compare 4 Flag
2510:common/lib.stm32/STM32F10x_StdPeriph_Driver/src/stm32f10x_tim.c ****   *     @arg TIM_FLAG_COM: TIM Commutation Flag
2511:common/lib.stm32/STM32F10x_StdPeriph_Driver/src/stm32f10x_tim.c ****   *     @arg TIM_FLAG_Trigger: TIM Trigger Flag
2512:common/lib.stm32/STM32F10x_StdPeriph_Driver/src/stm32f10x_tim.c ****   *     @arg TIM_FLAG_Break: TIM Break Flag
2513:common/lib.stm32/STM32F10x_StdPeriph_Driver/src/stm32f10x_tim.c ****   *     @arg TIM_FLAG_CC1OF: TIM Capture Compare 1 overcapture Flag
2514:common/lib.stm32/STM32F10x_StdPeriph_Driver/src/stm32f10x_tim.c ****   *     @arg TIM_FLAG_CC2OF: TIM Capture Compare 2 overcapture Flag
2515:common/lib.stm32/STM32F10x_StdPeriph_Driver/src/stm32f10x_tim.c ****   *     @arg TIM_FLAG_CC3OF: TIM Capture Compare 3 overcapture Flag
2516:common/lib.stm32/STM32F10x_StdPeriph_Driver/src/stm32f10x_tim.c ****   *     @arg TIM_FLAG_CC4OF: TIM Capture Compare 4 overcapture Flag
2517:common/lib.stm32/STM32F10x_StdPeriph_Driver/src/stm32f10x_tim.c ****   * @note
2518:common/lib.stm32/STM32F10x_StdPeriph_Driver/src/stm32f10x_tim.c ****   *   - TIM6 and TIM7 can have only one update flag. 
2519:common/lib.stm32/STM32F10x_StdPeriph_Driver/src/stm32f10x_tim.c ****   *   - TIM_FLAG_COM and TIM_FLAG_Break are used only with TIM1 and TIM8.    
2520:common/lib.stm32/STM32F10x_StdPeriph_Driver/src/stm32f10x_tim.c ****   * @retval The new state of TIM_FLAG (SET or RESET).
2521:common/lib.stm32/STM32F10x_StdPeriph_Driver/src/stm32f10x_tim.c ****   */
2522:common/lib.stm32/STM32F10x_StdPeriph_Driver/src/stm32f10x_tim.c **** FlagStatus TIM_GetFlagStatus(TIM_TypeDef* TIMx, uint16_t TIM_FLAG)
2523:common/lib.stm32/STM32F10x_StdPeriph_Driver/src/stm32f10x_tim.c **** { 
 6320              		.loc 1 2523 1
 6321              		.cfi_startproc
 6322              		@ args = 0, pretend = 0, frame = 16
 6323              		@ frame_needed = 1, uses_anonymous_args = 0
 6324              		@ link register save eliminated.
 6325 0000 80B4     		push	{r7}
 6326              	.LCFI491:
 6327              		.cfi_def_cfa_offset 4
 6328              		.cfi_offset 7, -4
 6329 0002 85B0     		sub	sp, sp, #20
 6330              	.LCFI492:
 6331              		.cfi_def_cfa_offset 24
 6332 0004 00AF     		add	r7, sp, #0
 6333              	.LCFI493:
 6334              		.cfi_def_cfa_register 7
 6335 0006 7860     		str	r0, [r7, #4]
 6336 0008 0B46     		mov	r3, r1
 6337 000a 7B80     		strh	r3, [r7, #2]	@ movhi
2524:common/lib.stm32/STM32F10x_StdPeriph_Driver/src/stm32f10x_tim.c ****   ITStatus bitstatus = RESET;  
 6338              		.loc 1 2524 12
 6339 000c 0023     		movs	r3, #0
 6340 000e FB73     		strb	r3, [r7, #15]
2525:common/lib.stm32/STM32F10x_StdPeriph_Driver/src/stm32f10x_tim.c ****   /* Check the parameters */
2526:common/lib.stm32/STM32F10x_StdPeriph_Driver/src/stm32f10x_tim.c ****   assert_param(IS_TIM_ALL_PERIPH(TIMx));
2527:common/lib.stm32/STM32F10x_StdPeriph_Driver/src/stm32f10x_tim.c ****   assert_param(IS_TIM_GET_FLAG(TIM_FLAG));
2528:common/lib.stm32/STM32F10x_StdPeriph_Driver/src/stm32f10x_tim.c ****   
2529:common/lib.stm32/STM32F10x_StdPeriph_Driver/src/stm32f10x_tim.c ****   if ((TIMx->SR & TIM_FLAG) != (uint16_t)RESET)
 6341              		.loc 1 2529 12
 6342 0010 7B68     		ldr	r3, [r7, #4]
 6343 0012 1B8A     		ldrh	r3, [r3, #16]	@ movhi
 6344 0014 9AB2     		uxth	r2, r3
 6345              		.loc 1 2529 29
 6346 0016 7B88     		ldrh	r3, [r7, #2]	@ movhi
 6347 0018 1340     		ands	r3, r3, r2
 6348 001a 9BB2     		uxth	r3, r3
 6349              		.loc 1 2529 6
 6350 001c 002B     		cmp	r3, #0
 6351 001e 02D0     		beq	.L184
2530:common/lib.stm32/STM32F10x_StdPeriph_Driver/src/stm32f10x_tim.c ****   {
2531:common/lib.stm32/STM32F10x_StdPeriph_Driver/src/stm32f10x_tim.c ****     bitstatus = SET;
 6352              		.loc 1 2531 15
 6353 0020 0123     		movs	r3, #1
 6354 0022 FB73     		strb	r3, [r7, #15]
 6355 0024 01E0     		b	.L185
 6356              	.L184:
2532:common/lib.stm32/STM32F10x_StdPeriph_Driver/src/stm32f10x_tim.c ****   }
2533:common/lib.stm32/STM32F10x_StdPeriph_Driver/src/stm32f10x_tim.c ****   else
2534:common/lib.stm32/STM32F10x_StdPeriph_Driver/src/stm32f10x_tim.c ****   {
2535:common/lib.stm32/STM32F10x_StdPeriph_Driver/src/stm32f10x_tim.c ****     bitstatus = RESET;
 6357              		.loc 1 2535 15
 6358 0026 0023     		movs	r3, #0
 6359 0028 FB73     		strb	r3, [r7, #15]
 6360              	.L185:
2536:common/lib.stm32/STM32F10x_StdPeriph_Driver/src/stm32f10x_tim.c ****   }
2537:common/lib.stm32/STM32F10x_StdPeriph_Driver/src/stm32f10x_tim.c ****   return bitstatus;
 6361              		.loc 1 2537 10
 6362 002a FB7B     		ldrb	r3, [r7, #15]	@ zero_extendqisi2
2538:common/lib.stm32/STM32F10x_StdPeriph_Driver/src/stm32f10x_tim.c **** }
 6363              		.loc 1 2538 1
 6364 002c 1846     		mov	r0, r3
 6365 002e 1437     		adds	r7, r7, #20
 6366              	.LCFI494:
 6367              		.cfi_def_cfa_offset 4
 6368 0030 BD46     		mov	sp, r7
 6369              	.LCFI495:
 6370              		.cfi_def_cfa_register 13
 6371              		@ sp needed
 6372 0032 80BC     		pop	{r7}
 6373              	.LCFI496:
 6374              		.cfi_restore 7
 6375              		.cfi_def_cfa_offset 0
 6376 0034 7047     		bx	lr
 6377              		.cfi_endproc
 6378              	.LFE110:
 6380              		.section	.text.TIM_ClearFlag,"ax",%progbits
 6381              		.align	1
 6382              		.global	TIM_ClearFlag
 6383              		.syntax unified
 6384              		.thumb
 6385              		.thumb_func
 6387              	TIM_ClearFlag:
 6388              	.LFB111:
2539:common/lib.stm32/STM32F10x_StdPeriph_Driver/src/stm32f10x_tim.c **** 
2540:common/lib.stm32/STM32F10x_StdPeriph_Driver/src/stm32f10x_tim.c **** /**
2541:common/lib.stm32/STM32F10x_StdPeriph_Driver/src/stm32f10x_tim.c ****   * @brief  Clears the TIMx's pending flags.
2542:common/lib.stm32/STM32F10x_StdPeriph_Driver/src/stm32f10x_tim.c ****   * @param  TIMx: where x can be 1 to 8 to select the TIM peripheral.
2543:common/lib.stm32/STM32F10x_StdPeriph_Driver/src/stm32f10x_tim.c ****   * @param  TIM_FLAG: specifies the flag bit to clear.
2544:common/lib.stm32/STM32F10x_StdPeriph_Driver/src/stm32f10x_tim.c ****   *   This parameter can be any combination of the following values:
2545:common/lib.stm32/STM32F10x_StdPeriph_Driver/src/stm32f10x_tim.c ****   *     @arg TIM_FLAG_Update: TIM update Flag
2546:common/lib.stm32/STM32F10x_StdPeriph_Driver/src/stm32f10x_tim.c ****   *     @arg TIM_FLAG_CC1: TIM Capture Compare 1 Flag
2547:common/lib.stm32/STM32F10x_StdPeriph_Driver/src/stm32f10x_tim.c ****   *     @arg TIM_FLAG_CC2: TIM Capture Compare 2 Flag
2548:common/lib.stm32/STM32F10x_StdPeriph_Driver/src/stm32f10x_tim.c ****   *     @arg TIM_FLAG_CC3: TIM Capture Compare 3 Flag
2549:common/lib.stm32/STM32F10x_StdPeriph_Driver/src/stm32f10x_tim.c ****   *     @arg TIM_FLAG_CC4: TIM Capture Compare 4 Flag
2550:common/lib.stm32/STM32F10x_StdPeriph_Driver/src/stm32f10x_tim.c ****   *     @arg TIM_FLAG_COM: TIM Commutation Flag
2551:common/lib.stm32/STM32F10x_StdPeriph_Driver/src/stm32f10x_tim.c ****   *     @arg TIM_FLAG_Trigger: TIM Trigger Flag
2552:common/lib.stm32/STM32F10x_StdPeriph_Driver/src/stm32f10x_tim.c ****   *     @arg TIM_FLAG_Break: TIM Break Flag
2553:common/lib.stm32/STM32F10x_StdPeriph_Driver/src/stm32f10x_tim.c ****   *     @arg TIM_FLAG_CC1OF: TIM Capture Compare 1 overcapture Flag
2554:common/lib.stm32/STM32F10x_StdPeriph_Driver/src/stm32f10x_tim.c ****   *     @arg TIM_FLAG_CC2OF: TIM Capture Compare 2 overcapture Flag
2555:common/lib.stm32/STM32F10x_StdPeriph_Driver/src/stm32f10x_tim.c ****   *     @arg TIM_FLAG_CC3OF: TIM Capture Compare 3 overcapture Flag
2556:common/lib.stm32/STM32F10x_StdPeriph_Driver/src/stm32f10x_tim.c ****   *     @arg TIM_FLAG_CC4OF: TIM Capture Compare 4 overcapture Flag
2557:common/lib.stm32/STM32F10x_StdPeriph_Driver/src/stm32f10x_tim.c ****   * @note
2558:common/lib.stm32/STM32F10x_StdPeriph_Driver/src/stm32f10x_tim.c ****   *   - TIM6 and TIM7 can have only one update flag. 
2559:common/lib.stm32/STM32F10x_StdPeriph_Driver/src/stm32f10x_tim.c ****   *   - TIM_FLAG_COM and TIM_FLAG_Break are used only with TIM1 and TIM8.  
2560:common/lib.stm32/STM32F10x_StdPeriph_Driver/src/stm32f10x_tim.c ****   * @retval None
2561:common/lib.stm32/STM32F10x_StdPeriph_Driver/src/stm32f10x_tim.c ****   */
2562:common/lib.stm32/STM32F10x_StdPeriph_Driver/src/stm32f10x_tim.c **** void TIM_ClearFlag(TIM_TypeDef* TIMx, uint16_t TIM_FLAG)
2563:common/lib.stm32/STM32F10x_StdPeriph_Driver/src/stm32f10x_tim.c **** {  
 6389              		.loc 1 2563 1
 6390              		.cfi_startproc
 6391              		@ args = 0, pretend = 0, frame = 8
 6392              		@ frame_needed = 1, uses_anonymous_args = 0
 6393              		@ link register save eliminated.
 6394 0000 80B4     		push	{r7}
 6395              	.LCFI497:
 6396              		.cfi_def_cfa_offset 4
 6397              		.cfi_offset 7, -4
 6398 0002 83B0     		sub	sp, sp, #12
 6399              	.LCFI498:
 6400              		.cfi_def_cfa_offset 16
 6401 0004 00AF     		add	r7, sp, #0
 6402              	.LCFI499:
 6403              		.cfi_def_cfa_register 7
 6404 0006 7860     		str	r0, [r7, #4]
 6405 0008 0B46     		mov	r3, r1
 6406 000a 7B80     		strh	r3, [r7, #2]	@ movhi
2564:common/lib.stm32/STM32F10x_StdPeriph_Driver/src/stm32f10x_tim.c ****   /* Check the parameters */
2565:common/lib.stm32/STM32F10x_StdPeriph_Driver/src/stm32f10x_tim.c ****   assert_param(IS_TIM_ALL_PERIPH(TIMx));
2566:common/lib.stm32/STM32F10x_StdPeriph_Driver/src/stm32f10x_tim.c ****   assert_param(IS_TIM_CLEAR_FLAG(TIM_FLAG));
2567:common/lib.stm32/STM32F10x_StdPeriph_Driver/src/stm32f10x_tim.c ****    
2568:common/lib.stm32/STM32F10x_StdPeriph_Driver/src/stm32f10x_tim.c ****   /* Clear the flags */
2569:common/lib.stm32/STM32F10x_StdPeriph_Driver/src/stm32f10x_tim.c ****   TIMx->SR = (uint16_t)~TIM_FLAG;
 6407              		.loc 1 2569 14
 6408 000c 7B88     		ldrh	r3, [r7, #2]	@ movhi
 6409 000e DB43     		mvns	r3, r3
 6410 0010 9AB2     		uxth	r2, r3
 6411              		.loc 1 2569 12
 6412 0012 7B68     		ldr	r3, [r7, #4]
 6413 0014 1A82     		strh	r2, [r3, #16]	@ movhi
2570:common/lib.stm32/STM32F10x_StdPeriph_Driver/src/stm32f10x_tim.c **** }
 6414              		.loc 1 2570 1
 6415 0016 00BF     		nop
 6416 0018 0C37     		adds	r7, r7, #12
 6417              	.LCFI500:
 6418              		.cfi_def_cfa_offset 4
 6419 001a BD46     		mov	sp, r7
 6420              	.LCFI501:
 6421              		.cfi_def_cfa_register 13
 6422              		@ sp needed
 6423 001c 80BC     		pop	{r7}
 6424              	.LCFI502:
 6425              		.cfi_restore 7
 6426              		.cfi_def_cfa_offset 0
 6427 001e 7047     		bx	lr
 6428              		.cfi_endproc
 6429              	.LFE111:
 6431              		.section	.text.TIM_GetITStatus,"ax",%progbits
 6432              		.align	1
 6433              		.global	TIM_GetITStatus
 6434              		.syntax unified
 6435              		.thumb
 6436              		.thumb_func
 6438              	TIM_GetITStatus:
 6439              	.LFB112:
2571:common/lib.stm32/STM32F10x_StdPeriph_Driver/src/stm32f10x_tim.c **** 
2572:common/lib.stm32/STM32F10x_StdPeriph_Driver/src/stm32f10x_tim.c **** /**
2573:common/lib.stm32/STM32F10x_StdPeriph_Driver/src/stm32f10x_tim.c ****   * @brief  Checks whether the TIM interrupt has occurred or not.
2574:common/lib.stm32/STM32F10x_StdPeriph_Driver/src/stm32f10x_tim.c ****   * @param  TIMx: where x can be 1 to 8 to select the TIM peripheral.
2575:common/lib.stm32/STM32F10x_StdPeriph_Driver/src/stm32f10x_tim.c ****   * @param  TIM_IT: specifies the TIM interrupt source to check.
2576:common/lib.stm32/STM32F10x_StdPeriph_Driver/src/stm32f10x_tim.c ****   *   This parameter can be one of the following values:
2577:common/lib.stm32/STM32F10x_StdPeriph_Driver/src/stm32f10x_tim.c ****   *     @arg TIM_IT_Update: TIM update Interrupt source
2578:common/lib.stm32/STM32F10x_StdPeriph_Driver/src/stm32f10x_tim.c ****   *     @arg TIM_IT_CC1: TIM Capture Compare 1 Interrupt source
2579:common/lib.stm32/STM32F10x_StdPeriph_Driver/src/stm32f10x_tim.c ****   *     @arg TIM_IT_CC2: TIM Capture Compare 2 Interrupt source
2580:common/lib.stm32/STM32F10x_StdPeriph_Driver/src/stm32f10x_tim.c ****   *     @arg TIM_IT_CC3: TIM Capture Compare 3 Interrupt source
2581:common/lib.stm32/STM32F10x_StdPeriph_Driver/src/stm32f10x_tim.c ****   *     @arg TIM_IT_CC4: TIM Capture Compare 4 Interrupt source
2582:common/lib.stm32/STM32F10x_StdPeriph_Driver/src/stm32f10x_tim.c ****   *     @arg TIM_IT_COM: TIM Commutation Interrupt source
2583:common/lib.stm32/STM32F10x_StdPeriph_Driver/src/stm32f10x_tim.c ****   *     @arg TIM_IT_Trigger: TIM Trigger Interrupt source
2584:common/lib.stm32/STM32F10x_StdPeriph_Driver/src/stm32f10x_tim.c ****   *     @arg TIM_IT_Break: TIM Break Interrupt source
2585:common/lib.stm32/STM32F10x_StdPeriph_Driver/src/stm32f10x_tim.c ****   * @note
2586:common/lib.stm32/STM32F10x_StdPeriph_Driver/src/stm32f10x_tim.c ****   *   - TIM6 and TIM7 can generate only an update interrupt.
2587:common/lib.stm32/STM32F10x_StdPeriph_Driver/src/stm32f10x_tim.c ****   *   - TIM_IT_COM and TIM_IT_Break are used only with TIM1 and TIM8.  
2588:common/lib.stm32/STM32F10x_StdPeriph_Driver/src/stm32f10x_tim.c ****   * @retval The new state of the TIM_IT(SET or RESET).
2589:common/lib.stm32/STM32F10x_StdPeriph_Driver/src/stm32f10x_tim.c ****   */
2590:common/lib.stm32/STM32F10x_StdPeriph_Driver/src/stm32f10x_tim.c **** ITStatus TIM_GetITStatus(TIM_TypeDef* TIMx, uint16_t TIM_IT)
2591:common/lib.stm32/STM32F10x_StdPeriph_Driver/src/stm32f10x_tim.c **** {
 6440              		.loc 1 2591 1
 6441              		.cfi_startproc
 6442              		@ args = 0, pretend = 0, frame = 16
 6443              		@ frame_needed = 1, uses_anonymous_args = 0
 6444              		@ link register save eliminated.
 6445 0000 80B4     		push	{r7}
 6446              	.LCFI503:
 6447              		.cfi_def_cfa_offset 4
 6448              		.cfi_offset 7, -4
 6449 0002 85B0     		sub	sp, sp, #20
 6450              	.LCFI504:
 6451              		.cfi_def_cfa_offset 24
 6452 0004 00AF     		add	r7, sp, #0
 6453              	.LCFI505:
 6454              		.cfi_def_cfa_register 7
 6455 0006 7860     		str	r0, [r7, #4]
 6456 0008 0B46     		mov	r3, r1
 6457 000a 7B80     		strh	r3, [r7, #2]	@ movhi
2592:common/lib.stm32/STM32F10x_StdPeriph_Driver/src/stm32f10x_tim.c ****   ITStatus bitstatus = RESET;  
 6458              		.loc 1 2592 12
 6459 000c 0023     		movs	r3, #0
 6460 000e FB73     		strb	r3, [r7, #15]
2593:common/lib.stm32/STM32F10x_StdPeriph_Driver/src/stm32f10x_tim.c ****   uint16_t itstatus = 0x0, itenable = 0x0;
 6461              		.loc 1 2593 12
 6462 0010 0023     		movs	r3, #0
 6463 0012 BB81     		strh	r3, [r7, #12]	@ movhi
 6464              		.loc 1 2593 28
 6465 0014 0023     		movs	r3, #0
 6466 0016 7B81     		strh	r3, [r7, #10]	@ movhi
2594:common/lib.stm32/STM32F10x_StdPeriph_Driver/src/stm32f10x_tim.c ****   /* Check the parameters */
2595:common/lib.stm32/STM32F10x_StdPeriph_Driver/src/stm32f10x_tim.c ****   assert_param(IS_TIM_ALL_PERIPH(TIMx));
2596:common/lib.stm32/STM32F10x_StdPeriph_Driver/src/stm32f10x_tim.c ****   assert_param(IS_TIM_GET_IT(TIM_IT));
2597:common/lib.stm32/STM32F10x_StdPeriph_Driver/src/stm32f10x_tim.c ****    
2598:common/lib.stm32/STM32F10x_StdPeriph_Driver/src/stm32f10x_tim.c ****   itstatus = TIMx->SR & TIM_IT;
 6467              		.loc 1 2598 18
 6468 0018 7B68     		ldr	r3, [r7, #4]
 6469 001a 1B8A     		ldrh	r3, [r3, #16]	@ movhi
 6470 001c 9AB2     		uxth	r2, r3
 6471              		.loc 1 2598 12
 6472 001e 7B88     		ldrh	r3, [r7, #2]	@ movhi
 6473 0020 1340     		ands	r3, r3, r2
 6474 0022 BB81     		strh	r3, [r7, #12]	@ movhi
2599:common/lib.stm32/STM32F10x_StdPeriph_Driver/src/stm32f10x_tim.c ****   
2600:common/lib.stm32/STM32F10x_StdPeriph_Driver/src/stm32f10x_tim.c ****   itenable = TIMx->DIER & TIM_IT;
 6475              		.loc 1 2600 18
 6476 0024 7B68     		ldr	r3, [r7, #4]
 6477 0026 9B89     		ldrh	r3, [r3, #12]	@ movhi
 6478 0028 9AB2     		uxth	r2, r3
 6479              		.loc 1 2600 12
 6480 002a 7B88     		ldrh	r3, [r7, #2]	@ movhi
 6481 002c 1340     		ands	r3, r3, r2
 6482 002e 7B81     		strh	r3, [r7, #10]	@ movhi
2601:common/lib.stm32/STM32F10x_StdPeriph_Driver/src/stm32f10x_tim.c ****   if ((itstatus != (uint16_t)RESET) && (itenable != (uint16_t)RESET))
 6483              		.loc 1 2601 6
 6484 0030 BB89     		ldrh	r3, [r7, #12]
 6485 0032 002B     		cmp	r3, #0
 6486 0034 05D0     		beq	.L189
 6487              		.loc 1 2601 37 discriminator 1
 6488 0036 7B89     		ldrh	r3, [r7, #10]
 6489 0038 002B     		cmp	r3, #0
 6490 003a 02D0     		beq	.L189
2602:common/lib.stm32/STM32F10x_StdPeriph_Driver/src/stm32f10x_tim.c ****   {
2603:common/lib.stm32/STM32F10x_StdPeriph_Driver/src/stm32f10x_tim.c ****     bitstatus = SET;
 6491              		.loc 1 2603 15
 6492 003c 0123     		movs	r3, #1
 6493 003e FB73     		strb	r3, [r7, #15]
 6494 0040 01E0     		b	.L190
 6495              	.L189:
2604:common/lib.stm32/STM32F10x_StdPeriph_Driver/src/stm32f10x_tim.c ****   }
2605:common/lib.stm32/STM32F10x_StdPeriph_Driver/src/stm32f10x_tim.c ****   else
2606:common/lib.stm32/STM32F10x_StdPeriph_Driver/src/stm32f10x_tim.c ****   {
2607:common/lib.stm32/STM32F10x_StdPeriph_Driver/src/stm32f10x_tim.c ****     bitstatus = RESET;
 6496              		.loc 1 2607 15
 6497 0042 0023     		movs	r3, #0
 6498 0044 FB73     		strb	r3, [r7, #15]
 6499              	.L190:
2608:common/lib.stm32/STM32F10x_StdPeriph_Driver/src/stm32f10x_tim.c ****   }
2609:common/lib.stm32/STM32F10x_StdPeriph_Driver/src/stm32f10x_tim.c ****   return bitstatus;
 6500              		.loc 1 2609 10
 6501 0046 FB7B     		ldrb	r3, [r7, #15]	@ zero_extendqisi2
2610:common/lib.stm32/STM32F10x_StdPeriph_Driver/src/stm32f10x_tim.c **** }
 6502              		.loc 1 2610 1
 6503 0048 1846     		mov	r0, r3
 6504 004a 1437     		adds	r7, r7, #20
 6505              	.LCFI506:
 6506              		.cfi_def_cfa_offset 4
 6507 004c BD46     		mov	sp, r7
 6508              	.LCFI507:
 6509              		.cfi_def_cfa_register 13
 6510              		@ sp needed
 6511 004e 80BC     		pop	{r7}
 6512              	.LCFI508:
 6513              		.cfi_restore 7
 6514              		.cfi_def_cfa_offset 0
 6515 0050 7047     		bx	lr
 6516              		.cfi_endproc
 6517              	.LFE112:
 6519              		.section	.text.TIM_ClearITPendingBit,"ax",%progbits
 6520              		.align	1
 6521              		.global	TIM_ClearITPendingBit
 6522              		.syntax unified
 6523              		.thumb
 6524              		.thumb_func
 6526              	TIM_ClearITPendingBit:
 6527              	.LFB113:
2611:common/lib.stm32/STM32F10x_StdPeriph_Driver/src/stm32f10x_tim.c **** 
2612:common/lib.stm32/STM32F10x_StdPeriph_Driver/src/stm32f10x_tim.c **** /**
2613:common/lib.stm32/STM32F10x_StdPeriph_Driver/src/stm32f10x_tim.c ****   * @brief  Clears the TIMx's interrupt pending bits.
2614:common/lib.stm32/STM32F10x_StdPeriph_Driver/src/stm32f10x_tim.c ****   * @param  TIMx: where x can be 1 to 8 to select the TIM peripheral.
2615:common/lib.stm32/STM32F10x_StdPeriph_Driver/src/stm32f10x_tim.c ****   * @param  TIM_IT: specifies the pending bit to clear.
2616:common/lib.stm32/STM32F10x_StdPeriph_Driver/src/stm32f10x_tim.c ****   *   This parameter can be any combination of the following values:
2617:common/lib.stm32/STM32F10x_StdPeriph_Driver/src/stm32f10x_tim.c ****   *     @arg TIM_IT_Update: TIM1 update Interrupt source
2618:common/lib.stm32/STM32F10x_StdPeriph_Driver/src/stm32f10x_tim.c ****   *     @arg TIM_IT_CC1: TIM Capture Compare 1 Interrupt source
2619:common/lib.stm32/STM32F10x_StdPeriph_Driver/src/stm32f10x_tim.c ****   *     @arg TIM_IT_CC2: TIM Capture Compare 2 Interrupt source
2620:common/lib.stm32/STM32F10x_StdPeriph_Driver/src/stm32f10x_tim.c ****   *     @arg TIM_IT_CC3: TIM Capture Compare 3 Interrupt source
2621:common/lib.stm32/STM32F10x_StdPeriph_Driver/src/stm32f10x_tim.c ****   *     @arg TIM_IT_CC4: TIM Capture Compare 4 Interrupt source
2622:common/lib.stm32/STM32F10x_StdPeriph_Driver/src/stm32f10x_tim.c ****   *     @arg TIM_IT_COM: TIM Commutation Interrupt source
2623:common/lib.stm32/STM32F10x_StdPeriph_Driver/src/stm32f10x_tim.c ****   *     @arg TIM_IT_Trigger: TIM Trigger Interrupt source
2624:common/lib.stm32/STM32F10x_StdPeriph_Driver/src/stm32f10x_tim.c ****   *     @arg TIM_IT_Break: TIM Break Interrupt source
2625:common/lib.stm32/STM32F10x_StdPeriph_Driver/src/stm32f10x_tim.c ****   * @note
2626:common/lib.stm32/STM32F10x_StdPeriph_Driver/src/stm32f10x_tim.c ****   *   - TIM6 and TIM7 can generate only an update interrupt.
2627:common/lib.stm32/STM32F10x_StdPeriph_Driver/src/stm32f10x_tim.c ****   *   - TIM_IT_COM and TIM_IT_Break are used only with TIM1 and TIM8.    
2628:common/lib.stm32/STM32F10x_StdPeriph_Driver/src/stm32f10x_tim.c ****   * @retval None
2629:common/lib.stm32/STM32F10x_StdPeriph_Driver/src/stm32f10x_tim.c ****   */
2630:common/lib.stm32/STM32F10x_StdPeriph_Driver/src/stm32f10x_tim.c **** void TIM_ClearITPendingBit(TIM_TypeDef* TIMx, uint16_t TIM_IT)
2631:common/lib.stm32/STM32F10x_StdPeriph_Driver/src/stm32f10x_tim.c **** {
 6528              		.loc 1 2631 1
 6529              		.cfi_startproc
 6530              		@ args = 0, pretend = 0, frame = 8
 6531              		@ frame_needed = 1, uses_anonymous_args = 0
 6532              		@ link register save eliminated.
 6533 0000 80B4     		push	{r7}
 6534              	.LCFI509:
 6535              		.cfi_def_cfa_offset 4
 6536              		.cfi_offset 7, -4
 6537 0002 83B0     		sub	sp, sp, #12
 6538              	.LCFI510:
 6539              		.cfi_def_cfa_offset 16
 6540 0004 00AF     		add	r7, sp, #0
 6541              	.LCFI511:
 6542              		.cfi_def_cfa_register 7
 6543 0006 7860     		str	r0, [r7, #4]
 6544 0008 0B46     		mov	r3, r1
 6545 000a 7B80     		strh	r3, [r7, #2]	@ movhi
2632:common/lib.stm32/STM32F10x_StdPeriph_Driver/src/stm32f10x_tim.c ****   /* Check the parameters */
2633:common/lib.stm32/STM32F10x_StdPeriph_Driver/src/stm32f10x_tim.c ****   assert_param(IS_TIM_ALL_PERIPH(TIMx));
2634:common/lib.stm32/STM32F10x_StdPeriph_Driver/src/stm32f10x_tim.c ****   assert_param(IS_TIM_IT(TIM_IT));
2635:common/lib.stm32/STM32F10x_StdPeriph_Driver/src/stm32f10x_tim.c ****   /* Clear the IT pending Bit */
2636:common/lib.stm32/STM32F10x_StdPeriph_Driver/src/stm32f10x_tim.c ****   TIMx->SR = (uint16_t)~TIM_IT;
 6546              		.loc 1 2636 14
 6547 000c 7B88     		ldrh	r3, [r7, #2]	@ movhi
 6548 000e DB43     		mvns	r3, r3
 6549 0010 9AB2     		uxth	r2, r3
 6550              		.loc 1 2636 12
 6551 0012 7B68     		ldr	r3, [r7, #4]
 6552 0014 1A82     		strh	r2, [r3, #16]	@ movhi
2637:common/lib.stm32/STM32F10x_StdPeriph_Driver/src/stm32f10x_tim.c **** }
 6553              		.loc 1 2637 1
 6554 0016 00BF     		nop
 6555 0018 0C37     		adds	r7, r7, #12
 6556              	.LCFI512:
 6557              		.cfi_def_cfa_offset 4
 6558 001a BD46     		mov	sp, r7
 6559              	.LCFI513:
 6560              		.cfi_def_cfa_register 13
 6561              		@ sp needed
 6562 001c 80BC     		pop	{r7}
 6563              	.LCFI514:
 6564              		.cfi_restore 7
 6565              		.cfi_def_cfa_offset 0
 6566 001e 7047     		bx	lr
 6567              		.cfi_endproc
 6568              	.LFE113:
 6570              		.section	.text.TI1_Config,"ax",%progbits
 6571              		.align	1
 6572              		.syntax unified
 6573              		.thumb
 6574              		.thumb_func
 6576              	TI1_Config:
 6577              	.LFB114:
2638:common/lib.stm32/STM32F10x_StdPeriph_Driver/src/stm32f10x_tim.c **** 
2639:common/lib.stm32/STM32F10x_StdPeriph_Driver/src/stm32f10x_tim.c **** /**
2640:common/lib.stm32/STM32F10x_StdPeriph_Driver/src/stm32f10x_tim.c ****   * @brief  Configure the TI1 as Input.
2641:common/lib.stm32/STM32F10x_StdPeriph_Driver/src/stm32f10x_tim.c ****   * @param  TIMx: where x can be 1, 2, 3, 4, 5 or 8 to select the TIM peripheral.
2642:common/lib.stm32/STM32F10x_StdPeriph_Driver/src/stm32f10x_tim.c ****   * @param  TIM_ICPolarity : The Input Polarity.
2643:common/lib.stm32/STM32F10x_StdPeriph_Driver/src/stm32f10x_tim.c ****   *   This parameter can be one of the following values:
2644:common/lib.stm32/STM32F10x_StdPeriph_Driver/src/stm32f10x_tim.c ****   *     @arg TIM_ICPolarity_Rising
2645:common/lib.stm32/STM32F10x_StdPeriph_Driver/src/stm32f10x_tim.c ****   *     @arg TIM_ICPolarity_Falling
2646:common/lib.stm32/STM32F10x_StdPeriph_Driver/src/stm32f10x_tim.c ****   * @param  TIM_ICSelection: specifies the input to be used.
2647:common/lib.stm32/STM32F10x_StdPeriph_Driver/src/stm32f10x_tim.c ****   *   This parameter can be one of the following values:
2648:common/lib.stm32/STM32F10x_StdPeriph_Driver/src/stm32f10x_tim.c ****   *     @arg TIM_ICSelection_DirectTI: TIM Input 1 is selected to be connected to IC1.
2649:common/lib.stm32/STM32F10x_StdPeriph_Driver/src/stm32f10x_tim.c ****   *     @arg TIM_ICSelection_IndirectTI: TIM Input 1 is selected to be connected to IC2.
2650:common/lib.stm32/STM32F10x_StdPeriph_Driver/src/stm32f10x_tim.c ****   *     @arg TIM_ICSelection_TRC: TIM Input 1 is selected to be connected to TRC.
2651:common/lib.stm32/STM32F10x_StdPeriph_Driver/src/stm32f10x_tim.c ****   * @param  TIM_ICFilter: Specifies the Input Capture Filter.
2652:common/lib.stm32/STM32F10x_StdPeriph_Driver/src/stm32f10x_tim.c ****   *   This parameter must be a value between 0x00 and 0x0F.
2653:common/lib.stm32/STM32F10x_StdPeriph_Driver/src/stm32f10x_tim.c ****   * @retval None
2654:common/lib.stm32/STM32F10x_StdPeriph_Driver/src/stm32f10x_tim.c ****   */
2655:common/lib.stm32/STM32F10x_StdPeriph_Driver/src/stm32f10x_tim.c **** static void TI1_Config(TIM_TypeDef* TIMx, uint16_t TIM_ICPolarity, uint16_t TIM_ICSelection,
2656:common/lib.stm32/STM32F10x_StdPeriph_Driver/src/stm32f10x_tim.c ****                        uint16_t TIM_ICFilter)
2657:common/lib.stm32/STM32F10x_StdPeriph_Driver/src/stm32f10x_tim.c **** {
 6578              		.loc 1 2657 1
 6579              		.cfi_startproc
 6580              		@ args = 0, pretend = 0, frame = 24
 6581              		@ frame_needed = 1, uses_anonymous_args = 0
 6582              		@ link register save eliminated.
 6583 0000 80B4     		push	{r7}
 6584              	.LCFI515:
 6585              		.cfi_def_cfa_offset 4
 6586              		.cfi_offset 7, -4
 6587 0002 87B0     		sub	sp, sp, #28
 6588              	.LCFI516:
 6589              		.cfi_def_cfa_offset 32
 6590 0004 00AF     		add	r7, sp, #0
 6591              	.LCFI517:
 6592              		.cfi_def_cfa_register 7
 6593 0006 F860     		str	r0, [r7, #12]
 6594 0008 0846     		mov	r0, r1
 6595 000a 1146     		mov	r1, r2
 6596 000c 1A46     		mov	r2, r3
 6597 000e 0346     		mov	r3, r0	@ movhi
 6598 0010 7B81     		strh	r3, [r7, #10]	@ movhi
 6599 0012 0B46     		mov	r3, r1	@ movhi
 6600 0014 3B81     		strh	r3, [r7, #8]	@ movhi
 6601 0016 1346     		mov	r3, r2	@ movhi
 6602 0018 FB80     		strh	r3, [r7, #6]	@ movhi
2658:common/lib.stm32/STM32F10x_StdPeriph_Driver/src/stm32f10x_tim.c ****   uint16_t tmpccmr1 = 0, tmpccer = 0;
 6603              		.loc 1 2658 12
 6604 001a 0023     		movs	r3, #0
 6605 001c FB82     		strh	r3, [r7, #22]	@ movhi
 6606              		.loc 1 2658 26
 6607 001e 0023     		movs	r3, #0
 6608 0020 BB82     		strh	r3, [r7, #20]	@ movhi
2659:common/lib.stm32/STM32F10x_StdPeriph_Driver/src/stm32f10x_tim.c ****   /* Disable the Channel 1: Reset the CC1E Bit */
2660:common/lib.stm32/STM32F10x_StdPeriph_Driver/src/stm32f10x_tim.c ****   TIMx->CCER &= CCER_CC1E_Reset;
 6609              		.loc 1 2660 14
 6610 0022 FB68     		ldr	r3, [r7, #12]
 6611 0024 1B8C     		ldrh	r3, [r3, #32]	@ movhi
 6612 0026 9BB2     		uxth	r3, r3
 6613 0028 23F00103 		bic	r3, r3, #1
 6614 002c 9AB2     		uxth	r2, r3
 6615 002e FB68     		ldr	r3, [r7, #12]
 6616 0030 1A84     		strh	r2, [r3, #32]	@ movhi
2661:common/lib.stm32/STM32F10x_StdPeriph_Driver/src/stm32f10x_tim.c ****   tmpccmr1 = TIMx->CCMR1;
 6617              		.loc 1 2661 12
 6618 0032 FB68     		ldr	r3, [r7, #12]
 6619 0034 1B8B     		ldrh	r3, [r3, #24]	@ movhi
 6620 0036 FB82     		strh	r3, [r7, #22]	@ movhi
2662:common/lib.stm32/STM32F10x_StdPeriph_Driver/src/stm32f10x_tim.c ****   tmpccer = TIMx->CCER;
 6621              		.loc 1 2662 11
 6622 0038 FB68     		ldr	r3, [r7, #12]
 6623 003a 1B8C     		ldrh	r3, [r3, #32]	@ movhi
 6624 003c BB82     		strh	r3, [r7, #20]	@ movhi
2663:common/lib.stm32/STM32F10x_StdPeriph_Driver/src/stm32f10x_tim.c ****   /* Select the Input and set the filter */
2664:common/lib.stm32/STM32F10x_StdPeriph_Driver/src/stm32f10x_tim.c ****   tmpccmr1 &= CCMR_CC13S_Mask & CCMR_IC13F_Mask;
 6625              		.loc 1 2664 12
 6626 003e FB8A     		ldrh	r3, [r7, #22]	@ movhi
 6627 0040 23F0F303 		bic	r3, r3, #243
 6628 0044 FB82     		strh	r3, [r7, #22]	@ movhi
2665:common/lib.stm32/STM32F10x_StdPeriph_Driver/src/stm32f10x_tim.c ****   tmpccmr1 |= (uint16_t)(TIM_ICSelection | (uint16_t)(TIM_ICFilter << (uint16_t)4));
 6629              		.loc 1 2665 44
 6630 0046 FB88     		ldrh	r3, [r7, #6]	@ movhi
 6631 0048 1B01     		lsls	r3, r3, #4
 6632 004a 9AB2     		uxth	r2, r3
 6633              		.loc 1 2665 15
 6634 004c 3B89     		ldrh	r3, [r7, #8]	@ movhi
 6635 004e 1343     		orrs	r3, r3, r2
 6636 0050 9AB2     		uxth	r2, r3
 6637              		.loc 1 2665 12
 6638 0052 FB8A     		ldrh	r3, [r7, #22]	@ movhi
 6639 0054 1343     		orrs	r3, r3, r2
 6640 0056 FB82     		strh	r3, [r7, #22]	@ movhi
2666:common/lib.stm32/STM32F10x_StdPeriph_Driver/src/stm32f10x_tim.c ****   /* Select the Polarity and set the CC1E Bit */
2667:common/lib.stm32/STM32F10x_StdPeriph_Driver/src/stm32f10x_tim.c ****   tmpccer &= CCER_CC1P_Reset;
 6641              		.loc 1 2667 11
 6642 0058 BB8A     		ldrh	r3, [r7, #20]	@ movhi
 6643 005a 23F00203 		bic	r3, r3, #2
 6644 005e BB82     		strh	r3, [r7, #20]	@ movhi
2668:common/lib.stm32/STM32F10x_StdPeriph_Driver/src/stm32f10x_tim.c ****   tmpccer |= (uint16_t)(TIM_ICPolarity | (uint16_t)CCER_CC1E_Set);
 6645              		.loc 1 2668 11
 6646 0060 7A89     		ldrh	r2, [r7, #10]	@ movhi
 6647 0062 BB8A     		ldrh	r3, [r7, #20]	@ movhi
 6648 0064 1343     		orrs	r3, r3, r2
 6649 0066 9BB2     		uxth	r3, r3
 6650 0068 43F00103 		orr	r3, r3, #1
 6651 006c BB82     		strh	r3, [r7, #20]	@ movhi
2669:common/lib.stm32/STM32F10x_StdPeriph_Driver/src/stm32f10x_tim.c ****   /* Write to TIMx CCMR1 and CCER registers */
2670:common/lib.stm32/STM32F10x_StdPeriph_Driver/src/stm32f10x_tim.c ****   TIMx->CCMR1 = tmpccmr1;
 6652              		.loc 1 2670 15
 6653 006e FB68     		ldr	r3, [r7, #12]
 6654 0070 FA8A     		ldrh	r2, [r7, #22]	@ movhi
 6655 0072 1A83     		strh	r2, [r3, #24]	@ movhi
2671:common/lib.stm32/STM32F10x_StdPeriph_Driver/src/stm32f10x_tim.c ****   TIMx->CCER = tmpccer;
 6656              		.loc 1 2671 14
 6657 0074 FB68     		ldr	r3, [r7, #12]
 6658 0076 BA8A     		ldrh	r2, [r7, #20]	@ movhi
 6659 0078 1A84     		strh	r2, [r3, #32]	@ movhi
2672:common/lib.stm32/STM32F10x_StdPeriph_Driver/src/stm32f10x_tim.c **** }
 6660              		.loc 1 2672 1
 6661 007a 00BF     		nop
 6662 007c 1C37     		adds	r7, r7, #28
 6663              	.LCFI518:
 6664              		.cfi_def_cfa_offset 4
 6665 007e BD46     		mov	sp, r7
 6666              	.LCFI519:
 6667              		.cfi_def_cfa_register 13
 6668              		@ sp needed
 6669 0080 80BC     		pop	{r7}
 6670              	.LCFI520:
 6671              		.cfi_restore 7
 6672              		.cfi_def_cfa_offset 0
 6673 0082 7047     		bx	lr
 6674              		.cfi_endproc
 6675              	.LFE114:
 6677              		.section	.text.TI2_Config,"ax",%progbits
 6678              		.align	1
 6679              		.syntax unified
 6680              		.thumb
 6681              		.thumb_func
 6683              	TI2_Config:
 6684              	.LFB115:
2673:common/lib.stm32/STM32F10x_StdPeriph_Driver/src/stm32f10x_tim.c **** 
2674:common/lib.stm32/STM32F10x_StdPeriph_Driver/src/stm32f10x_tim.c **** /**
2675:common/lib.stm32/STM32F10x_StdPeriph_Driver/src/stm32f10x_tim.c ****   * @brief  Configure the TI2 as Input.
2676:common/lib.stm32/STM32F10x_StdPeriph_Driver/src/stm32f10x_tim.c ****   * @param  TIMx: where x can be 1, 2, 3, 4, 5 or 8 to select the TIM peripheral.
2677:common/lib.stm32/STM32F10x_StdPeriph_Driver/src/stm32f10x_tim.c ****   * @param  TIM_ICPolarity : The Input Polarity.
2678:common/lib.stm32/STM32F10x_StdPeriph_Driver/src/stm32f10x_tim.c ****   *   This parameter can be one of the following values:
2679:common/lib.stm32/STM32F10x_StdPeriph_Driver/src/stm32f10x_tim.c ****   *     @arg TIM_ICPolarity_Rising
2680:common/lib.stm32/STM32F10x_StdPeriph_Driver/src/stm32f10x_tim.c ****   *     @arg TIM_ICPolarity_Falling
2681:common/lib.stm32/STM32F10x_StdPeriph_Driver/src/stm32f10x_tim.c ****   * @param  TIM_ICSelection: specifies the input to be used.
2682:common/lib.stm32/STM32F10x_StdPeriph_Driver/src/stm32f10x_tim.c ****   *   This parameter can be one of the following values:
2683:common/lib.stm32/STM32F10x_StdPeriph_Driver/src/stm32f10x_tim.c ****   *     @arg TIM_ICSelection_DirectTI: TIM Input 2 is selected to be connected to IC2.
2684:common/lib.stm32/STM32F10x_StdPeriph_Driver/src/stm32f10x_tim.c ****   *     @arg TIM_ICSelection_IndirectTI: TIM Input 2 is selected to be connected to IC1.
2685:common/lib.stm32/STM32F10x_StdPeriph_Driver/src/stm32f10x_tim.c ****   *     @arg TIM_ICSelection_TRC: TIM Input 2 is selected to be connected to TRC.
2686:common/lib.stm32/STM32F10x_StdPeriph_Driver/src/stm32f10x_tim.c ****   * @param  TIM_ICFilter: Specifies the Input Capture Filter.
2687:common/lib.stm32/STM32F10x_StdPeriph_Driver/src/stm32f10x_tim.c ****   *   This parameter must be a value between 0x00 and 0x0F.
2688:common/lib.stm32/STM32F10x_StdPeriph_Driver/src/stm32f10x_tim.c ****   * @retval None
2689:common/lib.stm32/STM32F10x_StdPeriph_Driver/src/stm32f10x_tim.c ****   */
2690:common/lib.stm32/STM32F10x_StdPeriph_Driver/src/stm32f10x_tim.c **** static void TI2_Config(TIM_TypeDef* TIMx, uint16_t TIM_ICPolarity, uint16_t TIM_ICSelection,
2691:common/lib.stm32/STM32F10x_StdPeriph_Driver/src/stm32f10x_tim.c ****                        uint16_t TIM_ICFilter)
2692:common/lib.stm32/STM32F10x_StdPeriph_Driver/src/stm32f10x_tim.c **** {
 6685              		.loc 1 2692 1
 6686              		.cfi_startproc
 6687              		@ args = 0, pretend = 0, frame = 24
 6688              		@ frame_needed = 1, uses_anonymous_args = 0
 6689              		@ link register save eliminated.
 6690 0000 80B4     		push	{r7}
 6691              	.LCFI521:
 6692              		.cfi_def_cfa_offset 4
 6693              		.cfi_offset 7, -4
 6694 0002 87B0     		sub	sp, sp, #28
 6695              	.LCFI522:
 6696              		.cfi_def_cfa_offset 32
 6697 0004 00AF     		add	r7, sp, #0
 6698              	.LCFI523:
 6699              		.cfi_def_cfa_register 7
 6700 0006 F860     		str	r0, [r7, #12]
 6701 0008 0846     		mov	r0, r1
 6702 000a 1146     		mov	r1, r2
 6703 000c 1A46     		mov	r2, r3
 6704 000e 0346     		mov	r3, r0	@ movhi
 6705 0010 7B81     		strh	r3, [r7, #10]	@ movhi
 6706 0012 0B46     		mov	r3, r1	@ movhi
 6707 0014 3B81     		strh	r3, [r7, #8]	@ movhi
 6708 0016 1346     		mov	r3, r2	@ movhi
 6709 0018 FB80     		strh	r3, [r7, #6]	@ movhi
2693:common/lib.stm32/STM32F10x_StdPeriph_Driver/src/stm32f10x_tim.c ****   uint16_t tmpccmr1 = 0, tmpccer = 0, tmp = 0;
 6710              		.loc 1 2693 12
 6711 001a 0023     		movs	r3, #0
 6712 001c FB82     		strh	r3, [r7, #22]	@ movhi
 6713              		.loc 1 2693 26
 6714 001e 0023     		movs	r3, #0
 6715 0020 BB82     		strh	r3, [r7, #20]	@ movhi
 6716              		.loc 1 2693 39
 6717 0022 0023     		movs	r3, #0
 6718 0024 7B82     		strh	r3, [r7, #18]	@ movhi
2694:common/lib.stm32/STM32F10x_StdPeriph_Driver/src/stm32f10x_tim.c ****   /* Disable the Channel 2: Reset the CC2E Bit */
2695:common/lib.stm32/STM32F10x_StdPeriph_Driver/src/stm32f10x_tim.c ****   TIMx->CCER &= CCER_CC2E_Reset;
 6719              		.loc 1 2695 14
 6720 0026 FB68     		ldr	r3, [r7, #12]
 6721 0028 1B8C     		ldrh	r3, [r3, #32]	@ movhi
 6722 002a 9BB2     		uxth	r3, r3
 6723 002c 23F01003 		bic	r3, r3, #16
 6724 0030 9AB2     		uxth	r2, r3
 6725 0032 FB68     		ldr	r3, [r7, #12]
 6726 0034 1A84     		strh	r2, [r3, #32]	@ movhi
2696:common/lib.stm32/STM32F10x_StdPeriph_Driver/src/stm32f10x_tim.c ****   tmpccmr1 = TIMx->CCMR1;
 6727              		.loc 1 2696 12
 6728 0036 FB68     		ldr	r3, [r7, #12]
 6729 0038 1B8B     		ldrh	r3, [r3, #24]	@ movhi
 6730 003a FB82     		strh	r3, [r7, #22]	@ movhi
2697:common/lib.stm32/STM32F10x_StdPeriph_Driver/src/stm32f10x_tim.c ****   tmpccer = TIMx->CCER;
 6731              		.loc 1 2697 11
 6732 003c FB68     		ldr	r3, [r7, #12]
 6733 003e 1B8C     		ldrh	r3, [r3, #32]	@ movhi
 6734 0040 BB82     		strh	r3, [r7, #20]	@ movhi
2698:common/lib.stm32/STM32F10x_StdPeriph_Driver/src/stm32f10x_tim.c ****   tmp = (uint16_t)(TIM_ICPolarity << 4);
 6735              		.loc 1 2698 7
 6736 0042 7B89     		ldrh	r3, [r7, #10]	@ movhi
 6737 0044 1B01     		lsls	r3, r3, #4
 6738 0046 7B82     		strh	r3, [r7, #18]	@ movhi
2699:common/lib.stm32/STM32F10x_StdPeriph_Driver/src/stm32f10x_tim.c ****   /* Select the Input and set the filter */
2700:common/lib.stm32/STM32F10x_StdPeriph_Driver/src/stm32f10x_tim.c ****   tmpccmr1 &= CCMR_CC24S_Mask & CCMR_IC24F_Mask;
 6739              		.loc 1 2700 12
 6740 0048 FB8A     		ldrh	r3, [r7, #22]	@ movhi
 6741 004a 23F44073 		bic	r3, r3, #768
 6742 004e 1B05     		lsls	r3, r3, #20
 6743 0050 1B0D     		lsrs	r3, r3, #20
 6744 0052 FB82     		strh	r3, [r7, #22]	@ movhi
2701:common/lib.stm32/STM32F10x_StdPeriph_Driver/src/stm32f10x_tim.c ****   tmpccmr1 |= (uint16_t)(TIM_ICFilter << 12);
 6745              		.loc 1 2701 15
 6746 0054 FB88     		ldrh	r3, [r7, #6]	@ movhi
 6747 0056 1B03     		lsls	r3, r3, #12
 6748 0058 9AB2     		uxth	r2, r3
 6749              		.loc 1 2701 12
 6750 005a FB8A     		ldrh	r3, [r7, #22]	@ movhi
 6751 005c 1343     		orrs	r3, r3, r2
 6752 005e FB82     		strh	r3, [r7, #22]	@ movhi
2702:common/lib.stm32/STM32F10x_StdPeriph_Driver/src/stm32f10x_tim.c ****   tmpccmr1 |= (uint16_t)(TIM_ICSelection << 8);
 6753              		.loc 1 2702 15
 6754 0060 3B89     		ldrh	r3, [r7, #8]	@ movhi
 6755 0062 1B02     		lsls	r3, r3, #8
 6756 0064 9AB2     		uxth	r2, r3
 6757              		.loc 1 2702 12
 6758 0066 FB8A     		ldrh	r3, [r7, #22]	@ movhi
 6759 0068 1343     		orrs	r3, r3, r2
 6760 006a FB82     		strh	r3, [r7, #22]	@ movhi
2703:common/lib.stm32/STM32F10x_StdPeriph_Driver/src/stm32f10x_tim.c ****   /* Select the Polarity and set the CC2E Bit */
2704:common/lib.stm32/STM32F10x_StdPeriph_Driver/src/stm32f10x_tim.c ****   tmpccer &= CCER_CC2P_Reset;
 6761              		.loc 1 2704 11
 6762 006c BB8A     		ldrh	r3, [r7, #20]	@ movhi
 6763 006e 23F02003 		bic	r3, r3, #32
 6764 0072 BB82     		strh	r3, [r7, #20]	@ movhi
2705:common/lib.stm32/STM32F10x_StdPeriph_Driver/src/stm32f10x_tim.c ****   tmpccer |=  (uint16_t)(tmp | (uint16_t)CCER_CC2E_Set);
 6765              		.loc 1 2705 11
 6766 0074 7A8A     		ldrh	r2, [r7, #18]	@ movhi
 6767 0076 BB8A     		ldrh	r3, [r7, #20]	@ movhi
 6768 0078 1343     		orrs	r3, r3, r2
 6769 007a 9BB2     		uxth	r3, r3
 6770 007c 43F01003 		orr	r3, r3, #16
 6771 0080 BB82     		strh	r3, [r7, #20]	@ movhi
2706:common/lib.stm32/STM32F10x_StdPeriph_Driver/src/stm32f10x_tim.c ****   /* Write to TIMx CCMR1 and CCER registers */
2707:common/lib.stm32/STM32F10x_StdPeriph_Driver/src/stm32f10x_tim.c ****   TIMx->CCMR1 = tmpccmr1 ;
 6772              		.loc 1 2707 15
 6773 0082 FB68     		ldr	r3, [r7, #12]
 6774 0084 FA8A     		ldrh	r2, [r7, #22]	@ movhi
 6775 0086 1A83     		strh	r2, [r3, #24]	@ movhi
2708:common/lib.stm32/STM32F10x_StdPeriph_Driver/src/stm32f10x_tim.c ****   TIMx->CCER = tmpccer;
 6776              		.loc 1 2708 14
 6777 0088 FB68     		ldr	r3, [r7, #12]
 6778 008a BA8A     		ldrh	r2, [r7, #20]	@ movhi
 6779 008c 1A84     		strh	r2, [r3, #32]	@ movhi
2709:common/lib.stm32/STM32F10x_StdPeriph_Driver/src/stm32f10x_tim.c **** }
 6780              		.loc 1 2709 1
 6781 008e 00BF     		nop
 6782 0090 1C37     		adds	r7, r7, #28
 6783              	.LCFI524:
 6784              		.cfi_def_cfa_offset 4
 6785 0092 BD46     		mov	sp, r7
 6786              	.LCFI525:
 6787              		.cfi_def_cfa_register 13
 6788              		@ sp needed
 6789 0094 80BC     		pop	{r7}
 6790              	.LCFI526:
 6791              		.cfi_restore 7
 6792              		.cfi_def_cfa_offset 0
 6793 0096 7047     		bx	lr
 6794              		.cfi_endproc
 6795              	.LFE115:
 6797              		.section	.text.TI3_Config,"ax",%progbits
 6798              		.align	1
 6799              		.syntax unified
 6800              		.thumb
 6801              		.thumb_func
 6803              	TI3_Config:
 6804              	.LFB116:
2710:common/lib.stm32/STM32F10x_StdPeriph_Driver/src/stm32f10x_tim.c **** 
2711:common/lib.stm32/STM32F10x_StdPeriph_Driver/src/stm32f10x_tim.c **** /**
2712:common/lib.stm32/STM32F10x_StdPeriph_Driver/src/stm32f10x_tim.c ****   * @brief  Configure the TI3 as Input.
2713:common/lib.stm32/STM32F10x_StdPeriph_Driver/src/stm32f10x_tim.c ****   * @param  TIMx: where x can be 1, 2, 3, 4, 5 or 8 to select the TIM peripheral.
2714:common/lib.stm32/STM32F10x_StdPeriph_Driver/src/stm32f10x_tim.c ****   * @param  TIM_ICPolarity : The Input Polarity.
2715:common/lib.stm32/STM32F10x_StdPeriph_Driver/src/stm32f10x_tim.c ****   *   This parameter can be one of the following values:
2716:common/lib.stm32/STM32F10x_StdPeriph_Driver/src/stm32f10x_tim.c ****   *     @arg TIM_ICPolarity_Rising
2717:common/lib.stm32/STM32F10x_StdPeriph_Driver/src/stm32f10x_tim.c ****   *     @arg TIM_ICPolarity_Falling
2718:common/lib.stm32/STM32F10x_StdPeriph_Driver/src/stm32f10x_tim.c ****   * @param  TIM_ICSelection: specifies the input to be used.
2719:common/lib.stm32/STM32F10x_StdPeriph_Driver/src/stm32f10x_tim.c ****   *   This parameter can be one of the following values:
2720:common/lib.stm32/STM32F10x_StdPeriph_Driver/src/stm32f10x_tim.c ****   *     @arg TIM_ICSelection_DirectTI: TIM Input 3 is selected to be connected to IC3.
2721:common/lib.stm32/STM32F10x_StdPeriph_Driver/src/stm32f10x_tim.c ****   *     @arg TIM_ICSelection_IndirectTI: TIM Input 3 is selected to be connected to IC4.
2722:common/lib.stm32/STM32F10x_StdPeriph_Driver/src/stm32f10x_tim.c ****   *     @arg TIM_ICSelection_TRC: TIM Input 3 is selected to be connected to TRC.
2723:common/lib.stm32/STM32F10x_StdPeriph_Driver/src/stm32f10x_tim.c ****   * @param  TIM_ICFilter: Specifies the Input Capture Filter.
2724:common/lib.stm32/STM32F10x_StdPeriph_Driver/src/stm32f10x_tim.c ****   *   This parameter must be a value between 0x00 and 0x0F.
2725:common/lib.stm32/STM32F10x_StdPeriph_Driver/src/stm32f10x_tim.c ****   * @retval None
2726:common/lib.stm32/STM32F10x_StdPeriph_Driver/src/stm32f10x_tim.c ****   */
2727:common/lib.stm32/STM32F10x_StdPeriph_Driver/src/stm32f10x_tim.c **** static void TI3_Config(TIM_TypeDef* TIMx, uint16_t TIM_ICPolarity, uint16_t TIM_ICSelection,
2728:common/lib.stm32/STM32F10x_StdPeriph_Driver/src/stm32f10x_tim.c ****                        uint16_t TIM_ICFilter)
2729:common/lib.stm32/STM32F10x_StdPeriph_Driver/src/stm32f10x_tim.c **** {
 6805              		.loc 1 2729 1
 6806              		.cfi_startproc
 6807              		@ args = 0, pretend = 0, frame = 24
 6808              		@ frame_needed = 1, uses_anonymous_args = 0
 6809              		@ link register save eliminated.
 6810 0000 80B4     		push	{r7}
 6811              	.LCFI527:
 6812              		.cfi_def_cfa_offset 4
 6813              		.cfi_offset 7, -4
 6814 0002 87B0     		sub	sp, sp, #28
 6815              	.LCFI528:
 6816              		.cfi_def_cfa_offset 32
 6817 0004 00AF     		add	r7, sp, #0
 6818              	.LCFI529:
 6819              		.cfi_def_cfa_register 7
 6820 0006 F860     		str	r0, [r7, #12]
 6821 0008 0846     		mov	r0, r1
 6822 000a 1146     		mov	r1, r2
 6823 000c 1A46     		mov	r2, r3
 6824 000e 0346     		mov	r3, r0	@ movhi
 6825 0010 7B81     		strh	r3, [r7, #10]	@ movhi
 6826 0012 0B46     		mov	r3, r1	@ movhi
 6827 0014 3B81     		strh	r3, [r7, #8]	@ movhi
 6828 0016 1346     		mov	r3, r2	@ movhi
 6829 0018 FB80     		strh	r3, [r7, #6]	@ movhi
2730:common/lib.stm32/STM32F10x_StdPeriph_Driver/src/stm32f10x_tim.c ****   uint16_t tmpccmr2 = 0, tmpccer = 0, tmp = 0;
 6830              		.loc 1 2730 12
 6831 001a 0023     		movs	r3, #0
 6832 001c FB82     		strh	r3, [r7, #22]	@ movhi
 6833              		.loc 1 2730 26
 6834 001e 0023     		movs	r3, #0
 6835 0020 BB82     		strh	r3, [r7, #20]	@ movhi
 6836              		.loc 1 2730 39
 6837 0022 0023     		movs	r3, #0
 6838 0024 7B82     		strh	r3, [r7, #18]	@ movhi
2731:common/lib.stm32/STM32F10x_StdPeriph_Driver/src/stm32f10x_tim.c ****   /* Disable the Channel 3: Reset the CC3E Bit */
2732:common/lib.stm32/STM32F10x_StdPeriph_Driver/src/stm32f10x_tim.c ****   TIMx->CCER &= CCER_CC3E_Reset;
 6839              		.loc 1 2732 14
 6840 0026 FB68     		ldr	r3, [r7, #12]
 6841 0028 1B8C     		ldrh	r3, [r3, #32]	@ movhi
 6842 002a 9BB2     		uxth	r3, r3
 6843 002c 23F48073 		bic	r3, r3, #256
 6844 0030 9AB2     		uxth	r2, r3
 6845 0032 FB68     		ldr	r3, [r7, #12]
 6846 0034 1A84     		strh	r2, [r3, #32]	@ movhi
2733:common/lib.stm32/STM32F10x_StdPeriph_Driver/src/stm32f10x_tim.c ****   tmpccmr2 = TIMx->CCMR2;
 6847              		.loc 1 2733 12
 6848 0036 FB68     		ldr	r3, [r7, #12]
 6849 0038 9B8B     		ldrh	r3, [r3, #28]	@ movhi
 6850 003a FB82     		strh	r3, [r7, #22]	@ movhi
2734:common/lib.stm32/STM32F10x_StdPeriph_Driver/src/stm32f10x_tim.c ****   tmpccer = TIMx->CCER;
 6851              		.loc 1 2734 11
 6852 003c FB68     		ldr	r3, [r7, #12]
 6853 003e 1B8C     		ldrh	r3, [r3, #32]	@ movhi
 6854 0040 BB82     		strh	r3, [r7, #20]	@ movhi
2735:common/lib.stm32/STM32F10x_StdPeriph_Driver/src/stm32f10x_tim.c ****   tmp = (uint16_t)(TIM_ICPolarity << 8);
 6855              		.loc 1 2735 7
 6856 0042 7B89     		ldrh	r3, [r7, #10]	@ movhi
 6857 0044 1B02     		lsls	r3, r3, #8
 6858 0046 7B82     		strh	r3, [r7, #18]	@ movhi
2736:common/lib.stm32/STM32F10x_StdPeriph_Driver/src/stm32f10x_tim.c ****   /* Select the Input and set the filter */
2737:common/lib.stm32/STM32F10x_StdPeriph_Driver/src/stm32f10x_tim.c ****   tmpccmr2 &= CCMR_CC13S_Mask & CCMR_IC13F_Mask;
 6859              		.loc 1 2737 12
 6860 0048 FB8A     		ldrh	r3, [r7, #22]	@ movhi
 6861 004a 23F0F303 		bic	r3, r3, #243
 6862 004e FB82     		strh	r3, [r7, #22]	@ movhi
2738:common/lib.stm32/STM32F10x_StdPeriph_Driver/src/stm32f10x_tim.c ****   tmpccmr2 |= (uint16_t)(TIM_ICSelection | (uint16_t)(TIM_ICFilter << (uint16_t)4));
 6863              		.loc 1 2738 44
 6864 0050 FB88     		ldrh	r3, [r7, #6]	@ movhi
 6865 0052 1B01     		lsls	r3, r3, #4
 6866 0054 9AB2     		uxth	r2, r3
 6867              		.loc 1 2738 15
 6868 0056 3B89     		ldrh	r3, [r7, #8]	@ movhi
 6869 0058 1343     		orrs	r3, r3, r2
 6870 005a 9AB2     		uxth	r2, r3
 6871              		.loc 1 2738 12
 6872 005c FB8A     		ldrh	r3, [r7, #22]	@ movhi
 6873 005e 1343     		orrs	r3, r3, r2
 6874 0060 FB82     		strh	r3, [r7, #22]	@ movhi
2739:common/lib.stm32/STM32F10x_StdPeriph_Driver/src/stm32f10x_tim.c ****   /* Select the Polarity and set the CC3E Bit */
2740:common/lib.stm32/STM32F10x_StdPeriph_Driver/src/stm32f10x_tim.c ****   tmpccer &= CCER_CC3P_Reset;
 6875              		.loc 1 2740 11
 6876 0062 BB8A     		ldrh	r3, [r7, #20]	@ movhi
 6877 0064 23F40073 		bic	r3, r3, #512
 6878 0068 BB82     		strh	r3, [r7, #20]	@ movhi
2741:common/lib.stm32/STM32F10x_StdPeriph_Driver/src/stm32f10x_tim.c ****   tmpccer |= (uint16_t)(tmp | (uint16_t)CCER_CC3E_Set);
 6879              		.loc 1 2741 11
 6880 006a 7A8A     		ldrh	r2, [r7, #18]	@ movhi
 6881 006c BB8A     		ldrh	r3, [r7, #20]	@ movhi
 6882 006e 1343     		orrs	r3, r3, r2
 6883 0070 9BB2     		uxth	r3, r3
 6884 0072 43F48073 		orr	r3, r3, #256
 6885 0076 BB82     		strh	r3, [r7, #20]	@ movhi
2742:common/lib.stm32/STM32F10x_StdPeriph_Driver/src/stm32f10x_tim.c ****   /* Write to TIMx CCMR2 and CCER registers */
2743:common/lib.stm32/STM32F10x_StdPeriph_Driver/src/stm32f10x_tim.c ****   TIMx->CCMR2 = tmpccmr2;
 6886              		.loc 1 2743 15
 6887 0078 FB68     		ldr	r3, [r7, #12]
 6888 007a FA8A     		ldrh	r2, [r7, #22]	@ movhi
 6889 007c 9A83     		strh	r2, [r3, #28]	@ movhi
2744:common/lib.stm32/STM32F10x_StdPeriph_Driver/src/stm32f10x_tim.c ****   TIMx->CCER = tmpccer;
 6890              		.loc 1 2744 14
 6891 007e FB68     		ldr	r3, [r7, #12]
 6892 0080 BA8A     		ldrh	r2, [r7, #20]	@ movhi
 6893 0082 1A84     		strh	r2, [r3, #32]	@ movhi
2745:common/lib.stm32/STM32F10x_StdPeriph_Driver/src/stm32f10x_tim.c **** }
 6894              		.loc 1 2745 1
 6895 0084 00BF     		nop
 6896 0086 1C37     		adds	r7, r7, #28
 6897              	.LCFI530:
 6898              		.cfi_def_cfa_offset 4
 6899 0088 BD46     		mov	sp, r7
 6900              	.LCFI531:
 6901              		.cfi_def_cfa_register 13
 6902              		@ sp needed
 6903 008a 80BC     		pop	{r7}
 6904              	.LCFI532:
 6905              		.cfi_restore 7
 6906              		.cfi_def_cfa_offset 0
 6907 008c 7047     		bx	lr
 6908              		.cfi_endproc
 6909              	.LFE116:
 6911              		.section	.text.TI4_Config,"ax",%progbits
 6912              		.align	1
 6913              		.syntax unified
 6914              		.thumb
 6915              		.thumb_func
 6917              	TI4_Config:
 6918              	.LFB117:
2746:common/lib.stm32/STM32F10x_StdPeriph_Driver/src/stm32f10x_tim.c **** 
2747:common/lib.stm32/STM32F10x_StdPeriph_Driver/src/stm32f10x_tim.c **** /**
2748:common/lib.stm32/STM32F10x_StdPeriph_Driver/src/stm32f10x_tim.c ****   * @brief  Configure the TI1 as Input.
2749:common/lib.stm32/STM32F10x_StdPeriph_Driver/src/stm32f10x_tim.c ****   * @param  TIMx: where x can be 1, 2, 3, 4, 5 or 8 to select the TIM peripheral.
2750:common/lib.stm32/STM32F10x_StdPeriph_Driver/src/stm32f10x_tim.c ****   * @param  TIM_ICPolarity : The Input Polarity.
2751:common/lib.stm32/STM32F10x_StdPeriph_Driver/src/stm32f10x_tim.c ****   *   This parameter can be one of the following values:
2752:common/lib.stm32/STM32F10x_StdPeriph_Driver/src/stm32f10x_tim.c ****   *     @arg TIM_ICPolarity_Rising
2753:common/lib.stm32/STM32F10x_StdPeriph_Driver/src/stm32f10x_tim.c ****   *     @arg TIM_ICPolarity_Falling
2754:common/lib.stm32/STM32F10x_StdPeriph_Driver/src/stm32f10x_tim.c ****   * @param  TIM_ICSelection: specifies the input to be used.
2755:common/lib.stm32/STM32F10x_StdPeriph_Driver/src/stm32f10x_tim.c ****   *   This parameter can be one of the following values:
2756:common/lib.stm32/STM32F10x_StdPeriph_Driver/src/stm32f10x_tim.c ****   *     @arg TIM_ICSelection_DirectTI: TIM Input 4 is selected to be connected to IC4.
2757:common/lib.stm32/STM32F10x_StdPeriph_Driver/src/stm32f10x_tim.c ****   *     @arg TIM_ICSelection_IndirectTI: TIM Input 4 is selected to be connected to IC3.
2758:common/lib.stm32/STM32F10x_StdPeriph_Driver/src/stm32f10x_tim.c ****   *     @arg TIM_ICSelection_TRC: TIM Input 4 is selected to be connected to TRC.
2759:common/lib.stm32/STM32F10x_StdPeriph_Driver/src/stm32f10x_tim.c ****   * @param  TIM_ICFilter: Specifies the Input Capture Filter.
2760:common/lib.stm32/STM32F10x_StdPeriph_Driver/src/stm32f10x_tim.c ****   *   This parameter must be a value between 0x00 and 0x0F.
2761:common/lib.stm32/STM32F10x_StdPeriph_Driver/src/stm32f10x_tim.c ****   * @retval None
2762:common/lib.stm32/STM32F10x_StdPeriph_Driver/src/stm32f10x_tim.c ****   */
2763:common/lib.stm32/STM32F10x_StdPeriph_Driver/src/stm32f10x_tim.c **** static void TI4_Config(TIM_TypeDef* TIMx, uint16_t TIM_ICPolarity, uint16_t TIM_ICSelection,
2764:common/lib.stm32/STM32F10x_StdPeriph_Driver/src/stm32f10x_tim.c ****                        uint16_t TIM_ICFilter)
2765:common/lib.stm32/STM32F10x_StdPeriph_Driver/src/stm32f10x_tim.c **** {
 6919              		.loc 1 2765 1
 6920              		.cfi_startproc
 6921              		@ args = 0, pretend = 0, frame = 24
 6922              		@ frame_needed = 1, uses_anonymous_args = 0
 6923              		@ link register save eliminated.
 6924 0000 80B4     		push	{r7}
 6925              	.LCFI533:
 6926              		.cfi_def_cfa_offset 4
 6927              		.cfi_offset 7, -4
 6928 0002 87B0     		sub	sp, sp, #28
 6929              	.LCFI534:
 6930              		.cfi_def_cfa_offset 32
 6931 0004 00AF     		add	r7, sp, #0
 6932              	.LCFI535:
 6933              		.cfi_def_cfa_register 7
 6934 0006 F860     		str	r0, [r7, #12]
 6935 0008 0846     		mov	r0, r1
 6936 000a 1146     		mov	r1, r2
 6937 000c 1A46     		mov	r2, r3
 6938 000e 0346     		mov	r3, r0	@ movhi
 6939 0010 7B81     		strh	r3, [r7, #10]	@ movhi
 6940 0012 0B46     		mov	r3, r1	@ movhi
 6941 0014 3B81     		strh	r3, [r7, #8]	@ movhi
 6942 0016 1346     		mov	r3, r2	@ movhi
 6943 0018 FB80     		strh	r3, [r7, #6]	@ movhi
2766:common/lib.stm32/STM32F10x_StdPeriph_Driver/src/stm32f10x_tim.c ****   uint16_t tmpccmr2 = 0, tmpccer = 0, tmp = 0;
 6944              		.loc 1 2766 12
 6945 001a 0023     		movs	r3, #0
 6946 001c FB82     		strh	r3, [r7, #22]	@ movhi
 6947              		.loc 1 2766 26
 6948 001e 0023     		movs	r3, #0
 6949 0020 BB82     		strh	r3, [r7, #20]	@ movhi
 6950              		.loc 1 2766 39
 6951 0022 0023     		movs	r3, #0
 6952 0024 7B82     		strh	r3, [r7, #18]	@ movhi
2767:common/lib.stm32/STM32F10x_StdPeriph_Driver/src/stm32f10x_tim.c **** 
2768:common/lib.stm32/STM32F10x_StdPeriph_Driver/src/stm32f10x_tim.c ****   /* Disable the Channel 4: Reset the CC4E Bit */
2769:common/lib.stm32/STM32F10x_StdPeriph_Driver/src/stm32f10x_tim.c ****   TIMx->CCER &= CCER_CC4E_Reset;
 6953              		.loc 1 2769 14
 6954 0026 FB68     		ldr	r3, [r7, #12]
 6955 0028 1B8C     		ldrh	r3, [r3, #32]	@ movhi
 6956 002a 9BB2     		uxth	r3, r3
 6957 002c 23F48053 		bic	r3, r3, #4096
 6958 0030 9AB2     		uxth	r2, r3
 6959 0032 FB68     		ldr	r3, [r7, #12]
 6960 0034 1A84     		strh	r2, [r3, #32]	@ movhi
2770:common/lib.stm32/STM32F10x_StdPeriph_Driver/src/stm32f10x_tim.c ****   tmpccmr2 = TIMx->CCMR2;
 6961              		.loc 1 2770 12
 6962 0036 FB68     		ldr	r3, [r7, #12]
 6963 0038 9B8B     		ldrh	r3, [r3, #28]	@ movhi
 6964 003a FB82     		strh	r3, [r7, #22]	@ movhi
2771:common/lib.stm32/STM32F10x_StdPeriph_Driver/src/stm32f10x_tim.c ****   tmpccer = TIMx->CCER;
 6965              		.loc 1 2771 11
 6966 003c FB68     		ldr	r3, [r7, #12]
 6967 003e 1B8C     		ldrh	r3, [r3, #32]	@ movhi
 6968 0040 BB82     		strh	r3, [r7, #20]	@ movhi
2772:common/lib.stm32/STM32F10x_StdPeriph_Driver/src/stm32f10x_tim.c ****   tmp = (uint16_t)(TIM_ICPolarity << 12);
 6969              		.loc 1 2772 7
 6970 0042 7B89     		ldrh	r3, [r7, #10]	@ movhi
 6971 0044 1B03     		lsls	r3, r3, #12
 6972 0046 7B82     		strh	r3, [r7, #18]	@ movhi
2773:common/lib.stm32/STM32F10x_StdPeriph_Driver/src/stm32f10x_tim.c **** 
2774:common/lib.stm32/STM32F10x_StdPeriph_Driver/src/stm32f10x_tim.c ****   /* Select the Input and set the filter */
2775:common/lib.stm32/STM32F10x_StdPeriph_Driver/src/stm32f10x_tim.c ****   tmpccmr2 &= CCMR_CC24S_Mask & CCMR_IC24F_Mask;
 6973              		.loc 1 2775 12
 6974 0048 FB8A     		ldrh	r3, [r7, #22]	@ movhi
 6975 004a 23F44073 		bic	r3, r3, #768
 6976 004e 1B05     		lsls	r3, r3, #20
 6977 0050 1B0D     		lsrs	r3, r3, #20
 6978 0052 FB82     		strh	r3, [r7, #22]	@ movhi
2776:common/lib.stm32/STM32F10x_StdPeriph_Driver/src/stm32f10x_tim.c ****   tmpccmr2 |= (uint16_t)(TIM_ICSelection << 8);
 6979              		.loc 1 2776 15
 6980 0054 3B89     		ldrh	r3, [r7, #8]	@ movhi
 6981 0056 1B02     		lsls	r3, r3, #8
 6982 0058 9AB2     		uxth	r2, r3
 6983              		.loc 1 2776 12
 6984 005a FB8A     		ldrh	r3, [r7, #22]	@ movhi
 6985 005c 1343     		orrs	r3, r3, r2
 6986 005e FB82     		strh	r3, [r7, #22]	@ movhi
2777:common/lib.stm32/STM32F10x_StdPeriph_Driver/src/stm32f10x_tim.c ****   tmpccmr2 |= (uint16_t)(TIM_ICFilter << 12);
 6987              		.loc 1 2777 15
 6988 0060 FB88     		ldrh	r3, [r7, #6]	@ movhi
 6989 0062 1B03     		lsls	r3, r3, #12
 6990 0064 9AB2     		uxth	r2, r3
 6991              		.loc 1 2777 12
 6992 0066 FB8A     		ldrh	r3, [r7, #22]	@ movhi
 6993 0068 1343     		orrs	r3, r3, r2
 6994 006a FB82     		strh	r3, [r7, #22]	@ movhi
2778:common/lib.stm32/STM32F10x_StdPeriph_Driver/src/stm32f10x_tim.c **** 
2779:common/lib.stm32/STM32F10x_StdPeriph_Driver/src/stm32f10x_tim.c ****   /* Select the Polarity and set the CC4E Bit */
2780:common/lib.stm32/STM32F10x_StdPeriph_Driver/src/stm32f10x_tim.c ****   tmpccer &= CCER_CC4P_Reset;
 6995              		.loc 1 2780 11
 6996 006c BB8A     		ldrh	r3, [r7, #20]	@ movhi
 6997 006e 23F40053 		bic	r3, r3, #8192
 6998 0072 BB82     		strh	r3, [r7, #20]	@ movhi
2781:common/lib.stm32/STM32F10x_StdPeriph_Driver/src/stm32f10x_tim.c ****   tmpccer |= (uint16_t)(tmp | (uint16_t)CCER_CC4E_Set);
 6999              		.loc 1 2781 11
 7000 0074 7A8A     		ldrh	r2, [r7, #18]	@ movhi
 7001 0076 BB8A     		ldrh	r3, [r7, #20]	@ movhi
 7002 0078 1343     		orrs	r3, r3, r2
 7003 007a 9BB2     		uxth	r3, r3
 7004 007c 43F48053 		orr	r3, r3, #4096
 7005 0080 BB82     		strh	r3, [r7, #20]	@ movhi
2782:common/lib.stm32/STM32F10x_StdPeriph_Driver/src/stm32f10x_tim.c ****   /* Write to TIMx CCMR2 and CCER registers */
2783:common/lib.stm32/STM32F10x_StdPeriph_Driver/src/stm32f10x_tim.c ****   TIMx->CCMR2 = tmpccmr2;
 7006              		.loc 1 2783 15
 7007 0082 FB68     		ldr	r3, [r7, #12]
 7008 0084 FA8A     		ldrh	r2, [r7, #22]	@ movhi
 7009 0086 9A83     		strh	r2, [r3, #28]	@ movhi
2784:common/lib.stm32/STM32F10x_StdPeriph_Driver/src/stm32f10x_tim.c ****   TIMx->CCER = tmpccer ;
 7010              		.loc 1 2784 14
 7011 0088 FB68     		ldr	r3, [r7, #12]
 7012 008a BA8A     		ldrh	r2, [r7, #20]	@ movhi
 7013 008c 1A84     		strh	r2, [r3, #32]	@ movhi
2785:common/lib.stm32/STM32F10x_StdPeriph_Driver/src/stm32f10x_tim.c **** }
 7014              		.loc 1 2785 1
 7015 008e 00BF     		nop
 7016 0090 1C37     		adds	r7, r7, #28
 7017              	.LCFI536:
 7018              		.cfi_def_cfa_offset 4
 7019 0092 BD46     		mov	sp, r7
 7020              	.LCFI537:
 7021              		.cfi_def_cfa_register 13
 7022              		@ sp needed
 7023 0094 80BC     		pop	{r7}
 7024              	.LCFI538:
 7025              		.cfi_restore 7
 7026              		.cfi_def_cfa_offset 0
 7027 0096 7047     		bx	lr
 7028              		.cfi_endproc
 7029              	.LFE117:
 7031              		.text
 7032              	.Letext0:
 7033              		.file 2 "c:\\program files (x86)\\gnu arm embedded toolchain\\10 2021.10\\arm-none-eabi\\include\\
 7034              		.file 3 "c:\\program files (x86)\\gnu arm embedded toolchain\\10 2021.10\\arm-none-eabi\\include\\
 7035              		.file 4 "common/lib.stm32/CMSIS/Core/CM3/stm32f10x.h"
 7036              		.file 5 "common/lib.stm32/STM32F10x_StdPeriph_Driver/inc/stm32f10x_tim.h"
 7037              		.file 6 "common/lib.stm32/STM32F10x_StdPeriph_Driver/inc/stm32f10x_rcc.h"
DEFINED SYMBOLS
                            *ABS*:00000000 stm32f10x_tim.c
C:\Users\Admin\AppData\Local\Temp\cc5VIWeZ.s:18     .text.TIM_DeInit:00000000 $t
C:\Users\Admin\AppData\Local\Temp\cc5VIWeZ.s:24     .text.TIM_DeInit:00000000 TIM_DeInit
C:\Users\Admin\AppData\Local\Temp\cc5VIWeZ.s:213    .text.TIM_DeInit:000000e8 $d
C:\Users\Admin\AppData\Local\Temp\cc5VIWeZ.s:226    .text.TIM_TimeBaseInit:00000000 $t
C:\Users\Admin\AppData\Local\Temp\cc5VIWeZ.s:232    .text.TIM_TimeBaseInit:00000000 TIM_TimeBaseInit
C:\Users\Admin\AppData\Local\Temp\cc5VIWeZ.s:328    .text.TIM_TimeBaseInit:00000070 $d
C:\Users\Admin\AppData\Local\Temp\cc5VIWeZ.s:334    .text.TIM_OC1Init:00000000 $t
C:\Users\Admin\AppData\Local\Temp\cc5VIWeZ.s:340    .text.TIM_OC1Init:00000000 TIM_OC1Init
C:\Users\Admin\AppData\Local\Temp\cc5VIWeZ.s:512    .text.TIM_OC1Init:000000ec $d
C:\Users\Admin\AppData\Local\Temp\cc5VIWeZ.s:518    .text.TIM_OC2Init:00000000 $t
C:\Users\Admin\AppData\Local\Temp\cc5VIWeZ.s:524    .text.TIM_OC2Init:00000000 TIM_OC2Init
C:\Users\Admin\AppData\Local\Temp\cc5VIWeZ.s:717    .text.TIM_OC2Init:00000108 $d
C:\Users\Admin\AppData\Local\Temp\cc5VIWeZ.s:723    .text.TIM_OC3Init:00000000 $t
C:\Users\Admin\AppData\Local\Temp\cc5VIWeZ.s:729    .text.TIM_OC3Init:00000000 TIM_OC3Init
C:\Users\Admin\AppData\Local\Temp\cc5VIWeZ.s:919    .text.TIM_OC3Init:00000104 $d
C:\Users\Admin\AppData\Local\Temp\cc5VIWeZ.s:925    .text.TIM_OC4Init:00000000 $t
C:\Users\Admin\AppData\Local\Temp\cc5VIWeZ.s:931    .text.TIM_OC4Init:00000000 TIM_OC4Init
C:\Users\Admin\AppData\Local\Temp\cc5VIWeZ.s:1078   .text.TIM_OC4Init:000000c0 $d
C:\Users\Admin\AppData\Local\Temp\cc5VIWeZ.s:1084   .text.TIM_ICInit:00000000 $t
C:\Users\Admin\AppData\Local\Temp\cc5VIWeZ.s:1090   .text.TIM_ICInit:00000000 TIM_ICInit
C:\Users\Admin\AppData\Local\Temp\cc5VIWeZ.s:1227   .text.TIM_ICInit:000000a8 $d
C:\Users\Admin\AppData\Local\Temp\cc5VIWeZ.s:6576   .text.TI1_Config:00000000 TI1_Config
C:\Users\Admin\AppData\Local\Temp\cc5VIWeZ.s:5729   .text.TIM_SetIC1Prescaler:00000000 TIM_SetIC1Prescaler
C:\Users\Admin\AppData\Local\Temp\cc5VIWeZ.s:6683   .text.TI2_Config:00000000 TI2_Config
C:\Users\Admin\AppData\Local\Temp\cc5VIWeZ.s:5790   .text.TIM_SetIC2Prescaler:00000000 TIM_SetIC2Prescaler
C:\Users\Admin\AppData\Local\Temp\cc5VIWeZ.s:6803   .text.TI3_Config:00000000 TI3_Config
C:\Users\Admin\AppData\Local\Temp\cc5VIWeZ.s:5855   .text.TIM_SetIC3Prescaler:00000000 TIM_SetIC3Prescaler
C:\Users\Admin\AppData\Local\Temp\cc5VIWeZ.s:6917   .text.TI4_Config:00000000 TI4_Config
C:\Users\Admin\AppData\Local\Temp\cc5VIWeZ.s:5916   .text.TIM_SetIC4Prescaler:00000000 TIM_SetIC4Prescaler
C:\Users\Admin\AppData\Local\Temp\cc5VIWeZ.s:1239   .text.TIM_PWMIConfig:00000000 $t
C:\Users\Admin\AppData\Local\Temp\cc5VIWeZ.s:1245   .text.TIM_PWMIConfig:00000000 TIM_PWMIConfig
C:\Users\Admin\AppData\Local\Temp\cc5VIWeZ.s:1396   .text.TIM_PWMIConfig:000000b8 $d
C:\Users\Admin\AppData\Local\Temp\cc5VIWeZ.s:1404   .text.TIM_BDTRConfig:00000000 $t
C:\Users\Admin\AppData\Local\Temp\cc5VIWeZ.s:1410   .text.TIM_BDTRConfig:00000000 TIM_BDTRConfig
C:\Users\Admin\AppData\Local\Temp\cc5VIWeZ.s:1488   .text.TIM_TimeBaseStructInit:00000000 $t
C:\Users\Admin\AppData\Local\Temp\cc5VIWeZ.s:1494   .text.TIM_TimeBaseStructInit:00000000 TIM_TimeBaseStructInit
C:\Users\Admin\AppData\Local\Temp\cc5VIWeZ.s:1550   .text.TIM_OCStructInit:00000000 $t
C:\Users\Admin\AppData\Local\Temp\cc5VIWeZ.s:1556   .text.TIM_OCStructInit:00000000 TIM_OCStructInit
C:\Users\Admin\AppData\Local\Temp\cc5VIWeZ.s:1624   .text.TIM_ICStructInit:00000000 $t
C:\Users\Admin\AppData\Local\Temp\cc5VIWeZ.s:1630   .text.TIM_ICStructInit:00000000 TIM_ICStructInit
C:\Users\Admin\AppData\Local\Temp\cc5VIWeZ.s:1686   .text.TIM_BDTRStructInit:00000000 $t
C:\Users\Admin\AppData\Local\Temp\cc5VIWeZ.s:1692   .text.TIM_BDTRStructInit:00000000 TIM_BDTRStructInit
C:\Users\Admin\AppData\Local\Temp\cc5VIWeZ.s:1756   .text.TIM_Cmd:00000000 $t
C:\Users\Admin\AppData\Local\Temp\cc5VIWeZ.s:1762   .text.TIM_Cmd:00000000 TIM_Cmd
C:\Users\Admin\AppData\Local\Temp\cc5VIWeZ.s:1825   .text.TIM_CtrlPWMOutputs:00000000 $t
C:\Users\Admin\AppData\Local\Temp\cc5VIWeZ.s:1831   .text.TIM_CtrlPWMOutputs:00000000 TIM_CtrlPWMOutputs
C:\Users\Admin\AppData\Local\Temp\cc5VIWeZ.s:1894   .text.TIM_ITConfig:00000000 $t
C:\Users\Admin\AppData\Local\Temp\cc5VIWeZ.s:1900   .text.TIM_ITConfig:00000000 TIM_ITConfig
C:\Users\Admin\AppData\Local\Temp\cc5VIWeZ.s:1970   .text.TIM_GenerateEvent:00000000 $t
C:\Users\Admin\AppData\Local\Temp\cc5VIWeZ.s:1976   .text.TIM_GenerateEvent:00000000 TIM_GenerateEvent
C:\Users\Admin\AppData\Local\Temp\cc5VIWeZ.s:2018   .text.TIM_DMAConfig:00000000 $t
C:\Users\Admin\AppData\Local\Temp\cc5VIWeZ.s:2024   .text.TIM_DMAConfig:00000000 TIM_DMAConfig
C:\Users\Admin\AppData\Local\Temp\cc5VIWeZ.s:2071   .text.TIM_DMACmd:00000000 $t
C:\Users\Admin\AppData\Local\Temp\cc5VIWeZ.s:2077   .text.TIM_DMACmd:00000000 TIM_DMACmd
C:\Users\Admin\AppData\Local\Temp\cc5VIWeZ.s:2147   .text.TIM_InternalClockConfig:00000000 $t
C:\Users\Admin\AppData\Local\Temp\cc5VIWeZ.s:2153   .text.TIM_InternalClockConfig:00000000 TIM_InternalClockConfig
C:\Users\Admin\AppData\Local\Temp\cc5VIWeZ.s:2197   .text.TIM_ITRxExternalClockConfig:00000000 $t
C:\Users\Admin\AppData\Local\Temp\cc5VIWeZ.s:2203   .text.TIM_ITRxExternalClockConfig:00000000 TIM_ITRxExternalClockConfig
C:\Users\Admin\AppData\Local\Temp\cc5VIWeZ.s:2251   .text.TIM_ITRxExternalClockConfig:00000030 $d
C:\Users\Admin\AppData\Local\Temp\cc5VIWeZ.s:2711   .text.TIM_SelectInputTrigger:00000000 TIM_SelectInputTrigger
C:\Users\Admin\AppData\Local\Temp\cc5VIWeZ.s:2256   .text.TIM_TIxExternalClockConfig:00000000 $t
C:\Users\Admin\AppData\Local\Temp\cc5VIWeZ.s:2262   .text.TIM_TIxExternalClockConfig:00000000 TIM_TIxExternalClockConfig
C:\Users\Admin\AppData\Local\Temp\cc5VIWeZ.s:2341   .text.TIM_TIxExternalClockConfig:0000005c $d
C:\Users\Admin\AppData\Local\Temp\cc5VIWeZ.s:2348   .text.TIM_ETRClockMode1Config:00000000 $t
C:\Users\Admin\AppData\Local\Temp\cc5VIWeZ.s:2354   .text.TIM_ETRClockMode1Config:00000000 TIM_ETRClockMode1Config
C:\Users\Admin\AppData\Local\Temp\cc5VIWeZ.s:2430   .text.TIM_ETRClockMode1Config:00000060 $d
C:\Users\Admin\AppData\Local\Temp\cc5VIWeZ.s:2509   .text.TIM_ETRConfig:00000000 TIM_ETRConfig
C:\Users\Admin\AppData\Local\Temp\cc5VIWeZ.s:2435   .text.TIM_ETRClockMode2Config:00000000 $t
C:\Users\Admin\AppData\Local\Temp\cc5VIWeZ.s:2441   .text.TIM_ETRClockMode2Config:00000000 TIM_ETRClockMode2Config
C:\Users\Admin\AppData\Local\Temp\cc5VIWeZ.s:2498   .text.TIM_ETRClockMode2Config:00000040 $d
C:\Users\Admin\AppData\Local\Temp\cc5VIWeZ.s:2503   .text.TIM_ETRConfig:00000000 $t
C:\Users\Admin\AppData\Local\Temp\cc5VIWeZ.s:2585   .text.TIM_PrescalerConfig:00000000 $t
C:\Users\Admin\AppData\Local\Temp\cc5VIWeZ.s:2591   .text.TIM_PrescalerConfig:00000000 TIM_PrescalerConfig
C:\Users\Admin\AppData\Local\Temp\cc5VIWeZ.s:2639   .text.TIM_CounterModeConfig:00000000 $t
C:\Users\Admin\AppData\Local\Temp\cc5VIWeZ.s:2645   .text.TIM_CounterModeConfig:00000000 TIM_CounterModeConfig
C:\Users\Admin\AppData\Local\Temp\cc5VIWeZ.s:2705   .text.TIM_SelectInputTrigger:00000000 $t
C:\Users\Admin\AppData\Local\Temp\cc5VIWeZ.s:2769   .text.TIM_EncoderInterfaceConfig:00000000 $t
C:\Users\Admin\AppData\Local\Temp\cc5VIWeZ.s:2775   .text.TIM_EncoderInterfaceConfig:00000000 TIM_EncoderInterfaceConfig
C:\Users\Admin\AppData\Local\Temp\cc5VIWeZ.s:2888   .text.TIM_ForcedOC1Config:00000000 $t
C:\Users\Admin\AppData\Local\Temp\cc5VIWeZ.s:2894   .text.TIM_ForcedOC1Config:00000000 TIM_ForcedOC1Config
C:\Users\Admin\AppData\Local\Temp\cc5VIWeZ.s:2952   .text.TIM_ForcedOC2Config:00000000 $t
C:\Users\Admin\AppData\Local\Temp\cc5VIWeZ.s:2958   .text.TIM_ForcedOC2Config:00000000 TIM_ForcedOC2Config
C:\Users\Admin\AppData\Local\Temp\cc5VIWeZ.s:3019   .text.TIM_ForcedOC3Config:00000000 $t
C:\Users\Admin\AppData\Local\Temp\cc5VIWeZ.s:3025   .text.TIM_ForcedOC3Config:00000000 TIM_ForcedOC3Config
C:\Users\Admin\AppData\Local\Temp\cc5VIWeZ.s:3083   .text.TIM_ForcedOC4Config:00000000 $t
C:\Users\Admin\AppData\Local\Temp\cc5VIWeZ.s:3089   .text.TIM_ForcedOC4Config:00000000 TIM_ForcedOC4Config
C:\Users\Admin\AppData\Local\Temp\cc5VIWeZ.s:3150   .text.TIM_ARRPreloadConfig:00000000 $t
C:\Users\Admin\AppData\Local\Temp\cc5VIWeZ.s:3156   .text.TIM_ARRPreloadConfig:00000000 TIM_ARRPreloadConfig
C:\Users\Admin\AppData\Local\Temp\cc5VIWeZ.s:3219   .text.TIM_SelectCOM:00000000 $t
C:\Users\Admin\AppData\Local\Temp\cc5VIWeZ.s:3225   .text.TIM_SelectCOM:00000000 TIM_SelectCOM
C:\Users\Admin\AppData\Local\Temp\cc5VIWeZ.s:3287   .text.TIM_SelectCCDMA:00000000 $t
C:\Users\Admin\AppData\Local\Temp\cc5VIWeZ.s:3293   .text.TIM_SelectCCDMA:00000000 TIM_SelectCCDMA
C:\Users\Admin\AppData\Local\Temp\cc5VIWeZ.s:3355   .text.TIM_CCPreloadControl:00000000 $t
C:\Users\Admin\AppData\Local\Temp\cc5VIWeZ.s:3361   .text.TIM_CCPreloadControl:00000000 TIM_CCPreloadControl
C:\Users\Admin\AppData\Local\Temp\cc5VIWeZ.s:3423   .text.TIM_OC1PreloadConfig:00000000 $t
C:\Users\Admin\AppData\Local\Temp\cc5VIWeZ.s:3429   .text.TIM_OC1PreloadConfig:00000000 TIM_OC1PreloadConfig
C:\Users\Admin\AppData\Local\Temp\cc5VIWeZ.s:3487   .text.TIM_OC2PreloadConfig:00000000 $t
C:\Users\Admin\AppData\Local\Temp\cc5VIWeZ.s:3493   .text.TIM_OC2PreloadConfig:00000000 TIM_OC2PreloadConfig
C:\Users\Admin\AppData\Local\Temp\cc5VIWeZ.s:3554   .text.TIM_OC3PreloadConfig:00000000 $t
C:\Users\Admin\AppData\Local\Temp\cc5VIWeZ.s:3560   .text.TIM_OC3PreloadConfig:00000000 TIM_OC3PreloadConfig
C:\Users\Admin\AppData\Local\Temp\cc5VIWeZ.s:3618   .text.TIM_OC4PreloadConfig:00000000 $t
C:\Users\Admin\AppData\Local\Temp\cc5VIWeZ.s:3624   .text.TIM_OC4PreloadConfig:00000000 TIM_OC4PreloadConfig
C:\Users\Admin\AppData\Local\Temp\cc5VIWeZ.s:3685   .text.TIM_OC1FastConfig:00000000 $t
C:\Users\Admin\AppData\Local\Temp\cc5VIWeZ.s:3691   .text.TIM_OC1FastConfig:00000000 TIM_OC1FastConfig
C:\Users\Admin\AppData\Local\Temp\cc5VIWeZ.s:3749   .text.TIM_OC2FastConfig:00000000 $t
C:\Users\Admin\AppData\Local\Temp\cc5VIWeZ.s:3755   .text.TIM_OC2FastConfig:00000000 TIM_OC2FastConfig
C:\Users\Admin\AppData\Local\Temp\cc5VIWeZ.s:3816   .text.TIM_OC3FastConfig:00000000 $t
C:\Users\Admin\AppData\Local\Temp\cc5VIWeZ.s:3822   .text.TIM_OC3FastConfig:00000000 TIM_OC3FastConfig
C:\Users\Admin\AppData\Local\Temp\cc5VIWeZ.s:3880   .text.TIM_OC4FastConfig:00000000 $t
C:\Users\Admin\AppData\Local\Temp\cc5VIWeZ.s:3886   .text.TIM_OC4FastConfig:00000000 TIM_OC4FastConfig
C:\Users\Admin\AppData\Local\Temp\cc5VIWeZ.s:3947   .text.TIM_ClearOC1Ref:00000000 $t
C:\Users\Admin\AppData\Local\Temp\cc5VIWeZ.s:3953   .text.TIM_ClearOC1Ref:00000000 TIM_ClearOC1Ref
C:\Users\Admin\AppData\Local\Temp\cc5VIWeZ.s:4011   .text.TIM_ClearOC2Ref:00000000 $t
C:\Users\Admin\AppData\Local\Temp\cc5VIWeZ.s:4017   .text.TIM_ClearOC2Ref:00000000 TIM_ClearOC2Ref
C:\Users\Admin\AppData\Local\Temp\cc5VIWeZ.s:4078   .text.TIM_ClearOC3Ref:00000000 $t
C:\Users\Admin\AppData\Local\Temp\cc5VIWeZ.s:4084   .text.TIM_ClearOC3Ref:00000000 TIM_ClearOC3Ref
C:\Users\Admin\AppData\Local\Temp\cc5VIWeZ.s:4142   .text.TIM_ClearOC4Ref:00000000 $t
C:\Users\Admin\AppData\Local\Temp\cc5VIWeZ.s:4148   .text.TIM_ClearOC4Ref:00000000 TIM_ClearOC4Ref
C:\Users\Admin\AppData\Local\Temp\cc5VIWeZ.s:4209   .text.TIM_OC1PolarityConfig:00000000 $t
C:\Users\Admin\AppData\Local\Temp\cc5VIWeZ.s:4215   .text.TIM_OC1PolarityConfig:00000000 TIM_OC1PolarityConfig
C:\Users\Admin\AppData\Local\Temp\cc5VIWeZ.s:4273   .text.TIM_OC1NPolarityConfig:00000000 $t
C:\Users\Admin\AppData\Local\Temp\cc5VIWeZ.s:4279   .text.TIM_OC1NPolarityConfig:00000000 TIM_OC1NPolarityConfig
C:\Users\Admin\AppData\Local\Temp\cc5VIWeZ.s:4337   .text.TIM_OC2PolarityConfig:00000000 $t
C:\Users\Admin\AppData\Local\Temp\cc5VIWeZ.s:4343   .text.TIM_OC2PolarityConfig:00000000 TIM_OC2PolarityConfig
C:\Users\Admin\AppData\Local\Temp\cc5VIWeZ.s:4404   .text.TIM_OC2NPolarityConfig:00000000 $t
C:\Users\Admin\AppData\Local\Temp\cc5VIWeZ.s:4410   .text.TIM_OC2NPolarityConfig:00000000 TIM_OC2NPolarityConfig
C:\Users\Admin\AppData\Local\Temp\cc5VIWeZ.s:4471   .text.TIM_OC3PolarityConfig:00000000 $t
C:\Users\Admin\AppData\Local\Temp\cc5VIWeZ.s:4477   .text.TIM_OC3PolarityConfig:00000000 TIM_OC3PolarityConfig
C:\Users\Admin\AppData\Local\Temp\cc5VIWeZ.s:4538   .text.TIM_OC3NPolarityConfig:00000000 $t
C:\Users\Admin\AppData\Local\Temp\cc5VIWeZ.s:4544   .text.TIM_OC3NPolarityConfig:00000000 TIM_OC3NPolarityConfig
C:\Users\Admin\AppData\Local\Temp\cc5VIWeZ.s:4605   .text.TIM_OC4PolarityConfig:00000000 $t
C:\Users\Admin\AppData\Local\Temp\cc5VIWeZ.s:4611   .text.TIM_OC4PolarityConfig:00000000 TIM_OC4PolarityConfig
C:\Users\Admin\AppData\Local\Temp\cc5VIWeZ.s:4672   .text.TIM_CCxCmd:00000000 $t
C:\Users\Admin\AppData\Local\Temp\cc5VIWeZ.s:4678   .text.TIM_CCxCmd:00000000 TIM_CCxCmd
C:\Users\Admin\AppData\Local\Temp\cc5VIWeZ.s:4755   .text.TIM_CCxNCmd:00000000 $t
C:\Users\Admin\AppData\Local\Temp\cc5VIWeZ.s:4761   .text.TIM_CCxNCmd:00000000 TIM_CCxNCmd
C:\Users\Admin\AppData\Local\Temp\cc5VIWeZ.s:4838   .text.TIM_SelectOCxM:00000000 $t
C:\Users\Admin\AppData\Local\Temp\cc5VIWeZ.s:4844   .text.TIM_SelectOCxM:00000000 TIM_SelectOCxM
C:\Users\Admin\AppData\Local\Temp\cc5VIWeZ.s:4984   .text.TIM_UpdateDisableConfig:00000000 $t
C:\Users\Admin\AppData\Local\Temp\cc5VIWeZ.s:4990   .text.TIM_UpdateDisableConfig:00000000 TIM_UpdateDisableConfig
C:\Users\Admin\AppData\Local\Temp\cc5VIWeZ.s:5053   .text.TIM_UpdateRequestConfig:00000000 $t
C:\Users\Admin\AppData\Local\Temp\cc5VIWeZ.s:5059   .text.TIM_UpdateRequestConfig:00000000 TIM_UpdateRequestConfig
C:\Users\Admin\AppData\Local\Temp\cc5VIWeZ.s:5122   .text.TIM_SelectHallSensor:00000000 $t
C:\Users\Admin\AppData\Local\Temp\cc5VIWeZ.s:5128   .text.TIM_SelectHallSensor:00000000 TIM_SelectHallSensor
C:\Users\Admin\AppData\Local\Temp\cc5VIWeZ.s:5190   .text.TIM_SelectOnePulseMode:00000000 $t
C:\Users\Admin\AppData\Local\Temp\cc5VIWeZ.s:5196   .text.TIM_SelectOnePulseMode:00000000 TIM_SelectOnePulseMode
C:\Users\Admin\AppData\Local\Temp\cc5VIWeZ.s:5252   .text.TIM_SelectOutputTrigger:00000000 $t
C:\Users\Admin\AppData\Local\Temp\cc5VIWeZ.s:5258   .text.TIM_SelectOutputTrigger:00000000 TIM_SelectOutputTrigger
C:\Users\Admin\AppData\Local\Temp\cc5VIWeZ.s:5313   .text.TIM_SelectSlaveMode:00000000 $t
C:\Users\Admin\AppData\Local\Temp\cc5VIWeZ.s:5319   .text.TIM_SelectSlaveMode:00000000 TIM_SelectSlaveMode
C:\Users\Admin\AppData\Local\Temp\cc5VIWeZ.s:5374   .text.TIM_SelectMasterSlaveMode:00000000 $t
C:\Users\Admin\AppData\Local\Temp\cc5VIWeZ.s:5380   .text.TIM_SelectMasterSlaveMode:00000000 TIM_SelectMasterSlaveMode
C:\Users\Admin\AppData\Local\Temp\cc5VIWeZ.s:5435   .text.TIM_SetCounter:00000000 $t
C:\Users\Admin\AppData\Local\Temp\cc5VIWeZ.s:5441   .text.TIM_SetCounter:00000000 TIM_SetCounter
C:\Users\Admin\AppData\Local\Temp\cc5VIWeZ.s:5483   .text.TIM_SetAutoreload:00000000 $t
C:\Users\Admin\AppData\Local\Temp\cc5VIWeZ.s:5489   .text.TIM_SetAutoreload:00000000 TIM_SetAutoreload
C:\Users\Admin\AppData\Local\Temp\cc5VIWeZ.s:5531   .text.TIM_SetCompare1:00000000 $t
C:\Users\Admin\AppData\Local\Temp\cc5VIWeZ.s:5537   .text.TIM_SetCompare1:00000000 TIM_SetCompare1
C:\Users\Admin\AppData\Local\Temp\cc5VIWeZ.s:5579   .text.TIM_SetCompare2:00000000 $t
C:\Users\Admin\AppData\Local\Temp\cc5VIWeZ.s:5585   .text.TIM_SetCompare2:00000000 TIM_SetCompare2
C:\Users\Admin\AppData\Local\Temp\cc5VIWeZ.s:5627   .text.TIM_SetCompare3:00000000 $t
C:\Users\Admin\AppData\Local\Temp\cc5VIWeZ.s:5633   .text.TIM_SetCompare3:00000000 TIM_SetCompare3
C:\Users\Admin\AppData\Local\Temp\cc5VIWeZ.s:5675   .text.TIM_SetCompare4:00000000 $t
C:\Users\Admin\AppData\Local\Temp\cc5VIWeZ.s:5681   .text.TIM_SetCompare4:00000000 TIM_SetCompare4
C:\Users\Admin\AppData\Local\Temp\cc5VIWeZ.s:5723   .text.TIM_SetIC1Prescaler:00000000 $t
C:\Users\Admin\AppData\Local\Temp\cc5VIWeZ.s:5784   .text.TIM_SetIC2Prescaler:00000000 $t
C:\Users\Admin\AppData\Local\Temp\cc5VIWeZ.s:5849   .text.TIM_SetIC3Prescaler:00000000 $t
C:\Users\Admin\AppData\Local\Temp\cc5VIWeZ.s:5910   .text.TIM_SetIC4Prescaler:00000000 $t
C:\Users\Admin\AppData\Local\Temp\cc5VIWeZ.s:5975   .text.TIM_SetClockDivision:00000000 $t
C:\Users\Admin\AppData\Local\Temp\cc5VIWeZ.s:5981   .text.TIM_SetClockDivision:00000000 TIM_SetClockDivision
C:\Users\Admin\AppData\Local\Temp\cc5VIWeZ.s:6036   .text.TIM_GetCapture1:00000000 $t
C:\Users\Admin\AppData\Local\Temp\cc5VIWeZ.s:6042   .text.TIM_GetCapture1:00000000 TIM_GetCapture1
C:\Users\Admin\AppData\Local\Temp\cc5VIWeZ.s:6082   .text.TIM_GetCapture2:00000000 $t
C:\Users\Admin\AppData\Local\Temp\cc5VIWeZ.s:6088   .text.TIM_GetCapture2:00000000 TIM_GetCapture2
C:\Users\Admin\AppData\Local\Temp\cc5VIWeZ.s:6128   .text.TIM_GetCapture3:00000000 $t
C:\Users\Admin\AppData\Local\Temp\cc5VIWeZ.s:6134   .text.TIM_GetCapture3:00000000 TIM_GetCapture3
C:\Users\Admin\AppData\Local\Temp\cc5VIWeZ.s:6174   .text.TIM_GetCapture4:00000000 $t
C:\Users\Admin\AppData\Local\Temp\cc5VIWeZ.s:6180   .text.TIM_GetCapture4:00000000 TIM_GetCapture4
C:\Users\Admin\AppData\Local\Temp\cc5VIWeZ.s:6220   .text.TIM_GetCounter:00000000 $t
C:\Users\Admin\AppData\Local\Temp\cc5VIWeZ.s:6226   .text.TIM_GetCounter:00000000 TIM_GetCounter
C:\Users\Admin\AppData\Local\Temp\cc5VIWeZ.s:6266   .text.TIM_GetPrescaler:00000000 $t
C:\Users\Admin\AppData\Local\Temp\cc5VIWeZ.s:6272   .text.TIM_GetPrescaler:00000000 TIM_GetPrescaler
C:\Users\Admin\AppData\Local\Temp\cc5VIWeZ.s:6312   .text.TIM_GetFlagStatus:00000000 $t
C:\Users\Admin\AppData\Local\Temp\cc5VIWeZ.s:6318   .text.TIM_GetFlagStatus:00000000 TIM_GetFlagStatus
C:\Users\Admin\AppData\Local\Temp\cc5VIWeZ.s:6381   .text.TIM_ClearFlag:00000000 $t
C:\Users\Admin\AppData\Local\Temp\cc5VIWeZ.s:6387   .text.TIM_ClearFlag:00000000 TIM_ClearFlag
C:\Users\Admin\AppData\Local\Temp\cc5VIWeZ.s:6432   .text.TIM_GetITStatus:00000000 $t
C:\Users\Admin\AppData\Local\Temp\cc5VIWeZ.s:6438   .text.TIM_GetITStatus:00000000 TIM_GetITStatus
C:\Users\Admin\AppData\Local\Temp\cc5VIWeZ.s:6520   .text.TIM_ClearITPendingBit:00000000 $t
C:\Users\Admin\AppData\Local\Temp\cc5VIWeZ.s:6526   .text.TIM_ClearITPendingBit:00000000 TIM_ClearITPendingBit
C:\Users\Admin\AppData\Local\Temp\cc5VIWeZ.s:6571   .text.TI1_Config:00000000 $t
C:\Users\Admin\AppData\Local\Temp\cc5VIWeZ.s:6678   .text.TI2_Config:00000000 $t
C:\Users\Admin\AppData\Local\Temp\cc5VIWeZ.s:6798   .text.TI3_Config:00000000 $t
C:\Users\Admin\AppData\Local\Temp\cc5VIWeZ.s:6912   .text.TI4_Config:00000000 $t

UNDEFINED SYMBOLS
RCC_APB2PeriphResetCmd
RCC_APB1PeriphResetCmd
