   1              		.cpu cortex-m3
   2              		.arch armv7-m
   3              		.fpu softvfp
   4              		.eabi_attribute 20, 1
   5              		.eabi_attribute 21, 1
   6              		.eabi_attribute 23, 3
   7              		.eabi_attribute 24, 1
   8              		.eabi_attribute 25, 1
   9              		.eabi_attribute 26, 1
  10              		.eabi_attribute 30, 6
  11              		.eabi_attribute 34, 1
  12              		.eabi_attribute 18, 4
  13              		.file	"usb_regs.c"
  14              		.text
  15              	.Ltext0:
  16              		.cfi_sections	.debug_frame
  17              		.section	.text.SetCNTR,"ax",%progbits
  18              		.align	1
  19              		.global	SetCNTR
  20              		.syntax unified
  21              		.thumb
  22              		.thumb_func
  24              	SetCNTR:
  25              	.LFB27:
  26              		.file 1 "common/lib.stm32/STM32_USB-FS-Device_Driver/src/usb_regs.c"
   1:common/lib.stm32/STM32_USB-FS-Device_Driver/src/usb_regs.c **** /******************** (C) COPYRIGHT 2010 STMicroelectronics ********************
   2:common/lib.stm32/STM32_USB-FS-Device_Driver/src/usb_regs.c **** * File Name          : usb_regs.c
   3:common/lib.stm32/STM32_USB-FS-Device_Driver/src/usb_regs.c **** * Author             : MCD Application Team
   4:common/lib.stm32/STM32_USB-FS-Device_Driver/src/usb_regs.c **** * Version            : V3.2.1
   5:common/lib.stm32/STM32_USB-FS-Device_Driver/src/usb_regs.c **** * Date               : 07/05/2010
   6:common/lib.stm32/STM32_USB-FS-Device_Driver/src/usb_regs.c **** * Description        : Interface functions to USB cell registers
   7:common/lib.stm32/STM32_USB-FS-Device_Driver/src/usb_regs.c **** ********************************************************************************
   8:common/lib.stm32/STM32_USB-FS-Device_Driver/src/usb_regs.c **** * THE PRESENT FIRMWARE WHICH IS FOR GUIDANCE ONLY AIMS AT PROVIDING CUSTOMERS
   9:common/lib.stm32/STM32_USB-FS-Device_Driver/src/usb_regs.c **** * WITH CODING INFORMATION REGARDING THEIR PRODUCTS IN ORDER FOR THEM TO SAVE TIME.
  10:common/lib.stm32/STM32_USB-FS-Device_Driver/src/usb_regs.c **** * AS A RESULT, STMICROELECTRONICS SHALL NOT BE HELD LIABLE FOR ANY DIRECT,
  11:common/lib.stm32/STM32_USB-FS-Device_Driver/src/usb_regs.c **** * INDIRECT OR CONSEQUENTIAL DAMAGES WITH RESPECT TO ANY CLAIMS ARISING FROM THE
  12:common/lib.stm32/STM32_USB-FS-Device_Driver/src/usb_regs.c **** * CONTENT OF SUCH FIRMWARE AND/OR THE USE MADE BY CUSTOMERS OF THE CODING
  13:common/lib.stm32/STM32_USB-FS-Device_Driver/src/usb_regs.c **** * INFORMATION CONTAINED HEREIN IN CONNECTION WITH THEIR PRODUCTS.
  14:common/lib.stm32/STM32_USB-FS-Device_Driver/src/usb_regs.c **** *******************************************************************************/
  15:common/lib.stm32/STM32_USB-FS-Device_Driver/src/usb_regs.c **** #ifndef STM32F10X_CL
  16:common/lib.stm32/STM32_USB-FS-Device_Driver/src/usb_regs.c **** 
  17:common/lib.stm32/STM32_USB-FS-Device_Driver/src/usb_regs.c **** /* Includes ------------------------------------------------------------------*/
  18:common/lib.stm32/STM32_USB-FS-Device_Driver/src/usb_regs.c **** #include "usb_lib.h"
  19:common/lib.stm32/STM32_USB-FS-Device_Driver/src/usb_regs.c **** 
  20:common/lib.stm32/STM32_USB-FS-Device_Driver/src/usb_regs.c **** /* Private typedef -----------------------------------------------------------*/
  21:common/lib.stm32/STM32_USB-FS-Device_Driver/src/usb_regs.c **** /* Private define ------------------------------------------------------------*/
  22:common/lib.stm32/STM32_USB-FS-Device_Driver/src/usb_regs.c **** /* Private macro -------------------------------------------------------------*/
  23:common/lib.stm32/STM32_USB-FS-Device_Driver/src/usb_regs.c **** /* Private variables ---------------------------------------------------------*/
  24:common/lib.stm32/STM32_USB-FS-Device_Driver/src/usb_regs.c **** /* Extern variables ----------------------------------------------------------*/
  25:common/lib.stm32/STM32_USB-FS-Device_Driver/src/usb_regs.c **** /* Private function prototypes -----------------------------------------------*/
  26:common/lib.stm32/STM32_USB-FS-Device_Driver/src/usb_regs.c **** /* Private functions ---------------------------------------------------------*/
  27:common/lib.stm32/STM32_USB-FS-Device_Driver/src/usb_regs.c **** 
  28:common/lib.stm32/STM32_USB-FS-Device_Driver/src/usb_regs.c **** /*******************************************************************************
  29:common/lib.stm32/STM32_USB-FS-Device_Driver/src/usb_regs.c **** * Function Name  : SetCNTR.
  30:common/lib.stm32/STM32_USB-FS-Device_Driver/src/usb_regs.c **** * Description    : Set the CNTR register value.
  31:common/lib.stm32/STM32_USB-FS-Device_Driver/src/usb_regs.c **** * Input          : wRegValue: new register value.
  32:common/lib.stm32/STM32_USB-FS-Device_Driver/src/usb_regs.c **** * Output         : None.
  33:common/lib.stm32/STM32_USB-FS-Device_Driver/src/usb_regs.c **** * Return         : None.
  34:common/lib.stm32/STM32_USB-FS-Device_Driver/src/usb_regs.c **** *******************************************************************************/
  35:common/lib.stm32/STM32_USB-FS-Device_Driver/src/usb_regs.c **** void SetCNTR(uint16_t wRegValue)
  36:common/lib.stm32/STM32_USB-FS-Device_Driver/src/usb_regs.c **** {
  27              		.loc 1 36 1
  28              		.cfi_startproc
  29              		@ args = 0, pretend = 0, frame = 8
  30              		@ frame_needed = 1, uses_anonymous_args = 0
  31              		@ link register save eliminated.
  32 0000 80B4     		push	{r7}
  33              	.LCFI0:
  34              		.cfi_def_cfa_offset 4
  35              		.cfi_offset 7, -4
  36 0002 83B0     		sub	sp, sp, #12
  37              	.LCFI1:
  38              		.cfi_def_cfa_offset 16
  39 0004 00AF     		add	r7, sp, #0
  40              	.LCFI2:
  41              		.cfi_def_cfa_register 7
  42 0006 0346     		mov	r3, r0
  43 0008 FB80     		strh	r3, [r7, #6]	@ movhi
  37:common/lib.stm32/STM32_USB-FS-Device_Driver/src/usb_regs.c ****   _SetCNTR(wRegValue);
  44              		.loc 1 37 3
  45 000a 044A     		ldr	r2, .L2
  46 000c FB88     		ldrh	r3, [r7, #6]
  47 000e 1360     		str	r3, [r2]
  38:common/lib.stm32/STM32_USB-FS-Device_Driver/src/usb_regs.c **** }
  48              		.loc 1 38 1
  49 0010 00BF     		nop
  50 0012 0C37     		adds	r7, r7, #12
  51              	.LCFI3:
  52              		.cfi_def_cfa_offset 4
  53 0014 BD46     		mov	sp, r7
  54              	.LCFI4:
  55              		.cfi_def_cfa_register 13
  56              		@ sp needed
  57 0016 80BC     		pop	{r7}
  58              	.LCFI5:
  59              		.cfi_restore 7
  60              		.cfi_def_cfa_offset 0
  61 0018 7047     		bx	lr
  62              	.L3:
  63 001a 00BF     		.align	2
  64              	.L2:
  65 001c 405C0040 		.word	1073765440
  66              		.cfi_endproc
  67              	.LFE27:
  69              		.section	.text.GetCNTR,"ax",%progbits
  70              		.align	1
  71              		.global	GetCNTR
  72              		.syntax unified
  73              		.thumb
  74              		.thumb_func
  76              	GetCNTR:
  77              	.LFB28:
  39:common/lib.stm32/STM32_USB-FS-Device_Driver/src/usb_regs.c **** 
  40:common/lib.stm32/STM32_USB-FS-Device_Driver/src/usb_regs.c **** /*******************************************************************************
  41:common/lib.stm32/STM32_USB-FS-Device_Driver/src/usb_regs.c **** * Function Name  : GetCNTR.
  42:common/lib.stm32/STM32_USB-FS-Device_Driver/src/usb_regs.c **** * Description    : returns the CNTR register value.
  43:common/lib.stm32/STM32_USB-FS-Device_Driver/src/usb_regs.c **** * Input          : None.
  44:common/lib.stm32/STM32_USB-FS-Device_Driver/src/usb_regs.c **** * Output         : None.
  45:common/lib.stm32/STM32_USB-FS-Device_Driver/src/usb_regs.c **** * Return         : CNTR register Value.
  46:common/lib.stm32/STM32_USB-FS-Device_Driver/src/usb_regs.c **** *******************************************************************************/
  47:common/lib.stm32/STM32_USB-FS-Device_Driver/src/usb_regs.c **** uint16_t GetCNTR(void)
  48:common/lib.stm32/STM32_USB-FS-Device_Driver/src/usb_regs.c **** {
  78              		.loc 1 48 1
  79              		.cfi_startproc
  80              		@ args = 0, pretend = 0, frame = 0
  81              		@ frame_needed = 1, uses_anonymous_args = 0
  82              		@ link register save eliminated.
  83 0000 80B4     		push	{r7}
  84              	.LCFI6:
  85              		.cfi_def_cfa_offset 4
  86              		.cfi_offset 7, -4
  87 0002 00AF     		add	r7, sp, #0
  88              	.LCFI7:
  89              		.cfi_def_cfa_register 7
  49:common/lib.stm32/STM32_USB-FS-Device_Driver/src/usb_regs.c ****   return(_GetCNTR());
  90              		.loc 1 49 10
  91 0004 034B     		ldr	r3, .L6
  92 0006 1B68     		ldr	r3, [r3]
  93 0008 9BB2     		uxth	r3, r3
  50:common/lib.stm32/STM32_USB-FS-Device_Driver/src/usb_regs.c **** }
  94              		.loc 1 50 1
  95 000a 1846     		mov	r0, r3
  96 000c BD46     		mov	sp, r7
  97              	.LCFI8:
  98              		.cfi_def_cfa_register 13
  99              		@ sp needed
 100 000e 80BC     		pop	{r7}
 101              	.LCFI9:
 102              		.cfi_restore 7
 103              		.cfi_def_cfa_offset 0
 104 0010 7047     		bx	lr
 105              	.L7:
 106 0012 00BF     		.align	2
 107              	.L6:
 108 0014 405C0040 		.word	1073765440
 109              		.cfi_endproc
 110              	.LFE28:
 112              		.section	.text.SetISTR,"ax",%progbits
 113              		.align	1
 114              		.global	SetISTR
 115              		.syntax unified
 116              		.thumb
 117              		.thumb_func
 119              	SetISTR:
 120              	.LFB29:
  51:common/lib.stm32/STM32_USB-FS-Device_Driver/src/usb_regs.c **** 
  52:common/lib.stm32/STM32_USB-FS-Device_Driver/src/usb_regs.c **** /*******************************************************************************
  53:common/lib.stm32/STM32_USB-FS-Device_Driver/src/usb_regs.c **** * Function Name  : SetISTR.
  54:common/lib.stm32/STM32_USB-FS-Device_Driver/src/usb_regs.c **** * Description    : Set the ISTR register value.
  55:common/lib.stm32/STM32_USB-FS-Device_Driver/src/usb_regs.c **** * Input          : wRegValue: new register value.
  56:common/lib.stm32/STM32_USB-FS-Device_Driver/src/usb_regs.c **** * Output         : None.
  57:common/lib.stm32/STM32_USB-FS-Device_Driver/src/usb_regs.c **** * Return         : None.
  58:common/lib.stm32/STM32_USB-FS-Device_Driver/src/usb_regs.c **** *******************************************************************************/
  59:common/lib.stm32/STM32_USB-FS-Device_Driver/src/usb_regs.c **** void SetISTR(uint16_t wRegValue)
  60:common/lib.stm32/STM32_USB-FS-Device_Driver/src/usb_regs.c **** {
 121              		.loc 1 60 1
 122              		.cfi_startproc
 123              		@ args = 0, pretend = 0, frame = 8
 124              		@ frame_needed = 1, uses_anonymous_args = 0
 125              		@ link register save eliminated.
 126 0000 80B4     		push	{r7}
 127              	.LCFI10:
 128              		.cfi_def_cfa_offset 4
 129              		.cfi_offset 7, -4
 130 0002 83B0     		sub	sp, sp, #12
 131              	.LCFI11:
 132              		.cfi_def_cfa_offset 16
 133 0004 00AF     		add	r7, sp, #0
 134              	.LCFI12:
 135              		.cfi_def_cfa_register 7
 136 0006 0346     		mov	r3, r0
 137 0008 FB80     		strh	r3, [r7, #6]	@ movhi
  61:common/lib.stm32/STM32_USB-FS-Device_Driver/src/usb_regs.c ****   _SetISTR(wRegValue);
 138              		.loc 1 61 3
 139 000a 044A     		ldr	r2, .L9
 140 000c FB88     		ldrh	r3, [r7, #6]
 141 000e 1360     		str	r3, [r2]
  62:common/lib.stm32/STM32_USB-FS-Device_Driver/src/usb_regs.c **** }
 142              		.loc 1 62 1
 143 0010 00BF     		nop
 144 0012 0C37     		adds	r7, r7, #12
 145              	.LCFI13:
 146              		.cfi_def_cfa_offset 4
 147 0014 BD46     		mov	sp, r7
 148              	.LCFI14:
 149              		.cfi_def_cfa_register 13
 150              		@ sp needed
 151 0016 80BC     		pop	{r7}
 152              	.LCFI15:
 153              		.cfi_restore 7
 154              		.cfi_def_cfa_offset 0
 155 0018 7047     		bx	lr
 156              	.L10:
 157 001a 00BF     		.align	2
 158              	.L9:
 159 001c 445C0040 		.word	1073765444
 160              		.cfi_endproc
 161              	.LFE29:
 163              		.section	.text.GetISTR,"ax",%progbits
 164              		.align	1
 165              		.global	GetISTR
 166              		.syntax unified
 167              		.thumb
 168              		.thumb_func
 170              	GetISTR:
 171              	.LFB30:
  63:common/lib.stm32/STM32_USB-FS-Device_Driver/src/usb_regs.c **** 
  64:common/lib.stm32/STM32_USB-FS-Device_Driver/src/usb_regs.c **** /*******************************************************************************
  65:common/lib.stm32/STM32_USB-FS-Device_Driver/src/usb_regs.c **** * Function Name  : GetISTR
  66:common/lib.stm32/STM32_USB-FS-Device_Driver/src/usb_regs.c **** * Description    : Returns the ISTR register value.
  67:common/lib.stm32/STM32_USB-FS-Device_Driver/src/usb_regs.c **** * Input          : None.
  68:common/lib.stm32/STM32_USB-FS-Device_Driver/src/usb_regs.c **** * Output         : None.
  69:common/lib.stm32/STM32_USB-FS-Device_Driver/src/usb_regs.c **** * Return         : ISTR register Value
  70:common/lib.stm32/STM32_USB-FS-Device_Driver/src/usb_regs.c **** *******************************************************************************/
  71:common/lib.stm32/STM32_USB-FS-Device_Driver/src/usb_regs.c **** uint16_t GetISTR(void)
  72:common/lib.stm32/STM32_USB-FS-Device_Driver/src/usb_regs.c **** {
 172              		.loc 1 72 1
 173              		.cfi_startproc
 174              		@ args = 0, pretend = 0, frame = 0
 175              		@ frame_needed = 1, uses_anonymous_args = 0
 176              		@ link register save eliminated.
 177 0000 80B4     		push	{r7}
 178              	.LCFI16:
 179              		.cfi_def_cfa_offset 4
 180              		.cfi_offset 7, -4
 181 0002 00AF     		add	r7, sp, #0
 182              	.LCFI17:
 183              		.cfi_def_cfa_register 7
  73:common/lib.stm32/STM32_USB-FS-Device_Driver/src/usb_regs.c ****   return(_GetISTR());
 184              		.loc 1 73 10
 185 0004 034B     		ldr	r3, .L13
 186 0006 1B68     		ldr	r3, [r3]
 187 0008 9BB2     		uxth	r3, r3
  74:common/lib.stm32/STM32_USB-FS-Device_Driver/src/usb_regs.c **** }
 188              		.loc 1 74 1
 189 000a 1846     		mov	r0, r3
 190 000c BD46     		mov	sp, r7
 191              	.LCFI18:
 192              		.cfi_def_cfa_register 13
 193              		@ sp needed
 194 000e 80BC     		pop	{r7}
 195              	.LCFI19:
 196              		.cfi_restore 7
 197              		.cfi_def_cfa_offset 0
 198 0010 7047     		bx	lr
 199              	.L14:
 200 0012 00BF     		.align	2
 201              	.L13:
 202 0014 445C0040 		.word	1073765444
 203              		.cfi_endproc
 204              	.LFE30:
 206              		.section	.text.GetFNR,"ax",%progbits
 207              		.align	1
 208              		.global	GetFNR
 209              		.syntax unified
 210              		.thumb
 211              		.thumb_func
 213              	GetFNR:
 214              	.LFB31:
  75:common/lib.stm32/STM32_USB-FS-Device_Driver/src/usb_regs.c **** 
  76:common/lib.stm32/STM32_USB-FS-Device_Driver/src/usb_regs.c **** /*******************************************************************************
  77:common/lib.stm32/STM32_USB-FS-Device_Driver/src/usb_regs.c **** * Function Name  : GetFNR
  78:common/lib.stm32/STM32_USB-FS-Device_Driver/src/usb_regs.c **** * Description    : Returns the FNR register value.
  79:common/lib.stm32/STM32_USB-FS-Device_Driver/src/usb_regs.c **** * Input          : None.
  80:common/lib.stm32/STM32_USB-FS-Device_Driver/src/usb_regs.c **** * Output         : None.
  81:common/lib.stm32/STM32_USB-FS-Device_Driver/src/usb_regs.c **** * Return         : FNR register Value
  82:common/lib.stm32/STM32_USB-FS-Device_Driver/src/usb_regs.c **** *******************************************************************************/
  83:common/lib.stm32/STM32_USB-FS-Device_Driver/src/usb_regs.c **** uint16_t GetFNR(void)
  84:common/lib.stm32/STM32_USB-FS-Device_Driver/src/usb_regs.c **** {
 215              		.loc 1 84 1
 216              		.cfi_startproc
 217              		@ args = 0, pretend = 0, frame = 0
 218              		@ frame_needed = 1, uses_anonymous_args = 0
 219              		@ link register save eliminated.
 220 0000 80B4     		push	{r7}
 221              	.LCFI20:
 222              		.cfi_def_cfa_offset 4
 223              		.cfi_offset 7, -4
 224 0002 00AF     		add	r7, sp, #0
 225              	.LCFI21:
 226              		.cfi_def_cfa_register 7
  85:common/lib.stm32/STM32_USB-FS-Device_Driver/src/usb_regs.c ****   return(_GetFNR());
 227              		.loc 1 85 10
 228 0004 034B     		ldr	r3, .L17
 229 0006 1B68     		ldr	r3, [r3]
 230 0008 9BB2     		uxth	r3, r3
  86:common/lib.stm32/STM32_USB-FS-Device_Driver/src/usb_regs.c **** }
 231              		.loc 1 86 1
 232 000a 1846     		mov	r0, r3
 233 000c BD46     		mov	sp, r7
 234              	.LCFI22:
 235              		.cfi_def_cfa_register 13
 236              		@ sp needed
 237 000e 80BC     		pop	{r7}
 238              	.LCFI23:
 239              		.cfi_restore 7
 240              		.cfi_def_cfa_offset 0
 241 0010 7047     		bx	lr
 242              	.L18:
 243 0012 00BF     		.align	2
 244              	.L17:
 245 0014 485C0040 		.word	1073765448
 246              		.cfi_endproc
 247              	.LFE31:
 249              		.section	.text.SetDADDR,"ax",%progbits
 250              		.align	1
 251              		.global	SetDADDR
 252              		.syntax unified
 253              		.thumb
 254              		.thumb_func
 256              	SetDADDR:
 257              	.LFB32:
  87:common/lib.stm32/STM32_USB-FS-Device_Driver/src/usb_regs.c **** 
  88:common/lib.stm32/STM32_USB-FS-Device_Driver/src/usb_regs.c **** /*******************************************************************************
  89:common/lib.stm32/STM32_USB-FS-Device_Driver/src/usb_regs.c **** * Function Name  : SetDADDR
  90:common/lib.stm32/STM32_USB-FS-Device_Driver/src/usb_regs.c **** * Description    : Set the DADDR register value.
  91:common/lib.stm32/STM32_USB-FS-Device_Driver/src/usb_regs.c **** * Input          : wRegValue: new register value.
  92:common/lib.stm32/STM32_USB-FS-Device_Driver/src/usb_regs.c **** * Output         : None.
  93:common/lib.stm32/STM32_USB-FS-Device_Driver/src/usb_regs.c **** * Return         : None.
  94:common/lib.stm32/STM32_USB-FS-Device_Driver/src/usb_regs.c **** *******************************************************************************/
  95:common/lib.stm32/STM32_USB-FS-Device_Driver/src/usb_regs.c **** void SetDADDR(uint16_t wRegValue)
  96:common/lib.stm32/STM32_USB-FS-Device_Driver/src/usb_regs.c **** {
 258              		.loc 1 96 1
 259              		.cfi_startproc
 260              		@ args = 0, pretend = 0, frame = 8
 261              		@ frame_needed = 1, uses_anonymous_args = 0
 262              		@ link register save eliminated.
 263 0000 80B4     		push	{r7}
 264              	.LCFI24:
 265              		.cfi_def_cfa_offset 4
 266              		.cfi_offset 7, -4
 267 0002 83B0     		sub	sp, sp, #12
 268              	.LCFI25:
 269              		.cfi_def_cfa_offset 16
 270 0004 00AF     		add	r7, sp, #0
 271              	.LCFI26:
 272              		.cfi_def_cfa_register 7
 273 0006 0346     		mov	r3, r0
 274 0008 FB80     		strh	r3, [r7, #6]	@ movhi
  97:common/lib.stm32/STM32_USB-FS-Device_Driver/src/usb_regs.c ****   _SetDADDR(wRegValue);
 275              		.loc 1 97 3
 276 000a 044A     		ldr	r2, .L20
 277 000c FB88     		ldrh	r3, [r7, #6]
 278 000e 1360     		str	r3, [r2]
  98:common/lib.stm32/STM32_USB-FS-Device_Driver/src/usb_regs.c **** }
 279              		.loc 1 98 1
 280 0010 00BF     		nop
 281 0012 0C37     		adds	r7, r7, #12
 282              	.LCFI27:
 283              		.cfi_def_cfa_offset 4
 284 0014 BD46     		mov	sp, r7
 285              	.LCFI28:
 286              		.cfi_def_cfa_register 13
 287              		@ sp needed
 288 0016 80BC     		pop	{r7}
 289              	.LCFI29:
 290              		.cfi_restore 7
 291              		.cfi_def_cfa_offset 0
 292 0018 7047     		bx	lr
 293              	.L21:
 294 001a 00BF     		.align	2
 295              	.L20:
 296 001c 4C5C0040 		.word	1073765452
 297              		.cfi_endproc
 298              	.LFE32:
 300              		.section	.text.GetDADDR,"ax",%progbits
 301              		.align	1
 302              		.global	GetDADDR
 303              		.syntax unified
 304              		.thumb
 305              		.thumb_func
 307              	GetDADDR:
 308              	.LFB33:
  99:common/lib.stm32/STM32_USB-FS-Device_Driver/src/usb_regs.c **** 
 100:common/lib.stm32/STM32_USB-FS-Device_Driver/src/usb_regs.c **** /*******************************************************************************
 101:common/lib.stm32/STM32_USB-FS-Device_Driver/src/usb_regs.c **** * Function Name  : GetDADDR
 102:common/lib.stm32/STM32_USB-FS-Device_Driver/src/usb_regs.c **** * Description    : Returns the DADDR register value.
 103:common/lib.stm32/STM32_USB-FS-Device_Driver/src/usb_regs.c **** * Input          : None.
 104:common/lib.stm32/STM32_USB-FS-Device_Driver/src/usb_regs.c **** * Output         : None.
 105:common/lib.stm32/STM32_USB-FS-Device_Driver/src/usb_regs.c **** * Return         : DADDR register Value
 106:common/lib.stm32/STM32_USB-FS-Device_Driver/src/usb_regs.c **** *******************************************************************************/
 107:common/lib.stm32/STM32_USB-FS-Device_Driver/src/usb_regs.c **** uint16_t GetDADDR(void)
 108:common/lib.stm32/STM32_USB-FS-Device_Driver/src/usb_regs.c **** {
 309              		.loc 1 108 1
 310              		.cfi_startproc
 311              		@ args = 0, pretend = 0, frame = 0
 312              		@ frame_needed = 1, uses_anonymous_args = 0
 313              		@ link register save eliminated.
 314 0000 80B4     		push	{r7}
 315              	.LCFI30:
 316              		.cfi_def_cfa_offset 4
 317              		.cfi_offset 7, -4
 318 0002 00AF     		add	r7, sp, #0
 319              	.LCFI31:
 320              		.cfi_def_cfa_register 7
 109:common/lib.stm32/STM32_USB-FS-Device_Driver/src/usb_regs.c ****   return(_GetDADDR());
 321              		.loc 1 109 10
 322 0004 034B     		ldr	r3, .L24
 323 0006 1B68     		ldr	r3, [r3]
 324 0008 9BB2     		uxth	r3, r3
 110:common/lib.stm32/STM32_USB-FS-Device_Driver/src/usb_regs.c **** }
 325              		.loc 1 110 1
 326 000a 1846     		mov	r0, r3
 327 000c BD46     		mov	sp, r7
 328              	.LCFI32:
 329              		.cfi_def_cfa_register 13
 330              		@ sp needed
 331 000e 80BC     		pop	{r7}
 332              	.LCFI33:
 333              		.cfi_restore 7
 334              		.cfi_def_cfa_offset 0
 335 0010 7047     		bx	lr
 336              	.L25:
 337 0012 00BF     		.align	2
 338              	.L24:
 339 0014 4C5C0040 		.word	1073765452
 340              		.cfi_endproc
 341              	.LFE33:
 343              		.section	.text.SetBTABLE,"ax",%progbits
 344              		.align	1
 345              		.global	SetBTABLE
 346              		.syntax unified
 347              		.thumb
 348              		.thumb_func
 350              	SetBTABLE:
 351              	.LFB34:
 111:common/lib.stm32/STM32_USB-FS-Device_Driver/src/usb_regs.c **** 
 112:common/lib.stm32/STM32_USB-FS-Device_Driver/src/usb_regs.c **** /*******************************************************************************
 113:common/lib.stm32/STM32_USB-FS-Device_Driver/src/usb_regs.c **** * Function Name  : SetBTABLE
 114:common/lib.stm32/STM32_USB-FS-Device_Driver/src/usb_regs.c **** * Description    : Set the BTABLE.
 115:common/lib.stm32/STM32_USB-FS-Device_Driver/src/usb_regs.c **** * Input          : wRegValue: New register value.
 116:common/lib.stm32/STM32_USB-FS-Device_Driver/src/usb_regs.c **** * Output         : None.
 117:common/lib.stm32/STM32_USB-FS-Device_Driver/src/usb_regs.c **** * Return         : None.
 118:common/lib.stm32/STM32_USB-FS-Device_Driver/src/usb_regs.c **** *******************************************************************************/
 119:common/lib.stm32/STM32_USB-FS-Device_Driver/src/usb_regs.c **** void SetBTABLE(uint16_t wRegValue)
 120:common/lib.stm32/STM32_USB-FS-Device_Driver/src/usb_regs.c **** {
 352              		.loc 1 120 1
 353              		.cfi_startproc
 354              		@ args = 0, pretend = 0, frame = 8
 355              		@ frame_needed = 1, uses_anonymous_args = 0
 356              		@ link register save eliminated.
 357 0000 80B4     		push	{r7}
 358              	.LCFI34:
 359              		.cfi_def_cfa_offset 4
 360              		.cfi_offset 7, -4
 361 0002 83B0     		sub	sp, sp, #12
 362              	.LCFI35:
 363              		.cfi_def_cfa_offset 16
 364 0004 00AF     		add	r7, sp, #0
 365              	.LCFI36:
 366              		.cfi_def_cfa_register 7
 367 0006 0346     		mov	r3, r0
 368 0008 FB80     		strh	r3, [r7, #6]	@ movhi
 121:common/lib.stm32/STM32_USB-FS-Device_Driver/src/usb_regs.c ****   _SetBTABLE(wRegValue);
 369              		.loc 1 121 3
 370 000a FA88     		ldrh	r2, [r7, #6]
 371 000c 0449     		ldr	r1, .L27
 372 000e 4FF6F873 		movw	r3, #65528
 373 0012 1340     		ands	r3, r3, r2
 374 0014 0B60     		str	r3, [r1]
 122:common/lib.stm32/STM32_USB-FS-Device_Driver/src/usb_regs.c **** }
 375              		.loc 1 122 1
 376 0016 00BF     		nop
 377 0018 0C37     		adds	r7, r7, #12
 378              	.LCFI37:
 379              		.cfi_def_cfa_offset 4
 380 001a BD46     		mov	sp, r7
 381              	.LCFI38:
 382              		.cfi_def_cfa_register 13
 383              		@ sp needed
 384 001c 80BC     		pop	{r7}
 385              	.LCFI39:
 386              		.cfi_restore 7
 387              		.cfi_def_cfa_offset 0
 388 001e 7047     		bx	lr
 389              	.L28:
 390              		.align	2
 391              	.L27:
 392 0020 505C0040 		.word	1073765456
 393              		.cfi_endproc
 394              	.LFE34:
 396              		.section	.text.GetBTABLE,"ax",%progbits
 397              		.align	1
 398              		.global	GetBTABLE
 399              		.syntax unified
 400              		.thumb
 401              		.thumb_func
 403              	GetBTABLE:
 404              	.LFB35:
 123:common/lib.stm32/STM32_USB-FS-Device_Driver/src/usb_regs.c **** 
 124:common/lib.stm32/STM32_USB-FS-Device_Driver/src/usb_regs.c **** /*******************************************************************************
 125:common/lib.stm32/STM32_USB-FS-Device_Driver/src/usb_regs.c **** * Function Name  : GetBTABLE.
 126:common/lib.stm32/STM32_USB-FS-Device_Driver/src/usb_regs.c **** * Description    : Returns the BTABLE register value.
 127:common/lib.stm32/STM32_USB-FS-Device_Driver/src/usb_regs.c **** * Input          : None. 
 128:common/lib.stm32/STM32_USB-FS-Device_Driver/src/usb_regs.c **** * Output         : None.
 129:common/lib.stm32/STM32_USB-FS-Device_Driver/src/usb_regs.c **** * Return         : BTABLE address.
 130:common/lib.stm32/STM32_USB-FS-Device_Driver/src/usb_regs.c **** *******************************************************************************/
 131:common/lib.stm32/STM32_USB-FS-Device_Driver/src/usb_regs.c **** uint16_t GetBTABLE(void)
 132:common/lib.stm32/STM32_USB-FS-Device_Driver/src/usb_regs.c **** {
 405              		.loc 1 132 1
 406              		.cfi_startproc
 407              		@ args = 0, pretend = 0, frame = 0
 408              		@ frame_needed = 1, uses_anonymous_args = 0
 409              		@ link register save eliminated.
 410 0000 80B4     		push	{r7}
 411              	.LCFI40:
 412              		.cfi_def_cfa_offset 4
 413              		.cfi_offset 7, -4
 414 0002 00AF     		add	r7, sp, #0
 415              	.LCFI41:
 416              		.cfi_def_cfa_register 7
 133:common/lib.stm32/STM32_USB-FS-Device_Driver/src/usb_regs.c ****   return(_GetBTABLE());
 417              		.loc 1 133 10
 418 0004 034B     		ldr	r3, .L31
 419 0006 1B68     		ldr	r3, [r3]
 420 0008 9BB2     		uxth	r3, r3
 134:common/lib.stm32/STM32_USB-FS-Device_Driver/src/usb_regs.c **** }
 421              		.loc 1 134 1
 422 000a 1846     		mov	r0, r3
 423 000c BD46     		mov	sp, r7
 424              	.LCFI42:
 425              		.cfi_def_cfa_register 13
 426              		@ sp needed
 427 000e 80BC     		pop	{r7}
 428              	.LCFI43:
 429              		.cfi_restore 7
 430              		.cfi_def_cfa_offset 0
 431 0010 7047     		bx	lr
 432              	.L32:
 433 0012 00BF     		.align	2
 434              	.L31:
 435 0014 505C0040 		.word	1073765456
 436              		.cfi_endproc
 437              	.LFE35:
 439              		.section	.text.SetENDPOINT,"ax",%progbits
 440              		.align	1
 441              		.global	SetENDPOINT
 442              		.syntax unified
 443              		.thumb
 444              		.thumb_func
 446              	SetENDPOINT:
 447              	.LFB36:
 135:common/lib.stm32/STM32_USB-FS-Device_Driver/src/usb_regs.c **** 
 136:common/lib.stm32/STM32_USB-FS-Device_Driver/src/usb_regs.c **** /*******************************************************************************
 137:common/lib.stm32/STM32_USB-FS-Device_Driver/src/usb_regs.c **** * Function Name  : SetENDPOINT
 138:common/lib.stm32/STM32_USB-FS-Device_Driver/src/usb_regs.c **** * Description    : Setthe Endpoint register value.
 139:common/lib.stm32/STM32_USB-FS-Device_Driver/src/usb_regs.c **** * Input          : bEpNum: Endpoint Number. 
 140:common/lib.stm32/STM32_USB-FS-Device_Driver/src/usb_regs.c **** *                  wRegValue.
 141:common/lib.stm32/STM32_USB-FS-Device_Driver/src/usb_regs.c **** * Output         : None.
 142:common/lib.stm32/STM32_USB-FS-Device_Driver/src/usb_regs.c **** * Return         : None.
 143:common/lib.stm32/STM32_USB-FS-Device_Driver/src/usb_regs.c **** *******************************************************************************/
 144:common/lib.stm32/STM32_USB-FS-Device_Driver/src/usb_regs.c **** void SetENDPOINT(uint8_t bEpNum, uint16_t wRegValue)
 145:common/lib.stm32/STM32_USB-FS-Device_Driver/src/usb_regs.c **** {
 448              		.loc 1 145 1
 449              		.cfi_startproc
 450              		@ args = 0, pretend = 0, frame = 8
 451              		@ frame_needed = 1, uses_anonymous_args = 0
 452              		@ link register save eliminated.
 453 0000 80B4     		push	{r7}
 454              	.LCFI44:
 455              		.cfi_def_cfa_offset 4
 456              		.cfi_offset 7, -4
 457 0002 83B0     		sub	sp, sp, #12
 458              	.LCFI45:
 459              		.cfi_def_cfa_offset 16
 460 0004 00AF     		add	r7, sp, #0
 461              	.LCFI46:
 462              		.cfi_def_cfa_register 7
 463 0006 0346     		mov	r3, r0
 464 0008 0A46     		mov	r2, r1
 465 000a FB71     		strb	r3, [r7, #7]
 466 000c 1346     		mov	r3, r2	@ movhi
 467 000e BB80     		strh	r3, [r7, #4]	@ movhi
 146:common/lib.stm32/STM32_USB-FS-Device_Driver/src/usb_regs.c ****   _SetENDPOINT(bEpNum, wRegValue);
 468              		.loc 1 146 3
 469 0010 FB79     		ldrb	r3, [r7, #7]	@ zero_extendqisi2
 470 0012 9B00     		lsls	r3, r3, #2
 471 0014 03F18043 		add	r3, r3, #1073741824
 472 0018 03F5B843 		add	r3, r3, #23552
 473 001c BA88     		ldrh	r2, [r7, #4]
 474 001e 1A60     		str	r2, [r3]
 147:common/lib.stm32/STM32_USB-FS-Device_Driver/src/usb_regs.c **** }
 475              		.loc 1 147 1
 476 0020 00BF     		nop
 477 0022 0C37     		adds	r7, r7, #12
 478              	.LCFI47:
 479              		.cfi_def_cfa_offset 4
 480 0024 BD46     		mov	sp, r7
 481              	.LCFI48:
 482              		.cfi_def_cfa_register 13
 483              		@ sp needed
 484 0026 80BC     		pop	{r7}
 485              	.LCFI49:
 486              		.cfi_restore 7
 487              		.cfi_def_cfa_offset 0
 488 0028 7047     		bx	lr
 489              		.cfi_endproc
 490              	.LFE36:
 492              		.section	.text.GetENDPOINT,"ax",%progbits
 493              		.align	1
 494              		.global	GetENDPOINT
 495              		.syntax unified
 496              		.thumb
 497              		.thumb_func
 499              	GetENDPOINT:
 500              	.LFB37:
 148:common/lib.stm32/STM32_USB-FS-Device_Driver/src/usb_regs.c **** 
 149:common/lib.stm32/STM32_USB-FS-Device_Driver/src/usb_regs.c **** /*******************************************************************************
 150:common/lib.stm32/STM32_USB-FS-Device_Driver/src/usb_regs.c **** * Function Name  : GetENDPOINT
 151:common/lib.stm32/STM32_USB-FS-Device_Driver/src/usb_regs.c **** * Description    : Return the Endpoint register value.
 152:common/lib.stm32/STM32_USB-FS-Device_Driver/src/usb_regs.c **** * Input          : bEpNum: Endpoint Number. 
 153:common/lib.stm32/STM32_USB-FS-Device_Driver/src/usb_regs.c **** * Output         : None.
 154:common/lib.stm32/STM32_USB-FS-Device_Driver/src/usb_regs.c **** * Return         : Endpoint register value.
 155:common/lib.stm32/STM32_USB-FS-Device_Driver/src/usb_regs.c **** *******************************************************************************/
 156:common/lib.stm32/STM32_USB-FS-Device_Driver/src/usb_regs.c **** uint16_t GetENDPOINT(uint8_t bEpNum)
 157:common/lib.stm32/STM32_USB-FS-Device_Driver/src/usb_regs.c **** {
 501              		.loc 1 157 1
 502              		.cfi_startproc
 503              		@ args = 0, pretend = 0, frame = 8
 504              		@ frame_needed = 1, uses_anonymous_args = 0
 505              		@ link register save eliminated.
 506 0000 80B4     		push	{r7}
 507              	.LCFI50:
 508              		.cfi_def_cfa_offset 4
 509              		.cfi_offset 7, -4
 510 0002 83B0     		sub	sp, sp, #12
 511              	.LCFI51:
 512              		.cfi_def_cfa_offset 16
 513 0004 00AF     		add	r7, sp, #0
 514              	.LCFI52:
 515              		.cfi_def_cfa_register 7
 516 0006 0346     		mov	r3, r0
 517 0008 FB71     		strb	r3, [r7, #7]
 158:common/lib.stm32/STM32_USB-FS-Device_Driver/src/usb_regs.c ****   return(_GetENDPOINT(bEpNum));
 518              		.loc 1 158 10
 519 000a FB79     		ldrb	r3, [r7, #7]	@ zero_extendqisi2
 520 000c 9B00     		lsls	r3, r3, #2
 521 000e 03F18043 		add	r3, r3, #1073741824
 522 0012 03F5B843 		add	r3, r3, #23552
 523 0016 1B68     		ldr	r3, [r3]
 524 0018 9BB2     		uxth	r3, r3
 159:common/lib.stm32/STM32_USB-FS-Device_Driver/src/usb_regs.c **** }
 525              		.loc 1 159 1
 526 001a 1846     		mov	r0, r3
 527 001c 0C37     		adds	r7, r7, #12
 528              	.LCFI53:
 529              		.cfi_def_cfa_offset 4
 530 001e BD46     		mov	sp, r7
 531              	.LCFI54:
 532              		.cfi_def_cfa_register 13
 533              		@ sp needed
 534 0020 80BC     		pop	{r7}
 535              	.LCFI55:
 536              		.cfi_restore 7
 537              		.cfi_def_cfa_offset 0
 538 0022 7047     		bx	lr
 539              		.cfi_endproc
 540              	.LFE37:
 542              		.section	.text.SetEPType,"ax",%progbits
 543              		.align	1
 544              		.global	SetEPType
 545              		.syntax unified
 546              		.thumb
 547              		.thumb_func
 549              	SetEPType:
 550              	.LFB38:
 160:common/lib.stm32/STM32_USB-FS-Device_Driver/src/usb_regs.c **** 
 161:common/lib.stm32/STM32_USB-FS-Device_Driver/src/usb_regs.c **** /*******************************************************************************
 162:common/lib.stm32/STM32_USB-FS-Device_Driver/src/usb_regs.c **** * Function Name  : SetEPType
 163:common/lib.stm32/STM32_USB-FS-Device_Driver/src/usb_regs.c **** * Description    : sets the type in the endpoint register.
 164:common/lib.stm32/STM32_USB-FS-Device_Driver/src/usb_regs.c **** * Input          : bEpNum: Endpoint Number. 
 165:common/lib.stm32/STM32_USB-FS-Device_Driver/src/usb_regs.c **** *                  wType: type definition.
 166:common/lib.stm32/STM32_USB-FS-Device_Driver/src/usb_regs.c **** * Output         : None.
 167:common/lib.stm32/STM32_USB-FS-Device_Driver/src/usb_regs.c **** * Return         : None.
 168:common/lib.stm32/STM32_USB-FS-Device_Driver/src/usb_regs.c **** *******************************************************************************/
 169:common/lib.stm32/STM32_USB-FS-Device_Driver/src/usb_regs.c **** void SetEPType(uint8_t bEpNum, uint16_t wType)
 170:common/lib.stm32/STM32_USB-FS-Device_Driver/src/usb_regs.c **** {
 551              		.loc 1 170 1
 552              		.cfi_startproc
 553              		@ args = 0, pretend = 0, frame = 8
 554              		@ frame_needed = 1, uses_anonymous_args = 0
 555              		@ link register save eliminated.
 556 0000 80B4     		push	{r7}
 557              	.LCFI56:
 558              		.cfi_def_cfa_offset 4
 559              		.cfi_offset 7, -4
 560 0002 83B0     		sub	sp, sp, #12
 561              	.LCFI57:
 562              		.cfi_def_cfa_offset 16
 563 0004 00AF     		add	r7, sp, #0
 564              	.LCFI58:
 565              		.cfi_def_cfa_register 7
 566 0006 0346     		mov	r3, r0
 567 0008 0A46     		mov	r2, r1
 568 000a FB71     		strb	r3, [r7, #7]
 569 000c 1346     		mov	r3, r2	@ movhi
 570 000e BB80     		strh	r3, [r7, #4]	@ movhi
 171:common/lib.stm32/STM32_USB-FS-Device_Driver/src/usb_regs.c ****   _SetEPType(bEpNum, wType);
 571              		.loc 1 171 3
 572 0010 FB79     		ldrb	r3, [r7, #7]	@ zero_extendqisi2
 573 0012 9B00     		lsls	r3, r3, #2
 574 0014 03F18043 		add	r3, r3, #1073741824
 575 0018 03F5B843 		add	r3, r3, #23552
 576 001c 1B68     		ldr	r3, [r3]
 577 001e 1BB2     		sxth	r3, r3
 578 0020 23F4EC43 		bic	r3, r3, #30208
 579 0024 23F07003 		bic	r3, r3, #112
 580 0028 1AB2     		sxth	r2, r3
 581 002a B7F90430 		ldrsh	r3, [r7, #4]
 582 002e 1343     		orrs	r3, r3, r2
 583 0030 1BB2     		sxth	r3, r3
 584 0032 9AB2     		uxth	r2, r3
 585 0034 FB79     		ldrb	r3, [r7, #7]	@ zero_extendqisi2
 586 0036 9B00     		lsls	r3, r3, #2
 587 0038 03F18043 		add	r3, r3, #1073741824
 588 003c 03F5B843 		add	r3, r3, #23552
 589 0040 1A60     		str	r2, [r3]
 172:common/lib.stm32/STM32_USB-FS-Device_Driver/src/usb_regs.c **** }
 590              		.loc 1 172 1
 591 0042 00BF     		nop
 592 0044 0C37     		adds	r7, r7, #12
 593              	.LCFI59:
 594              		.cfi_def_cfa_offset 4
 595 0046 BD46     		mov	sp, r7
 596              	.LCFI60:
 597              		.cfi_def_cfa_register 13
 598              		@ sp needed
 599 0048 80BC     		pop	{r7}
 600              	.LCFI61:
 601              		.cfi_restore 7
 602              		.cfi_def_cfa_offset 0
 603 004a 7047     		bx	lr
 604              		.cfi_endproc
 605              	.LFE38:
 607              		.section	.text.GetEPType,"ax",%progbits
 608              		.align	1
 609              		.global	GetEPType
 610              		.syntax unified
 611              		.thumb
 612              		.thumb_func
 614              	GetEPType:
 615              	.LFB39:
 173:common/lib.stm32/STM32_USB-FS-Device_Driver/src/usb_regs.c **** 
 174:common/lib.stm32/STM32_USB-FS-Device_Driver/src/usb_regs.c **** /*******************************************************************************
 175:common/lib.stm32/STM32_USB-FS-Device_Driver/src/usb_regs.c **** * Function Name  : GetEPType
 176:common/lib.stm32/STM32_USB-FS-Device_Driver/src/usb_regs.c **** * Description    : Returns the endpoint type.
 177:common/lib.stm32/STM32_USB-FS-Device_Driver/src/usb_regs.c **** * Input          : bEpNum: Endpoint Number. 
 178:common/lib.stm32/STM32_USB-FS-Device_Driver/src/usb_regs.c **** * Output         : None.
 179:common/lib.stm32/STM32_USB-FS-Device_Driver/src/usb_regs.c **** * Return         : Endpoint Type
 180:common/lib.stm32/STM32_USB-FS-Device_Driver/src/usb_regs.c **** *******************************************************************************/
 181:common/lib.stm32/STM32_USB-FS-Device_Driver/src/usb_regs.c **** uint16_t GetEPType(uint8_t bEpNum)
 182:common/lib.stm32/STM32_USB-FS-Device_Driver/src/usb_regs.c **** {
 616              		.loc 1 182 1
 617              		.cfi_startproc
 618              		@ args = 0, pretend = 0, frame = 8
 619              		@ frame_needed = 1, uses_anonymous_args = 0
 620              		@ link register save eliminated.
 621 0000 80B4     		push	{r7}
 622              	.LCFI62:
 623              		.cfi_def_cfa_offset 4
 624              		.cfi_offset 7, -4
 625 0002 83B0     		sub	sp, sp, #12
 626              	.LCFI63:
 627              		.cfi_def_cfa_offset 16
 628 0004 00AF     		add	r7, sp, #0
 629              	.LCFI64:
 630              		.cfi_def_cfa_register 7
 631 0006 0346     		mov	r3, r0
 632 0008 FB71     		strb	r3, [r7, #7]
 183:common/lib.stm32/STM32_USB-FS-Device_Driver/src/usb_regs.c ****   return(_GetEPType(bEpNum));
 633              		.loc 1 183 10
 634 000a FB79     		ldrb	r3, [r7, #7]	@ zero_extendqisi2
 635 000c 9B00     		lsls	r3, r3, #2
 636 000e 03F18043 		add	r3, r3, #1073741824
 637 0012 03F5B843 		add	r3, r3, #23552
 638 0016 1B68     		ldr	r3, [r3]
 639 0018 9BB2     		uxth	r3, r3
 640 001a 03F4C063 		and	r3, r3, #1536
 641 001e 9BB2     		uxth	r3, r3
 184:common/lib.stm32/STM32_USB-FS-Device_Driver/src/usb_regs.c **** }
 642              		.loc 1 184 1
 643 0020 1846     		mov	r0, r3
 644 0022 0C37     		adds	r7, r7, #12
 645              	.LCFI65:
 646              		.cfi_def_cfa_offset 4
 647 0024 BD46     		mov	sp, r7
 648              	.LCFI66:
 649              		.cfi_def_cfa_register 13
 650              		@ sp needed
 651 0026 80BC     		pop	{r7}
 652              	.LCFI67:
 653              		.cfi_restore 7
 654              		.cfi_def_cfa_offset 0
 655 0028 7047     		bx	lr
 656              		.cfi_endproc
 657              	.LFE39:
 659              		.section	.text.SetEPTxStatus,"ax",%progbits
 660              		.align	1
 661              		.global	SetEPTxStatus
 662              		.syntax unified
 663              		.thumb
 664              		.thumb_func
 666              	SetEPTxStatus:
 667              	.LFB40:
 185:common/lib.stm32/STM32_USB-FS-Device_Driver/src/usb_regs.c **** 
 186:common/lib.stm32/STM32_USB-FS-Device_Driver/src/usb_regs.c **** /*******************************************************************************
 187:common/lib.stm32/STM32_USB-FS-Device_Driver/src/usb_regs.c **** * Function Name  : SetEPTxStatus
 188:common/lib.stm32/STM32_USB-FS-Device_Driver/src/usb_regs.c **** * Description    : Set the status of Tx endpoint.
 189:common/lib.stm32/STM32_USB-FS-Device_Driver/src/usb_regs.c **** * Input          : bEpNum: Endpoint Number. 
 190:common/lib.stm32/STM32_USB-FS-Device_Driver/src/usb_regs.c **** *                  wState: new state.
 191:common/lib.stm32/STM32_USB-FS-Device_Driver/src/usb_regs.c **** * Output         : None.
 192:common/lib.stm32/STM32_USB-FS-Device_Driver/src/usb_regs.c **** * Return         : None.
 193:common/lib.stm32/STM32_USB-FS-Device_Driver/src/usb_regs.c **** *******************************************************************************/
 194:common/lib.stm32/STM32_USB-FS-Device_Driver/src/usb_regs.c **** void SetEPTxStatus(uint8_t bEpNum, uint16_t wState)
 195:common/lib.stm32/STM32_USB-FS-Device_Driver/src/usb_regs.c **** {
 668              		.loc 1 195 1
 669              		.cfi_startproc
 670              		@ args = 0, pretend = 0, frame = 8
 671              		@ frame_needed = 1, uses_anonymous_args = 0
 672              		@ link register save eliminated.
 673 0000 90B4     		push	{r4, r7}
 674              	.LCFI68:
 675              		.cfi_def_cfa_offset 8
 676              		.cfi_offset 4, -8
 677              		.cfi_offset 7, -4
 678 0002 82B0     		sub	sp, sp, #8
 679              	.LCFI69:
 680              		.cfi_def_cfa_offset 16
 681 0004 00AF     		add	r7, sp, #0
 682              	.LCFI70:
 683              		.cfi_def_cfa_register 7
 684 0006 0346     		mov	r3, r0
 685 0008 0A46     		mov	r2, r1
 686 000a FB71     		strb	r3, [r7, #7]
 687 000c 1346     		mov	r3, r2	@ movhi
 688 000e BB80     		strh	r3, [r7, #4]	@ movhi
 689              	.LBB2:
 196:common/lib.stm32/STM32_USB-FS-Device_Driver/src/usb_regs.c ****   _SetEPTxStatus(bEpNum, wState);
 690              		.loc 1 196 3
 691 0010 FB79     		ldrb	r3, [r7, #7]	@ zero_extendqisi2
 692 0012 9B00     		lsls	r3, r3, #2
 693 0014 03F18043 		add	r3, r3, #1073741824
 694 0018 03F5B843 		add	r3, r3, #23552
 695 001c 1B68     		ldr	r3, [r3]
 696 001e 9BB2     		uxth	r3, r3
 697 0020 23F4E043 		bic	r3, r3, #28672
 698 0024 23F04003 		bic	r3, r3, #64
 699 0028 9CB2     		uxth	r4, r3
 700 002a BB88     		ldrh	r3, [r7, #4]	@ movhi
 701 002c 03F01003 		and	r3, r3, #16
 702 0030 9BB2     		uxth	r3, r3
 703 0032 002B     		cmp	r3, #0
 704 0034 02D0     		beq	.L40
 705              		.loc 1 196 3 is_stmt 0 discriminator 1
 706 0036 84F01003 		eor	r3, r4, #16
 707 003a 9CB2     		uxth	r4, r3
 708              	.L40:
 709              		.loc 1 196 3 discriminator 3
 710 003c BB88     		ldrh	r3, [r7, #4]	@ movhi
 711 003e 03F02003 		and	r3, r3, #32
 712 0042 9BB2     		uxth	r3, r3
 713 0044 002B     		cmp	r3, #0
 714 0046 02D0     		beq	.L41
 715              		.loc 1 196 3 discriminator 4
 716 0048 84F02003 		eor	r3, r4, #32
 717 004c 9CB2     		uxth	r4, r3
 718              	.L41:
 719              		.loc 1 196 3 discriminator 6
 720 004e 074B     		ldr	r3, .L42
 721 0050 2343     		orrs	r3, r3, r4
 722 0052 9AB2     		uxth	r2, r3
 723 0054 FB79     		ldrb	r3, [r7, #7]	@ zero_extendqisi2
 724 0056 9B00     		lsls	r3, r3, #2
 725 0058 03F18043 		add	r3, r3, #1073741824
 726 005c 03F5B843 		add	r3, r3, #23552
 727 0060 1A60     		str	r2, [r3]
 728              	.LBE2:
 197:common/lib.stm32/STM32_USB-FS-Device_Driver/src/usb_regs.c **** }
 729              		.loc 1 197 1 is_stmt 1 discriminator 6
 730 0062 00BF     		nop
 731 0064 0837     		adds	r7, r7, #8
 732              	.LCFI71:
 733              		.cfi_def_cfa_offset 8
 734 0066 BD46     		mov	sp, r7
 735              	.LCFI72:
 736              		.cfi_def_cfa_register 13
 737              		@ sp needed
 738 0068 90BC     		pop	{r4, r7}
 739              	.LCFI73:
 740              		.cfi_restore 7
 741              		.cfi_restore 4
 742              		.cfi_def_cfa_offset 0
 743 006a 7047     		bx	lr
 744              	.L43:
 745              		.align	2
 746              	.L42:
 747 006c 8080FFFF 		.word	-32640
 748              		.cfi_endproc
 749              	.LFE40:
 751              		.section	.text.SetEPRxStatus,"ax",%progbits
 752              		.align	1
 753              		.global	SetEPRxStatus
 754              		.syntax unified
 755              		.thumb
 756              		.thumb_func
 758              	SetEPRxStatus:
 759              	.LFB41:
 198:common/lib.stm32/STM32_USB-FS-Device_Driver/src/usb_regs.c **** 
 199:common/lib.stm32/STM32_USB-FS-Device_Driver/src/usb_regs.c **** /*******************************************************************************
 200:common/lib.stm32/STM32_USB-FS-Device_Driver/src/usb_regs.c **** * Function Name  : SetEPRxStatus
 201:common/lib.stm32/STM32_USB-FS-Device_Driver/src/usb_regs.c **** * Description    : Set the status of Rx endpoint.
 202:common/lib.stm32/STM32_USB-FS-Device_Driver/src/usb_regs.c **** * Input          : bEpNum: Endpoint Number. 
 203:common/lib.stm32/STM32_USB-FS-Device_Driver/src/usb_regs.c **** *                  wState: new state.
 204:common/lib.stm32/STM32_USB-FS-Device_Driver/src/usb_regs.c **** * Output         : None.
 205:common/lib.stm32/STM32_USB-FS-Device_Driver/src/usb_regs.c **** * Return         : None.
 206:common/lib.stm32/STM32_USB-FS-Device_Driver/src/usb_regs.c **** *******************************************************************************/
 207:common/lib.stm32/STM32_USB-FS-Device_Driver/src/usb_regs.c **** void SetEPRxStatus(uint8_t bEpNum, uint16_t wState)
 208:common/lib.stm32/STM32_USB-FS-Device_Driver/src/usb_regs.c **** {
 760              		.loc 1 208 1
 761              		.cfi_startproc
 762              		@ args = 0, pretend = 0, frame = 8
 763              		@ frame_needed = 1, uses_anonymous_args = 0
 764              		@ link register save eliminated.
 765 0000 90B4     		push	{r4, r7}
 766              	.LCFI74:
 767              		.cfi_def_cfa_offset 8
 768              		.cfi_offset 4, -8
 769              		.cfi_offset 7, -4
 770 0002 82B0     		sub	sp, sp, #8
 771              	.LCFI75:
 772              		.cfi_def_cfa_offset 16
 773 0004 00AF     		add	r7, sp, #0
 774              	.LCFI76:
 775              		.cfi_def_cfa_register 7
 776 0006 0346     		mov	r3, r0
 777 0008 0A46     		mov	r2, r1
 778 000a FB71     		strb	r3, [r7, #7]
 779 000c 1346     		mov	r3, r2	@ movhi
 780 000e BB80     		strh	r3, [r7, #4]	@ movhi
 781              	.LBB3:
 209:common/lib.stm32/STM32_USB-FS-Device_Driver/src/usb_regs.c ****   _SetEPRxStatus(bEpNum, wState);
 782              		.loc 1 209 3
 783 0010 FB79     		ldrb	r3, [r7, #7]	@ zero_extendqisi2
 784 0012 9B00     		lsls	r3, r3, #2
 785 0014 03F18043 		add	r3, r3, #1073741824
 786 0018 03F5B843 		add	r3, r3, #23552
 787 001c 1B68     		ldr	r3, [r3]
 788 001e 9BB2     		uxth	r3, r3
 789 0020 23F48043 		bic	r3, r3, #16384
 790 0024 23F07003 		bic	r3, r3, #112
 791 0028 9CB2     		uxth	r4, r3
 792 002a BB88     		ldrh	r3, [r7, #4]	@ movhi
 793 002c 03F48053 		and	r3, r3, #4096
 794 0030 9BB2     		uxth	r3, r3
 795 0032 002B     		cmp	r3, #0
 796 0034 02D0     		beq	.L45
 797              		.loc 1 209 3 is_stmt 0 discriminator 1
 798 0036 84F48053 		eor	r3, r4, #4096
 799 003a 9CB2     		uxth	r4, r3
 800              	.L45:
 801              		.loc 1 209 3 discriminator 3
 802 003c BB88     		ldrh	r3, [r7, #4]	@ movhi
 803 003e 03F40053 		and	r3, r3, #8192
 804 0042 9BB2     		uxth	r3, r3
 805 0044 002B     		cmp	r3, #0
 806 0046 02D0     		beq	.L46
 807              		.loc 1 209 3 discriminator 4
 808 0048 84F40053 		eor	r3, r4, #8192
 809 004c 9CB2     		uxth	r4, r3
 810              	.L46:
 811              		.loc 1 209 3 discriminator 6
 812 004e 074B     		ldr	r3, .L47
 813 0050 2343     		orrs	r3, r3, r4
 814 0052 9AB2     		uxth	r2, r3
 815 0054 FB79     		ldrb	r3, [r7, #7]	@ zero_extendqisi2
 816 0056 9B00     		lsls	r3, r3, #2
 817 0058 03F18043 		add	r3, r3, #1073741824
 818 005c 03F5B843 		add	r3, r3, #23552
 819 0060 1A60     		str	r2, [r3]
 820              	.LBE3:
 210:common/lib.stm32/STM32_USB-FS-Device_Driver/src/usb_regs.c **** }
 821              		.loc 1 210 1 is_stmt 1 discriminator 6
 822 0062 00BF     		nop
 823 0064 0837     		adds	r7, r7, #8
 824              	.LCFI77:
 825              		.cfi_def_cfa_offset 8
 826 0066 BD46     		mov	sp, r7
 827              	.LCFI78:
 828              		.cfi_def_cfa_register 13
 829              		@ sp needed
 830 0068 90BC     		pop	{r4, r7}
 831              	.LCFI79:
 832              		.cfi_restore 7
 833              		.cfi_restore 4
 834              		.cfi_def_cfa_offset 0
 835 006a 7047     		bx	lr
 836              	.L48:
 837              		.align	2
 838              	.L47:
 839 006c 8080FFFF 		.word	-32640
 840              		.cfi_endproc
 841              	.LFE41:
 843              		.section	.text.SetDouBleBuffEPStall,"ax",%progbits
 844              		.align	1
 845              		.global	SetDouBleBuffEPStall
 846              		.syntax unified
 847              		.thumb
 848              		.thumb_func
 850              	SetDouBleBuffEPStall:
 851              	.LFB42:
 211:common/lib.stm32/STM32_USB-FS-Device_Driver/src/usb_regs.c **** 
 212:common/lib.stm32/STM32_USB-FS-Device_Driver/src/usb_regs.c **** /*******************************************************************************
 213:common/lib.stm32/STM32_USB-FS-Device_Driver/src/usb_regs.c **** * Function Name  : SetDouBleBuffEPStall
 214:common/lib.stm32/STM32_USB-FS-Device_Driver/src/usb_regs.c **** * Description    : sets the status for Double Buffer Endpoint to STALL
 215:common/lib.stm32/STM32_USB-FS-Device_Driver/src/usb_regs.c **** * Input          : bEpNum: Endpoint Number. 
 216:common/lib.stm32/STM32_USB-FS-Device_Driver/src/usb_regs.c **** *                  bDir: Endpoint direction.
 217:common/lib.stm32/STM32_USB-FS-Device_Driver/src/usb_regs.c **** * Output         : None.
 218:common/lib.stm32/STM32_USB-FS-Device_Driver/src/usb_regs.c **** * Return         : None.
 219:common/lib.stm32/STM32_USB-FS-Device_Driver/src/usb_regs.c **** *******************************************************************************/
 220:common/lib.stm32/STM32_USB-FS-Device_Driver/src/usb_regs.c **** void SetDouBleBuffEPStall(uint8_t bEpNum, uint8_t bDir)
 221:common/lib.stm32/STM32_USB-FS-Device_Driver/src/usb_regs.c **** {
 852              		.loc 1 221 1
 853              		.cfi_startproc
 854              		@ args = 0, pretend = 0, frame = 16
 855              		@ frame_needed = 1, uses_anonymous_args = 0
 856 0000 80B5     		push	{r7, lr}
 857              	.LCFI80:
 858              		.cfi_def_cfa_offset 8
 859              		.cfi_offset 7, -8
 860              		.cfi_offset 14, -4
 861 0002 84B0     		sub	sp, sp, #16
 862              	.LCFI81:
 863              		.cfi_def_cfa_offset 24
 864 0004 00AF     		add	r7, sp, #0
 865              	.LCFI82:
 866              		.cfi_def_cfa_register 7
 867 0006 0346     		mov	r3, r0
 868 0008 0A46     		mov	r2, r1
 869 000a FB71     		strb	r3, [r7, #7]
 870 000c 1346     		mov	r3, r2
 871 000e BB71     		strb	r3, [r7, #6]
 222:common/lib.stm32/STM32_USB-FS-Device_Driver/src/usb_regs.c ****   uint16_t Endpoint_DTOG_Status;
 223:common/lib.stm32/STM32_USB-FS-Device_Driver/src/usb_regs.c ****   Endpoint_DTOG_Status = GetENDPOINT(bEpNum);
 872              		.loc 1 223 26
 873 0010 FB79     		ldrb	r3, [r7, #7]	@ zero_extendqisi2
 874 0012 1846     		mov	r0, r3
 875 0014 114B     		ldr	r3, .L53
 876 0016 9847     		blx	r3
 877              	.LVL0:
 878 0018 0346     		mov	r3, r0
 879 001a FB81     		strh	r3, [r7, #14]	@ movhi
 224:common/lib.stm32/STM32_USB-FS-Device_Driver/src/usb_regs.c ****   if (bDir == EP_DBUF_OUT)
 880              		.loc 1 224 6
 881 001c BB79     		ldrb	r3, [r7, #6]	@ zero_extendqisi2
 882 001e 012B     		cmp	r3, #1
 883 0020 0AD1     		bne	.L50
 225:common/lib.stm32/STM32_USB-FS-Device_Driver/src/usb_regs.c ****   { /* OUT double buffered endpoint */
 226:common/lib.stm32/STM32_USB-FS-Device_Driver/src/usb_regs.c ****     _SetENDPOINT(bEpNum, Endpoint_DTOG_Status & ~EPRX_DTOG1);
 884              		.loc 1 226 5
 885 0022 FA89     		ldrh	r2, [r7, #14]
 886 0024 FB79     		ldrb	r3, [r7, #7]	@ zero_extendqisi2
 887 0026 9B00     		lsls	r3, r3, #2
 888 0028 03F18043 		add	r3, r3, #1073741824
 889 002c 03F5B843 		add	r3, r3, #23552
 890 0030 22F48052 		bic	r2, r2, #4096
 891 0034 1A60     		str	r2, [r3]
 227:common/lib.stm32/STM32_USB-FS-Device_Driver/src/usb_regs.c ****   }
 228:common/lib.stm32/STM32_USB-FS-Device_Driver/src/usb_regs.c ****   else if (bDir == EP_DBUF_IN)
 229:common/lib.stm32/STM32_USB-FS-Device_Driver/src/usb_regs.c ****   { /* IN double buffered endpoint */
 230:common/lib.stm32/STM32_USB-FS-Device_Driver/src/usb_regs.c ****     _SetENDPOINT(bEpNum, Endpoint_DTOG_Status & ~EPTX_DTOG1);
 231:common/lib.stm32/STM32_USB-FS-Device_Driver/src/usb_regs.c ****   }
 232:common/lib.stm32/STM32_USB-FS-Device_Driver/src/usb_regs.c **** }
 892              		.loc 1 232 1
 893 0036 0CE0     		b	.L52
 894              	.L50:
 228:common/lib.stm32/STM32_USB-FS-Device_Driver/src/usb_regs.c ****   { /* IN double buffered endpoint */
 895              		.loc 1 228 11
 896 0038 BB79     		ldrb	r3, [r7, #6]	@ zero_extendqisi2
 897 003a 022B     		cmp	r3, #2
 898 003c 09D1     		bne	.L52
 230:common/lib.stm32/STM32_USB-FS-Device_Driver/src/usb_regs.c ****   }
 899              		.loc 1 230 5
 900 003e FA89     		ldrh	r2, [r7, #14]
 901 0040 FB79     		ldrb	r3, [r7, #7]	@ zero_extendqisi2
 902 0042 9B00     		lsls	r3, r3, #2
 903 0044 03F18043 		add	r3, r3, #1073741824
 904 0048 03F5B843 		add	r3, r3, #23552
 905 004c 22F01002 		bic	r2, r2, #16
 906 0050 1A60     		str	r2, [r3]
 907              	.L52:
 908              		.loc 1 232 1
 909 0052 00BF     		nop
 910 0054 1037     		adds	r7, r7, #16
 911              	.LCFI83:
 912              		.cfi_def_cfa_offset 8
 913 0056 BD46     		mov	sp, r7
 914              	.LCFI84:
 915              		.cfi_def_cfa_register 13
 916              		@ sp needed
 917 0058 80BD     		pop	{r7, pc}
 918              	.L54:
 919 005a 00BF     		.align	2
 920              	.L53:
 921 005c 00000000 		.word	GetENDPOINT
 922              		.cfi_endproc
 923              	.LFE42:
 925              		.section	.text.GetEPTxStatus,"ax",%progbits
 926              		.align	1
 927              		.global	GetEPTxStatus
 928              		.syntax unified
 929              		.thumb
 930              		.thumb_func
 932              	GetEPTxStatus:
 933              	.LFB43:
 233:common/lib.stm32/STM32_USB-FS-Device_Driver/src/usb_regs.c **** 
 234:common/lib.stm32/STM32_USB-FS-Device_Driver/src/usb_regs.c **** /*******************************************************************************
 235:common/lib.stm32/STM32_USB-FS-Device_Driver/src/usb_regs.c **** * Function Name  : GetEPTxStatus
 236:common/lib.stm32/STM32_USB-FS-Device_Driver/src/usb_regs.c **** * Description    : Returns the endpoint Tx status.
 237:common/lib.stm32/STM32_USB-FS-Device_Driver/src/usb_regs.c **** * Input          : bEpNum: Endpoint Number. 
 238:common/lib.stm32/STM32_USB-FS-Device_Driver/src/usb_regs.c **** * Output         : None.
 239:common/lib.stm32/STM32_USB-FS-Device_Driver/src/usb_regs.c **** * Return         : Endpoint TX Status
 240:common/lib.stm32/STM32_USB-FS-Device_Driver/src/usb_regs.c **** *******************************************************************************/
 241:common/lib.stm32/STM32_USB-FS-Device_Driver/src/usb_regs.c **** uint16_t GetEPTxStatus(uint8_t bEpNum)
 242:common/lib.stm32/STM32_USB-FS-Device_Driver/src/usb_regs.c **** {
 934              		.loc 1 242 1
 935              		.cfi_startproc
 936              		@ args = 0, pretend = 0, frame = 8
 937              		@ frame_needed = 1, uses_anonymous_args = 0
 938              		@ link register save eliminated.
 939 0000 80B4     		push	{r7}
 940              	.LCFI85:
 941              		.cfi_def_cfa_offset 4
 942              		.cfi_offset 7, -4
 943 0002 83B0     		sub	sp, sp, #12
 944              	.LCFI86:
 945              		.cfi_def_cfa_offset 16
 946 0004 00AF     		add	r7, sp, #0
 947              	.LCFI87:
 948              		.cfi_def_cfa_register 7
 949 0006 0346     		mov	r3, r0
 950 0008 FB71     		strb	r3, [r7, #7]
 243:common/lib.stm32/STM32_USB-FS-Device_Driver/src/usb_regs.c ****   return(_GetEPTxStatus(bEpNum));
 951              		.loc 1 243 10
 952 000a FB79     		ldrb	r3, [r7, #7]	@ zero_extendqisi2
 953 000c 9B00     		lsls	r3, r3, #2
 954 000e 03F18043 		add	r3, r3, #1073741824
 955 0012 03F5B843 		add	r3, r3, #23552
 956 0016 1B68     		ldr	r3, [r3]
 957 0018 9BB2     		uxth	r3, r3
 958 001a 03F03003 		and	r3, r3, #48
 959 001e 9BB2     		uxth	r3, r3
 244:common/lib.stm32/STM32_USB-FS-Device_Driver/src/usb_regs.c **** }
 960              		.loc 1 244 1
 961 0020 1846     		mov	r0, r3
 962 0022 0C37     		adds	r7, r7, #12
 963              	.LCFI88:
 964              		.cfi_def_cfa_offset 4
 965 0024 BD46     		mov	sp, r7
 966              	.LCFI89:
 967              		.cfi_def_cfa_register 13
 968              		@ sp needed
 969 0026 80BC     		pop	{r7}
 970              	.LCFI90:
 971              		.cfi_restore 7
 972              		.cfi_def_cfa_offset 0
 973 0028 7047     		bx	lr
 974              		.cfi_endproc
 975              	.LFE43:
 977              		.section	.text.GetEPRxStatus,"ax",%progbits
 978              		.align	1
 979              		.global	GetEPRxStatus
 980              		.syntax unified
 981              		.thumb
 982              		.thumb_func
 984              	GetEPRxStatus:
 985              	.LFB44:
 245:common/lib.stm32/STM32_USB-FS-Device_Driver/src/usb_regs.c **** 
 246:common/lib.stm32/STM32_USB-FS-Device_Driver/src/usb_regs.c **** /*******************************************************************************
 247:common/lib.stm32/STM32_USB-FS-Device_Driver/src/usb_regs.c **** * Function Name  : GetEPRxStatus
 248:common/lib.stm32/STM32_USB-FS-Device_Driver/src/usb_regs.c **** * Description    : Returns the endpoint Rx status.
 249:common/lib.stm32/STM32_USB-FS-Device_Driver/src/usb_regs.c **** * Input          : bEpNum: Endpoint Number. 
 250:common/lib.stm32/STM32_USB-FS-Device_Driver/src/usb_regs.c **** * Output         : None.
 251:common/lib.stm32/STM32_USB-FS-Device_Driver/src/usb_regs.c **** * Return         : Endpoint RX Status
 252:common/lib.stm32/STM32_USB-FS-Device_Driver/src/usb_regs.c **** *******************************************************************************/
 253:common/lib.stm32/STM32_USB-FS-Device_Driver/src/usb_regs.c **** uint16_t GetEPRxStatus(uint8_t bEpNum)
 254:common/lib.stm32/STM32_USB-FS-Device_Driver/src/usb_regs.c **** {
 986              		.loc 1 254 1
 987              		.cfi_startproc
 988              		@ args = 0, pretend = 0, frame = 8
 989              		@ frame_needed = 1, uses_anonymous_args = 0
 990              		@ link register save eliminated.
 991 0000 80B4     		push	{r7}
 992              	.LCFI91:
 993              		.cfi_def_cfa_offset 4
 994              		.cfi_offset 7, -4
 995 0002 83B0     		sub	sp, sp, #12
 996              	.LCFI92:
 997              		.cfi_def_cfa_offset 16
 998 0004 00AF     		add	r7, sp, #0
 999              	.LCFI93:
 1000              		.cfi_def_cfa_register 7
 1001 0006 0346     		mov	r3, r0
 1002 0008 FB71     		strb	r3, [r7, #7]
 255:common/lib.stm32/STM32_USB-FS-Device_Driver/src/usb_regs.c ****   return(_GetEPRxStatus(bEpNum));
 1003              		.loc 1 255 10
 1004 000a FB79     		ldrb	r3, [r7, #7]	@ zero_extendqisi2
 1005 000c 9B00     		lsls	r3, r3, #2
 1006 000e 03F18043 		add	r3, r3, #1073741824
 1007 0012 03F5B843 		add	r3, r3, #23552
 1008 0016 1B68     		ldr	r3, [r3]
 1009 0018 9BB2     		uxth	r3, r3
 1010 001a 03F44053 		and	r3, r3, #12288
 1011 001e 9BB2     		uxth	r3, r3
 256:common/lib.stm32/STM32_USB-FS-Device_Driver/src/usb_regs.c **** }
 1012              		.loc 1 256 1
 1013 0020 1846     		mov	r0, r3
 1014 0022 0C37     		adds	r7, r7, #12
 1015              	.LCFI94:
 1016              		.cfi_def_cfa_offset 4
 1017 0024 BD46     		mov	sp, r7
 1018              	.LCFI95:
 1019              		.cfi_def_cfa_register 13
 1020              		@ sp needed
 1021 0026 80BC     		pop	{r7}
 1022              	.LCFI96:
 1023              		.cfi_restore 7
 1024              		.cfi_def_cfa_offset 0
 1025 0028 7047     		bx	lr
 1026              		.cfi_endproc
 1027              	.LFE44:
 1029              		.section	.text.SetEPTxValid,"ax",%progbits
 1030              		.align	1
 1031              		.global	SetEPTxValid
 1032              		.syntax unified
 1033              		.thumb
 1034              		.thumb_func
 1036              	SetEPTxValid:
 1037              	.LFB45:
 257:common/lib.stm32/STM32_USB-FS-Device_Driver/src/usb_regs.c **** 
 258:common/lib.stm32/STM32_USB-FS-Device_Driver/src/usb_regs.c **** /*******************************************************************************
 259:common/lib.stm32/STM32_USB-FS-Device_Driver/src/usb_regs.c **** * Function Name  : SetEPTxValid
 260:common/lib.stm32/STM32_USB-FS-Device_Driver/src/usb_regs.c **** * Description    : Valid the endpoint Tx Status.
 261:common/lib.stm32/STM32_USB-FS-Device_Driver/src/usb_regs.c **** * Input          : bEpNum: Endpoint Number.  
 262:common/lib.stm32/STM32_USB-FS-Device_Driver/src/usb_regs.c **** * Output         : None.
 263:common/lib.stm32/STM32_USB-FS-Device_Driver/src/usb_regs.c **** * Return         : None.
 264:common/lib.stm32/STM32_USB-FS-Device_Driver/src/usb_regs.c **** *******************************************************************************/
 265:common/lib.stm32/STM32_USB-FS-Device_Driver/src/usb_regs.c **** void SetEPTxValid(uint8_t bEpNum)
 266:common/lib.stm32/STM32_USB-FS-Device_Driver/src/usb_regs.c **** {
 1038              		.loc 1 266 1
 1039              		.cfi_startproc
 1040              		@ args = 0, pretend = 0, frame = 8
 1041              		@ frame_needed = 1, uses_anonymous_args = 0
 1042              		@ link register save eliminated.
 1043 0000 90B4     		push	{r4, r7}
 1044              	.LCFI97:
 1045              		.cfi_def_cfa_offset 8
 1046              		.cfi_offset 4, -8
 1047              		.cfi_offset 7, -4
 1048 0002 82B0     		sub	sp, sp, #8
 1049              	.LCFI98:
 1050              		.cfi_def_cfa_offset 16
 1051 0004 00AF     		add	r7, sp, #0
 1052              	.LCFI99:
 1053              		.cfi_def_cfa_register 7
 1054 0006 0346     		mov	r3, r0
 1055 0008 FB71     		strb	r3, [r7, #7]
 1056              	.LBB4:
 267:common/lib.stm32/STM32_USB-FS-Device_Driver/src/usb_regs.c ****   _SetEPTxStatus(bEpNum, EP_TX_VALID);
 1057              		.loc 1 267 3
 1058 000a FB79     		ldrb	r3, [r7, #7]	@ zero_extendqisi2
 1059 000c 9B00     		lsls	r3, r3, #2
 1060 000e 03F18043 		add	r3, r3, #1073741824
 1061 0012 03F5B843 		add	r3, r3, #23552
 1062 0016 1B68     		ldr	r3, [r3]
 1063 0018 9BB2     		uxth	r3, r3
 1064 001a 23F4E043 		bic	r3, r3, #28672
 1065 001e 23F04003 		bic	r3, r3, #64
 1066 0022 9CB2     		uxth	r4, r3
 1067 0024 84F01003 		eor	r3, r4, #16
 1068 0028 9CB2     		uxth	r4, r3
 1069 002a 84F02003 		eor	r3, r4, #32
 1070 002e 9CB2     		uxth	r4, r3
 1071 0030 074B     		ldr	r3, .L60
 1072 0032 2343     		orrs	r3, r3, r4
 1073 0034 9AB2     		uxth	r2, r3
 1074 0036 FB79     		ldrb	r3, [r7, #7]	@ zero_extendqisi2
 1075 0038 9B00     		lsls	r3, r3, #2
 1076 003a 03F18043 		add	r3, r3, #1073741824
 1077 003e 03F5B843 		add	r3, r3, #23552
 1078 0042 1A60     		str	r2, [r3]
 1079              	.LBE4:
 268:common/lib.stm32/STM32_USB-FS-Device_Driver/src/usb_regs.c **** }
 1080              		.loc 1 268 1
 1081 0044 00BF     		nop
 1082 0046 0837     		adds	r7, r7, #8
 1083              	.LCFI100:
 1084              		.cfi_def_cfa_offset 8
 1085 0048 BD46     		mov	sp, r7
 1086              	.LCFI101:
 1087              		.cfi_def_cfa_register 13
 1088              		@ sp needed
 1089 004a 90BC     		pop	{r4, r7}
 1090              	.LCFI102:
 1091              		.cfi_restore 7
 1092              		.cfi_restore 4
 1093              		.cfi_def_cfa_offset 0
 1094 004c 7047     		bx	lr
 1095              	.L61:
 1096 004e 00BF     		.align	2
 1097              	.L60:
 1098 0050 8080FFFF 		.word	-32640
 1099              		.cfi_endproc
 1100              	.LFE45:
 1102              		.section	.text.SetEPRxValid,"ax",%progbits
 1103              		.align	1
 1104              		.global	SetEPRxValid
 1105              		.syntax unified
 1106              		.thumb
 1107              		.thumb_func
 1109              	SetEPRxValid:
 1110              	.LFB46:
 269:common/lib.stm32/STM32_USB-FS-Device_Driver/src/usb_regs.c **** 
 270:common/lib.stm32/STM32_USB-FS-Device_Driver/src/usb_regs.c **** /*******************************************************************************
 271:common/lib.stm32/STM32_USB-FS-Device_Driver/src/usb_regs.c **** * Function Name  : SetEPRxValid
 272:common/lib.stm32/STM32_USB-FS-Device_Driver/src/usb_regs.c **** * Description    : Valid the endpoint Rx Status.
 273:common/lib.stm32/STM32_USB-FS-Device_Driver/src/usb_regs.c **** * Input          : bEpNum: Endpoint Number. 
 274:common/lib.stm32/STM32_USB-FS-Device_Driver/src/usb_regs.c **** * Output         : None.
 275:common/lib.stm32/STM32_USB-FS-Device_Driver/src/usb_regs.c **** * Return         : None.
 276:common/lib.stm32/STM32_USB-FS-Device_Driver/src/usb_regs.c **** *******************************************************************************/
 277:common/lib.stm32/STM32_USB-FS-Device_Driver/src/usb_regs.c **** void SetEPRxValid(uint8_t bEpNum)
 278:common/lib.stm32/STM32_USB-FS-Device_Driver/src/usb_regs.c **** {
 1111              		.loc 1 278 1
 1112              		.cfi_startproc
 1113              		@ args = 0, pretend = 0, frame = 8
 1114              		@ frame_needed = 1, uses_anonymous_args = 0
 1115              		@ link register save eliminated.
 1116 0000 90B4     		push	{r4, r7}
 1117              	.LCFI103:
 1118              		.cfi_def_cfa_offset 8
 1119              		.cfi_offset 4, -8
 1120              		.cfi_offset 7, -4
 1121 0002 82B0     		sub	sp, sp, #8
 1122              	.LCFI104:
 1123              		.cfi_def_cfa_offset 16
 1124 0004 00AF     		add	r7, sp, #0
 1125              	.LCFI105:
 1126              		.cfi_def_cfa_register 7
 1127 0006 0346     		mov	r3, r0
 1128 0008 FB71     		strb	r3, [r7, #7]
 1129              	.LBB5:
 279:common/lib.stm32/STM32_USB-FS-Device_Driver/src/usb_regs.c ****   _SetEPRxStatus(bEpNum, EP_RX_VALID);
 1130              		.loc 1 279 3
 1131 000a FB79     		ldrb	r3, [r7, #7]	@ zero_extendqisi2
 1132 000c 9B00     		lsls	r3, r3, #2
 1133 000e 03F18043 		add	r3, r3, #1073741824
 1134 0012 03F5B843 		add	r3, r3, #23552
 1135 0016 1B68     		ldr	r3, [r3]
 1136 0018 9BB2     		uxth	r3, r3
 1137 001a 23F48043 		bic	r3, r3, #16384
 1138 001e 23F07003 		bic	r3, r3, #112
 1139 0022 9CB2     		uxth	r4, r3
 1140 0024 84F48053 		eor	r3, r4, #4096
 1141 0028 9CB2     		uxth	r4, r3
 1142 002a 84F40053 		eor	r3, r4, #8192
 1143 002e 9CB2     		uxth	r4, r3
 1144 0030 074B     		ldr	r3, .L63
 1145 0032 2343     		orrs	r3, r3, r4
 1146 0034 9AB2     		uxth	r2, r3
 1147 0036 FB79     		ldrb	r3, [r7, #7]	@ zero_extendqisi2
 1148 0038 9B00     		lsls	r3, r3, #2
 1149 003a 03F18043 		add	r3, r3, #1073741824
 1150 003e 03F5B843 		add	r3, r3, #23552
 1151 0042 1A60     		str	r2, [r3]
 1152              	.LBE5:
 280:common/lib.stm32/STM32_USB-FS-Device_Driver/src/usb_regs.c **** }
 1153              		.loc 1 280 1
 1154 0044 00BF     		nop
 1155 0046 0837     		adds	r7, r7, #8
 1156              	.LCFI106:
 1157              		.cfi_def_cfa_offset 8
 1158 0048 BD46     		mov	sp, r7
 1159              	.LCFI107:
 1160              		.cfi_def_cfa_register 13
 1161              		@ sp needed
 1162 004a 90BC     		pop	{r4, r7}
 1163              	.LCFI108:
 1164              		.cfi_restore 7
 1165              		.cfi_restore 4
 1166              		.cfi_def_cfa_offset 0
 1167 004c 7047     		bx	lr
 1168              	.L64:
 1169 004e 00BF     		.align	2
 1170              	.L63:
 1171 0050 8080FFFF 		.word	-32640
 1172              		.cfi_endproc
 1173              	.LFE46:
 1175              		.section	.text.SetEP_KIND,"ax",%progbits
 1176              		.align	1
 1177              		.global	SetEP_KIND
 1178              		.syntax unified
 1179              		.thumb
 1180              		.thumb_func
 1182              	SetEP_KIND:
 1183              	.LFB47:
 281:common/lib.stm32/STM32_USB-FS-Device_Driver/src/usb_regs.c **** 
 282:common/lib.stm32/STM32_USB-FS-Device_Driver/src/usb_regs.c **** /*******************************************************************************
 283:common/lib.stm32/STM32_USB-FS-Device_Driver/src/usb_regs.c **** * Function Name  : SetEP_KIND
 284:common/lib.stm32/STM32_USB-FS-Device_Driver/src/usb_regs.c **** * Description    : Clear the EP_KIND bit.
 285:common/lib.stm32/STM32_USB-FS-Device_Driver/src/usb_regs.c **** * Input          : bEpNum: Endpoint Number. 
 286:common/lib.stm32/STM32_USB-FS-Device_Driver/src/usb_regs.c **** * Output         : None.
 287:common/lib.stm32/STM32_USB-FS-Device_Driver/src/usb_regs.c **** * Return         : None.
 288:common/lib.stm32/STM32_USB-FS-Device_Driver/src/usb_regs.c **** *******************************************************************************/
 289:common/lib.stm32/STM32_USB-FS-Device_Driver/src/usb_regs.c **** void SetEP_KIND(uint8_t bEpNum)
 290:common/lib.stm32/STM32_USB-FS-Device_Driver/src/usb_regs.c **** {
 1184              		.loc 1 290 1
 1185              		.cfi_startproc
 1186              		@ args = 0, pretend = 0, frame = 8
 1187              		@ frame_needed = 1, uses_anonymous_args = 0
 1188              		@ link register save eliminated.
 1189 0000 80B4     		push	{r7}
 1190              	.LCFI109:
 1191              		.cfi_def_cfa_offset 4
 1192              		.cfi_offset 7, -4
 1193 0002 83B0     		sub	sp, sp, #12
 1194              	.LCFI110:
 1195              		.cfi_def_cfa_offset 16
 1196 0004 00AF     		add	r7, sp, #0
 1197              	.LCFI111:
 1198              		.cfi_def_cfa_register 7
 1199 0006 0346     		mov	r3, r0
 1200 0008 FB71     		strb	r3, [r7, #7]
 291:common/lib.stm32/STM32_USB-FS-Device_Driver/src/usb_regs.c ****   _SetEP_KIND(bEpNum);
 1201              		.loc 1 291 3
 1202 000a FB79     		ldrb	r3, [r7, #7]	@ zero_extendqisi2
 1203 000c 9B00     		lsls	r3, r3, #2
 1204 000e 03F18043 		add	r3, r3, #1073741824
 1205 0012 03F5B843 		add	r3, r3, #23552
 1206 0016 1B68     		ldr	r3, [r3]
 1207 0018 9BB2     		uxth	r3, r3
 1208 001a 43F48073 		orr	r3, r3, #256
 1209 001e 9BB2     		uxth	r3, r3
 1210 0020 1AB2     		sxth	r2, r3
 1211 0022 40F60F73 		movw	r3, #3855
 1212 0026 1340     		ands	r3, r3, r2
 1213 0028 1AB2     		sxth	r2, r3
 1214 002a 084B     		ldr	r3, .L66
 1215 002c 1343     		orrs	r3, r3, r2
 1216 002e 1BB2     		sxth	r3, r3
 1217 0030 9AB2     		uxth	r2, r3
 1218 0032 FB79     		ldrb	r3, [r7, #7]	@ zero_extendqisi2
 1219 0034 9B00     		lsls	r3, r3, #2
 1220 0036 03F18043 		add	r3, r3, #1073741824
 1221 003a 03F5B843 		add	r3, r3, #23552
 1222 003e 1A60     		str	r2, [r3]
 292:common/lib.stm32/STM32_USB-FS-Device_Driver/src/usb_regs.c **** }
 1223              		.loc 1 292 1
 1224 0040 00BF     		nop
 1225 0042 0C37     		adds	r7, r7, #12
 1226              	.LCFI112:
 1227              		.cfi_def_cfa_offset 4
 1228 0044 BD46     		mov	sp, r7
 1229              	.LCFI113:
 1230              		.cfi_def_cfa_register 13
 1231              		@ sp needed
 1232 0046 80BC     		pop	{r7}
 1233              	.LCFI114:
 1234              		.cfi_restore 7
 1235              		.cfi_def_cfa_offset 0
 1236 0048 7047     		bx	lr
 1237              	.L67:
 1238 004a 00BF     		.align	2
 1239              	.L66:
 1240 004c 8080FFFF 		.word	-32640
 1241              		.cfi_endproc
 1242              	.LFE47:
 1244              		.section	.text.ClearEP_KIND,"ax",%progbits
 1245              		.align	1
 1246              		.global	ClearEP_KIND
 1247              		.syntax unified
 1248              		.thumb
 1249              		.thumb_func
 1251              	ClearEP_KIND:
 1252              	.LFB48:
 293:common/lib.stm32/STM32_USB-FS-Device_Driver/src/usb_regs.c **** 
 294:common/lib.stm32/STM32_USB-FS-Device_Driver/src/usb_regs.c **** /*******************************************************************************
 295:common/lib.stm32/STM32_USB-FS-Device_Driver/src/usb_regs.c **** * Function Name  : ClearEP_KIND
 296:common/lib.stm32/STM32_USB-FS-Device_Driver/src/usb_regs.c **** * Description    : set the  EP_KIND bit.
 297:common/lib.stm32/STM32_USB-FS-Device_Driver/src/usb_regs.c **** * Input          : bEpNum: Endpoint Number. 
 298:common/lib.stm32/STM32_USB-FS-Device_Driver/src/usb_regs.c **** * Output         : None.
 299:common/lib.stm32/STM32_USB-FS-Device_Driver/src/usb_regs.c **** * Return         : None.
 300:common/lib.stm32/STM32_USB-FS-Device_Driver/src/usb_regs.c **** *******************************************************************************/
 301:common/lib.stm32/STM32_USB-FS-Device_Driver/src/usb_regs.c **** void ClearEP_KIND(uint8_t bEpNum)
 302:common/lib.stm32/STM32_USB-FS-Device_Driver/src/usb_regs.c **** {
 1253              		.loc 1 302 1
 1254              		.cfi_startproc
 1255              		@ args = 0, pretend = 0, frame = 8
 1256              		@ frame_needed = 1, uses_anonymous_args = 0
 1257              		@ link register save eliminated.
 1258 0000 80B4     		push	{r7}
 1259              	.LCFI115:
 1260              		.cfi_def_cfa_offset 4
 1261              		.cfi_offset 7, -4
 1262 0002 83B0     		sub	sp, sp, #12
 1263              	.LCFI116:
 1264              		.cfi_def_cfa_offset 16
 1265 0004 00AF     		add	r7, sp, #0
 1266              	.LCFI117:
 1267              		.cfi_def_cfa_register 7
 1268 0006 0346     		mov	r3, r0
 1269 0008 FB71     		strb	r3, [r7, #7]
 303:common/lib.stm32/STM32_USB-FS-Device_Driver/src/usb_regs.c ****   _ClearEP_KIND(bEpNum);
 1270              		.loc 1 303 3
 1271 000a FB79     		ldrb	r3, [r7, #7]	@ zero_extendqisi2
 1272 000c 9B00     		lsls	r3, r3, #2
 1273 000e 03F18043 		add	r3, r3, #1073741824
 1274 0012 03F5B843 		add	r3, r3, #23552
 1275 0016 1B68     		ldr	r3, [r3]
 1276 0018 1AB2     		sxth	r2, r3
 1277 001a 40F60F63 		movw	r3, #3599
 1278 001e 1340     		ands	r3, r3, r2
 1279 0020 1AB2     		sxth	r2, r3
 1280 0022 084B     		ldr	r3, .L69
 1281 0024 1343     		orrs	r3, r3, r2
 1282 0026 1BB2     		sxth	r3, r3
 1283 0028 9AB2     		uxth	r2, r3
 1284 002a FB79     		ldrb	r3, [r7, #7]	@ zero_extendqisi2
 1285 002c 9B00     		lsls	r3, r3, #2
 1286 002e 03F18043 		add	r3, r3, #1073741824
 1287 0032 03F5B843 		add	r3, r3, #23552
 1288 0036 1A60     		str	r2, [r3]
 304:common/lib.stm32/STM32_USB-FS-Device_Driver/src/usb_regs.c **** }
 1289              		.loc 1 304 1
 1290 0038 00BF     		nop
 1291 003a 0C37     		adds	r7, r7, #12
 1292              	.LCFI118:
 1293              		.cfi_def_cfa_offset 4
 1294 003c BD46     		mov	sp, r7
 1295              	.LCFI119:
 1296              		.cfi_def_cfa_register 13
 1297              		@ sp needed
 1298 003e 80BC     		pop	{r7}
 1299              	.LCFI120:
 1300              		.cfi_restore 7
 1301              		.cfi_def_cfa_offset 0
 1302 0040 7047     		bx	lr
 1303              	.L70:
 1304 0042 00BF     		.align	2
 1305              	.L69:
 1306 0044 8080FFFF 		.word	-32640
 1307              		.cfi_endproc
 1308              	.LFE48:
 1310              		.section	.text.Clear_Status_Out,"ax",%progbits
 1311              		.align	1
 1312              		.global	Clear_Status_Out
 1313              		.syntax unified
 1314              		.thumb
 1315              		.thumb_func
 1317              	Clear_Status_Out:
 1318              	.LFB49:
 305:common/lib.stm32/STM32_USB-FS-Device_Driver/src/usb_regs.c **** /*******************************************************************************
 306:common/lib.stm32/STM32_USB-FS-Device_Driver/src/usb_regs.c **** * Function Name  : Clear_Status_Out
 307:common/lib.stm32/STM32_USB-FS-Device_Driver/src/usb_regs.c **** * Description    : Clear the Status Out of the related Endpoint
 308:common/lib.stm32/STM32_USB-FS-Device_Driver/src/usb_regs.c **** * Input          : bEpNum: Endpoint Number. 
 309:common/lib.stm32/STM32_USB-FS-Device_Driver/src/usb_regs.c **** * Output         : None.
 310:common/lib.stm32/STM32_USB-FS-Device_Driver/src/usb_regs.c **** * Return         : None.
 311:common/lib.stm32/STM32_USB-FS-Device_Driver/src/usb_regs.c **** *******************************************************************************/
 312:common/lib.stm32/STM32_USB-FS-Device_Driver/src/usb_regs.c **** void Clear_Status_Out(uint8_t bEpNum)
 313:common/lib.stm32/STM32_USB-FS-Device_Driver/src/usb_regs.c **** {
 1319              		.loc 1 313 1
 1320              		.cfi_startproc
 1321              		@ args = 0, pretend = 0, frame = 8
 1322              		@ frame_needed = 1, uses_anonymous_args = 0
 1323              		@ link register save eliminated.
 1324 0000 80B4     		push	{r7}
 1325              	.LCFI121:
 1326              		.cfi_def_cfa_offset 4
 1327              		.cfi_offset 7, -4
 1328 0002 83B0     		sub	sp, sp, #12
 1329              	.LCFI122:
 1330              		.cfi_def_cfa_offset 16
 1331 0004 00AF     		add	r7, sp, #0
 1332              	.LCFI123:
 1333              		.cfi_def_cfa_register 7
 1334 0006 0346     		mov	r3, r0
 1335 0008 FB71     		strb	r3, [r7, #7]
 314:common/lib.stm32/STM32_USB-FS-Device_Driver/src/usb_regs.c ****   _ClearEP_KIND(bEpNum);
 1336              		.loc 1 314 3
 1337 000a FB79     		ldrb	r3, [r7, #7]	@ zero_extendqisi2
 1338 000c 9B00     		lsls	r3, r3, #2
 1339 000e 03F18043 		add	r3, r3, #1073741824
 1340 0012 03F5B843 		add	r3, r3, #23552
 1341 0016 1B68     		ldr	r3, [r3]
 1342 0018 1AB2     		sxth	r2, r3
 1343 001a 40F60F63 		movw	r3, #3599
 1344 001e 1340     		ands	r3, r3, r2
 1345 0020 1AB2     		sxth	r2, r3
 1346 0022 084B     		ldr	r3, .L72
 1347 0024 1343     		orrs	r3, r3, r2
 1348 0026 1BB2     		sxth	r3, r3
 1349 0028 9AB2     		uxth	r2, r3
 1350 002a FB79     		ldrb	r3, [r7, #7]	@ zero_extendqisi2
 1351 002c 9B00     		lsls	r3, r3, #2
 1352 002e 03F18043 		add	r3, r3, #1073741824
 1353 0032 03F5B843 		add	r3, r3, #23552
 1354 0036 1A60     		str	r2, [r3]
 315:common/lib.stm32/STM32_USB-FS-Device_Driver/src/usb_regs.c **** }
 1355              		.loc 1 315 1
 1356 0038 00BF     		nop
 1357 003a 0C37     		adds	r7, r7, #12
 1358              	.LCFI124:
 1359              		.cfi_def_cfa_offset 4
 1360 003c BD46     		mov	sp, r7
 1361              	.LCFI125:
 1362              		.cfi_def_cfa_register 13
 1363              		@ sp needed
 1364 003e 80BC     		pop	{r7}
 1365              	.LCFI126:
 1366              		.cfi_restore 7
 1367              		.cfi_def_cfa_offset 0
 1368 0040 7047     		bx	lr
 1369              	.L73:
 1370 0042 00BF     		.align	2
 1371              	.L72:
 1372 0044 8080FFFF 		.word	-32640
 1373              		.cfi_endproc
 1374              	.LFE49:
 1376              		.section	.text.Set_Status_Out,"ax",%progbits
 1377              		.align	1
 1378              		.global	Set_Status_Out
 1379              		.syntax unified
 1380              		.thumb
 1381              		.thumb_func
 1383              	Set_Status_Out:
 1384              	.LFB50:
 316:common/lib.stm32/STM32_USB-FS-Device_Driver/src/usb_regs.c **** /*******************************************************************************
 317:common/lib.stm32/STM32_USB-FS-Device_Driver/src/usb_regs.c **** * Function Name  : Set_Status_Out
 318:common/lib.stm32/STM32_USB-FS-Device_Driver/src/usb_regs.c **** * Description    : Set the Status Out of the related Endpoint
 319:common/lib.stm32/STM32_USB-FS-Device_Driver/src/usb_regs.c **** * Input          : bEpNum: Endpoint Number. 
 320:common/lib.stm32/STM32_USB-FS-Device_Driver/src/usb_regs.c **** * Output         : None.
 321:common/lib.stm32/STM32_USB-FS-Device_Driver/src/usb_regs.c **** * Return         : None.
 322:common/lib.stm32/STM32_USB-FS-Device_Driver/src/usb_regs.c **** *******************************************************************************/
 323:common/lib.stm32/STM32_USB-FS-Device_Driver/src/usb_regs.c **** void Set_Status_Out(uint8_t bEpNum)
 324:common/lib.stm32/STM32_USB-FS-Device_Driver/src/usb_regs.c **** {
 1385              		.loc 1 324 1
 1386              		.cfi_startproc
 1387              		@ args = 0, pretend = 0, frame = 8
 1388              		@ frame_needed = 1, uses_anonymous_args = 0
 1389              		@ link register save eliminated.
 1390 0000 80B4     		push	{r7}
 1391              	.LCFI127:
 1392              		.cfi_def_cfa_offset 4
 1393              		.cfi_offset 7, -4
 1394 0002 83B0     		sub	sp, sp, #12
 1395              	.LCFI128:
 1396              		.cfi_def_cfa_offset 16
 1397 0004 00AF     		add	r7, sp, #0
 1398              	.LCFI129:
 1399              		.cfi_def_cfa_register 7
 1400 0006 0346     		mov	r3, r0
 1401 0008 FB71     		strb	r3, [r7, #7]
 325:common/lib.stm32/STM32_USB-FS-Device_Driver/src/usb_regs.c ****   _SetEP_KIND(bEpNum);
 1402              		.loc 1 325 3
 1403 000a FB79     		ldrb	r3, [r7, #7]	@ zero_extendqisi2
 1404 000c 9B00     		lsls	r3, r3, #2
 1405 000e 03F18043 		add	r3, r3, #1073741824
 1406 0012 03F5B843 		add	r3, r3, #23552
 1407 0016 1B68     		ldr	r3, [r3]
 1408 0018 9BB2     		uxth	r3, r3
 1409 001a 43F48073 		orr	r3, r3, #256
 1410 001e 9BB2     		uxth	r3, r3
 1411 0020 1AB2     		sxth	r2, r3
 1412 0022 40F60F73 		movw	r3, #3855
 1413 0026 1340     		ands	r3, r3, r2
 1414 0028 1AB2     		sxth	r2, r3
 1415 002a 084B     		ldr	r3, .L75
 1416 002c 1343     		orrs	r3, r3, r2
 1417 002e 1BB2     		sxth	r3, r3
 1418 0030 9AB2     		uxth	r2, r3
 1419 0032 FB79     		ldrb	r3, [r7, #7]	@ zero_extendqisi2
 1420 0034 9B00     		lsls	r3, r3, #2
 1421 0036 03F18043 		add	r3, r3, #1073741824
 1422 003a 03F5B843 		add	r3, r3, #23552
 1423 003e 1A60     		str	r2, [r3]
 326:common/lib.stm32/STM32_USB-FS-Device_Driver/src/usb_regs.c **** }
 1424              		.loc 1 326 1
 1425 0040 00BF     		nop
 1426 0042 0C37     		adds	r7, r7, #12
 1427              	.LCFI130:
 1428              		.cfi_def_cfa_offset 4
 1429 0044 BD46     		mov	sp, r7
 1430              	.LCFI131:
 1431              		.cfi_def_cfa_register 13
 1432              		@ sp needed
 1433 0046 80BC     		pop	{r7}
 1434              	.LCFI132:
 1435              		.cfi_restore 7
 1436              		.cfi_def_cfa_offset 0
 1437 0048 7047     		bx	lr
 1438              	.L76:
 1439 004a 00BF     		.align	2
 1440              	.L75:
 1441 004c 8080FFFF 		.word	-32640
 1442              		.cfi_endproc
 1443              	.LFE50:
 1445              		.section	.text.SetEPDoubleBuff,"ax",%progbits
 1446              		.align	1
 1447              		.global	SetEPDoubleBuff
 1448              		.syntax unified
 1449              		.thumb
 1450              		.thumb_func
 1452              	SetEPDoubleBuff:
 1453              	.LFB51:
 327:common/lib.stm32/STM32_USB-FS-Device_Driver/src/usb_regs.c **** /*******************************************************************************
 328:common/lib.stm32/STM32_USB-FS-Device_Driver/src/usb_regs.c **** * Function Name  : SetEPDoubleBuff
 329:common/lib.stm32/STM32_USB-FS-Device_Driver/src/usb_regs.c **** * Description    : Enable the double buffer feature for the endpoint. 
 330:common/lib.stm32/STM32_USB-FS-Device_Driver/src/usb_regs.c **** * Input          : bEpNum: Endpoint Number. 
 331:common/lib.stm32/STM32_USB-FS-Device_Driver/src/usb_regs.c **** * Output         : None.
 332:common/lib.stm32/STM32_USB-FS-Device_Driver/src/usb_regs.c **** * Return         : None.
 333:common/lib.stm32/STM32_USB-FS-Device_Driver/src/usb_regs.c **** *******************************************************************************/
 334:common/lib.stm32/STM32_USB-FS-Device_Driver/src/usb_regs.c **** void SetEPDoubleBuff(uint8_t bEpNum)
 335:common/lib.stm32/STM32_USB-FS-Device_Driver/src/usb_regs.c **** {
 1454              		.loc 1 335 1
 1455              		.cfi_startproc
 1456              		@ args = 0, pretend = 0, frame = 8
 1457              		@ frame_needed = 1, uses_anonymous_args = 0
 1458              		@ link register save eliminated.
 1459 0000 80B4     		push	{r7}
 1460              	.LCFI133:
 1461              		.cfi_def_cfa_offset 4
 1462              		.cfi_offset 7, -4
 1463 0002 83B0     		sub	sp, sp, #12
 1464              	.LCFI134:
 1465              		.cfi_def_cfa_offset 16
 1466 0004 00AF     		add	r7, sp, #0
 1467              	.LCFI135:
 1468              		.cfi_def_cfa_register 7
 1469 0006 0346     		mov	r3, r0
 1470 0008 FB71     		strb	r3, [r7, #7]
 336:common/lib.stm32/STM32_USB-FS-Device_Driver/src/usb_regs.c ****   _SetEP_KIND(bEpNum);
 1471              		.loc 1 336 3
 1472 000a FB79     		ldrb	r3, [r7, #7]	@ zero_extendqisi2
 1473 000c 9B00     		lsls	r3, r3, #2
 1474 000e 03F18043 		add	r3, r3, #1073741824
 1475 0012 03F5B843 		add	r3, r3, #23552
 1476 0016 1B68     		ldr	r3, [r3]
 1477 0018 9BB2     		uxth	r3, r3
 1478 001a 43F48073 		orr	r3, r3, #256
 1479 001e 9BB2     		uxth	r3, r3
 1480 0020 1AB2     		sxth	r2, r3
 1481 0022 40F60F73 		movw	r3, #3855
 1482 0026 1340     		ands	r3, r3, r2
 1483 0028 1AB2     		sxth	r2, r3
 1484 002a 084B     		ldr	r3, .L78
 1485 002c 1343     		orrs	r3, r3, r2
 1486 002e 1BB2     		sxth	r3, r3
 1487 0030 9AB2     		uxth	r2, r3
 1488 0032 FB79     		ldrb	r3, [r7, #7]	@ zero_extendqisi2
 1489 0034 9B00     		lsls	r3, r3, #2
 1490 0036 03F18043 		add	r3, r3, #1073741824
 1491 003a 03F5B843 		add	r3, r3, #23552
 1492 003e 1A60     		str	r2, [r3]
 337:common/lib.stm32/STM32_USB-FS-Device_Driver/src/usb_regs.c **** }
 1493              		.loc 1 337 1
 1494 0040 00BF     		nop
 1495 0042 0C37     		adds	r7, r7, #12
 1496              	.LCFI136:
 1497              		.cfi_def_cfa_offset 4
 1498 0044 BD46     		mov	sp, r7
 1499              	.LCFI137:
 1500              		.cfi_def_cfa_register 13
 1501              		@ sp needed
 1502 0046 80BC     		pop	{r7}
 1503              	.LCFI138:
 1504              		.cfi_restore 7
 1505              		.cfi_def_cfa_offset 0
 1506 0048 7047     		bx	lr
 1507              	.L79:
 1508 004a 00BF     		.align	2
 1509              	.L78:
 1510 004c 8080FFFF 		.word	-32640
 1511              		.cfi_endproc
 1512              	.LFE51:
 1514              		.section	.text.ClearEPDoubleBuff,"ax",%progbits
 1515              		.align	1
 1516              		.global	ClearEPDoubleBuff
 1517              		.syntax unified
 1518              		.thumb
 1519              		.thumb_func
 1521              	ClearEPDoubleBuff:
 1522              	.LFB52:
 338:common/lib.stm32/STM32_USB-FS-Device_Driver/src/usb_regs.c **** /*******************************************************************************
 339:common/lib.stm32/STM32_USB-FS-Device_Driver/src/usb_regs.c **** * Function Name  : ClearEPDoubleBuff
 340:common/lib.stm32/STM32_USB-FS-Device_Driver/src/usb_regs.c **** * Description    : Disable the double buffer feature for the endpoint. 
 341:common/lib.stm32/STM32_USB-FS-Device_Driver/src/usb_regs.c **** * Input          : bEpNum: Endpoint Number. 
 342:common/lib.stm32/STM32_USB-FS-Device_Driver/src/usb_regs.c **** * Output         : None.
 343:common/lib.stm32/STM32_USB-FS-Device_Driver/src/usb_regs.c **** * Return         : None.
 344:common/lib.stm32/STM32_USB-FS-Device_Driver/src/usb_regs.c **** *******************************************************************************/
 345:common/lib.stm32/STM32_USB-FS-Device_Driver/src/usb_regs.c **** void ClearEPDoubleBuff(uint8_t bEpNum)
 346:common/lib.stm32/STM32_USB-FS-Device_Driver/src/usb_regs.c **** {
 1523              		.loc 1 346 1
 1524              		.cfi_startproc
 1525              		@ args = 0, pretend = 0, frame = 8
 1526              		@ frame_needed = 1, uses_anonymous_args = 0
 1527              		@ link register save eliminated.
 1528 0000 80B4     		push	{r7}
 1529              	.LCFI139:
 1530              		.cfi_def_cfa_offset 4
 1531              		.cfi_offset 7, -4
 1532 0002 83B0     		sub	sp, sp, #12
 1533              	.LCFI140:
 1534              		.cfi_def_cfa_offset 16
 1535 0004 00AF     		add	r7, sp, #0
 1536              	.LCFI141:
 1537              		.cfi_def_cfa_register 7
 1538 0006 0346     		mov	r3, r0
 1539 0008 FB71     		strb	r3, [r7, #7]
 347:common/lib.stm32/STM32_USB-FS-Device_Driver/src/usb_regs.c ****   _ClearEP_KIND(bEpNum);
 1540              		.loc 1 347 3
 1541 000a FB79     		ldrb	r3, [r7, #7]	@ zero_extendqisi2
 1542 000c 9B00     		lsls	r3, r3, #2
 1543 000e 03F18043 		add	r3, r3, #1073741824
 1544 0012 03F5B843 		add	r3, r3, #23552
 1545 0016 1B68     		ldr	r3, [r3]
 1546 0018 1AB2     		sxth	r2, r3
 1547 001a 40F60F63 		movw	r3, #3599
 1548 001e 1340     		ands	r3, r3, r2
 1549 0020 1AB2     		sxth	r2, r3
 1550 0022 084B     		ldr	r3, .L81
 1551 0024 1343     		orrs	r3, r3, r2
 1552 0026 1BB2     		sxth	r3, r3
 1553 0028 9AB2     		uxth	r2, r3
 1554 002a FB79     		ldrb	r3, [r7, #7]	@ zero_extendqisi2
 1555 002c 9B00     		lsls	r3, r3, #2
 1556 002e 03F18043 		add	r3, r3, #1073741824
 1557 0032 03F5B843 		add	r3, r3, #23552
 1558 0036 1A60     		str	r2, [r3]
 348:common/lib.stm32/STM32_USB-FS-Device_Driver/src/usb_regs.c **** }
 1559              		.loc 1 348 1
 1560 0038 00BF     		nop
 1561 003a 0C37     		adds	r7, r7, #12
 1562              	.LCFI142:
 1563              		.cfi_def_cfa_offset 4
 1564 003c BD46     		mov	sp, r7
 1565              	.LCFI143:
 1566              		.cfi_def_cfa_register 13
 1567              		@ sp needed
 1568 003e 80BC     		pop	{r7}
 1569              	.LCFI144:
 1570              		.cfi_restore 7
 1571              		.cfi_def_cfa_offset 0
 1572 0040 7047     		bx	lr
 1573              	.L82:
 1574 0042 00BF     		.align	2
 1575              	.L81:
 1576 0044 8080FFFF 		.word	-32640
 1577              		.cfi_endproc
 1578              	.LFE52:
 1580              		.section	.text.GetTxStallStatus,"ax",%progbits
 1581              		.align	1
 1582              		.global	GetTxStallStatus
 1583              		.syntax unified
 1584              		.thumb
 1585              		.thumb_func
 1587              	GetTxStallStatus:
 1588              	.LFB53:
 349:common/lib.stm32/STM32_USB-FS-Device_Driver/src/usb_regs.c **** /*******************************************************************************
 350:common/lib.stm32/STM32_USB-FS-Device_Driver/src/usb_regs.c **** * Function Name  : GetTxStallStatus
 351:common/lib.stm32/STM32_USB-FS-Device_Driver/src/usb_regs.c **** * Description    : Returns the Stall status of the Tx endpoint.
 352:common/lib.stm32/STM32_USB-FS-Device_Driver/src/usb_regs.c **** * Input          : bEpNum: Endpoint Number. 
 353:common/lib.stm32/STM32_USB-FS-Device_Driver/src/usb_regs.c **** * Output         : None.
 354:common/lib.stm32/STM32_USB-FS-Device_Driver/src/usb_regs.c **** * Return         : Tx Stall status.
 355:common/lib.stm32/STM32_USB-FS-Device_Driver/src/usb_regs.c **** *******************************************************************************/
 356:common/lib.stm32/STM32_USB-FS-Device_Driver/src/usb_regs.c **** uint16_t GetTxStallStatus(uint8_t bEpNum)
 357:common/lib.stm32/STM32_USB-FS-Device_Driver/src/usb_regs.c **** {
 1589              		.loc 1 357 1
 1590              		.cfi_startproc
 1591              		@ args = 0, pretend = 0, frame = 8
 1592              		@ frame_needed = 1, uses_anonymous_args = 0
 1593              		@ link register save eliminated.
 1594 0000 80B4     		push	{r7}
 1595              	.LCFI145:
 1596              		.cfi_def_cfa_offset 4
 1597              		.cfi_offset 7, -4
 1598 0002 83B0     		sub	sp, sp, #12
 1599              	.LCFI146:
 1600              		.cfi_def_cfa_offset 16
 1601 0004 00AF     		add	r7, sp, #0
 1602              	.LCFI147:
 1603              		.cfi_def_cfa_register 7
 1604 0006 0346     		mov	r3, r0
 1605 0008 FB71     		strb	r3, [r7, #7]
 358:common/lib.stm32/STM32_USB-FS-Device_Driver/src/usb_regs.c ****   return(_GetTxStallStatus(bEpNum));
 1606              		.loc 1 358 10
 1607 000a FB79     		ldrb	r3, [r7, #7]	@ zero_extendqisi2
 1608 000c 9B00     		lsls	r3, r3, #2
 1609 000e 03F18043 		add	r3, r3, #1073741824
 1610 0012 03F5B843 		add	r3, r3, #23552
 1611 0016 1B68     		ldr	r3, [r3]
 1612 0018 9BB2     		uxth	r3, r3
 1613 001a 03F03003 		and	r3, r3, #48
 1614 001e 102B     		cmp	r3, #16
 1615 0020 0CBF     		ite	eq
 1616 0022 0123     		moveq	r3, #1
 1617 0024 0023     		movne	r3, #0
 1618 0026 DBB2     		uxtb	r3, r3
 1619 0028 9BB2     		uxth	r3, r3
 359:common/lib.stm32/STM32_USB-FS-Device_Driver/src/usb_regs.c **** }
 1620              		.loc 1 359 1
 1621 002a 1846     		mov	r0, r3
 1622 002c 0C37     		adds	r7, r7, #12
 1623              	.LCFI148:
 1624              		.cfi_def_cfa_offset 4
 1625 002e BD46     		mov	sp, r7
 1626              	.LCFI149:
 1627              		.cfi_def_cfa_register 13
 1628              		@ sp needed
 1629 0030 80BC     		pop	{r7}
 1630              	.LCFI150:
 1631              		.cfi_restore 7
 1632              		.cfi_def_cfa_offset 0
 1633 0032 7047     		bx	lr
 1634              		.cfi_endproc
 1635              	.LFE53:
 1637              		.section	.text.GetRxStallStatus,"ax",%progbits
 1638              		.align	1
 1639              		.global	GetRxStallStatus
 1640              		.syntax unified
 1641              		.thumb
 1642              		.thumb_func
 1644              	GetRxStallStatus:
 1645              	.LFB54:
 360:common/lib.stm32/STM32_USB-FS-Device_Driver/src/usb_regs.c **** /*******************************************************************************
 361:common/lib.stm32/STM32_USB-FS-Device_Driver/src/usb_regs.c **** * Function Name  : GetRxStallStatus
 362:common/lib.stm32/STM32_USB-FS-Device_Driver/src/usb_regs.c **** * Description    : Returns the Stall status of the Rx endpoint. 
 363:common/lib.stm32/STM32_USB-FS-Device_Driver/src/usb_regs.c **** * Input          : bEpNum: Endpoint Number. 
 364:common/lib.stm32/STM32_USB-FS-Device_Driver/src/usb_regs.c **** * Output         : None.
 365:common/lib.stm32/STM32_USB-FS-Device_Driver/src/usb_regs.c **** * Return         : Rx Stall status.
 366:common/lib.stm32/STM32_USB-FS-Device_Driver/src/usb_regs.c **** *******************************************************************************/
 367:common/lib.stm32/STM32_USB-FS-Device_Driver/src/usb_regs.c **** uint16_t GetRxStallStatus(uint8_t bEpNum)
 368:common/lib.stm32/STM32_USB-FS-Device_Driver/src/usb_regs.c **** {
 1646              		.loc 1 368 1
 1647              		.cfi_startproc
 1648              		@ args = 0, pretend = 0, frame = 8
 1649              		@ frame_needed = 1, uses_anonymous_args = 0
 1650              		@ link register save eliminated.
 1651 0000 80B4     		push	{r7}
 1652              	.LCFI151:
 1653              		.cfi_def_cfa_offset 4
 1654              		.cfi_offset 7, -4
 1655 0002 83B0     		sub	sp, sp, #12
 1656              	.LCFI152:
 1657              		.cfi_def_cfa_offset 16
 1658 0004 00AF     		add	r7, sp, #0
 1659              	.LCFI153:
 1660              		.cfi_def_cfa_register 7
 1661 0006 0346     		mov	r3, r0
 1662 0008 FB71     		strb	r3, [r7, #7]
 369:common/lib.stm32/STM32_USB-FS-Device_Driver/src/usb_regs.c ****   return(_GetRxStallStatus(bEpNum));
 1663              		.loc 1 369 10
 1664 000a FB79     		ldrb	r3, [r7, #7]	@ zero_extendqisi2
 1665 000c 9B00     		lsls	r3, r3, #2
 1666 000e 03F18043 		add	r3, r3, #1073741824
 1667 0012 03F5B843 		add	r3, r3, #23552
 1668 0016 1B68     		ldr	r3, [r3]
 1669 0018 9BB2     		uxth	r3, r3
 1670 001a 03F44053 		and	r3, r3, #12288
 1671 001e B3F5805F 		cmp	r3, #4096
 1672 0022 0CBF     		ite	eq
 1673 0024 0123     		moveq	r3, #1
 1674 0026 0023     		movne	r3, #0
 1675 0028 DBB2     		uxtb	r3, r3
 1676 002a 9BB2     		uxth	r3, r3
 370:common/lib.stm32/STM32_USB-FS-Device_Driver/src/usb_regs.c **** }
 1677              		.loc 1 370 1
 1678 002c 1846     		mov	r0, r3
 1679 002e 0C37     		adds	r7, r7, #12
 1680              	.LCFI154:
 1681              		.cfi_def_cfa_offset 4
 1682 0030 BD46     		mov	sp, r7
 1683              	.LCFI155:
 1684              		.cfi_def_cfa_register 13
 1685              		@ sp needed
 1686 0032 80BC     		pop	{r7}
 1687              	.LCFI156:
 1688              		.cfi_restore 7
 1689              		.cfi_def_cfa_offset 0
 1690 0034 7047     		bx	lr
 1691              		.cfi_endproc
 1692              	.LFE54:
 1694              		.section	.text.ClearEP_CTR_RX,"ax",%progbits
 1695              		.align	1
 1696              		.global	ClearEP_CTR_RX
 1697              		.syntax unified
 1698              		.thumb
 1699              		.thumb_func
 1701              	ClearEP_CTR_RX:
 1702              	.LFB55:
 371:common/lib.stm32/STM32_USB-FS-Device_Driver/src/usb_regs.c **** /*******************************************************************************
 372:common/lib.stm32/STM32_USB-FS-Device_Driver/src/usb_regs.c **** * Function Name  : ClearEP_CTR_RX
 373:common/lib.stm32/STM32_USB-FS-Device_Driver/src/usb_regs.c **** * Description    : Clear the CTR_RX bit.
 374:common/lib.stm32/STM32_USB-FS-Device_Driver/src/usb_regs.c **** * Input          : bEpNum: Endpoint Number. 
 375:common/lib.stm32/STM32_USB-FS-Device_Driver/src/usb_regs.c **** * Output         : None.
 376:common/lib.stm32/STM32_USB-FS-Device_Driver/src/usb_regs.c **** * Return         : None.
 377:common/lib.stm32/STM32_USB-FS-Device_Driver/src/usb_regs.c **** *******************************************************************************/
 378:common/lib.stm32/STM32_USB-FS-Device_Driver/src/usb_regs.c **** void ClearEP_CTR_RX(uint8_t bEpNum)
 379:common/lib.stm32/STM32_USB-FS-Device_Driver/src/usb_regs.c **** {
 1703              		.loc 1 379 1
 1704              		.cfi_startproc
 1705              		@ args = 0, pretend = 0, frame = 8
 1706              		@ frame_needed = 1, uses_anonymous_args = 0
 1707              		@ link register save eliminated.
 1708 0000 80B4     		push	{r7}
 1709              	.LCFI157:
 1710              		.cfi_def_cfa_offset 4
 1711              		.cfi_offset 7, -4
 1712 0002 83B0     		sub	sp, sp, #12
 1713              	.LCFI158:
 1714              		.cfi_def_cfa_offset 16
 1715 0004 00AF     		add	r7, sp, #0
 1716              	.LCFI159:
 1717              		.cfi_def_cfa_register 7
 1718 0006 0346     		mov	r3, r0
 1719 0008 FB71     		strb	r3, [r7, #7]
 380:common/lib.stm32/STM32_USB-FS-Device_Driver/src/usb_regs.c ****   _ClearEP_CTR_RX(bEpNum);
 1720              		.loc 1 380 3
 1721 000a FB79     		ldrb	r3, [r7, #7]	@ zero_extendqisi2
 1722 000c 9B00     		lsls	r3, r3, #2
 1723 000e 03F18043 		add	r3, r3, #1073741824
 1724 0012 03F5B843 		add	r3, r3, #23552
 1725 0016 1B68     		ldr	r3, [r3]
 1726 0018 9BB2     		uxth	r3, r3
 1727 001a 1946     		mov	r1, r3
 1728 001c FB79     		ldrb	r3, [r7, #7]	@ zero_extendqisi2
 1729 001e 9B00     		lsls	r3, r3, #2
 1730 0020 03F18043 		add	r3, r3, #1073741824
 1731 0024 03F5B843 		add	r3, r3, #23552
 1732 0028 40F68F72 		movw	r2, #3983
 1733 002c 0A40     		ands	r2, r2, r1
 1734 002e 1A60     		str	r2, [r3]
 381:common/lib.stm32/STM32_USB-FS-Device_Driver/src/usb_regs.c **** }
 1735              		.loc 1 381 1
 1736 0030 00BF     		nop
 1737 0032 0C37     		adds	r7, r7, #12
 1738              	.LCFI160:
 1739              		.cfi_def_cfa_offset 4
 1740 0034 BD46     		mov	sp, r7
 1741              	.LCFI161:
 1742              		.cfi_def_cfa_register 13
 1743              		@ sp needed
 1744 0036 80BC     		pop	{r7}
 1745              	.LCFI162:
 1746              		.cfi_restore 7
 1747              		.cfi_def_cfa_offset 0
 1748 0038 7047     		bx	lr
 1749              		.cfi_endproc
 1750              	.LFE55:
 1752              		.section	.text.ClearEP_CTR_TX,"ax",%progbits
 1753              		.align	1
 1754              		.global	ClearEP_CTR_TX
 1755              		.syntax unified
 1756              		.thumb
 1757              		.thumb_func
 1759              	ClearEP_CTR_TX:
 1760              	.LFB56:
 382:common/lib.stm32/STM32_USB-FS-Device_Driver/src/usb_regs.c **** /*******************************************************************************
 383:common/lib.stm32/STM32_USB-FS-Device_Driver/src/usb_regs.c **** * Function Name  : ClearEP_CTR_TX
 384:common/lib.stm32/STM32_USB-FS-Device_Driver/src/usb_regs.c **** * Description    : Clear the CTR_TX bit.
 385:common/lib.stm32/STM32_USB-FS-Device_Driver/src/usb_regs.c **** * Input          : bEpNum: Endpoint Number. 
 386:common/lib.stm32/STM32_USB-FS-Device_Driver/src/usb_regs.c **** * Output         : None.
 387:common/lib.stm32/STM32_USB-FS-Device_Driver/src/usb_regs.c **** * Return         : None.
 388:common/lib.stm32/STM32_USB-FS-Device_Driver/src/usb_regs.c **** *******************************************************************************/
 389:common/lib.stm32/STM32_USB-FS-Device_Driver/src/usb_regs.c **** void ClearEP_CTR_TX(uint8_t bEpNum)
 390:common/lib.stm32/STM32_USB-FS-Device_Driver/src/usb_regs.c **** {
 1761              		.loc 1 390 1
 1762              		.cfi_startproc
 1763              		@ args = 0, pretend = 0, frame = 8
 1764              		@ frame_needed = 1, uses_anonymous_args = 0
 1765              		@ link register save eliminated.
 1766 0000 80B4     		push	{r7}
 1767              	.LCFI163:
 1768              		.cfi_def_cfa_offset 4
 1769              		.cfi_offset 7, -4
 1770 0002 83B0     		sub	sp, sp, #12
 1771              	.LCFI164:
 1772              		.cfi_def_cfa_offset 16
 1773 0004 00AF     		add	r7, sp, #0
 1774              	.LCFI165:
 1775              		.cfi_def_cfa_register 7
 1776 0006 0346     		mov	r3, r0
 1777 0008 FB71     		strb	r3, [r7, #7]
 391:common/lib.stm32/STM32_USB-FS-Device_Driver/src/usb_regs.c ****   _ClearEP_CTR_TX(bEpNum);
 1778              		.loc 1 391 3
 1779 000a FB79     		ldrb	r3, [r7, #7]	@ zero_extendqisi2
 1780 000c 9B00     		lsls	r3, r3, #2
 1781 000e 03F18043 		add	r3, r3, #1073741824
 1782 0012 03F5B843 		add	r3, r3, #23552
 1783 0016 1B68     		ldr	r3, [r3]
 1784 0018 9BB2     		uxth	r3, r3
 1785 001a 1946     		mov	r1, r3
 1786 001c FB79     		ldrb	r3, [r7, #7]	@ zero_extendqisi2
 1787 001e 9B00     		lsls	r3, r3, #2
 1788 0020 03F18043 		add	r3, r3, #1073741824
 1789 0024 03F5B843 		add	r3, r3, #23552
 1790 0028 48F60F72 		movw	r2, #36623
 1791 002c 0A40     		ands	r2, r2, r1
 1792 002e 1A60     		str	r2, [r3]
 392:common/lib.stm32/STM32_USB-FS-Device_Driver/src/usb_regs.c **** }
 1793              		.loc 1 392 1
 1794 0030 00BF     		nop
 1795 0032 0C37     		adds	r7, r7, #12
 1796              	.LCFI166:
 1797              		.cfi_def_cfa_offset 4
 1798 0034 BD46     		mov	sp, r7
 1799              	.LCFI167:
 1800              		.cfi_def_cfa_register 13
 1801              		@ sp needed
 1802 0036 80BC     		pop	{r7}
 1803              	.LCFI168:
 1804              		.cfi_restore 7
 1805              		.cfi_def_cfa_offset 0
 1806 0038 7047     		bx	lr
 1807              		.cfi_endproc
 1808              	.LFE56:
 1810              		.section	.text.ToggleDTOG_RX,"ax",%progbits
 1811              		.align	1
 1812              		.global	ToggleDTOG_RX
 1813              		.syntax unified
 1814              		.thumb
 1815              		.thumb_func
 1817              	ToggleDTOG_RX:
 1818              	.LFB57:
 393:common/lib.stm32/STM32_USB-FS-Device_Driver/src/usb_regs.c **** /*******************************************************************************
 394:common/lib.stm32/STM32_USB-FS-Device_Driver/src/usb_regs.c **** * Function Name  : ToggleDTOG_RX
 395:common/lib.stm32/STM32_USB-FS-Device_Driver/src/usb_regs.c **** * Description    : Toggle the DTOG_RX bit.
 396:common/lib.stm32/STM32_USB-FS-Device_Driver/src/usb_regs.c **** * Input          : bEpNum: Endpoint Number. 
 397:common/lib.stm32/STM32_USB-FS-Device_Driver/src/usb_regs.c **** * Output         : None.
 398:common/lib.stm32/STM32_USB-FS-Device_Driver/src/usb_regs.c **** * Return         : None.
 399:common/lib.stm32/STM32_USB-FS-Device_Driver/src/usb_regs.c **** *******************************************************************************/
 400:common/lib.stm32/STM32_USB-FS-Device_Driver/src/usb_regs.c **** void ToggleDTOG_RX(uint8_t bEpNum)
 401:common/lib.stm32/STM32_USB-FS-Device_Driver/src/usb_regs.c **** {
 1819              		.loc 1 401 1
 1820              		.cfi_startproc
 1821              		@ args = 0, pretend = 0, frame = 8
 1822              		@ frame_needed = 1, uses_anonymous_args = 0
 1823              		@ link register save eliminated.
 1824 0000 80B4     		push	{r7}
 1825              	.LCFI169:
 1826              		.cfi_def_cfa_offset 4
 1827              		.cfi_offset 7, -4
 1828 0002 83B0     		sub	sp, sp, #12
 1829              	.LCFI170:
 1830              		.cfi_def_cfa_offset 16
 1831 0004 00AF     		add	r7, sp, #0
 1832              	.LCFI171:
 1833              		.cfi_def_cfa_register 7
 1834 0006 0346     		mov	r3, r0
 1835 0008 FB71     		strb	r3, [r7, #7]
 402:common/lib.stm32/STM32_USB-FS-Device_Driver/src/usb_regs.c ****   _ToggleDTOG_RX(bEpNum);
 1836              		.loc 1 402 3
 1837 000a FB79     		ldrb	r3, [r7, #7]	@ zero_extendqisi2
 1838 000c 9B00     		lsls	r3, r3, #2
 1839 000e 03F18043 		add	r3, r3, #1073741824
 1840 0012 03F5B843 		add	r3, r3, #23552
 1841 0016 1B68     		ldr	r3, [r3]
 1842 0018 9BB2     		uxth	r3, r3
 1843 001a 1A46     		mov	r2, r3
 1844 001c 40F60F73 		movw	r3, #3855
 1845 0020 1340     		ands	r3, r3, r2
 1846 0022 43F44042 		orr	r2, r3, #49152
 1847 0026 42F08002 		orr	r2, r2, #128
 1848 002a FB79     		ldrb	r3, [r7, #7]	@ zero_extendqisi2
 1849 002c 9B00     		lsls	r3, r3, #2
 1850 002e 03F18043 		add	r3, r3, #1073741824
 1851 0032 03F5B843 		add	r3, r3, #23552
 1852 0036 1A60     		str	r2, [r3]
 403:common/lib.stm32/STM32_USB-FS-Device_Driver/src/usb_regs.c **** }
 1853              		.loc 1 403 1
 1854 0038 00BF     		nop
 1855 003a 0C37     		adds	r7, r7, #12
 1856              	.LCFI172:
 1857              		.cfi_def_cfa_offset 4
 1858 003c BD46     		mov	sp, r7
 1859              	.LCFI173:
 1860              		.cfi_def_cfa_register 13
 1861              		@ sp needed
 1862 003e 80BC     		pop	{r7}
 1863              	.LCFI174:
 1864              		.cfi_restore 7
 1865              		.cfi_def_cfa_offset 0
 1866 0040 7047     		bx	lr
 1867              		.cfi_endproc
 1868              	.LFE57:
 1870              		.section	.text.ToggleDTOG_TX,"ax",%progbits
 1871              		.align	1
 1872              		.global	ToggleDTOG_TX
 1873              		.syntax unified
 1874              		.thumb
 1875              		.thumb_func
 1877              	ToggleDTOG_TX:
 1878              	.LFB58:
 404:common/lib.stm32/STM32_USB-FS-Device_Driver/src/usb_regs.c **** /*******************************************************************************
 405:common/lib.stm32/STM32_USB-FS-Device_Driver/src/usb_regs.c **** * Function Name  : ToggleDTOG_TX
 406:common/lib.stm32/STM32_USB-FS-Device_Driver/src/usb_regs.c **** * Description    : Toggle the DTOG_TX bit.
 407:common/lib.stm32/STM32_USB-FS-Device_Driver/src/usb_regs.c **** * Input          : bEpNum: Endpoint Number. 
 408:common/lib.stm32/STM32_USB-FS-Device_Driver/src/usb_regs.c **** * Output         : None.
 409:common/lib.stm32/STM32_USB-FS-Device_Driver/src/usb_regs.c **** * Return         : None.
 410:common/lib.stm32/STM32_USB-FS-Device_Driver/src/usb_regs.c **** *******************************************************************************/
 411:common/lib.stm32/STM32_USB-FS-Device_Driver/src/usb_regs.c **** void ToggleDTOG_TX(uint8_t bEpNum)
 412:common/lib.stm32/STM32_USB-FS-Device_Driver/src/usb_regs.c **** {
 1879              		.loc 1 412 1
 1880              		.cfi_startproc
 1881              		@ args = 0, pretend = 0, frame = 8
 1882              		@ frame_needed = 1, uses_anonymous_args = 0
 1883              		@ link register save eliminated.
 1884 0000 80B4     		push	{r7}
 1885              	.LCFI175:
 1886              		.cfi_def_cfa_offset 4
 1887              		.cfi_offset 7, -4
 1888 0002 83B0     		sub	sp, sp, #12
 1889              	.LCFI176:
 1890              		.cfi_def_cfa_offset 16
 1891 0004 00AF     		add	r7, sp, #0
 1892              	.LCFI177:
 1893              		.cfi_def_cfa_register 7
 1894 0006 0346     		mov	r3, r0
 1895 0008 FB71     		strb	r3, [r7, #7]
 413:common/lib.stm32/STM32_USB-FS-Device_Driver/src/usb_regs.c ****   _ToggleDTOG_TX(bEpNum);
 1896              		.loc 1 413 3
 1897 000a FB79     		ldrb	r3, [r7, #7]	@ zero_extendqisi2
 1898 000c 9B00     		lsls	r3, r3, #2
 1899 000e 03F18043 		add	r3, r3, #1073741824
 1900 0012 03F5B843 		add	r3, r3, #23552
 1901 0016 1B68     		ldr	r3, [r3]
 1902 0018 9BB2     		uxth	r3, r3
 1903 001a 1A46     		mov	r2, r3
 1904 001c 40F60F73 		movw	r3, #3855
 1905 0020 1340     		ands	r3, r3, r2
 1906 0022 43F40042 		orr	r2, r3, #32768
 1907 0026 42F0C002 		orr	r2, r2, #192
 1908 002a FB79     		ldrb	r3, [r7, #7]	@ zero_extendqisi2
 1909 002c 9B00     		lsls	r3, r3, #2
 1910 002e 03F18043 		add	r3, r3, #1073741824
 1911 0032 03F5B843 		add	r3, r3, #23552
 1912 0036 1A60     		str	r2, [r3]
 414:common/lib.stm32/STM32_USB-FS-Device_Driver/src/usb_regs.c **** }
 1913              		.loc 1 414 1
 1914 0038 00BF     		nop
 1915 003a 0C37     		adds	r7, r7, #12
 1916              	.LCFI178:
 1917              		.cfi_def_cfa_offset 4
 1918 003c BD46     		mov	sp, r7
 1919              	.LCFI179:
 1920              		.cfi_def_cfa_register 13
 1921              		@ sp needed
 1922 003e 80BC     		pop	{r7}
 1923              	.LCFI180:
 1924              		.cfi_restore 7
 1925              		.cfi_def_cfa_offset 0
 1926 0040 7047     		bx	lr
 1927              		.cfi_endproc
 1928              	.LFE58:
 1930              		.section	.text.ClearDTOG_RX,"ax",%progbits
 1931              		.align	1
 1932              		.global	ClearDTOG_RX
 1933              		.syntax unified
 1934              		.thumb
 1935              		.thumb_func
 1937              	ClearDTOG_RX:
 1938              	.LFB59:
 415:common/lib.stm32/STM32_USB-FS-Device_Driver/src/usb_regs.c **** /*******************************************************************************
 416:common/lib.stm32/STM32_USB-FS-Device_Driver/src/usb_regs.c **** * Function Name  : ClearDTOG_RX.
 417:common/lib.stm32/STM32_USB-FS-Device_Driver/src/usb_regs.c **** * Description    : Clear the DTOG_RX bit.
 418:common/lib.stm32/STM32_USB-FS-Device_Driver/src/usb_regs.c **** * Input          : bEpNum: Endpoint Number. 
 419:common/lib.stm32/STM32_USB-FS-Device_Driver/src/usb_regs.c **** * Output         : None.
 420:common/lib.stm32/STM32_USB-FS-Device_Driver/src/usb_regs.c **** * Return         : None.
 421:common/lib.stm32/STM32_USB-FS-Device_Driver/src/usb_regs.c **** *******************************************************************************/
 422:common/lib.stm32/STM32_USB-FS-Device_Driver/src/usb_regs.c **** void ClearDTOG_RX(uint8_t bEpNum)
 423:common/lib.stm32/STM32_USB-FS-Device_Driver/src/usb_regs.c **** {
 1939              		.loc 1 423 1
 1940              		.cfi_startproc
 1941              		@ args = 0, pretend = 0, frame = 8
 1942              		@ frame_needed = 1, uses_anonymous_args = 0
 1943              		@ link register save eliminated.
 1944 0000 80B4     		push	{r7}
 1945              	.LCFI181:
 1946              		.cfi_def_cfa_offset 4
 1947              		.cfi_offset 7, -4
 1948 0002 83B0     		sub	sp, sp, #12
 1949              	.LCFI182:
 1950              		.cfi_def_cfa_offset 16
 1951 0004 00AF     		add	r7, sp, #0
 1952              	.LCFI183:
 1953              		.cfi_def_cfa_register 7
 1954 0006 0346     		mov	r3, r0
 1955 0008 FB71     		strb	r3, [r7, #7]
 424:common/lib.stm32/STM32_USB-FS-Device_Driver/src/usb_regs.c ****   _ClearDTOG_RX(bEpNum);
 1956              		.loc 1 424 3
 1957 000a FB79     		ldrb	r3, [r7, #7]	@ zero_extendqisi2
 1958 000c 9B00     		lsls	r3, r3, #2
 1959 000e 03F18043 		add	r3, r3, #1073741824
 1960 0012 03F5B843 		add	r3, r3, #23552
 1961 0016 1B68     		ldr	r3, [r3]
 1962 0018 9BB2     		uxth	r3, r3
 1963 001a 03F48043 		and	r3, r3, #16384
 1964 001e 002B     		cmp	r3, #0
 1965 0020 16D0     		beq	.L93
 1966              		.loc 1 424 3 is_stmt 0 discriminator 1
 1967 0022 FB79     		ldrb	r3, [r7, #7]	@ zero_extendqisi2
 1968 0024 9B00     		lsls	r3, r3, #2
 1969 0026 03F18043 		add	r3, r3, #1073741824
 1970 002a 03F5B843 		add	r3, r3, #23552
 1971 002e 1B68     		ldr	r3, [r3]
 1972 0030 9BB2     		uxth	r3, r3
 1973 0032 1A46     		mov	r2, r3
 1974 0034 40F60F73 		movw	r3, #3855
 1975 0038 1340     		ands	r3, r3, r2
 1976 003a 43F44042 		orr	r2, r3, #49152
 1977 003e 42F08002 		orr	r2, r2, #128
 1978 0042 FB79     		ldrb	r3, [r7, #7]	@ zero_extendqisi2
 1979 0044 9B00     		lsls	r3, r3, #2
 1980 0046 03F18043 		add	r3, r3, #1073741824
 1981 004a 03F5B843 		add	r3, r3, #23552
 1982 004e 1A60     		str	r2, [r3]
 1983              	.L93:
 425:common/lib.stm32/STM32_USB-FS-Device_Driver/src/usb_regs.c **** }
 1984              		.loc 1 425 1 is_stmt 1
 1985 0050 00BF     		nop
 1986 0052 0C37     		adds	r7, r7, #12
 1987              	.LCFI184:
 1988              		.cfi_def_cfa_offset 4
 1989 0054 BD46     		mov	sp, r7
 1990              	.LCFI185:
 1991              		.cfi_def_cfa_register 13
 1992              		@ sp needed
 1993 0056 80BC     		pop	{r7}
 1994              	.LCFI186:
 1995              		.cfi_restore 7
 1996              		.cfi_def_cfa_offset 0
 1997 0058 7047     		bx	lr
 1998              		.cfi_endproc
 1999              	.LFE59:
 2001              		.section	.text.ClearDTOG_TX,"ax",%progbits
 2002              		.align	1
 2003              		.global	ClearDTOG_TX
 2004              		.syntax unified
 2005              		.thumb
 2006              		.thumb_func
 2008              	ClearDTOG_TX:
 2009              	.LFB60:
 426:common/lib.stm32/STM32_USB-FS-Device_Driver/src/usb_regs.c **** /*******************************************************************************
 427:common/lib.stm32/STM32_USB-FS-Device_Driver/src/usb_regs.c **** * Function Name  : ClearDTOG_TX.
 428:common/lib.stm32/STM32_USB-FS-Device_Driver/src/usb_regs.c **** * Description    : Clear the DTOG_TX bit.
 429:common/lib.stm32/STM32_USB-FS-Device_Driver/src/usb_regs.c **** * Input          : bEpNum: Endpoint Number. 
 430:common/lib.stm32/STM32_USB-FS-Device_Driver/src/usb_regs.c **** * Output         : None.
 431:common/lib.stm32/STM32_USB-FS-Device_Driver/src/usb_regs.c **** * Return         : None.
 432:common/lib.stm32/STM32_USB-FS-Device_Driver/src/usb_regs.c **** *******************************************************************************/
 433:common/lib.stm32/STM32_USB-FS-Device_Driver/src/usb_regs.c **** void ClearDTOG_TX(uint8_t bEpNum)
 434:common/lib.stm32/STM32_USB-FS-Device_Driver/src/usb_regs.c **** {
 2010              		.loc 1 434 1
 2011              		.cfi_startproc
 2012              		@ args = 0, pretend = 0, frame = 8
 2013              		@ frame_needed = 1, uses_anonymous_args = 0
 2014              		@ link register save eliminated.
 2015 0000 80B4     		push	{r7}
 2016              	.LCFI187:
 2017              		.cfi_def_cfa_offset 4
 2018              		.cfi_offset 7, -4
 2019 0002 83B0     		sub	sp, sp, #12
 2020              	.LCFI188:
 2021              		.cfi_def_cfa_offset 16
 2022 0004 00AF     		add	r7, sp, #0
 2023              	.LCFI189:
 2024              		.cfi_def_cfa_register 7
 2025 0006 0346     		mov	r3, r0
 2026 0008 FB71     		strb	r3, [r7, #7]
 435:common/lib.stm32/STM32_USB-FS-Device_Driver/src/usb_regs.c ****   _ClearDTOG_TX(bEpNum);
 2027              		.loc 1 435 3
 2028 000a FB79     		ldrb	r3, [r7, #7]	@ zero_extendqisi2
 2029 000c 9B00     		lsls	r3, r3, #2
 2030 000e 03F18043 		add	r3, r3, #1073741824
 2031 0012 03F5B843 		add	r3, r3, #23552
 2032 0016 1B68     		ldr	r3, [r3]
 2033 0018 9BB2     		uxth	r3, r3
 2034 001a 03F04003 		and	r3, r3, #64
 2035 001e 002B     		cmp	r3, #0
 2036 0020 16D0     		beq	.L96
 2037              		.loc 1 435 3 is_stmt 0 discriminator 1
 2038 0022 FB79     		ldrb	r3, [r7, #7]	@ zero_extendqisi2
 2039 0024 9B00     		lsls	r3, r3, #2
 2040 0026 03F18043 		add	r3, r3, #1073741824
 2041 002a 03F5B843 		add	r3, r3, #23552
 2042 002e 1B68     		ldr	r3, [r3]
 2043 0030 9BB2     		uxth	r3, r3
 2044 0032 1A46     		mov	r2, r3
 2045 0034 40F60F73 		movw	r3, #3855
 2046 0038 1340     		ands	r3, r3, r2
 2047 003a 43F40042 		orr	r2, r3, #32768
 2048 003e 42F0C002 		orr	r2, r2, #192
 2049 0042 FB79     		ldrb	r3, [r7, #7]	@ zero_extendqisi2
 2050 0044 9B00     		lsls	r3, r3, #2
 2051 0046 03F18043 		add	r3, r3, #1073741824
 2052 004a 03F5B843 		add	r3, r3, #23552
 2053 004e 1A60     		str	r2, [r3]
 2054              	.L96:
 436:common/lib.stm32/STM32_USB-FS-Device_Driver/src/usb_regs.c **** }
 2055              		.loc 1 436 1 is_stmt 1
 2056 0050 00BF     		nop
 2057 0052 0C37     		adds	r7, r7, #12
 2058              	.LCFI190:
 2059              		.cfi_def_cfa_offset 4
 2060 0054 BD46     		mov	sp, r7
 2061              	.LCFI191:
 2062              		.cfi_def_cfa_register 13
 2063              		@ sp needed
 2064 0056 80BC     		pop	{r7}
 2065              	.LCFI192:
 2066              		.cfi_restore 7
 2067              		.cfi_def_cfa_offset 0
 2068 0058 7047     		bx	lr
 2069              		.cfi_endproc
 2070              	.LFE60:
 2072              		.section	.text.SetEPAddress,"ax",%progbits
 2073              		.align	1
 2074              		.global	SetEPAddress
 2075              		.syntax unified
 2076              		.thumb
 2077              		.thumb_func
 2079              	SetEPAddress:
 2080              	.LFB61:
 437:common/lib.stm32/STM32_USB-FS-Device_Driver/src/usb_regs.c **** /*******************************************************************************
 438:common/lib.stm32/STM32_USB-FS-Device_Driver/src/usb_regs.c **** * Function Name  : SetEPAddress
 439:common/lib.stm32/STM32_USB-FS-Device_Driver/src/usb_regs.c **** * Description    : Set the endpoint address.
 440:common/lib.stm32/STM32_USB-FS-Device_Driver/src/usb_regs.c **** * Input          : bEpNum: Endpoint Number.
 441:common/lib.stm32/STM32_USB-FS-Device_Driver/src/usb_regs.c **** *                  bAddr: New endpoint address.
 442:common/lib.stm32/STM32_USB-FS-Device_Driver/src/usb_regs.c **** * Output         : None.
 443:common/lib.stm32/STM32_USB-FS-Device_Driver/src/usb_regs.c **** * Return         : None.
 444:common/lib.stm32/STM32_USB-FS-Device_Driver/src/usb_regs.c **** *******************************************************************************/
 445:common/lib.stm32/STM32_USB-FS-Device_Driver/src/usb_regs.c **** void SetEPAddress(uint8_t bEpNum, uint8_t bAddr)
 446:common/lib.stm32/STM32_USB-FS-Device_Driver/src/usb_regs.c **** {
 2081              		.loc 1 446 1
 2082              		.cfi_startproc
 2083              		@ args = 0, pretend = 0, frame = 8
 2084              		@ frame_needed = 1, uses_anonymous_args = 0
 2085              		@ link register save eliminated.
 2086 0000 80B4     		push	{r7}
 2087              	.LCFI193:
 2088              		.cfi_def_cfa_offset 4
 2089              		.cfi_offset 7, -4
 2090 0002 83B0     		sub	sp, sp, #12
 2091              	.LCFI194:
 2092              		.cfi_def_cfa_offset 16
 2093 0004 00AF     		add	r7, sp, #0
 2094              	.LCFI195:
 2095              		.cfi_def_cfa_register 7
 2096 0006 0346     		mov	r3, r0
 2097 0008 0A46     		mov	r2, r1
 2098 000a FB71     		strb	r3, [r7, #7]
 2099 000c 1346     		mov	r3, r2
 2100 000e BB71     		strb	r3, [r7, #6]
 447:common/lib.stm32/STM32_USB-FS-Device_Driver/src/usb_regs.c ****   _SetEPAddress(bEpNum, bAddr);
 2101              		.loc 1 447 3
 2102 0010 FB79     		ldrb	r3, [r7, #7]	@ zero_extendqisi2
 2103 0012 9B00     		lsls	r3, r3, #2
 2104 0014 03F18043 		add	r3, r3, #1073741824
 2105 0018 03F5B843 		add	r3, r3, #23552
 2106 001c 1B68     		ldr	r3, [r3]
 2107 001e 9BB2     		uxth	r3, r3
 2108 0020 1A46     		mov	r2, r3
 2109 0022 40F60F73 		movw	r3, #3855
 2110 0026 1340     		ands	r3, r3, r2
 2111 0028 43F40043 		orr	r3, r3, #32768
 2112 002c 43F08003 		orr	r3, r3, #128
 2113 0030 BA79     		ldrb	r2, [r7, #6]	@ zero_extendqisi2
 2114 0032 1A43     		orrs	r2, r2, r3
 2115 0034 FB79     		ldrb	r3, [r7, #7]	@ zero_extendqisi2
 2116 0036 9B00     		lsls	r3, r3, #2
 2117 0038 03F18043 		add	r3, r3, #1073741824
 2118 003c 03F5B843 		add	r3, r3, #23552
 2119 0040 1A60     		str	r2, [r3]
 448:common/lib.stm32/STM32_USB-FS-Device_Driver/src/usb_regs.c **** }
 2120              		.loc 1 448 1
 2121 0042 00BF     		nop
 2122 0044 0C37     		adds	r7, r7, #12
 2123              	.LCFI196:
 2124              		.cfi_def_cfa_offset 4
 2125 0046 BD46     		mov	sp, r7
 2126              	.LCFI197:
 2127              		.cfi_def_cfa_register 13
 2128              		@ sp needed
 2129 0048 80BC     		pop	{r7}
 2130              	.LCFI198:
 2131              		.cfi_restore 7
 2132              		.cfi_def_cfa_offset 0
 2133 004a 7047     		bx	lr
 2134              		.cfi_endproc
 2135              	.LFE61:
 2137              		.section	.text.GetEPAddress,"ax",%progbits
 2138              		.align	1
 2139              		.global	GetEPAddress
 2140              		.syntax unified
 2141              		.thumb
 2142              		.thumb_func
 2144              	GetEPAddress:
 2145              	.LFB62:
 449:common/lib.stm32/STM32_USB-FS-Device_Driver/src/usb_regs.c **** /*******************************************************************************
 450:common/lib.stm32/STM32_USB-FS-Device_Driver/src/usb_regs.c **** * Function Name  : GetEPAddress
 451:common/lib.stm32/STM32_USB-FS-Device_Driver/src/usb_regs.c **** * Description    : Get the endpoint address.
 452:common/lib.stm32/STM32_USB-FS-Device_Driver/src/usb_regs.c **** * Input          : bEpNum: Endpoint Number. 
 453:common/lib.stm32/STM32_USB-FS-Device_Driver/src/usb_regs.c **** * Output         : None.
 454:common/lib.stm32/STM32_USB-FS-Device_Driver/src/usb_regs.c **** * Return         : Endpoint address.
 455:common/lib.stm32/STM32_USB-FS-Device_Driver/src/usb_regs.c **** *******************************************************************************/
 456:common/lib.stm32/STM32_USB-FS-Device_Driver/src/usb_regs.c **** uint8_t GetEPAddress(uint8_t bEpNum)
 457:common/lib.stm32/STM32_USB-FS-Device_Driver/src/usb_regs.c **** {
 2146              		.loc 1 457 1
 2147              		.cfi_startproc
 2148              		@ args = 0, pretend = 0, frame = 8
 2149              		@ frame_needed = 1, uses_anonymous_args = 0
 2150              		@ link register save eliminated.
 2151 0000 80B4     		push	{r7}
 2152              	.LCFI199:
 2153              		.cfi_def_cfa_offset 4
 2154              		.cfi_offset 7, -4
 2155 0002 83B0     		sub	sp, sp, #12
 2156              	.LCFI200:
 2157              		.cfi_def_cfa_offset 16
 2158 0004 00AF     		add	r7, sp, #0
 2159              	.LCFI201:
 2160              		.cfi_def_cfa_register 7
 2161 0006 0346     		mov	r3, r0
 2162 0008 FB71     		strb	r3, [r7, #7]
 458:common/lib.stm32/STM32_USB-FS-Device_Driver/src/usb_regs.c ****   return(_GetEPAddress(bEpNum));
 2163              		.loc 1 458 10
 2164 000a FB79     		ldrb	r3, [r7, #7]	@ zero_extendqisi2
 2165 000c 9B00     		lsls	r3, r3, #2
 2166 000e 03F18043 		add	r3, r3, #1073741824
 2167 0012 03F5B843 		add	r3, r3, #23552
 2168 0016 1B68     		ldr	r3, [r3]
 2169 0018 DBB2     		uxtb	r3, r3
 2170 001a 03F00F03 		and	r3, r3, #15
 2171 001e DBB2     		uxtb	r3, r3
 459:common/lib.stm32/STM32_USB-FS-Device_Driver/src/usb_regs.c **** }
 2172              		.loc 1 459 1
 2173 0020 1846     		mov	r0, r3
 2174 0022 0C37     		adds	r7, r7, #12
 2175              	.LCFI202:
 2176              		.cfi_def_cfa_offset 4
 2177 0024 BD46     		mov	sp, r7
 2178              	.LCFI203:
 2179              		.cfi_def_cfa_register 13
 2180              		@ sp needed
 2181 0026 80BC     		pop	{r7}
 2182              	.LCFI204:
 2183              		.cfi_restore 7
 2184              		.cfi_def_cfa_offset 0
 2185 0028 7047     		bx	lr
 2186              		.cfi_endproc
 2187              	.LFE62:
 2189              		.section	.text.SetEPTxAddr,"ax",%progbits
 2190              		.align	1
 2191              		.global	SetEPTxAddr
 2192              		.syntax unified
 2193              		.thumb
 2194              		.thumb_func
 2196              	SetEPTxAddr:
 2197              	.LFB63:
 460:common/lib.stm32/STM32_USB-FS-Device_Driver/src/usb_regs.c **** /*******************************************************************************
 461:common/lib.stm32/STM32_USB-FS-Device_Driver/src/usb_regs.c **** * Function Name  : SetEPTxAddr
 462:common/lib.stm32/STM32_USB-FS-Device_Driver/src/usb_regs.c **** * Description    : Set the endpoint Tx buffer address.
 463:common/lib.stm32/STM32_USB-FS-Device_Driver/src/usb_regs.c **** * Input          : bEpNum: Endpoint Number.
 464:common/lib.stm32/STM32_USB-FS-Device_Driver/src/usb_regs.c **** *                  wAddr: new address. 
 465:common/lib.stm32/STM32_USB-FS-Device_Driver/src/usb_regs.c **** * Output         : None.
 466:common/lib.stm32/STM32_USB-FS-Device_Driver/src/usb_regs.c **** * Return         : None.
 467:common/lib.stm32/STM32_USB-FS-Device_Driver/src/usb_regs.c **** *******************************************************************************/
 468:common/lib.stm32/STM32_USB-FS-Device_Driver/src/usb_regs.c **** void SetEPTxAddr(uint8_t bEpNum, uint16_t wAddr)
 469:common/lib.stm32/STM32_USB-FS-Device_Driver/src/usb_regs.c **** {
 2198              		.loc 1 469 1
 2199              		.cfi_startproc
 2200              		@ args = 0, pretend = 0, frame = 8
 2201              		@ frame_needed = 1, uses_anonymous_args = 0
 2202              		@ link register save eliminated.
 2203 0000 80B4     		push	{r7}
 2204              	.LCFI205:
 2205              		.cfi_def_cfa_offset 4
 2206              		.cfi_offset 7, -4
 2207 0002 83B0     		sub	sp, sp, #12
 2208              	.LCFI206:
 2209              		.cfi_def_cfa_offset 16
 2210 0004 00AF     		add	r7, sp, #0
 2211              	.LCFI207:
 2212              		.cfi_def_cfa_register 7
 2213 0006 0346     		mov	r3, r0
 2214 0008 0A46     		mov	r2, r1
 2215 000a FB71     		strb	r3, [r7, #7]
 2216 000c 1346     		mov	r3, r2	@ movhi
 2217 000e BB80     		strh	r3, [r7, #4]	@ movhi
 470:common/lib.stm32/STM32_USB-FS-Device_Driver/src/usb_regs.c ****   _SetEPTxAddr(bEpNum, wAddr);
 2218              		.loc 1 470 3
 2219 0010 BB88     		ldrh	r3, [r7, #4]
 2220 0012 5B08     		lsrs	r3, r3, #1
 2221 0014 9BB2     		uxth	r3, r3
 2222 0016 5A00     		lsls	r2, r3, #1
 2223 0018 084B     		ldr	r3, .L101
 2224 001a 1B68     		ldr	r3, [r3]
 2225 001c 9BB2     		uxth	r3, r3
 2226 001e 1946     		mov	r1, r3
 2227 0020 FB79     		ldrb	r3, [r7, #7]	@ zero_extendqisi2
 2228 0022 DB00     		lsls	r3, r3, #3
 2229 0024 0B44     		add	r3, r3, r1
 2230 0026 03F10053 		add	r3, r3, #536870912
 2231 002a 03F54053 		add	r3, r3, #12288
 2232 002e 5B00     		lsls	r3, r3, #1
 2233 0030 1A60     		str	r2, [r3]
 471:common/lib.stm32/STM32_USB-FS-Device_Driver/src/usb_regs.c **** }
 2234              		.loc 1 471 1
 2235 0032 00BF     		nop
 2236 0034 0C37     		adds	r7, r7, #12
 2237              	.LCFI208:
 2238              		.cfi_def_cfa_offset 4
 2239 0036 BD46     		mov	sp, r7
 2240              	.LCFI209:
 2241              		.cfi_def_cfa_register 13
 2242              		@ sp needed
 2243 0038 80BC     		pop	{r7}
 2244              	.LCFI210:
 2245              		.cfi_restore 7
 2246              		.cfi_def_cfa_offset 0
 2247 003a 7047     		bx	lr
 2248              	.L102:
 2249              		.align	2
 2250              	.L101:
 2251 003c 505C0040 		.word	1073765456
 2252              		.cfi_endproc
 2253              	.LFE63:
 2255              		.section	.text.SetEPRxAddr,"ax",%progbits
 2256              		.align	1
 2257              		.global	SetEPRxAddr
 2258              		.syntax unified
 2259              		.thumb
 2260              		.thumb_func
 2262              	SetEPRxAddr:
 2263              	.LFB64:
 472:common/lib.stm32/STM32_USB-FS-Device_Driver/src/usb_regs.c **** /*******************************************************************************
 473:common/lib.stm32/STM32_USB-FS-Device_Driver/src/usb_regs.c **** * Function Name  : SetEPRxAddr
 474:common/lib.stm32/STM32_USB-FS-Device_Driver/src/usb_regs.c **** * Description    : Set the endpoint Rx buffer address.
 475:common/lib.stm32/STM32_USB-FS-Device_Driver/src/usb_regs.c **** * Input          : bEpNum: Endpoint Number.
 476:common/lib.stm32/STM32_USB-FS-Device_Driver/src/usb_regs.c **** *                  wAddr: new address.
 477:common/lib.stm32/STM32_USB-FS-Device_Driver/src/usb_regs.c **** * Output         : None.
 478:common/lib.stm32/STM32_USB-FS-Device_Driver/src/usb_regs.c **** * Return         : None.
 479:common/lib.stm32/STM32_USB-FS-Device_Driver/src/usb_regs.c **** *******************************************************************************/
 480:common/lib.stm32/STM32_USB-FS-Device_Driver/src/usb_regs.c **** void SetEPRxAddr(uint8_t bEpNum, uint16_t wAddr)
 481:common/lib.stm32/STM32_USB-FS-Device_Driver/src/usb_regs.c **** {
 2264              		.loc 1 481 1
 2265              		.cfi_startproc
 2266              		@ args = 0, pretend = 0, frame = 8
 2267              		@ frame_needed = 1, uses_anonymous_args = 0
 2268              		@ link register save eliminated.
 2269 0000 80B4     		push	{r7}
 2270              	.LCFI211:
 2271              		.cfi_def_cfa_offset 4
 2272              		.cfi_offset 7, -4
 2273 0002 83B0     		sub	sp, sp, #12
 2274              	.LCFI212:
 2275              		.cfi_def_cfa_offset 16
 2276 0004 00AF     		add	r7, sp, #0
 2277              	.LCFI213:
 2278              		.cfi_def_cfa_register 7
 2279 0006 0346     		mov	r3, r0
 2280 0008 0A46     		mov	r2, r1
 2281 000a FB71     		strb	r3, [r7, #7]
 2282 000c 1346     		mov	r3, r2	@ movhi
 2283 000e BB80     		strh	r3, [r7, #4]	@ movhi
 482:common/lib.stm32/STM32_USB-FS-Device_Driver/src/usb_regs.c ****   _SetEPRxAddr(bEpNum, wAddr);
 2284              		.loc 1 482 3
 2285 0010 BB88     		ldrh	r3, [r7, #4]
 2286 0012 5B08     		lsrs	r3, r3, #1
 2287 0014 9BB2     		uxth	r3, r3
 2288 0016 5900     		lsls	r1, r3, #1
 2289 0018 084B     		ldr	r3, .L104
 2290 001a 1B68     		ldr	r3, [r3]
 2291 001c 9BB2     		uxth	r3, r3
 2292 001e 1A46     		mov	r2, r3
 2293 0020 FB79     		ldrb	r3, [r7, #7]	@ zero_extendqisi2
 2294 0022 DB00     		lsls	r3, r3, #3
 2295 0024 1A44     		add	r2, r2, r3
 2296 0026 064B     		ldr	r3, .L104+4
 2297 0028 1344     		add	r3, r3, r2
 2298 002a 5B00     		lsls	r3, r3, #1
 2299 002c 0A46     		mov	r2, r1
 2300 002e 1A60     		str	r2, [r3]
 483:common/lib.stm32/STM32_USB-FS-Device_Driver/src/usb_regs.c **** }
 2301              		.loc 1 483 1
 2302 0030 00BF     		nop
 2303 0032 0C37     		adds	r7, r7, #12
 2304              	.LCFI214:
 2305              		.cfi_def_cfa_offset 4
 2306 0034 BD46     		mov	sp, r7
 2307              	.LCFI215:
 2308              		.cfi_def_cfa_register 13
 2309              		@ sp needed
 2310 0036 80BC     		pop	{r7}
 2311              	.LCFI216:
 2312              		.cfi_restore 7
 2313              		.cfi_def_cfa_offset 0
 2314 0038 7047     		bx	lr
 2315              	.L105:
 2316 003a 00BF     		.align	2
 2317              	.L104:
 2318 003c 505C0040 		.word	1073765456
 2319 0040 04300020 		.word	536883204
 2320              		.cfi_endproc
 2321              	.LFE64:
 2323              		.section	.text.GetEPTxAddr,"ax",%progbits
 2324              		.align	1
 2325              		.global	GetEPTxAddr
 2326              		.syntax unified
 2327              		.thumb
 2328              		.thumb_func
 2330              	GetEPTxAddr:
 2331              	.LFB65:
 484:common/lib.stm32/STM32_USB-FS-Device_Driver/src/usb_regs.c **** /*******************************************************************************
 485:common/lib.stm32/STM32_USB-FS-Device_Driver/src/usb_regs.c **** * Function Name  : GetEPTxAddr
 486:common/lib.stm32/STM32_USB-FS-Device_Driver/src/usb_regs.c **** * Description    : Returns the endpoint Tx buffer address.
 487:common/lib.stm32/STM32_USB-FS-Device_Driver/src/usb_regs.c **** * Input          : bEpNum: Endpoint Number. 
 488:common/lib.stm32/STM32_USB-FS-Device_Driver/src/usb_regs.c **** * Output         : None.
 489:common/lib.stm32/STM32_USB-FS-Device_Driver/src/usb_regs.c **** * Return         : Rx buffer address. 
 490:common/lib.stm32/STM32_USB-FS-Device_Driver/src/usb_regs.c **** *******************************************************************************/
 491:common/lib.stm32/STM32_USB-FS-Device_Driver/src/usb_regs.c **** uint16_t GetEPTxAddr(uint8_t bEpNum)
 492:common/lib.stm32/STM32_USB-FS-Device_Driver/src/usb_regs.c **** {
 2332              		.loc 1 492 1
 2333              		.cfi_startproc
 2334              		@ args = 0, pretend = 0, frame = 8
 2335              		@ frame_needed = 1, uses_anonymous_args = 0
 2336              		@ link register save eliminated.
 2337 0000 80B4     		push	{r7}
 2338              	.LCFI217:
 2339              		.cfi_def_cfa_offset 4
 2340              		.cfi_offset 7, -4
 2341 0002 83B0     		sub	sp, sp, #12
 2342              	.LCFI218:
 2343              		.cfi_def_cfa_offset 16
 2344 0004 00AF     		add	r7, sp, #0
 2345              	.LCFI219:
 2346              		.cfi_def_cfa_register 7
 2347 0006 0346     		mov	r3, r0
 2348 0008 FB71     		strb	r3, [r7, #7]
 493:common/lib.stm32/STM32_USB-FS-Device_Driver/src/usb_regs.c ****   return(_GetEPTxAddr(bEpNum));
 2349              		.loc 1 493 10
 2350 000a 094B     		ldr	r3, .L108
 2351 000c 1B68     		ldr	r3, [r3]
 2352 000e 9BB2     		uxth	r3, r3
 2353 0010 1A46     		mov	r2, r3
 2354 0012 FB79     		ldrb	r3, [r7, #7]	@ zero_extendqisi2
 2355 0014 DB00     		lsls	r3, r3, #3
 2356 0016 1344     		add	r3, r3, r2
 2357 0018 03F10053 		add	r3, r3, #536870912
 2358 001c 03F54053 		add	r3, r3, #12288
 2359 0020 5B00     		lsls	r3, r3, #1
 2360 0022 1B68     		ldr	r3, [r3]
 2361 0024 9BB2     		uxth	r3, r3
 494:common/lib.stm32/STM32_USB-FS-Device_Driver/src/usb_regs.c **** }
 2362              		.loc 1 494 1
 2363 0026 1846     		mov	r0, r3
 2364 0028 0C37     		adds	r7, r7, #12
 2365              	.LCFI220:
 2366              		.cfi_def_cfa_offset 4
 2367 002a BD46     		mov	sp, r7
 2368              	.LCFI221:
 2369              		.cfi_def_cfa_register 13
 2370              		@ sp needed
 2371 002c 80BC     		pop	{r7}
 2372              	.LCFI222:
 2373              		.cfi_restore 7
 2374              		.cfi_def_cfa_offset 0
 2375 002e 7047     		bx	lr
 2376              	.L109:
 2377              		.align	2
 2378              	.L108:
 2379 0030 505C0040 		.word	1073765456
 2380              		.cfi_endproc
 2381              	.LFE65:
 2383              		.section	.text.GetEPRxAddr,"ax",%progbits
 2384              		.align	1
 2385              		.global	GetEPRxAddr
 2386              		.syntax unified
 2387              		.thumb
 2388              		.thumb_func
 2390              	GetEPRxAddr:
 2391              	.LFB66:
 495:common/lib.stm32/STM32_USB-FS-Device_Driver/src/usb_regs.c **** /*******************************************************************************
 496:common/lib.stm32/STM32_USB-FS-Device_Driver/src/usb_regs.c **** * Function Name  : GetEPRxAddr.
 497:common/lib.stm32/STM32_USB-FS-Device_Driver/src/usb_regs.c **** * Description    : Returns the endpoint Rx buffer address.
 498:common/lib.stm32/STM32_USB-FS-Device_Driver/src/usb_regs.c **** * Input          : bEpNum: Endpoint Number. 
 499:common/lib.stm32/STM32_USB-FS-Device_Driver/src/usb_regs.c **** * Output         : None.
 500:common/lib.stm32/STM32_USB-FS-Device_Driver/src/usb_regs.c **** * Return         : Rx buffer address.
 501:common/lib.stm32/STM32_USB-FS-Device_Driver/src/usb_regs.c **** *******************************************************************************/
 502:common/lib.stm32/STM32_USB-FS-Device_Driver/src/usb_regs.c **** uint16_t GetEPRxAddr(uint8_t bEpNum)
 503:common/lib.stm32/STM32_USB-FS-Device_Driver/src/usb_regs.c **** {
 2392              		.loc 1 503 1
 2393              		.cfi_startproc
 2394              		@ args = 0, pretend = 0, frame = 8
 2395              		@ frame_needed = 1, uses_anonymous_args = 0
 2396              		@ link register save eliminated.
 2397 0000 80B4     		push	{r7}
 2398              	.LCFI223:
 2399              		.cfi_def_cfa_offset 4
 2400              		.cfi_offset 7, -4
 2401 0002 83B0     		sub	sp, sp, #12
 2402              	.LCFI224:
 2403              		.cfi_def_cfa_offset 16
 2404 0004 00AF     		add	r7, sp, #0
 2405              	.LCFI225:
 2406              		.cfi_def_cfa_register 7
 2407 0006 0346     		mov	r3, r0
 2408 0008 FB71     		strb	r3, [r7, #7]
 504:common/lib.stm32/STM32_USB-FS-Device_Driver/src/usb_regs.c ****   return(_GetEPRxAddr(bEpNum));
 2409              		.loc 1 504 10
 2410 000a 084B     		ldr	r3, .L112
 2411 000c 1B68     		ldr	r3, [r3]
 2412 000e 9BB2     		uxth	r3, r3
 2413 0010 1A46     		mov	r2, r3
 2414 0012 FB79     		ldrb	r3, [r7, #7]	@ zero_extendqisi2
 2415 0014 DB00     		lsls	r3, r3, #3
 2416 0016 1A44     		add	r2, r2, r3
 2417 0018 054B     		ldr	r3, .L112+4
 2418 001a 1344     		add	r3, r3, r2
 2419 001c 5B00     		lsls	r3, r3, #1
 2420 001e 1B68     		ldr	r3, [r3]
 2421 0020 9BB2     		uxth	r3, r3
 505:common/lib.stm32/STM32_USB-FS-Device_Driver/src/usb_regs.c **** }
 2422              		.loc 1 505 1
 2423 0022 1846     		mov	r0, r3
 2424 0024 0C37     		adds	r7, r7, #12
 2425              	.LCFI226:
 2426              		.cfi_def_cfa_offset 4
 2427 0026 BD46     		mov	sp, r7
 2428              	.LCFI227:
 2429              		.cfi_def_cfa_register 13
 2430              		@ sp needed
 2431 0028 80BC     		pop	{r7}
 2432              	.LCFI228:
 2433              		.cfi_restore 7
 2434              		.cfi_def_cfa_offset 0
 2435 002a 7047     		bx	lr
 2436              	.L113:
 2437              		.align	2
 2438              	.L112:
 2439 002c 505C0040 		.word	1073765456
 2440 0030 04300020 		.word	536883204
 2441              		.cfi_endproc
 2442              	.LFE66:
 2444              		.section	.text.SetEPTxCount,"ax",%progbits
 2445              		.align	1
 2446              		.global	SetEPTxCount
 2447              		.syntax unified
 2448              		.thumb
 2449              		.thumb_func
 2451              	SetEPTxCount:
 2452              	.LFB67:
 506:common/lib.stm32/STM32_USB-FS-Device_Driver/src/usb_regs.c **** /*******************************************************************************
 507:common/lib.stm32/STM32_USB-FS-Device_Driver/src/usb_regs.c **** * Function Name  : SetEPTxCount.
 508:common/lib.stm32/STM32_USB-FS-Device_Driver/src/usb_regs.c **** * Description    : Set the Tx count.
 509:common/lib.stm32/STM32_USB-FS-Device_Driver/src/usb_regs.c **** * Input          : bEpNum: Endpoint Number.
 510:common/lib.stm32/STM32_USB-FS-Device_Driver/src/usb_regs.c **** *                  wCount: new count value.
 511:common/lib.stm32/STM32_USB-FS-Device_Driver/src/usb_regs.c **** * Output         : None.
 512:common/lib.stm32/STM32_USB-FS-Device_Driver/src/usb_regs.c **** * Return         : None.
 513:common/lib.stm32/STM32_USB-FS-Device_Driver/src/usb_regs.c **** *******************************************************************************/
 514:common/lib.stm32/STM32_USB-FS-Device_Driver/src/usb_regs.c **** void SetEPTxCount(uint8_t bEpNum, uint16_t wCount)
 515:common/lib.stm32/STM32_USB-FS-Device_Driver/src/usb_regs.c **** {
 2453              		.loc 1 515 1
 2454              		.cfi_startproc
 2455              		@ args = 0, pretend = 0, frame = 8
 2456              		@ frame_needed = 1, uses_anonymous_args = 0
 2457              		@ link register save eliminated.
 2458 0000 80B4     		push	{r7}
 2459              	.LCFI229:
 2460              		.cfi_def_cfa_offset 4
 2461              		.cfi_offset 7, -4
 2462 0002 83B0     		sub	sp, sp, #12
 2463              	.LCFI230:
 2464              		.cfi_def_cfa_offset 16
 2465 0004 00AF     		add	r7, sp, #0
 2466              	.LCFI231:
 2467              		.cfi_def_cfa_register 7
 2468 0006 0346     		mov	r3, r0
 2469 0008 0A46     		mov	r2, r1
 2470 000a FB71     		strb	r3, [r7, #7]
 2471 000c 1346     		mov	r3, r2	@ movhi
 2472 000e BB80     		strh	r3, [r7, #4]	@ movhi
 516:common/lib.stm32/STM32_USB-FS-Device_Driver/src/usb_regs.c ****   _SetEPTxCount(bEpNum, wCount);
 2473              		.loc 1 516 3
 2474 0010 084B     		ldr	r3, .L115
 2475 0012 1B68     		ldr	r3, [r3]
 2476 0014 9BB2     		uxth	r3, r3
 2477 0016 1A46     		mov	r2, r3
 2478 0018 FB79     		ldrb	r3, [r7, #7]	@ zero_extendqisi2
 2479 001a DB00     		lsls	r3, r3, #3
 2480 001c 1A44     		add	r2, r2, r3
 2481 001e 064B     		ldr	r3, .L115+4
 2482 0020 1344     		add	r3, r3, r2
 2483 0022 5B00     		lsls	r3, r3, #1
 2484 0024 1A46     		mov	r2, r3
 2485 0026 BB88     		ldrh	r3, [r7, #4]
 2486 0028 1360     		str	r3, [r2]
 517:common/lib.stm32/STM32_USB-FS-Device_Driver/src/usb_regs.c **** }
 2487              		.loc 1 517 1
 2488 002a 00BF     		nop
 2489 002c 0C37     		adds	r7, r7, #12
 2490              	.LCFI232:
 2491              		.cfi_def_cfa_offset 4
 2492 002e BD46     		mov	sp, r7
 2493              	.LCFI233:
 2494              		.cfi_def_cfa_register 13
 2495              		@ sp needed
 2496 0030 80BC     		pop	{r7}
 2497              	.LCFI234:
 2498              		.cfi_restore 7
 2499              		.cfi_def_cfa_offset 0
 2500 0032 7047     		bx	lr
 2501              	.L116:
 2502              		.align	2
 2503              	.L115:
 2504 0034 505C0040 		.word	1073765456
 2505 0038 02300020 		.word	536883202
 2506              		.cfi_endproc
 2507              	.LFE67:
 2509              		.section	.text.SetEPCountRxReg,"ax",%progbits
 2510              		.align	1
 2511              		.global	SetEPCountRxReg
 2512              		.syntax unified
 2513              		.thumb
 2514              		.thumb_func
 2516              	SetEPCountRxReg:
 2517              	.LFB68:
 518:common/lib.stm32/STM32_USB-FS-Device_Driver/src/usb_regs.c **** /*******************************************************************************
 519:common/lib.stm32/STM32_USB-FS-Device_Driver/src/usb_regs.c **** * Function Name  : SetEPCountRxReg.
 520:common/lib.stm32/STM32_USB-FS-Device_Driver/src/usb_regs.c **** * Description    : Set the Count Rx Register value.
 521:common/lib.stm32/STM32_USB-FS-Device_Driver/src/usb_regs.c **** * Input          : *pdwReg: point to the register.
 522:common/lib.stm32/STM32_USB-FS-Device_Driver/src/usb_regs.c **** *                  wCount: the new register value.
 523:common/lib.stm32/STM32_USB-FS-Device_Driver/src/usb_regs.c **** * Output         : None.
 524:common/lib.stm32/STM32_USB-FS-Device_Driver/src/usb_regs.c **** * Return         : None.
 525:common/lib.stm32/STM32_USB-FS-Device_Driver/src/usb_regs.c **** *******************************************************************************/
 526:common/lib.stm32/STM32_USB-FS-Device_Driver/src/usb_regs.c **** void SetEPCountRxReg(uint32_t *pdwReg, uint16_t wCount)
 527:common/lib.stm32/STM32_USB-FS-Device_Driver/src/usb_regs.c **** {
 2518              		.loc 1 527 1
 2519              		.cfi_startproc
 2520              		@ args = 0, pretend = 0, frame = 16
 2521              		@ frame_needed = 1, uses_anonymous_args = 0
 2522              		@ link register save eliminated.
 2523 0000 80B4     		push	{r7}
 2524              	.LCFI235:
 2525              		.cfi_def_cfa_offset 4
 2526              		.cfi_offset 7, -4
 2527 0002 85B0     		sub	sp, sp, #20
 2528              	.LCFI236:
 2529              		.cfi_def_cfa_offset 24
 2530 0004 00AF     		add	r7, sp, #0
 2531              	.LCFI237:
 2532              		.cfi_def_cfa_register 7
 2533 0006 7860     		str	r0, [r7, #4]
 2534 0008 0B46     		mov	r3, r1
 2535 000a 7B80     		strh	r3, [r7, #2]	@ movhi
 2536              	.LBB6:
 528:common/lib.stm32/STM32_USB-FS-Device_Driver/src/usb_regs.c ****   _SetEPCountRxReg(dwReg, wCount);
 2537              		.loc 1 528 3
 2538 000c 7B88     		ldrh	r3, [r7, #2]
 2539 000e 3E2B     		cmp	r3, #62
 2540 0010 12D9     		bls	.L118
 2541              		.loc 1 528 3 is_stmt 0 discriminator 1
 2542 0012 7B88     		ldrh	r3, [r7, #2]
 2543 0014 5B09     		lsrs	r3, r3, #5
 2544 0016 FB81     		strh	r3, [r7, #14]	@ movhi
 2545 0018 7B88     		ldrh	r3, [r7, #2]
 2546 001a 03F01F03 		and	r3, r3, #31
 2547 001e 002B     		cmp	r3, #0
 2548 0020 02D1     		bne	.L119
 2549              		.loc 1 528 3 discriminator 3
 2550 0022 FB89     		ldrh	r3, [r7, #14]
 2551 0024 013B     		subs	r3, r3, #1
 2552 0026 FB81     		strh	r3, [r7, #14]	@ movhi
 2553              	.L119:
 2554              		.loc 1 528 3 discriminator 5
 2555 0028 FB89     		ldrh	r3, [r7, #14]
 2556 002a 9B02     		lsls	r3, r3, #10
 2557 002c 43F40043 		orr	r3, r3, #32768
 2558 0030 1A46     		mov	r2, r3
 2559 0032 7B68     		ldr	r3, [r7, #4]
 2560 0034 1A60     		str	r2, [r3]
 2561              	.LBE6:
 529:common/lib.stm32/STM32_USB-FS-Device_Driver/src/usb_regs.c **** }
 2562              		.loc 1 529 1 is_stmt 1 discriminator 5
 2563 0036 0FE0     		b	.L122
 2564              	.L118:
 2565              	.LBB7:
 528:common/lib.stm32/STM32_USB-FS-Device_Driver/src/usb_regs.c ****   _SetEPCountRxReg(dwReg, wCount);
 2566              		.loc 1 528 3 discriminator 2
 2567 0038 7B88     		ldrh	r3, [r7, #2]
 2568 003a 5B08     		lsrs	r3, r3, #1
 2569 003c FB81     		strh	r3, [r7, #14]	@ movhi
 2570 003e 7B88     		ldrh	r3, [r7, #2]
 2571 0040 03F00103 		and	r3, r3, #1
 2572 0044 002B     		cmp	r3, #0
 2573 0046 02D0     		beq	.L121
 528:common/lib.stm32/STM32_USB-FS-Device_Driver/src/usb_regs.c ****   _SetEPCountRxReg(dwReg, wCount);
 2574              		.loc 1 528 3 is_stmt 0 discriminator 6
 2575 0048 FB89     		ldrh	r3, [r7, #14]
 2576 004a 0133     		adds	r3, r3, #1
 2577 004c FB81     		strh	r3, [r7, #14]	@ movhi
 2578              	.L121:
 528:common/lib.stm32/STM32_USB-FS-Device_Driver/src/usb_regs.c ****   _SetEPCountRxReg(dwReg, wCount);
 2579              		.loc 1 528 3 discriminator 8
 2580 004e FB89     		ldrh	r3, [r7, #14]
 2581 0050 9B02     		lsls	r3, r3, #10
 2582 0052 1A46     		mov	r2, r3
 2583 0054 7B68     		ldr	r3, [r7, #4]
 2584 0056 1A60     		str	r2, [r3]
 2585              	.L122:
 2586              	.LBE7:
 2587              		.loc 1 529 1 is_stmt 1
 2588 0058 00BF     		nop
 2589 005a 1437     		adds	r7, r7, #20
 2590              	.LCFI238:
 2591              		.cfi_def_cfa_offset 4
 2592 005c BD46     		mov	sp, r7
 2593              	.LCFI239:
 2594              		.cfi_def_cfa_register 13
 2595              		@ sp needed
 2596 005e 80BC     		pop	{r7}
 2597              	.LCFI240:
 2598              		.cfi_restore 7
 2599              		.cfi_def_cfa_offset 0
 2600 0060 7047     		bx	lr
 2601              		.cfi_endproc
 2602              	.LFE68:
 2604              		.section	.text.SetEPRxCount,"ax",%progbits
 2605              		.align	1
 2606              		.global	SetEPRxCount
 2607              		.syntax unified
 2608              		.thumb
 2609              		.thumb_func
 2611              	SetEPRxCount:
 2612              	.LFB69:
 530:common/lib.stm32/STM32_USB-FS-Device_Driver/src/usb_regs.c **** /*******************************************************************************
 531:common/lib.stm32/STM32_USB-FS-Device_Driver/src/usb_regs.c **** * Function Name  : SetEPRxCount
 532:common/lib.stm32/STM32_USB-FS-Device_Driver/src/usb_regs.c **** * Description    : Set the Rx count.
 533:common/lib.stm32/STM32_USB-FS-Device_Driver/src/usb_regs.c **** * Input          : bEpNum: Endpoint Number. 
 534:common/lib.stm32/STM32_USB-FS-Device_Driver/src/usb_regs.c **** *                  wCount: the new count value.
 535:common/lib.stm32/STM32_USB-FS-Device_Driver/src/usb_regs.c **** * Output         : None.
 536:common/lib.stm32/STM32_USB-FS-Device_Driver/src/usb_regs.c **** * Return         : None.
 537:common/lib.stm32/STM32_USB-FS-Device_Driver/src/usb_regs.c **** *******************************************************************************/
 538:common/lib.stm32/STM32_USB-FS-Device_Driver/src/usb_regs.c **** void SetEPRxCount(uint8_t bEpNum, uint16_t wCount)
 539:common/lib.stm32/STM32_USB-FS-Device_Driver/src/usb_regs.c **** {
 2613              		.loc 1 539 1
 2614              		.cfi_startproc
 2615              		@ args = 0, pretend = 0, frame = 16
 2616              		@ frame_needed = 1, uses_anonymous_args = 0
 2617              		@ link register save eliminated.
 2618 0000 80B4     		push	{r7}
 2619              	.LCFI241:
 2620              		.cfi_def_cfa_offset 4
 2621              		.cfi_offset 7, -4
 2622 0002 85B0     		sub	sp, sp, #20
 2623              	.LCFI242:
 2624              		.cfi_def_cfa_offset 24
 2625 0004 00AF     		add	r7, sp, #0
 2626              	.LCFI243:
 2627              		.cfi_def_cfa_register 7
 2628 0006 0346     		mov	r3, r0
 2629 0008 0A46     		mov	r2, r1
 2630 000a FB71     		strb	r3, [r7, #7]
 2631 000c 1346     		mov	r3, r2	@ movhi
 2632 000e BB80     		strh	r3, [r7, #4]	@ movhi
 2633              	.LBB8:
 540:common/lib.stm32/STM32_USB-FS-Device_Driver/src/usb_regs.c ****   _SetEPRxCount(bEpNum, wCount);
 2634              		.loc 1 540 3
 2635 0010 1A4B     		ldr	r3, .L129
 2636 0012 1B68     		ldr	r3, [r3]
 2637 0014 9BB2     		uxth	r3, r3
 2638 0016 1A46     		mov	r2, r3
 2639 0018 FB79     		ldrb	r3, [r7, #7]	@ zero_extendqisi2
 2640 001a DB00     		lsls	r3, r3, #3
 2641 001c 1A44     		add	r2, r2, r3
 2642 001e 184B     		ldr	r3, .L129+4
 2643 0020 1344     		add	r3, r3, r2
 2644 0022 5B00     		lsls	r3, r3, #1
 2645 0024 BB60     		str	r3, [r7, #8]
 2646              	.LBB9:
 2647 0026 BB88     		ldrh	r3, [r7, #4]
 2648 0028 3E2B     		cmp	r3, #62
 2649 002a 12D9     		bls	.L124
 2650              		.loc 1 540 3 is_stmt 0 discriminator 1
 2651 002c BB88     		ldrh	r3, [r7, #4]
 2652 002e 5B09     		lsrs	r3, r3, #5
 2653 0030 FB81     		strh	r3, [r7, #14]	@ movhi
 2654 0032 BB88     		ldrh	r3, [r7, #4]
 2655 0034 03F01F03 		and	r3, r3, #31
 2656 0038 002B     		cmp	r3, #0
 2657 003a 02D1     		bne	.L125
 2658              		.loc 1 540 3 discriminator 3
 2659 003c FB89     		ldrh	r3, [r7, #14]
 2660 003e 013B     		subs	r3, r3, #1
 2661 0040 FB81     		strh	r3, [r7, #14]	@ movhi
 2662              	.L125:
 2663              		.loc 1 540 3 discriminator 5
 2664 0042 FB89     		ldrh	r3, [r7, #14]
 2665 0044 9B02     		lsls	r3, r3, #10
 2666 0046 43F40043 		orr	r3, r3, #32768
 2667 004a 1A46     		mov	r2, r3
 2668 004c BB68     		ldr	r3, [r7, #8]
 2669 004e 1A60     		str	r2, [r3]
 2670              	.LBE9:
 2671              	.LBE8:
 541:common/lib.stm32/STM32_USB-FS-Device_Driver/src/usb_regs.c **** }
 2672              		.loc 1 541 1 is_stmt 1 discriminator 5
 2673 0050 0FE0     		b	.L128
 2674              	.L124:
 2675              	.LBB11:
 2676              	.LBB10:
 540:common/lib.stm32/STM32_USB-FS-Device_Driver/src/usb_regs.c ****   _SetEPRxCount(bEpNum, wCount);
 2677              		.loc 1 540 3 discriminator 2
 2678 0052 BB88     		ldrh	r3, [r7, #4]
 2679 0054 5B08     		lsrs	r3, r3, #1
 2680 0056 FB81     		strh	r3, [r7, #14]	@ movhi
 2681 0058 BB88     		ldrh	r3, [r7, #4]
 2682 005a 03F00103 		and	r3, r3, #1
 2683 005e 002B     		cmp	r3, #0
 2684 0060 02D0     		beq	.L127
 540:common/lib.stm32/STM32_USB-FS-Device_Driver/src/usb_regs.c ****   _SetEPRxCount(bEpNum, wCount);
 2685              		.loc 1 540 3 is_stmt 0 discriminator 6
 2686 0062 FB89     		ldrh	r3, [r7, #14]
 2687 0064 0133     		adds	r3, r3, #1
 2688 0066 FB81     		strh	r3, [r7, #14]	@ movhi
 2689              	.L127:
 540:common/lib.stm32/STM32_USB-FS-Device_Driver/src/usb_regs.c ****   _SetEPRxCount(bEpNum, wCount);
 2690              		.loc 1 540 3 discriminator 8
 2691 0068 FB89     		ldrh	r3, [r7, #14]
 2692 006a 9B02     		lsls	r3, r3, #10
 2693 006c 1A46     		mov	r2, r3
 2694 006e BB68     		ldr	r3, [r7, #8]
 2695 0070 1A60     		str	r2, [r3]
 2696              	.L128:
 2697              	.LBE10:
 2698              	.LBE11:
 2699              		.loc 1 541 1 is_stmt 1
 2700 0072 00BF     		nop
 2701 0074 1437     		adds	r7, r7, #20
 2702              	.LCFI244:
 2703              		.cfi_def_cfa_offset 4
 2704 0076 BD46     		mov	sp, r7
 2705              	.LCFI245:
 2706              		.cfi_def_cfa_register 13
 2707              		@ sp needed
 2708 0078 80BC     		pop	{r7}
 2709              	.LCFI246:
 2710              		.cfi_restore 7
 2711              		.cfi_def_cfa_offset 0
 2712 007a 7047     		bx	lr
 2713              	.L130:
 2714              		.align	2
 2715              	.L129:
 2716 007c 505C0040 		.word	1073765456
 2717 0080 06300020 		.word	536883206
 2718              		.cfi_endproc
 2719              	.LFE69:
 2721              		.section	.text.GetEPTxCount,"ax",%progbits
 2722              		.align	1
 2723              		.global	GetEPTxCount
 2724              		.syntax unified
 2725              		.thumb
 2726              		.thumb_func
 2728              	GetEPTxCount:
 2729              	.LFB70:
 542:common/lib.stm32/STM32_USB-FS-Device_Driver/src/usb_regs.c **** /*******************************************************************************
 543:common/lib.stm32/STM32_USB-FS-Device_Driver/src/usb_regs.c **** * Function Name  : GetEPTxCount
 544:common/lib.stm32/STM32_USB-FS-Device_Driver/src/usb_regs.c **** * Description    : Get the Tx count.
 545:common/lib.stm32/STM32_USB-FS-Device_Driver/src/usb_regs.c **** * Input          : bEpNum: Endpoint Number. 
 546:common/lib.stm32/STM32_USB-FS-Device_Driver/src/usb_regs.c **** * Output         : None
 547:common/lib.stm32/STM32_USB-FS-Device_Driver/src/usb_regs.c **** * Return         : Tx count value.
 548:common/lib.stm32/STM32_USB-FS-Device_Driver/src/usb_regs.c **** *******************************************************************************/
 549:common/lib.stm32/STM32_USB-FS-Device_Driver/src/usb_regs.c **** uint16_t GetEPTxCount(uint8_t bEpNum)
 550:common/lib.stm32/STM32_USB-FS-Device_Driver/src/usb_regs.c **** {
 2730              		.loc 1 550 1
 2731              		.cfi_startproc
 2732              		@ args = 0, pretend = 0, frame = 8
 2733              		@ frame_needed = 1, uses_anonymous_args = 0
 2734              		@ link register save eliminated.
 2735 0000 80B4     		push	{r7}
 2736              	.LCFI247:
 2737              		.cfi_def_cfa_offset 4
 2738              		.cfi_offset 7, -4
 2739 0002 83B0     		sub	sp, sp, #12
 2740              	.LCFI248:
 2741              		.cfi_def_cfa_offset 16
 2742 0004 00AF     		add	r7, sp, #0
 2743              	.LCFI249:
 2744              		.cfi_def_cfa_register 7
 2745 0006 0346     		mov	r3, r0
 2746 0008 FB71     		strb	r3, [r7, #7]
 551:common/lib.stm32/STM32_USB-FS-Device_Driver/src/usb_regs.c ****   return(_GetEPTxCount(bEpNum));
 2747              		.loc 1 551 10
 2748 000a 0A4B     		ldr	r3, .L133
 2749 000c 1B68     		ldr	r3, [r3]
 2750 000e 9BB2     		uxth	r3, r3
 2751 0010 1A46     		mov	r2, r3
 2752 0012 FB79     		ldrb	r3, [r7, #7]	@ zero_extendqisi2
 2753 0014 DB00     		lsls	r3, r3, #3
 2754 0016 1A44     		add	r2, r2, r3
 2755 0018 074B     		ldr	r3, .L133+4
 2756 001a 1344     		add	r3, r3, r2
 2757 001c 5B00     		lsls	r3, r3, #1
 2758 001e 1B68     		ldr	r3, [r3]
 2759 0020 9BB2     		uxth	r3, r3
 2760 0022 C3F30903 		ubfx	r3, r3, #0, #10
 2761 0026 9BB2     		uxth	r3, r3
 552:common/lib.stm32/STM32_USB-FS-Device_Driver/src/usb_regs.c **** }
 2762              		.loc 1 552 1
 2763 0028 1846     		mov	r0, r3
 2764 002a 0C37     		adds	r7, r7, #12
 2765              	.LCFI250:
 2766              		.cfi_def_cfa_offset 4
 2767 002c BD46     		mov	sp, r7
 2768              	.LCFI251:
 2769              		.cfi_def_cfa_register 13
 2770              		@ sp needed
 2771 002e 80BC     		pop	{r7}
 2772              	.LCFI252:
 2773              		.cfi_restore 7
 2774              		.cfi_def_cfa_offset 0
 2775 0030 7047     		bx	lr
 2776              	.L134:
 2777 0032 00BF     		.align	2
 2778              	.L133:
 2779 0034 505C0040 		.word	1073765456
 2780 0038 02300020 		.word	536883202
 2781              		.cfi_endproc
 2782              	.LFE70:
 2784              		.section	.text.GetEPRxCount,"ax",%progbits
 2785              		.align	1
 2786              		.global	GetEPRxCount
 2787              		.syntax unified
 2788              		.thumb
 2789              		.thumb_func
 2791              	GetEPRxCount:
 2792              	.LFB71:
 553:common/lib.stm32/STM32_USB-FS-Device_Driver/src/usb_regs.c **** /*******************************************************************************
 554:common/lib.stm32/STM32_USB-FS-Device_Driver/src/usb_regs.c **** * Function Name  : GetEPRxCount
 555:common/lib.stm32/STM32_USB-FS-Device_Driver/src/usb_regs.c **** * Description    : Get the Rx count.
 556:common/lib.stm32/STM32_USB-FS-Device_Driver/src/usb_regs.c **** * Input          : bEpNum: Endpoint Number. 
 557:common/lib.stm32/STM32_USB-FS-Device_Driver/src/usb_regs.c **** * Output         : None.
 558:common/lib.stm32/STM32_USB-FS-Device_Driver/src/usb_regs.c **** * Return         : Rx count value.
 559:common/lib.stm32/STM32_USB-FS-Device_Driver/src/usb_regs.c **** *******************************************************************************/
 560:common/lib.stm32/STM32_USB-FS-Device_Driver/src/usb_regs.c **** uint16_t GetEPRxCount(uint8_t bEpNum)
 561:common/lib.stm32/STM32_USB-FS-Device_Driver/src/usb_regs.c **** {
 2793              		.loc 1 561 1
 2794              		.cfi_startproc
 2795              		@ args = 0, pretend = 0, frame = 8
 2796              		@ frame_needed = 1, uses_anonymous_args = 0
 2797              		@ link register save eliminated.
 2798 0000 80B4     		push	{r7}
 2799              	.LCFI253:
 2800              		.cfi_def_cfa_offset 4
 2801              		.cfi_offset 7, -4
 2802 0002 83B0     		sub	sp, sp, #12
 2803              	.LCFI254:
 2804              		.cfi_def_cfa_offset 16
 2805 0004 00AF     		add	r7, sp, #0
 2806              	.LCFI255:
 2807              		.cfi_def_cfa_register 7
 2808 0006 0346     		mov	r3, r0
 2809 0008 FB71     		strb	r3, [r7, #7]
 562:common/lib.stm32/STM32_USB-FS-Device_Driver/src/usb_regs.c ****   return(_GetEPRxCount(bEpNum));
 2810              		.loc 1 562 10
 2811 000a 0A4B     		ldr	r3, .L137
 2812 000c 1B68     		ldr	r3, [r3]
 2813 000e 9BB2     		uxth	r3, r3
 2814 0010 1A46     		mov	r2, r3
 2815 0012 FB79     		ldrb	r3, [r7, #7]	@ zero_extendqisi2
 2816 0014 DB00     		lsls	r3, r3, #3
 2817 0016 1A44     		add	r2, r2, r3
 2818 0018 074B     		ldr	r3, .L137+4
 2819 001a 1344     		add	r3, r3, r2
 2820 001c 5B00     		lsls	r3, r3, #1
 2821 001e 1B68     		ldr	r3, [r3]
 2822 0020 9BB2     		uxth	r3, r3
 2823 0022 C3F30903 		ubfx	r3, r3, #0, #10
 2824 0026 9BB2     		uxth	r3, r3
 563:common/lib.stm32/STM32_USB-FS-Device_Driver/src/usb_regs.c **** }
 2825              		.loc 1 563 1
 2826 0028 1846     		mov	r0, r3
 2827 002a 0C37     		adds	r7, r7, #12
 2828              	.LCFI256:
 2829              		.cfi_def_cfa_offset 4
 2830 002c BD46     		mov	sp, r7
 2831              	.LCFI257:
 2832              		.cfi_def_cfa_register 13
 2833              		@ sp needed
 2834 002e 80BC     		pop	{r7}
 2835              	.LCFI258:
 2836              		.cfi_restore 7
 2837              		.cfi_def_cfa_offset 0
 2838 0030 7047     		bx	lr
 2839              	.L138:
 2840 0032 00BF     		.align	2
 2841              	.L137:
 2842 0034 505C0040 		.word	1073765456
 2843 0038 06300020 		.word	536883206
 2844              		.cfi_endproc
 2845              	.LFE71:
 2847              		.section	.text.SetEPDblBuffAddr,"ax",%progbits
 2848              		.align	1
 2849              		.global	SetEPDblBuffAddr
 2850              		.syntax unified
 2851              		.thumb
 2852              		.thumb_func
 2854              	SetEPDblBuffAddr:
 2855              	.LFB72:
 564:common/lib.stm32/STM32_USB-FS-Device_Driver/src/usb_regs.c **** /*******************************************************************************
 565:common/lib.stm32/STM32_USB-FS-Device_Driver/src/usb_regs.c **** * Function Name  : SetEPDblBuffAddr
 566:common/lib.stm32/STM32_USB-FS-Device_Driver/src/usb_regs.c **** * Description    : Set the addresses of the buffer 0 and 1.
 567:common/lib.stm32/STM32_USB-FS-Device_Driver/src/usb_regs.c **** * Input          : bEpNum: Endpoint Number.  
 568:common/lib.stm32/STM32_USB-FS-Device_Driver/src/usb_regs.c **** *                  wBuf0Addr: new address of buffer 0. 
 569:common/lib.stm32/STM32_USB-FS-Device_Driver/src/usb_regs.c **** *                  wBuf1Addr: new address of buffer 1.
 570:common/lib.stm32/STM32_USB-FS-Device_Driver/src/usb_regs.c **** * Output         : None.
 571:common/lib.stm32/STM32_USB-FS-Device_Driver/src/usb_regs.c **** * Return         : None.
 572:common/lib.stm32/STM32_USB-FS-Device_Driver/src/usb_regs.c **** *******************************************************************************/
 573:common/lib.stm32/STM32_USB-FS-Device_Driver/src/usb_regs.c **** void SetEPDblBuffAddr(uint8_t bEpNum, uint16_t wBuf0Addr, uint16_t wBuf1Addr)
 574:common/lib.stm32/STM32_USB-FS-Device_Driver/src/usb_regs.c **** {
 2856              		.loc 1 574 1
 2857              		.cfi_startproc
 2858              		@ args = 0, pretend = 0, frame = 8
 2859              		@ frame_needed = 1, uses_anonymous_args = 0
 2860              		@ link register save eliminated.
 2861 0000 80B4     		push	{r7}
 2862              	.LCFI259:
 2863              		.cfi_def_cfa_offset 4
 2864              		.cfi_offset 7, -4
 2865 0002 83B0     		sub	sp, sp, #12
 2866              	.LCFI260:
 2867              		.cfi_def_cfa_offset 16
 2868 0004 00AF     		add	r7, sp, #0
 2869              	.LCFI261:
 2870              		.cfi_def_cfa_register 7
 2871 0006 0346     		mov	r3, r0
 2872 0008 FB71     		strb	r3, [r7, #7]
 2873 000a 0B46     		mov	r3, r1	@ movhi
 2874 000c BB80     		strh	r3, [r7, #4]	@ movhi
 2875 000e 1346     		mov	r3, r2	@ movhi
 2876 0010 7B80     		strh	r3, [r7, #2]	@ movhi
 575:common/lib.stm32/STM32_USB-FS-Device_Driver/src/usb_regs.c ****   _SetEPDblBuffAddr(bEpNum, wBuf0Addr, wBuf1Addr);
 2877              		.loc 1 575 3
 2878 0012 BB88     		ldrh	r3, [r7, #4]
 2879 0014 5B08     		lsrs	r3, r3, #1
 2880 0016 9BB2     		uxth	r3, r3
 2881 0018 5A00     		lsls	r2, r3, #1
 2882 001a 114B     		ldr	r3, .L140
 2883 001c 1B68     		ldr	r3, [r3]
 2884 001e 9BB2     		uxth	r3, r3
 2885 0020 1946     		mov	r1, r3
 2886 0022 FB79     		ldrb	r3, [r7, #7]	@ zero_extendqisi2
 2887 0024 DB00     		lsls	r3, r3, #3
 2888 0026 0B44     		add	r3, r3, r1
 2889 0028 03F10053 		add	r3, r3, #536870912
 2890 002c 03F54053 		add	r3, r3, #12288
 2891 0030 5B00     		lsls	r3, r3, #1
 2892 0032 1A60     		str	r2, [r3]
 2893 0034 7B88     		ldrh	r3, [r7, #2]
 2894 0036 5B08     		lsrs	r3, r3, #1
 2895 0038 9BB2     		uxth	r3, r3
 2896 003a 5900     		lsls	r1, r3, #1
 2897 003c 084B     		ldr	r3, .L140
 2898 003e 1B68     		ldr	r3, [r3]
 2899 0040 9BB2     		uxth	r3, r3
 2900 0042 1A46     		mov	r2, r3
 2901 0044 FB79     		ldrb	r3, [r7, #7]	@ zero_extendqisi2
 2902 0046 DB00     		lsls	r3, r3, #3
 2903 0048 1A44     		add	r2, r2, r3
 2904 004a 064B     		ldr	r3, .L140+4
 2905 004c 1344     		add	r3, r3, r2
 2906 004e 5B00     		lsls	r3, r3, #1
 2907 0050 0A46     		mov	r2, r1
 2908 0052 1A60     		str	r2, [r3]
 576:common/lib.stm32/STM32_USB-FS-Device_Driver/src/usb_regs.c **** }
 2909              		.loc 1 576 1
 2910 0054 00BF     		nop
 2911 0056 0C37     		adds	r7, r7, #12
 2912              	.LCFI262:
 2913              		.cfi_def_cfa_offset 4
 2914 0058 BD46     		mov	sp, r7
 2915              	.LCFI263:
 2916              		.cfi_def_cfa_register 13
 2917              		@ sp needed
 2918 005a 80BC     		pop	{r7}
 2919              	.LCFI264:
 2920              		.cfi_restore 7
 2921              		.cfi_def_cfa_offset 0
 2922 005c 7047     		bx	lr
 2923              	.L141:
 2924 005e 00BF     		.align	2
 2925              	.L140:
 2926 0060 505C0040 		.word	1073765456
 2927 0064 04300020 		.word	536883204
 2928              		.cfi_endproc
 2929              	.LFE72:
 2931              		.section	.text.SetEPDblBuf0Addr,"ax",%progbits
 2932              		.align	1
 2933              		.global	SetEPDblBuf0Addr
 2934              		.syntax unified
 2935              		.thumb
 2936              		.thumb_func
 2938              	SetEPDblBuf0Addr:
 2939              	.LFB73:
 577:common/lib.stm32/STM32_USB-FS-Device_Driver/src/usb_regs.c **** /*******************************************************************************
 578:common/lib.stm32/STM32_USB-FS-Device_Driver/src/usb_regs.c **** * Function Name  : SetEPDblBuf0Addr
 579:common/lib.stm32/STM32_USB-FS-Device_Driver/src/usb_regs.c **** * Description    : Set the Buffer 1 address.
 580:common/lib.stm32/STM32_USB-FS-Device_Driver/src/usb_regs.c **** * Input          : bEpNum: Endpoint Number
 581:common/lib.stm32/STM32_USB-FS-Device_Driver/src/usb_regs.c **** *                  wBuf0Addr: new address.
 582:common/lib.stm32/STM32_USB-FS-Device_Driver/src/usb_regs.c **** * Output         : None.
 583:common/lib.stm32/STM32_USB-FS-Device_Driver/src/usb_regs.c **** * Return         : None.
 584:common/lib.stm32/STM32_USB-FS-Device_Driver/src/usb_regs.c **** *******************************************************************************/
 585:common/lib.stm32/STM32_USB-FS-Device_Driver/src/usb_regs.c **** void SetEPDblBuf0Addr(uint8_t bEpNum, uint16_t wBuf0Addr)
 586:common/lib.stm32/STM32_USB-FS-Device_Driver/src/usb_regs.c **** {
 2940              		.loc 1 586 1
 2941              		.cfi_startproc
 2942              		@ args = 0, pretend = 0, frame = 8
 2943              		@ frame_needed = 1, uses_anonymous_args = 0
 2944              		@ link register save eliminated.
 2945 0000 80B4     		push	{r7}
 2946              	.LCFI265:
 2947              		.cfi_def_cfa_offset 4
 2948              		.cfi_offset 7, -4
 2949 0002 83B0     		sub	sp, sp, #12
 2950              	.LCFI266:
 2951              		.cfi_def_cfa_offset 16
 2952 0004 00AF     		add	r7, sp, #0
 2953              	.LCFI267:
 2954              		.cfi_def_cfa_register 7
 2955 0006 0346     		mov	r3, r0
 2956 0008 0A46     		mov	r2, r1
 2957 000a FB71     		strb	r3, [r7, #7]
 2958 000c 1346     		mov	r3, r2	@ movhi
 2959 000e BB80     		strh	r3, [r7, #4]	@ movhi
 587:common/lib.stm32/STM32_USB-FS-Device_Driver/src/usb_regs.c ****   _SetEPDblBuf0Addr(bEpNum, wBuf0Addr);
 2960              		.loc 1 587 3
 2961 0010 BB88     		ldrh	r3, [r7, #4]
 2962 0012 5B08     		lsrs	r3, r3, #1
 2963 0014 9BB2     		uxth	r3, r3
 2964 0016 5A00     		lsls	r2, r3, #1
 2965 0018 084B     		ldr	r3, .L143
 2966 001a 1B68     		ldr	r3, [r3]
 2967 001c 9BB2     		uxth	r3, r3
 2968 001e 1946     		mov	r1, r3
 2969 0020 FB79     		ldrb	r3, [r7, #7]	@ zero_extendqisi2
 2970 0022 DB00     		lsls	r3, r3, #3
 2971 0024 0B44     		add	r3, r3, r1
 2972 0026 03F10053 		add	r3, r3, #536870912
 2973 002a 03F54053 		add	r3, r3, #12288
 2974 002e 5B00     		lsls	r3, r3, #1
 2975 0030 1A60     		str	r2, [r3]
 588:common/lib.stm32/STM32_USB-FS-Device_Driver/src/usb_regs.c **** }
 2976              		.loc 1 588 1
 2977 0032 00BF     		nop
 2978 0034 0C37     		adds	r7, r7, #12
 2979              	.LCFI268:
 2980              		.cfi_def_cfa_offset 4
 2981 0036 BD46     		mov	sp, r7
 2982              	.LCFI269:
 2983              		.cfi_def_cfa_register 13
 2984              		@ sp needed
 2985 0038 80BC     		pop	{r7}
 2986              	.LCFI270:
 2987              		.cfi_restore 7
 2988              		.cfi_def_cfa_offset 0
 2989 003a 7047     		bx	lr
 2990              	.L144:
 2991              		.align	2
 2992              	.L143:
 2993 003c 505C0040 		.word	1073765456
 2994              		.cfi_endproc
 2995              	.LFE73:
 2997              		.section	.text.SetEPDblBuf1Addr,"ax",%progbits
 2998              		.align	1
 2999              		.global	SetEPDblBuf1Addr
 3000              		.syntax unified
 3001              		.thumb
 3002              		.thumb_func
 3004              	SetEPDblBuf1Addr:
 3005              	.LFB74:
 589:common/lib.stm32/STM32_USB-FS-Device_Driver/src/usb_regs.c **** /*******************************************************************************
 590:common/lib.stm32/STM32_USB-FS-Device_Driver/src/usb_regs.c **** * Function Name  : SetEPDblBuf1Addr
 591:common/lib.stm32/STM32_USB-FS-Device_Driver/src/usb_regs.c **** * Description    : Set the Buffer 1 address.
 592:common/lib.stm32/STM32_USB-FS-Device_Driver/src/usb_regs.c **** * Input          : bEpNum: Endpoint Number
 593:common/lib.stm32/STM32_USB-FS-Device_Driver/src/usb_regs.c **** *                  wBuf1Addr: new address.
 594:common/lib.stm32/STM32_USB-FS-Device_Driver/src/usb_regs.c **** * Output         : None.
 595:common/lib.stm32/STM32_USB-FS-Device_Driver/src/usb_regs.c **** * Return         : None.
 596:common/lib.stm32/STM32_USB-FS-Device_Driver/src/usb_regs.c **** *******************************************************************************/
 597:common/lib.stm32/STM32_USB-FS-Device_Driver/src/usb_regs.c **** void SetEPDblBuf1Addr(uint8_t bEpNum, uint16_t wBuf1Addr)
 598:common/lib.stm32/STM32_USB-FS-Device_Driver/src/usb_regs.c **** {
 3006              		.loc 1 598 1
 3007              		.cfi_startproc
 3008              		@ args = 0, pretend = 0, frame = 8
 3009              		@ frame_needed = 1, uses_anonymous_args = 0
 3010              		@ link register save eliminated.
 3011 0000 80B4     		push	{r7}
 3012              	.LCFI271:
 3013              		.cfi_def_cfa_offset 4
 3014              		.cfi_offset 7, -4
 3015 0002 83B0     		sub	sp, sp, #12
 3016              	.LCFI272:
 3017              		.cfi_def_cfa_offset 16
 3018 0004 00AF     		add	r7, sp, #0
 3019              	.LCFI273:
 3020              		.cfi_def_cfa_register 7
 3021 0006 0346     		mov	r3, r0
 3022 0008 0A46     		mov	r2, r1
 3023 000a FB71     		strb	r3, [r7, #7]
 3024 000c 1346     		mov	r3, r2	@ movhi
 3025 000e BB80     		strh	r3, [r7, #4]	@ movhi
 599:common/lib.stm32/STM32_USB-FS-Device_Driver/src/usb_regs.c ****   _SetEPDblBuf1Addr(bEpNum, wBuf1Addr);
 3026              		.loc 1 599 3
 3027 0010 BB88     		ldrh	r3, [r7, #4]
 3028 0012 5B08     		lsrs	r3, r3, #1
 3029 0014 9BB2     		uxth	r3, r3
 3030 0016 5900     		lsls	r1, r3, #1
 3031 0018 084B     		ldr	r3, .L146
 3032 001a 1B68     		ldr	r3, [r3]
 3033 001c 9BB2     		uxth	r3, r3
 3034 001e 1A46     		mov	r2, r3
 3035 0020 FB79     		ldrb	r3, [r7, #7]	@ zero_extendqisi2
 3036 0022 DB00     		lsls	r3, r3, #3
 3037 0024 1A44     		add	r2, r2, r3
 3038 0026 064B     		ldr	r3, .L146+4
 3039 0028 1344     		add	r3, r3, r2
 3040 002a 5B00     		lsls	r3, r3, #1
 3041 002c 0A46     		mov	r2, r1
 3042 002e 1A60     		str	r2, [r3]
 600:common/lib.stm32/STM32_USB-FS-Device_Driver/src/usb_regs.c **** }
 3043              		.loc 1 600 1
 3044 0030 00BF     		nop
 3045 0032 0C37     		adds	r7, r7, #12
 3046              	.LCFI274:
 3047              		.cfi_def_cfa_offset 4
 3048 0034 BD46     		mov	sp, r7
 3049              	.LCFI275:
 3050              		.cfi_def_cfa_register 13
 3051              		@ sp needed
 3052 0036 80BC     		pop	{r7}
 3053              	.LCFI276:
 3054              		.cfi_restore 7
 3055              		.cfi_def_cfa_offset 0
 3056 0038 7047     		bx	lr
 3057              	.L147:
 3058 003a 00BF     		.align	2
 3059              	.L146:
 3060 003c 505C0040 		.word	1073765456
 3061 0040 04300020 		.word	536883204
 3062              		.cfi_endproc
 3063              	.LFE74:
 3065              		.section	.text.GetEPDblBuf0Addr,"ax",%progbits
 3066              		.align	1
 3067              		.global	GetEPDblBuf0Addr
 3068              		.syntax unified
 3069              		.thumb
 3070              		.thumb_func
 3072              	GetEPDblBuf0Addr:
 3073              	.LFB75:
 601:common/lib.stm32/STM32_USB-FS-Device_Driver/src/usb_regs.c **** /*******************************************************************************
 602:common/lib.stm32/STM32_USB-FS-Device_Driver/src/usb_regs.c **** * Function Name  : GetEPDblBuf0Addr
 603:common/lib.stm32/STM32_USB-FS-Device_Driver/src/usb_regs.c **** * Description    : Returns the address of the Buffer 0.
 604:common/lib.stm32/STM32_USB-FS-Device_Driver/src/usb_regs.c **** * Input          : bEpNum: Endpoint Number.
 605:common/lib.stm32/STM32_USB-FS-Device_Driver/src/usb_regs.c **** * Output         : None.
 606:common/lib.stm32/STM32_USB-FS-Device_Driver/src/usb_regs.c **** * Return         : None.
 607:common/lib.stm32/STM32_USB-FS-Device_Driver/src/usb_regs.c **** *******************************************************************************/
 608:common/lib.stm32/STM32_USB-FS-Device_Driver/src/usb_regs.c **** uint16_t GetEPDblBuf0Addr(uint8_t bEpNum)
 609:common/lib.stm32/STM32_USB-FS-Device_Driver/src/usb_regs.c **** {
 3074              		.loc 1 609 1
 3075              		.cfi_startproc
 3076              		@ args = 0, pretend = 0, frame = 8
 3077              		@ frame_needed = 1, uses_anonymous_args = 0
 3078              		@ link register save eliminated.
 3079 0000 80B4     		push	{r7}
 3080              	.LCFI277:
 3081              		.cfi_def_cfa_offset 4
 3082              		.cfi_offset 7, -4
 3083 0002 83B0     		sub	sp, sp, #12
 3084              	.LCFI278:
 3085              		.cfi_def_cfa_offset 16
 3086 0004 00AF     		add	r7, sp, #0
 3087              	.LCFI279:
 3088              		.cfi_def_cfa_register 7
 3089 0006 0346     		mov	r3, r0
 3090 0008 FB71     		strb	r3, [r7, #7]
 610:common/lib.stm32/STM32_USB-FS-Device_Driver/src/usb_regs.c ****   return(_GetEPDblBuf0Addr(bEpNum));
 3091              		.loc 1 610 10
 3092 000a 094B     		ldr	r3, .L150
 3093 000c 1B68     		ldr	r3, [r3]
 3094 000e 9BB2     		uxth	r3, r3
 3095 0010 1A46     		mov	r2, r3
 3096 0012 FB79     		ldrb	r3, [r7, #7]	@ zero_extendqisi2
 3097 0014 DB00     		lsls	r3, r3, #3
 3098 0016 1344     		add	r3, r3, r2
 3099 0018 03F10053 		add	r3, r3, #536870912
 3100 001c 03F54053 		add	r3, r3, #12288
 3101 0020 5B00     		lsls	r3, r3, #1
 3102 0022 1B68     		ldr	r3, [r3]
 3103 0024 9BB2     		uxth	r3, r3
 611:common/lib.stm32/STM32_USB-FS-Device_Driver/src/usb_regs.c **** }
 3104              		.loc 1 611 1
 3105 0026 1846     		mov	r0, r3
 3106 0028 0C37     		adds	r7, r7, #12
 3107              	.LCFI280:
 3108              		.cfi_def_cfa_offset 4
 3109 002a BD46     		mov	sp, r7
 3110              	.LCFI281:
 3111              		.cfi_def_cfa_register 13
 3112              		@ sp needed
 3113 002c 80BC     		pop	{r7}
 3114              	.LCFI282:
 3115              		.cfi_restore 7
 3116              		.cfi_def_cfa_offset 0
 3117 002e 7047     		bx	lr
 3118              	.L151:
 3119              		.align	2
 3120              	.L150:
 3121 0030 505C0040 		.word	1073765456
 3122              		.cfi_endproc
 3123              	.LFE75:
 3125              		.section	.text.GetEPDblBuf1Addr,"ax",%progbits
 3126              		.align	1
 3127              		.global	GetEPDblBuf1Addr
 3128              		.syntax unified
 3129              		.thumb
 3130              		.thumb_func
 3132              	GetEPDblBuf1Addr:
 3133              	.LFB76:
 612:common/lib.stm32/STM32_USB-FS-Device_Driver/src/usb_regs.c **** /*******************************************************************************
 613:common/lib.stm32/STM32_USB-FS-Device_Driver/src/usb_regs.c **** * Function Name  : GetEPDblBuf1Addr
 614:common/lib.stm32/STM32_USB-FS-Device_Driver/src/usb_regs.c **** * Description    : Returns the address of the Buffer 1.
 615:common/lib.stm32/STM32_USB-FS-Device_Driver/src/usb_regs.c **** * Input          : bEpNum: Endpoint Number.
 616:common/lib.stm32/STM32_USB-FS-Device_Driver/src/usb_regs.c **** * Output         : None.
 617:common/lib.stm32/STM32_USB-FS-Device_Driver/src/usb_regs.c **** * Return         : Address of the Buffer 1.
 618:common/lib.stm32/STM32_USB-FS-Device_Driver/src/usb_regs.c **** *******************************************************************************/
 619:common/lib.stm32/STM32_USB-FS-Device_Driver/src/usb_regs.c **** uint16_t GetEPDblBuf1Addr(uint8_t bEpNum)
 620:common/lib.stm32/STM32_USB-FS-Device_Driver/src/usb_regs.c **** {
 3134              		.loc 1 620 1
 3135              		.cfi_startproc
 3136              		@ args = 0, pretend = 0, frame = 8
 3137              		@ frame_needed = 1, uses_anonymous_args = 0
 3138              		@ link register save eliminated.
 3139 0000 80B4     		push	{r7}
 3140              	.LCFI283:
 3141              		.cfi_def_cfa_offset 4
 3142              		.cfi_offset 7, -4
 3143 0002 83B0     		sub	sp, sp, #12
 3144              	.LCFI284:
 3145              		.cfi_def_cfa_offset 16
 3146 0004 00AF     		add	r7, sp, #0
 3147              	.LCFI285:
 3148              		.cfi_def_cfa_register 7
 3149 0006 0346     		mov	r3, r0
 3150 0008 FB71     		strb	r3, [r7, #7]
 621:common/lib.stm32/STM32_USB-FS-Device_Driver/src/usb_regs.c ****   return(_GetEPDblBuf1Addr(bEpNum));
 3151              		.loc 1 621 10
 3152 000a 084B     		ldr	r3, .L154
 3153 000c 1B68     		ldr	r3, [r3]
 3154 000e 9BB2     		uxth	r3, r3
 3155 0010 1A46     		mov	r2, r3
 3156 0012 FB79     		ldrb	r3, [r7, #7]	@ zero_extendqisi2
 3157 0014 DB00     		lsls	r3, r3, #3
 3158 0016 1A44     		add	r2, r2, r3
 3159 0018 054B     		ldr	r3, .L154+4
 3160 001a 1344     		add	r3, r3, r2
 3161 001c 5B00     		lsls	r3, r3, #1
 3162 001e 1B68     		ldr	r3, [r3]
 3163 0020 9BB2     		uxth	r3, r3
 622:common/lib.stm32/STM32_USB-FS-Device_Driver/src/usb_regs.c **** }
 3164              		.loc 1 622 1
 3165 0022 1846     		mov	r0, r3
 3166 0024 0C37     		adds	r7, r7, #12
 3167              	.LCFI286:
 3168              		.cfi_def_cfa_offset 4
 3169 0026 BD46     		mov	sp, r7
 3170              	.LCFI287:
 3171              		.cfi_def_cfa_register 13
 3172              		@ sp needed
 3173 0028 80BC     		pop	{r7}
 3174              	.LCFI288:
 3175              		.cfi_restore 7
 3176              		.cfi_def_cfa_offset 0
 3177 002a 7047     		bx	lr
 3178              	.L155:
 3179              		.align	2
 3180              	.L154:
 3181 002c 505C0040 		.word	1073765456
 3182 0030 04300020 		.word	536883204
 3183              		.cfi_endproc
 3184              	.LFE76:
 3186              		.section	.text.SetEPDblBuffCount,"ax",%progbits
 3187              		.align	1
 3188              		.global	SetEPDblBuffCount
 3189              		.syntax unified
 3190              		.thumb
 3191              		.thumb_func
 3193              	SetEPDblBuffCount:
 3194              	.LFB77:
 623:common/lib.stm32/STM32_USB-FS-Device_Driver/src/usb_regs.c **** /*******************************************************************************
 624:common/lib.stm32/STM32_USB-FS-Device_Driver/src/usb_regs.c **** * Function Name  : SetEPDblBuffCount
 625:common/lib.stm32/STM32_USB-FS-Device_Driver/src/usb_regs.c **** * Description    : Set the number of bytes for a double Buffer 
 626:common/lib.stm32/STM32_USB-FS-Device_Driver/src/usb_regs.c **** *                  endpoint.
 627:common/lib.stm32/STM32_USB-FS-Device_Driver/src/usb_regs.c **** * Input          : bEpNum,bDir, wCount
 628:common/lib.stm32/STM32_USB-FS-Device_Driver/src/usb_regs.c **** * Output         : None.
 629:common/lib.stm32/STM32_USB-FS-Device_Driver/src/usb_regs.c **** * Return         : None.
 630:common/lib.stm32/STM32_USB-FS-Device_Driver/src/usb_regs.c **** *******************************************************************************/
 631:common/lib.stm32/STM32_USB-FS-Device_Driver/src/usb_regs.c **** void SetEPDblBuffCount(uint8_t bEpNum, uint8_t bDir, uint16_t wCount)
 632:common/lib.stm32/STM32_USB-FS-Device_Driver/src/usb_regs.c **** {
 3195              		.loc 1 632 1
 3196              		.cfi_startproc
 3197              		@ args = 0, pretend = 0, frame = 24
 3198              		@ frame_needed = 1, uses_anonymous_args = 0
 3199              		@ link register save eliminated.
 3200 0000 80B4     		push	{r7}
 3201              	.LCFI289:
 3202              		.cfi_def_cfa_offset 4
 3203              		.cfi_offset 7, -4
 3204 0002 87B0     		sub	sp, sp, #28
 3205              	.LCFI290:
 3206              		.cfi_def_cfa_offset 32
 3207 0004 00AF     		add	r7, sp, #0
 3208              	.LCFI291:
 3209              		.cfi_def_cfa_register 7
 3210 0006 0346     		mov	r3, r0
 3211 0008 FB71     		strb	r3, [r7, #7]
 3212 000a 0B46     		mov	r3, r1
 3213 000c BB71     		strb	r3, [r7, #6]
 3214 000e 1346     		mov	r3, r2	@ movhi
 3215 0010 BB80     		strh	r3, [r7, #4]	@ movhi
 633:common/lib.stm32/STM32_USB-FS-Device_Driver/src/usb_regs.c ****   _SetEPDblBuffCount(bEpNum, bDir, wCount);
 3216              		.loc 1 633 3
 3217 0012 BB79     		ldrb	r3, [r7, #6]	@ zero_extendqisi2
 3218 0014 012B     		cmp	r3, #1
 3219 0016 31D1     		bne	.L157
 3220              	.LBB12:
 3221              		.loc 1 633 3 is_stmt 0 discriminator 1
 3222 0018 454B     		ldr	r3, .L168
 3223 001a 1B68     		ldr	r3, [r3]
 3224 001c 9BB2     		uxth	r3, r3
 3225 001e 1A46     		mov	r2, r3
 3226 0020 FB79     		ldrb	r3, [r7, #7]	@ zero_extendqisi2
 3227 0022 DB00     		lsls	r3, r3, #3
 3228 0024 1A44     		add	r2, r2, r3
 3229 0026 434B     		ldr	r3, .L168+4
 3230 0028 1344     		add	r3, r3, r2
 3231 002a 5B00     		lsls	r3, r3, #1
 3232 002c 3B61     		str	r3, [r7, #16]
 3233              	.LBB13:
 3234 002e BB88     		ldrh	r3, [r7, #4]
 3235 0030 3E2B     		cmp	r3, #62
 3236 0032 12D9     		bls	.L158
 3237              		.loc 1 633 3 discriminator 3
 3238 0034 BB88     		ldrh	r3, [r7, #4]
 3239 0036 5B09     		lsrs	r3, r3, #5
 3240 0038 FB82     		strh	r3, [r7, #22]	@ movhi
 3241 003a BB88     		ldrh	r3, [r7, #4]
 3242 003c 03F01F03 		and	r3, r3, #31
 3243 0040 002B     		cmp	r3, #0
 3244 0042 02D1     		bne	.L159
 3245              		.loc 1 633 3 discriminator 5
 3246 0044 FB8A     		ldrh	r3, [r7, #22]
 3247 0046 013B     		subs	r3, r3, #1
 3248 0048 FB82     		strh	r3, [r7, #22]	@ movhi
 3249              	.L159:
 3250              		.loc 1 633 3 discriminator 7
 3251 004a FB8A     		ldrh	r3, [r7, #22]
 3252 004c 9B02     		lsls	r3, r3, #10
 3253 004e 43F40043 		orr	r3, r3, #32768
 3254 0052 1A46     		mov	r2, r3
 3255 0054 3B69     		ldr	r3, [r7, #16]
 3256 0056 1A60     		str	r2, [r3]
 3257 0058 20E0     		b	.L160
 3258              	.L158:
 3259              		.loc 1 633 3 discriminator 4
 3260 005a BB88     		ldrh	r3, [r7, #4]
 3261 005c 5B08     		lsrs	r3, r3, #1
 3262 005e FB82     		strh	r3, [r7, #22]	@ movhi
 3263 0060 BB88     		ldrh	r3, [r7, #4]
 3264 0062 03F00103 		and	r3, r3, #1
 3265 0066 002B     		cmp	r3, #0
 3266 0068 02D0     		beq	.L161
 3267              		.loc 1 633 3 discriminator 8
 3268 006a FB8A     		ldrh	r3, [r7, #22]
 3269 006c 0133     		adds	r3, r3, #1
 3270 006e FB82     		strh	r3, [r7, #22]	@ movhi
 3271              	.L161:
 3272              		.loc 1 633 3 discriminator 10
 3273 0070 FB8A     		ldrh	r3, [r7, #22]
 3274 0072 9B02     		lsls	r3, r3, #10
 3275 0074 1A46     		mov	r2, r3
 3276 0076 3B69     		ldr	r3, [r7, #16]
 3277 0078 1A60     		str	r2, [r3]
 3278 007a 0FE0     		b	.L160
 3279              	.L157:
 3280              	.LBE13:
 3281              	.LBE12:
 3282              		.loc 1 633 3 discriminator 2
 3283 007c BB79     		ldrb	r3, [r7, #6]	@ zero_extendqisi2
 3284 007e 022B     		cmp	r3, #2
 3285 0080 0CD1     		bne	.L160
 3286              		.loc 1 633 3 discriminator 11
 3287 0082 2B4B     		ldr	r3, .L168
 3288 0084 1B68     		ldr	r3, [r3]
 3289 0086 9BB2     		uxth	r3, r3
 3290 0088 1A46     		mov	r2, r3
 3291 008a FB79     		ldrb	r3, [r7, #7]	@ zero_extendqisi2
 3292 008c DB00     		lsls	r3, r3, #3
 3293 008e 1A44     		add	r2, r2, r3
 3294 0090 284B     		ldr	r3, .L168+4
 3295 0092 1344     		add	r3, r3, r2
 3296 0094 5B00     		lsls	r3, r3, #1
 3297 0096 1A46     		mov	r2, r3
 3298 0098 BB88     		ldrh	r3, [r7, #4]
 3299 009a 1360     		str	r3, [r2]
 3300              	.L160:
 3301              		.loc 1 633 3 discriminator 13
 3302 009c BB79     		ldrb	r3, [r7, #6]	@ zero_extendqisi2
 3303 009e 012B     		cmp	r3, #1
 3304 00a0 31D1     		bne	.L162
 3305              	.LBB14:
 3306              		.loc 1 633 3 discriminator 14
 3307 00a2 234B     		ldr	r3, .L168
 3308 00a4 1B68     		ldr	r3, [r3]
 3309 00a6 9BB2     		uxth	r3, r3
 3310 00a8 1A46     		mov	r2, r3
 3311 00aa FB79     		ldrb	r3, [r7, #7]	@ zero_extendqisi2
 3312 00ac DB00     		lsls	r3, r3, #3
 3313 00ae 1A44     		add	r2, r2, r3
 3314 00b0 214B     		ldr	r3, .L168+8
 3315 00b2 1344     		add	r3, r3, r2
 3316 00b4 5B00     		lsls	r3, r3, #1
 3317 00b6 FB60     		str	r3, [r7, #12]
 3318              	.LBB15:
 3319 00b8 BB88     		ldrh	r3, [r7, #4]
 3320 00ba 3E2B     		cmp	r3, #62
 3321 00bc 12D9     		bls	.L163
 3322              		.loc 1 633 3 discriminator 16
 3323 00be BB88     		ldrh	r3, [r7, #4]
 3324 00c0 5B09     		lsrs	r3, r3, #5
 3325 00c2 BB82     		strh	r3, [r7, #20]	@ movhi
 3326 00c4 BB88     		ldrh	r3, [r7, #4]
 3327 00c6 03F01F03 		and	r3, r3, #31
 3328 00ca 002B     		cmp	r3, #0
 3329 00cc 02D1     		bne	.L164
 3330              		.loc 1 633 3 discriminator 18
 3331 00ce BB8A     		ldrh	r3, [r7, #20]
 3332 00d0 013B     		subs	r3, r3, #1
 3333 00d2 BB82     		strh	r3, [r7, #20]	@ movhi
 3334              	.L164:
 3335              		.loc 1 633 3 discriminator 20
 3336 00d4 BB8A     		ldrh	r3, [r7, #20]
 3337 00d6 9B02     		lsls	r3, r3, #10
 3338 00d8 43F40043 		orr	r3, r3, #32768
 3339 00dc 1A46     		mov	r2, r3
 3340 00de FB68     		ldr	r3, [r7, #12]
 3341 00e0 1A60     		str	r2, [r3]
 3342              	.LBE15:
 3343              	.LBE14:
 634:common/lib.stm32/STM32_USB-FS-Device_Driver/src/usb_regs.c **** }
 3344              		.loc 1 634 1 is_stmt 1 discriminator 20
 3345 00e2 20E0     		b	.L167
 3346              	.L163:
 3347              	.LBB17:
 3348              	.LBB16:
 633:common/lib.stm32/STM32_USB-FS-Device_Driver/src/usb_regs.c ****   _SetEPDblBuffCount(bEpNum, bDir, wCount);
 3349              		.loc 1 633 3 discriminator 17
 3350 00e4 BB88     		ldrh	r3, [r7, #4]
 3351 00e6 5B08     		lsrs	r3, r3, #1
 3352 00e8 BB82     		strh	r3, [r7, #20]	@ movhi
 3353 00ea BB88     		ldrh	r3, [r7, #4]
 3354 00ec 03F00103 		and	r3, r3, #1
 3355 00f0 002B     		cmp	r3, #0
 3356 00f2 02D0     		beq	.L166
 633:common/lib.stm32/STM32_USB-FS-Device_Driver/src/usb_regs.c ****   _SetEPDblBuffCount(bEpNum, bDir, wCount);
 3357              		.loc 1 633 3 is_stmt 0 discriminator 21
 3358 00f4 BB8A     		ldrh	r3, [r7, #20]
 3359 00f6 0133     		adds	r3, r3, #1
 3360 00f8 BB82     		strh	r3, [r7, #20]	@ movhi
 3361              	.L166:
 633:common/lib.stm32/STM32_USB-FS-Device_Driver/src/usb_regs.c ****   _SetEPDblBuffCount(bEpNum, bDir, wCount);
 3362              		.loc 1 633 3 discriminator 23
 3363 00fa BB8A     		ldrh	r3, [r7, #20]
 3364 00fc 9B02     		lsls	r3, r3, #10
 3365 00fe 1A46     		mov	r2, r3
 3366 0100 FB68     		ldr	r3, [r7, #12]
 3367 0102 1A60     		str	r2, [r3]
 3368              	.LBE16:
 3369              	.LBE17:
 3370              		.loc 1 634 1 is_stmt 1 discriminator 23
 3371 0104 0FE0     		b	.L167
 3372              	.L162:
 633:common/lib.stm32/STM32_USB-FS-Device_Driver/src/usb_regs.c ****   _SetEPDblBuffCount(bEpNum, bDir, wCount);
 3373              		.loc 1 633 3 discriminator 15
 3374 0106 BB79     		ldrb	r3, [r7, #6]	@ zero_extendqisi2
 3375 0108 022B     		cmp	r3, #2
 3376 010a 0CD1     		bne	.L167
 633:common/lib.stm32/STM32_USB-FS-Device_Driver/src/usb_regs.c ****   _SetEPDblBuffCount(bEpNum, bDir, wCount);
 3377              		.loc 1 633 3 is_stmt 0 discriminator 24
 3378 010c 084B     		ldr	r3, .L168
 3379 010e 1B68     		ldr	r3, [r3]
 3380 0110 9BB2     		uxth	r3, r3
 3381 0112 1A46     		mov	r2, r3
 3382 0114 FB79     		ldrb	r3, [r7, #7]	@ zero_extendqisi2
 3383 0116 DB00     		lsls	r3, r3, #3
 3384 0118 1A44     		add	r2, r2, r3
 3385 011a 074B     		ldr	r3, .L168+8
 3386 011c 1344     		add	r3, r3, r2
 3387 011e 5B00     		lsls	r3, r3, #1
 3388 0120 1A46     		mov	r2, r3
 3389 0122 BB88     		ldrh	r3, [r7, #4]
 3390 0124 1360     		str	r3, [r2]
 3391              	.L167:
 3392              		.loc 1 634 1 is_stmt 1
 3393 0126 00BF     		nop
 3394 0128 1C37     		adds	r7, r7, #28
 3395              	.LCFI292:
 3396              		.cfi_def_cfa_offset 4
 3397 012a BD46     		mov	sp, r7
 3398              	.LCFI293:
 3399              		.cfi_def_cfa_register 13
 3400              		@ sp needed
 3401 012c 80BC     		pop	{r7}
 3402              	.LCFI294:
 3403              		.cfi_restore 7
 3404              		.cfi_def_cfa_offset 0
 3405 012e 7047     		bx	lr
 3406              	.L169:
 3407              		.align	2
 3408              	.L168:
 3409 0130 505C0040 		.word	1073765456
 3410 0134 02300020 		.word	536883202
 3411 0138 06300020 		.word	536883206
 3412              		.cfi_endproc
 3413              	.LFE77:
 3415              		.section	.text.SetEPDblBuf0Count,"ax",%progbits
 3416              		.align	1
 3417              		.global	SetEPDblBuf0Count
 3418              		.syntax unified
 3419              		.thumb
 3420              		.thumb_func
 3422              	SetEPDblBuf0Count:
 3423              	.LFB78:
 635:common/lib.stm32/STM32_USB-FS-Device_Driver/src/usb_regs.c **** /*******************************************************************************
 636:common/lib.stm32/STM32_USB-FS-Device_Driver/src/usb_regs.c **** * Function Name  : SetEPDblBuf0Count
 637:common/lib.stm32/STM32_USB-FS-Device_Driver/src/usb_regs.c **** * Description    : Set the number of bytes in the buffer 0 of a double Buffer 
 638:common/lib.stm32/STM32_USB-FS-Device_Driver/src/usb_regs.c **** *                  endpoint.
 639:common/lib.stm32/STM32_USB-FS-Device_Driver/src/usb_regs.c **** * Input          : bEpNum, bDir,  wCount
 640:common/lib.stm32/STM32_USB-FS-Device_Driver/src/usb_regs.c **** * Output         : None.
 641:common/lib.stm32/STM32_USB-FS-Device_Driver/src/usb_regs.c **** * Return         : None.
 642:common/lib.stm32/STM32_USB-FS-Device_Driver/src/usb_regs.c **** *******************************************************************************/
 643:common/lib.stm32/STM32_USB-FS-Device_Driver/src/usb_regs.c **** void SetEPDblBuf0Count(uint8_t bEpNum, uint8_t bDir, uint16_t wCount)
 644:common/lib.stm32/STM32_USB-FS-Device_Driver/src/usb_regs.c **** {
 3424              		.loc 1 644 1
 3425              		.cfi_startproc
 3426              		@ args = 0, pretend = 0, frame = 16
 3427              		@ frame_needed = 1, uses_anonymous_args = 0
 3428              		@ link register save eliminated.
 3429 0000 80B4     		push	{r7}
 3430              	.LCFI295:
 3431              		.cfi_def_cfa_offset 4
 3432              		.cfi_offset 7, -4
 3433 0002 85B0     		sub	sp, sp, #20
 3434              	.LCFI296:
 3435              		.cfi_def_cfa_offset 24
 3436 0004 00AF     		add	r7, sp, #0
 3437              	.LCFI297:
 3438              		.cfi_def_cfa_register 7
 3439 0006 0346     		mov	r3, r0
 3440 0008 FB71     		strb	r3, [r7, #7]
 3441 000a 0B46     		mov	r3, r1
 3442 000c BB71     		strb	r3, [r7, #6]
 3443 000e 1346     		mov	r3, r2	@ movhi
 3444 0010 BB80     		strh	r3, [r7, #4]	@ movhi
 645:common/lib.stm32/STM32_USB-FS-Device_Driver/src/usb_regs.c ****   _SetEPDblBuf0Count(bEpNum, bDir, wCount);
 3445              		.loc 1 645 3
 3446 0012 BB79     		ldrb	r3, [r7, #6]	@ zero_extendqisi2
 3447 0014 012B     		cmp	r3, #1
 3448 0016 31D1     		bne	.L171
 3449              	.LBB18:
 3450              		.loc 1 645 3 is_stmt 0 discriminator 1
 3451 0018 234B     		ldr	r3, .L177
 3452 001a 1B68     		ldr	r3, [r3]
 3453 001c 9BB2     		uxth	r3, r3
 3454 001e 1A46     		mov	r2, r3
 3455 0020 FB79     		ldrb	r3, [r7, #7]	@ zero_extendqisi2
 3456 0022 DB00     		lsls	r3, r3, #3
 3457 0024 1A44     		add	r2, r2, r3
 3458 0026 214B     		ldr	r3, .L177+4
 3459 0028 1344     		add	r3, r3, r2
 3460 002a 5B00     		lsls	r3, r3, #1
 3461 002c BB60     		str	r3, [r7, #8]
 3462              	.LBB19:
 3463 002e BB88     		ldrh	r3, [r7, #4]
 3464 0030 3E2B     		cmp	r3, #62
 3465 0032 12D9     		bls	.L172
 3466              		.loc 1 645 3 discriminator 3
 3467 0034 BB88     		ldrh	r3, [r7, #4]
 3468 0036 5B09     		lsrs	r3, r3, #5
 3469 0038 FB81     		strh	r3, [r7, #14]	@ movhi
 3470 003a BB88     		ldrh	r3, [r7, #4]
 3471 003c 03F01F03 		and	r3, r3, #31
 3472 0040 002B     		cmp	r3, #0
 3473 0042 02D1     		bne	.L173
 3474              		.loc 1 645 3 discriminator 5
 3475 0044 FB89     		ldrh	r3, [r7, #14]
 3476 0046 013B     		subs	r3, r3, #1
 3477 0048 FB81     		strh	r3, [r7, #14]	@ movhi
 3478              	.L173:
 3479              		.loc 1 645 3 discriminator 7
 3480 004a FB89     		ldrh	r3, [r7, #14]
 3481 004c 9B02     		lsls	r3, r3, #10
 3482 004e 43F40043 		orr	r3, r3, #32768
 3483 0052 1A46     		mov	r2, r3
 3484 0054 BB68     		ldr	r3, [r7, #8]
 3485 0056 1A60     		str	r2, [r3]
 3486              	.LBE19:
 3487              	.LBE18:
 646:common/lib.stm32/STM32_USB-FS-Device_Driver/src/usb_regs.c **** }
 3488              		.loc 1 646 1 is_stmt 1 discriminator 7
 3489 0058 20E0     		b	.L176
 3490              	.L172:
 3491              	.LBB21:
 3492              	.LBB20:
 645:common/lib.stm32/STM32_USB-FS-Device_Driver/src/usb_regs.c ****   _SetEPDblBuf0Count(bEpNum, bDir, wCount);
 3493              		.loc 1 645 3 discriminator 4
 3494 005a BB88     		ldrh	r3, [r7, #4]
 3495 005c 5B08     		lsrs	r3, r3, #1
 3496 005e FB81     		strh	r3, [r7, #14]	@ movhi
 3497 0060 BB88     		ldrh	r3, [r7, #4]
 3498 0062 03F00103 		and	r3, r3, #1
 3499 0066 002B     		cmp	r3, #0
 3500 0068 02D0     		beq	.L175
 645:common/lib.stm32/STM32_USB-FS-Device_Driver/src/usb_regs.c ****   _SetEPDblBuf0Count(bEpNum, bDir, wCount);
 3501              		.loc 1 645 3 is_stmt 0 discriminator 8
 3502 006a FB89     		ldrh	r3, [r7, #14]
 3503 006c 0133     		adds	r3, r3, #1
 3504 006e FB81     		strh	r3, [r7, #14]	@ movhi
 3505              	.L175:
 645:common/lib.stm32/STM32_USB-FS-Device_Driver/src/usb_regs.c ****   _SetEPDblBuf0Count(bEpNum, bDir, wCount);
 3506              		.loc 1 645 3 discriminator 10
 3507 0070 FB89     		ldrh	r3, [r7, #14]
 3508 0072 9B02     		lsls	r3, r3, #10
 3509 0074 1A46     		mov	r2, r3
 3510 0076 BB68     		ldr	r3, [r7, #8]
 3511 0078 1A60     		str	r2, [r3]
 3512              	.LBE20:
 3513              	.LBE21:
 3514              		.loc 1 646 1 is_stmt 1 discriminator 10
 3515 007a 0FE0     		b	.L176
 3516              	.L171:
 645:common/lib.stm32/STM32_USB-FS-Device_Driver/src/usb_regs.c ****   _SetEPDblBuf0Count(bEpNum, bDir, wCount);
 3517              		.loc 1 645 3 discriminator 2
 3518 007c BB79     		ldrb	r3, [r7, #6]	@ zero_extendqisi2
 3519 007e 022B     		cmp	r3, #2
 3520 0080 0CD1     		bne	.L176
 645:common/lib.stm32/STM32_USB-FS-Device_Driver/src/usb_regs.c ****   _SetEPDblBuf0Count(bEpNum, bDir, wCount);
 3521              		.loc 1 645 3 is_stmt 0 discriminator 11
 3522 0082 094B     		ldr	r3, .L177
 3523 0084 1B68     		ldr	r3, [r3]
 3524 0086 9BB2     		uxth	r3, r3
 3525 0088 1A46     		mov	r2, r3
 3526 008a FB79     		ldrb	r3, [r7, #7]	@ zero_extendqisi2
 3527 008c DB00     		lsls	r3, r3, #3
 3528 008e 1A44     		add	r2, r2, r3
 3529 0090 064B     		ldr	r3, .L177+4
 3530 0092 1344     		add	r3, r3, r2
 3531 0094 5B00     		lsls	r3, r3, #1
 3532 0096 1A46     		mov	r2, r3
 3533 0098 BB88     		ldrh	r3, [r7, #4]
 3534 009a 1360     		str	r3, [r2]
 3535              	.L176:
 3536              		.loc 1 646 1 is_stmt 1
 3537 009c 00BF     		nop
 3538 009e 1437     		adds	r7, r7, #20
 3539              	.LCFI298:
 3540              		.cfi_def_cfa_offset 4
 3541 00a0 BD46     		mov	sp, r7
 3542              	.LCFI299:
 3543              		.cfi_def_cfa_register 13
 3544              		@ sp needed
 3545 00a2 80BC     		pop	{r7}
 3546              	.LCFI300:
 3547              		.cfi_restore 7
 3548              		.cfi_def_cfa_offset 0
 3549 00a4 7047     		bx	lr
 3550              	.L178:
 3551 00a6 00BF     		.align	2
 3552              	.L177:
 3553 00a8 505C0040 		.word	1073765456
 3554 00ac 02300020 		.word	536883202
 3555              		.cfi_endproc
 3556              	.LFE78:
 3558              		.section	.text.SetEPDblBuf1Count,"ax",%progbits
 3559              		.align	1
 3560              		.global	SetEPDblBuf1Count
 3561              		.syntax unified
 3562              		.thumb
 3563              		.thumb_func
 3565              	SetEPDblBuf1Count:
 3566              	.LFB79:
 647:common/lib.stm32/STM32_USB-FS-Device_Driver/src/usb_regs.c **** /*******************************************************************************
 648:common/lib.stm32/STM32_USB-FS-Device_Driver/src/usb_regs.c **** * Function Name  : SetEPDblBuf1Count
 649:common/lib.stm32/STM32_USB-FS-Device_Driver/src/usb_regs.c **** * Description    : Set the number of bytes in the buffer 0 of a double Buffer 
 650:common/lib.stm32/STM32_USB-FS-Device_Driver/src/usb_regs.c **** *                  endpoint.
 651:common/lib.stm32/STM32_USB-FS-Device_Driver/src/usb_regs.c **** * Input          : bEpNum,  bDir,  wCount
 652:common/lib.stm32/STM32_USB-FS-Device_Driver/src/usb_regs.c **** * Output         : None.
 653:common/lib.stm32/STM32_USB-FS-Device_Driver/src/usb_regs.c **** * Return         : None.
 654:common/lib.stm32/STM32_USB-FS-Device_Driver/src/usb_regs.c **** *******************************************************************************/
 655:common/lib.stm32/STM32_USB-FS-Device_Driver/src/usb_regs.c **** void SetEPDblBuf1Count(uint8_t bEpNum, uint8_t bDir, uint16_t wCount)
 656:common/lib.stm32/STM32_USB-FS-Device_Driver/src/usb_regs.c **** {
 3567              		.loc 1 656 1
 3568              		.cfi_startproc
 3569              		@ args = 0, pretend = 0, frame = 16
 3570              		@ frame_needed = 1, uses_anonymous_args = 0
 3571              		@ link register save eliminated.
 3572 0000 80B4     		push	{r7}
 3573              	.LCFI301:
 3574              		.cfi_def_cfa_offset 4
 3575              		.cfi_offset 7, -4
 3576 0002 85B0     		sub	sp, sp, #20
 3577              	.LCFI302:
 3578              		.cfi_def_cfa_offset 24
 3579 0004 00AF     		add	r7, sp, #0
 3580              	.LCFI303:
 3581              		.cfi_def_cfa_register 7
 3582 0006 0346     		mov	r3, r0
 3583 0008 FB71     		strb	r3, [r7, #7]
 3584 000a 0B46     		mov	r3, r1
 3585 000c BB71     		strb	r3, [r7, #6]
 3586 000e 1346     		mov	r3, r2	@ movhi
 3587 0010 BB80     		strh	r3, [r7, #4]	@ movhi
 657:common/lib.stm32/STM32_USB-FS-Device_Driver/src/usb_regs.c ****   _SetEPDblBuf1Count(bEpNum, bDir, wCount);
 3588              		.loc 1 657 3
 3589 0012 BB79     		ldrb	r3, [r7, #6]	@ zero_extendqisi2
 3590 0014 012B     		cmp	r3, #1
 3591 0016 31D1     		bne	.L180
 3592              	.LBB22:
 3593              		.loc 1 657 3 is_stmt 0 discriminator 1
 3594 0018 234B     		ldr	r3, .L186
 3595 001a 1B68     		ldr	r3, [r3]
 3596 001c 9BB2     		uxth	r3, r3
 3597 001e 1A46     		mov	r2, r3
 3598 0020 FB79     		ldrb	r3, [r7, #7]	@ zero_extendqisi2
 3599 0022 DB00     		lsls	r3, r3, #3
 3600 0024 1A44     		add	r2, r2, r3
 3601 0026 214B     		ldr	r3, .L186+4
 3602 0028 1344     		add	r3, r3, r2
 3603 002a 5B00     		lsls	r3, r3, #1
 3604 002c BB60     		str	r3, [r7, #8]
 3605              	.LBB23:
 3606 002e BB88     		ldrh	r3, [r7, #4]
 3607 0030 3E2B     		cmp	r3, #62
 3608 0032 12D9     		bls	.L181
 3609              		.loc 1 657 3 discriminator 3
 3610 0034 BB88     		ldrh	r3, [r7, #4]
 3611 0036 5B09     		lsrs	r3, r3, #5
 3612 0038 FB81     		strh	r3, [r7, #14]	@ movhi
 3613 003a BB88     		ldrh	r3, [r7, #4]
 3614 003c 03F01F03 		and	r3, r3, #31
 3615 0040 002B     		cmp	r3, #0
 3616 0042 02D1     		bne	.L182
 3617              		.loc 1 657 3 discriminator 5
 3618 0044 FB89     		ldrh	r3, [r7, #14]
 3619 0046 013B     		subs	r3, r3, #1
 3620 0048 FB81     		strh	r3, [r7, #14]	@ movhi
 3621              	.L182:
 3622              		.loc 1 657 3 discriminator 7
 3623 004a FB89     		ldrh	r3, [r7, #14]
 3624 004c 9B02     		lsls	r3, r3, #10
 3625 004e 43F40043 		orr	r3, r3, #32768
 3626 0052 1A46     		mov	r2, r3
 3627 0054 BB68     		ldr	r3, [r7, #8]
 3628 0056 1A60     		str	r2, [r3]
 3629              	.LBE23:
 3630              	.LBE22:
 658:common/lib.stm32/STM32_USB-FS-Device_Driver/src/usb_regs.c **** }
 3631              		.loc 1 658 1 is_stmt 1 discriminator 7
 3632 0058 20E0     		b	.L185
 3633              	.L181:
 3634              	.LBB25:
 3635              	.LBB24:
 657:common/lib.stm32/STM32_USB-FS-Device_Driver/src/usb_regs.c ****   _SetEPDblBuf1Count(bEpNum, bDir, wCount);
 3636              		.loc 1 657 3 discriminator 4
 3637 005a BB88     		ldrh	r3, [r7, #4]
 3638 005c 5B08     		lsrs	r3, r3, #1
 3639 005e FB81     		strh	r3, [r7, #14]	@ movhi
 3640 0060 BB88     		ldrh	r3, [r7, #4]
 3641 0062 03F00103 		and	r3, r3, #1
 3642 0066 002B     		cmp	r3, #0
 3643 0068 02D0     		beq	.L184
 657:common/lib.stm32/STM32_USB-FS-Device_Driver/src/usb_regs.c ****   _SetEPDblBuf1Count(bEpNum, bDir, wCount);
 3644              		.loc 1 657 3 is_stmt 0 discriminator 8
 3645 006a FB89     		ldrh	r3, [r7, #14]
 3646 006c 0133     		adds	r3, r3, #1
 3647 006e FB81     		strh	r3, [r7, #14]	@ movhi
 3648              	.L184:
 657:common/lib.stm32/STM32_USB-FS-Device_Driver/src/usb_regs.c ****   _SetEPDblBuf1Count(bEpNum, bDir, wCount);
 3649              		.loc 1 657 3 discriminator 10
 3650 0070 FB89     		ldrh	r3, [r7, #14]
 3651 0072 9B02     		lsls	r3, r3, #10
 3652 0074 1A46     		mov	r2, r3
 3653 0076 BB68     		ldr	r3, [r7, #8]
 3654 0078 1A60     		str	r2, [r3]
 3655              	.LBE24:
 3656              	.LBE25:
 3657              		.loc 1 658 1 is_stmt 1 discriminator 10
 3658 007a 0FE0     		b	.L185
 3659              	.L180:
 657:common/lib.stm32/STM32_USB-FS-Device_Driver/src/usb_regs.c ****   _SetEPDblBuf1Count(bEpNum, bDir, wCount);
 3660              		.loc 1 657 3 discriminator 2
 3661 007c BB79     		ldrb	r3, [r7, #6]	@ zero_extendqisi2
 3662 007e 022B     		cmp	r3, #2
 3663 0080 0CD1     		bne	.L185
 657:common/lib.stm32/STM32_USB-FS-Device_Driver/src/usb_regs.c ****   _SetEPDblBuf1Count(bEpNum, bDir, wCount);
 3664              		.loc 1 657 3 is_stmt 0 discriminator 11
 3665 0082 094B     		ldr	r3, .L186
 3666 0084 1B68     		ldr	r3, [r3]
 3667 0086 9BB2     		uxth	r3, r3
 3668 0088 1A46     		mov	r2, r3
 3669 008a FB79     		ldrb	r3, [r7, #7]	@ zero_extendqisi2
 3670 008c DB00     		lsls	r3, r3, #3
 3671 008e 1A44     		add	r2, r2, r3
 3672 0090 064B     		ldr	r3, .L186+4
 3673 0092 1344     		add	r3, r3, r2
 3674 0094 5B00     		lsls	r3, r3, #1
 3675 0096 1A46     		mov	r2, r3
 3676 0098 BB88     		ldrh	r3, [r7, #4]
 3677 009a 1360     		str	r3, [r2]
 3678              	.L185:
 3679              		.loc 1 658 1 is_stmt 1
 3680 009c 00BF     		nop
 3681 009e 1437     		adds	r7, r7, #20
 3682              	.LCFI304:
 3683              		.cfi_def_cfa_offset 4
 3684 00a0 BD46     		mov	sp, r7
 3685              	.LCFI305:
 3686              		.cfi_def_cfa_register 13
 3687              		@ sp needed
 3688 00a2 80BC     		pop	{r7}
 3689              	.LCFI306:
 3690              		.cfi_restore 7
 3691              		.cfi_def_cfa_offset 0
 3692 00a4 7047     		bx	lr
 3693              	.L187:
 3694 00a6 00BF     		.align	2
 3695              	.L186:
 3696 00a8 505C0040 		.word	1073765456
 3697 00ac 06300020 		.word	536883206
 3698              		.cfi_endproc
 3699              	.LFE79:
 3701              		.section	.text.GetEPDblBuf0Count,"ax",%progbits
 3702              		.align	1
 3703              		.global	GetEPDblBuf0Count
 3704              		.syntax unified
 3705              		.thumb
 3706              		.thumb_func
 3708              	GetEPDblBuf0Count:
 3709              	.LFB80:
 659:common/lib.stm32/STM32_USB-FS-Device_Driver/src/usb_regs.c **** /*******************************************************************************
 660:common/lib.stm32/STM32_USB-FS-Device_Driver/src/usb_regs.c **** * Function Name  : GetEPDblBuf0Count
 661:common/lib.stm32/STM32_USB-FS-Device_Driver/src/usb_regs.c **** * Description    : Returns the number of byte received in the buffer 0 of a double
 662:common/lib.stm32/STM32_USB-FS-Device_Driver/src/usb_regs.c **** *                  Buffer endpoint.
 663:common/lib.stm32/STM32_USB-FS-Device_Driver/src/usb_regs.c **** * Input          : bEpNum: Endpoint Number.
 664:common/lib.stm32/STM32_USB-FS-Device_Driver/src/usb_regs.c **** * Output         : None.
 665:common/lib.stm32/STM32_USB-FS-Device_Driver/src/usb_regs.c **** * Return         : Endpoint Buffer 0 count
 666:common/lib.stm32/STM32_USB-FS-Device_Driver/src/usb_regs.c **** *******************************************************************************/
 667:common/lib.stm32/STM32_USB-FS-Device_Driver/src/usb_regs.c **** uint16_t GetEPDblBuf0Count(uint8_t bEpNum)
 668:common/lib.stm32/STM32_USB-FS-Device_Driver/src/usb_regs.c **** {
 3710              		.loc 1 668 1
 3711              		.cfi_startproc
 3712              		@ args = 0, pretend = 0, frame = 8
 3713              		@ frame_needed = 1, uses_anonymous_args = 0
 3714              		@ link register save eliminated.
 3715 0000 80B4     		push	{r7}
 3716              	.LCFI307:
 3717              		.cfi_def_cfa_offset 4
 3718              		.cfi_offset 7, -4
 3719 0002 83B0     		sub	sp, sp, #12
 3720              	.LCFI308:
 3721              		.cfi_def_cfa_offset 16
 3722 0004 00AF     		add	r7, sp, #0
 3723              	.LCFI309:
 3724              		.cfi_def_cfa_register 7
 3725 0006 0346     		mov	r3, r0
 3726 0008 FB71     		strb	r3, [r7, #7]
 669:common/lib.stm32/STM32_USB-FS-Device_Driver/src/usb_regs.c ****   return(_GetEPDblBuf0Count(bEpNum));
 3727              		.loc 1 669 10
 3728 000a 0A4B     		ldr	r3, .L190
 3729 000c 1B68     		ldr	r3, [r3]
 3730 000e 9BB2     		uxth	r3, r3
 3731 0010 1A46     		mov	r2, r3
 3732 0012 FB79     		ldrb	r3, [r7, #7]	@ zero_extendqisi2
 3733 0014 DB00     		lsls	r3, r3, #3
 3734 0016 1A44     		add	r2, r2, r3
 3735 0018 074B     		ldr	r3, .L190+4
 3736 001a 1344     		add	r3, r3, r2
 3737 001c 5B00     		lsls	r3, r3, #1
 3738 001e 1B68     		ldr	r3, [r3]
 3739 0020 9BB2     		uxth	r3, r3
 3740 0022 C3F30903 		ubfx	r3, r3, #0, #10
 3741 0026 9BB2     		uxth	r3, r3
 670:common/lib.stm32/STM32_USB-FS-Device_Driver/src/usb_regs.c **** }
 3742              		.loc 1 670 1
 3743 0028 1846     		mov	r0, r3
 3744 002a 0C37     		adds	r7, r7, #12
 3745              	.LCFI310:
 3746              		.cfi_def_cfa_offset 4
 3747 002c BD46     		mov	sp, r7
 3748              	.LCFI311:
 3749              		.cfi_def_cfa_register 13
 3750              		@ sp needed
 3751 002e 80BC     		pop	{r7}
 3752              	.LCFI312:
 3753              		.cfi_restore 7
 3754              		.cfi_def_cfa_offset 0
 3755 0030 7047     		bx	lr
 3756              	.L191:
 3757 0032 00BF     		.align	2
 3758              	.L190:
 3759 0034 505C0040 		.word	1073765456
 3760 0038 02300020 		.word	536883202
 3761              		.cfi_endproc
 3762              	.LFE80:
 3764              		.section	.text.GetEPDblBuf1Count,"ax",%progbits
 3765              		.align	1
 3766              		.global	GetEPDblBuf1Count
 3767              		.syntax unified
 3768              		.thumb
 3769              		.thumb_func
 3771              	GetEPDblBuf1Count:
 3772              	.LFB81:
 671:common/lib.stm32/STM32_USB-FS-Device_Driver/src/usb_regs.c **** /*******************************************************************************
 672:common/lib.stm32/STM32_USB-FS-Device_Driver/src/usb_regs.c **** * Function Name  : GetEPDblBuf1Count
 673:common/lib.stm32/STM32_USB-FS-Device_Driver/src/usb_regs.c **** * Description    : Returns the number of data received in the buffer 1 of a double
 674:common/lib.stm32/STM32_USB-FS-Device_Driver/src/usb_regs.c **** *                  Buffer endpoint.
 675:common/lib.stm32/STM32_USB-FS-Device_Driver/src/usb_regs.c **** * Input          : bEpNum: Endpoint Number.
 676:common/lib.stm32/STM32_USB-FS-Device_Driver/src/usb_regs.c **** * Output         : None.
 677:common/lib.stm32/STM32_USB-FS-Device_Driver/src/usb_regs.c **** * Return         : Endpoint Buffer 1 count.
 678:common/lib.stm32/STM32_USB-FS-Device_Driver/src/usb_regs.c **** *******************************************************************************/
 679:common/lib.stm32/STM32_USB-FS-Device_Driver/src/usb_regs.c **** uint16_t GetEPDblBuf1Count(uint8_t bEpNum)
 680:common/lib.stm32/STM32_USB-FS-Device_Driver/src/usb_regs.c **** {
 3773              		.loc 1 680 1
 3774              		.cfi_startproc
 3775              		@ args = 0, pretend = 0, frame = 8
 3776              		@ frame_needed = 1, uses_anonymous_args = 0
 3777              		@ link register save eliminated.
 3778 0000 80B4     		push	{r7}
 3779              	.LCFI313:
 3780              		.cfi_def_cfa_offset 4
 3781              		.cfi_offset 7, -4
 3782 0002 83B0     		sub	sp, sp, #12
 3783              	.LCFI314:
 3784              		.cfi_def_cfa_offset 16
 3785 0004 00AF     		add	r7, sp, #0
 3786              	.LCFI315:
 3787              		.cfi_def_cfa_register 7
 3788 0006 0346     		mov	r3, r0
 3789 0008 FB71     		strb	r3, [r7, #7]
 681:common/lib.stm32/STM32_USB-FS-Device_Driver/src/usb_regs.c ****   return(_GetEPDblBuf1Count(bEpNum));
 3790              		.loc 1 681 10
 3791 000a 0A4B     		ldr	r3, .L194
 3792 000c 1B68     		ldr	r3, [r3]
 3793 000e 9BB2     		uxth	r3, r3
 3794 0010 1A46     		mov	r2, r3
 3795 0012 FB79     		ldrb	r3, [r7, #7]	@ zero_extendqisi2
 3796 0014 DB00     		lsls	r3, r3, #3
 3797 0016 1A44     		add	r2, r2, r3
 3798 0018 074B     		ldr	r3, .L194+4
 3799 001a 1344     		add	r3, r3, r2
 3800 001c 5B00     		lsls	r3, r3, #1
 3801 001e 1B68     		ldr	r3, [r3]
 3802 0020 9BB2     		uxth	r3, r3
 3803 0022 C3F30903 		ubfx	r3, r3, #0, #10
 3804 0026 9BB2     		uxth	r3, r3
 682:common/lib.stm32/STM32_USB-FS-Device_Driver/src/usb_regs.c **** }
 3805              		.loc 1 682 1
 3806 0028 1846     		mov	r0, r3
 3807 002a 0C37     		adds	r7, r7, #12
 3808              	.LCFI316:
 3809              		.cfi_def_cfa_offset 4
 3810 002c BD46     		mov	sp, r7
 3811              	.LCFI317:
 3812              		.cfi_def_cfa_register 13
 3813              		@ sp needed
 3814 002e 80BC     		pop	{r7}
 3815              	.LCFI318:
 3816              		.cfi_restore 7
 3817              		.cfi_def_cfa_offset 0
 3818 0030 7047     		bx	lr
 3819              	.L195:
 3820 0032 00BF     		.align	2
 3821              	.L194:
 3822 0034 505C0040 		.word	1073765456
 3823 0038 06300020 		.word	536883206
 3824              		.cfi_endproc
 3825              	.LFE81:
 3827              		.section	.text.GetEPDblBufDir,"ax",%progbits
 3828              		.align	1
 3829              		.global	GetEPDblBufDir
 3830              		.syntax unified
 3831              		.thumb
 3832              		.thumb_func
 3834              	GetEPDblBufDir:
 3835              	.LFB82:
 683:common/lib.stm32/STM32_USB-FS-Device_Driver/src/usb_regs.c **** /*******************************************************************************
 684:common/lib.stm32/STM32_USB-FS-Device_Driver/src/usb_regs.c **** * Function Name  : GetEPDblBufDir
 685:common/lib.stm32/STM32_USB-FS-Device_Driver/src/usb_regs.c **** * Description    : gets direction of the double buffered endpoint
 686:common/lib.stm32/STM32_USB-FS-Device_Driver/src/usb_regs.c **** * Input          : bEpNum: Endpoint Number. 
 687:common/lib.stm32/STM32_USB-FS-Device_Driver/src/usb_regs.c **** * Output         : None.
 688:common/lib.stm32/STM32_USB-FS-Device_Driver/src/usb_regs.c **** * Return         : EP_DBUF_OUT, EP_DBUF_IN,
 689:common/lib.stm32/STM32_USB-FS-Device_Driver/src/usb_regs.c **** *                  EP_DBUF_ERR if the endpoint counter not yet programmed.
 690:common/lib.stm32/STM32_USB-FS-Device_Driver/src/usb_regs.c **** *******************************************************************************/
 691:common/lib.stm32/STM32_USB-FS-Device_Driver/src/usb_regs.c **** EP_DBUF_DIR GetEPDblBufDir(uint8_t bEpNum)
 692:common/lib.stm32/STM32_USB-FS-Device_Driver/src/usb_regs.c **** {
 3836              		.loc 1 692 1
 3837              		.cfi_startproc
 3838              		@ args = 0, pretend = 0, frame = 8
 3839              		@ frame_needed = 1, uses_anonymous_args = 0
 3840              		@ link register save eliminated.
 3841 0000 80B4     		push	{r7}
 3842              	.LCFI319:
 3843              		.cfi_def_cfa_offset 4
 3844              		.cfi_offset 7, -4
 3845 0002 83B0     		sub	sp, sp, #12
 3846              	.LCFI320:
 3847              		.cfi_def_cfa_offset 16
 3848 0004 00AF     		add	r7, sp, #0
 3849              	.LCFI321:
 3850              		.cfi_def_cfa_register 7
 3851 0006 0346     		mov	r3, r0
 3852 0008 FB71     		strb	r3, [r7, #7]
 693:common/lib.stm32/STM32_USB-FS-Device_Driver/src/usb_regs.c ****   if ((uint16_t)(*_pEPRxCount(bEpNum) & 0xFC00) != 0)
 3853              		.loc 1 693 19
 3854 000a 154B     		ldr	r3, .L200
 3855 000c 1B68     		ldr	r3, [r3]
 3856 000e 9BB2     		uxth	r3, r3
 3857 0010 1A46     		mov	r2, r3
 3858 0012 FB79     		ldrb	r3, [r7, #7]	@ zero_extendqisi2
 3859 0014 DB00     		lsls	r3, r3, #3
 3860 0016 1A44     		add	r2, r2, r3
 3861 0018 124B     		ldr	r3, .L200+4
 3862 001a 1344     		add	r3, r3, r2
 3863 001c 5B00     		lsls	r3, r3, #1
 3864              		.loc 1 693 18
 3865 001e 1B68     		ldr	r3, [r3]
 3866              		.loc 1 693 7
 3867 0020 9BB2     		uxth	r3, r3
 3868 0022 03F47C43 		and	r3, r3, #64512
 3869              		.loc 1 693 6
 3870 0026 002B     		cmp	r3, #0
 3871 0028 01D0     		beq	.L197
 694:common/lib.stm32/STM32_USB-FS-Device_Driver/src/usb_regs.c ****     return(EP_DBUF_OUT);
 3872              		.loc 1 694 11
 3873 002a 0123     		movs	r3, #1
 3874 002c 12E0     		b	.L198
 3875              	.L197:
 695:common/lib.stm32/STM32_USB-FS-Device_Driver/src/usb_regs.c ****   else if (((uint16_t)(*_pEPTxCount(bEpNum)) & 0x03FF) != 0)
 3876              		.loc 1 695 25
 3877 002e 0C4B     		ldr	r3, .L200
 3878 0030 1B68     		ldr	r3, [r3]
 3879 0032 9BB2     		uxth	r3, r3
 3880 0034 1A46     		mov	r2, r3
 3881 0036 FB79     		ldrb	r3, [r7, #7]	@ zero_extendqisi2
 3882 0038 DB00     		lsls	r3, r3, #3
 3883 003a 1A44     		add	r2, r2, r3
 3884 003c 0A4B     		ldr	r3, .L200+8
 3885 003e 1344     		add	r3, r3, r2
 3886 0040 5B00     		lsls	r3, r3, #1
 3887              		.loc 1 695 24
 3888 0042 1B68     		ldr	r3, [r3]
 3889              		.loc 1 695 13
 3890 0044 9BB2     		uxth	r3, r3
 3891              		.loc 1 695 46
 3892 0046 C3F30903 		ubfx	r3, r3, #0, #10
 3893              		.loc 1 695 11
 3894 004a 002B     		cmp	r3, #0
 3895 004c 01D0     		beq	.L199
 696:common/lib.stm32/STM32_USB-FS-Device_Driver/src/usb_regs.c ****     return(EP_DBUF_IN);
 3896              		.loc 1 696 11
 3897 004e 0223     		movs	r3, #2
 3898 0050 00E0     		b	.L198
 3899              	.L199:
 697:common/lib.stm32/STM32_USB-FS-Device_Driver/src/usb_regs.c ****   else
 698:common/lib.stm32/STM32_USB-FS-Device_Driver/src/usb_regs.c ****     return(EP_DBUF_ERR);
 3900              		.loc 1 698 11
 3901 0052 0023     		movs	r3, #0
 3902              	.L198:
 699:common/lib.stm32/STM32_USB-FS-Device_Driver/src/usb_regs.c **** }
 3903              		.loc 1 699 1
 3904 0054 1846     		mov	r0, r3
 3905 0056 0C37     		adds	r7, r7, #12
 3906              	.LCFI322:
 3907              		.cfi_def_cfa_offset 4
 3908 0058 BD46     		mov	sp, r7
 3909              	.LCFI323:
 3910              		.cfi_def_cfa_register 13
 3911              		@ sp needed
 3912 005a 80BC     		pop	{r7}
 3913              	.LCFI324:
 3914              		.cfi_restore 7
 3915              		.cfi_def_cfa_offset 0
 3916 005c 7047     		bx	lr
 3917              	.L201:
 3918 005e 00BF     		.align	2
 3919              	.L200:
 3920 0060 505C0040 		.word	1073765456
 3921 0064 06300020 		.word	536883206
 3922 0068 02300020 		.word	536883202
 3923              		.cfi_endproc
 3924              	.LFE82:
 3926              		.section	.text.FreeUserBuffer,"ax",%progbits
 3927              		.align	1
 3928              		.global	FreeUserBuffer
 3929              		.syntax unified
 3930              		.thumb
 3931              		.thumb_func
 3933              	FreeUserBuffer:
 3934              	.LFB83:
 700:common/lib.stm32/STM32_USB-FS-Device_Driver/src/usb_regs.c **** /*******************************************************************************
 701:common/lib.stm32/STM32_USB-FS-Device_Driver/src/usb_regs.c **** * Function Name  : FreeUserBuffer
 702:common/lib.stm32/STM32_USB-FS-Device_Driver/src/usb_regs.c **** * Description    : free buffer used from the application realizing it to the line
 703:common/lib.stm32/STM32_USB-FS-Device_Driver/src/usb_regs.c ****                    toggles bit SW_BUF in the double buffered endpoint register
 704:common/lib.stm32/STM32_USB-FS-Device_Driver/src/usb_regs.c **** * Input          : bEpNum, bDir
 705:common/lib.stm32/STM32_USB-FS-Device_Driver/src/usb_regs.c **** * Output         : None.
 706:common/lib.stm32/STM32_USB-FS-Device_Driver/src/usb_regs.c **** * Return         : None.
 707:common/lib.stm32/STM32_USB-FS-Device_Driver/src/usb_regs.c **** *******************************************************************************/
 708:common/lib.stm32/STM32_USB-FS-Device_Driver/src/usb_regs.c **** void FreeUserBuffer(uint8_t bEpNum, uint8_t bDir)
 709:common/lib.stm32/STM32_USB-FS-Device_Driver/src/usb_regs.c **** {
 3935              		.loc 1 709 1
 3936              		.cfi_startproc
 3937              		@ args = 0, pretend = 0, frame = 8
 3938              		@ frame_needed = 1, uses_anonymous_args = 0
 3939              		@ link register save eliminated.
 3940 0000 80B4     		push	{r7}
 3941              	.LCFI325:
 3942              		.cfi_def_cfa_offset 4
 3943              		.cfi_offset 7, -4
 3944 0002 83B0     		sub	sp, sp, #12
 3945              	.LCFI326:
 3946              		.cfi_def_cfa_offset 16
 3947 0004 00AF     		add	r7, sp, #0
 3948              	.LCFI327:
 3949              		.cfi_def_cfa_register 7
 3950 0006 0346     		mov	r3, r0
 3951 0008 0A46     		mov	r2, r1
 3952 000a FB71     		strb	r3, [r7, #7]
 3953 000c 1346     		mov	r3, r2
 3954 000e BB71     		strb	r3, [r7, #6]
 710:common/lib.stm32/STM32_USB-FS-Device_Driver/src/usb_regs.c ****   if (bDir == EP_DBUF_OUT)
 3955              		.loc 1 710 6
 3956 0010 BB79     		ldrb	r3, [r7, #6]	@ zero_extendqisi2
 3957 0012 012B     		cmp	r3, #1
 3958 0014 17D1     		bne	.L203
 711:common/lib.stm32/STM32_USB-FS-Device_Driver/src/usb_regs.c ****   { /* OUT double buffered endpoint */
 712:common/lib.stm32/STM32_USB-FS-Device_Driver/src/usb_regs.c ****     _ToggleDTOG_TX(bEpNum);
 3959              		.loc 1 712 5
 3960 0016 FB79     		ldrb	r3, [r7, #7]	@ zero_extendqisi2
 3961 0018 9B00     		lsls	r3, r3, #2
 3962 001a 03F18043 		add	r3, r3, #1073741824
 3963 001e 03F5B843 		add	r3, r3, #23552
 3964 0022 1B68     		ldr	r3, [r3]
 3965 0024 9BB2     		uxth	r3, r3
 3966 0026 1A46     		mov	r2, r3
 3967 0028 40F60F73 		movw	r3, #3855
 3968 002c 1340     		ands	r3, r3, r2
 3969 002e 43F40042 		orr	r2, r3, #32768
 3970 0032 42F0C002 		orr	r2, r2, #192
 3971 0036 FB79     		ldrb	r3, [r7, #7]	@ zero_extendqisi2
 3972 0038 9B00     		lsls	r3, r3, #2
 3973 003a 03F18043 		add	r3, r3, #1073741824
 3974 003e 03F5B843 		add	r3, r3, #23552
 3975 0042 1A60     		str	r2, [r3]
 713:common/lib.stm32/STM32_USB-FS-Device_Driver/src/usb_regs.c ****   }
 714:common/lib.stm32/STM32_USB-FS-Device_Driver/src/usb_regs.c ****   else if (bDir == EP_DBUF_IN)
 715:common/lib.stm32/STM32_USB-FS-Device_Driver/src/usb_regs.c ****   { /* IN double buffered endpoint */
 716:common/lib.stm32/STM32_USB-FS-Device_Driver/src/usb_regs.c ****     _ToggleDTOG_RX(bEpNum);
 717:common/lib.stm32/STM32_USB-FS-Device_Driver/src/usb_regs.c ****   }
 718:common/lib.stm32/STM32_USB-FS-Device_Driver/src/usb_regs.c **** }
 3976              		.loc 1 718 1
 3977 0044 19E0     		b	.L205
 3978              	.L203:
 714:common/lib.stm32/STM32_USB-FS-Device_Driver/src/usb_regs.c ****   { /* IN double buffered endpoint */
 3979              		.loc 1 714 11
 3980 0046 BB79     		ldrb	r3, [r7, #6]	@ zero_extendqisi2
 3981 0048 022B     		cmp	r3, #2
 3982 004a 16D1     		bne	.L205
 716:common/lib.stm32/STM32_USB-FS-Device_Driver/src/usb_regs.c ****   }
 3983              		.loc 1 716 5
 3984 004c FB79     		ldrb	r3, [r7, #7]	@ zero_extendqisi2
 3985 004e 9B00     		lsls	r3, r3, #2
 3986 0050 03F18043 		add	r3, r3, #1073741824
 3987 0054 03F5B843 		add	r3, r3, #23552
 3988 0058 1B68     		ldr	r3, [r3]
 3989 005a 9BB2     		uxth	r3, r3
 3990 005c 1A46     		mov	r2, r3
 3991 005e 40F60F73 		movw	r3, #3855
 3992 0062 1340     		ands	r3, r3, r2
 3993 0064 43F44042 		orr	r2, r3, #49152
 3994 0068 42F08002 		orr	r2, r2, #128
 3995 006c FB79     		ldrb	r3, [r7, #7]	@ zero_extendqisi2
 3996 006e 9B00     		lsls	r3, r3, #2
 3997 0070 03F18043 		add	r3, r3, #1073741824
 3998 0074 03F5B843 		add	r3, r3, #23552
 3999 0078 1A60     		str	r2, [r3]
 4000              	.L205:
 4001              		.loc 1 718 1
 4002 007a 00BF     		nop
 4003 007c 0C37     		adds	r7, r7, #12
 4004              	.LCFI328:
 4005              		.cfi_def_cfa_offset 4
 4006 007e BD46     		mov	sp, r7
 4007              	.LCFI329:
 4008              		.cfi_def_cfa_register 13
 4009              		@ sp needed
 4010 0080 80BC     		pop	{r7}
 4011              	.LCFI330:
 4012              		.cfi_restore 7
 4013              		.cfi_def_cfa_offset 0
 4014 0082 7047     		bx	lr
 4015              		.cfi_endproc
 4016              	.LFE83:
 4018              		.section	.text.ToWord,"ax",%progbits
 4019              		.align	1
 4020              		.global	ToWord
 4021              		.syntax unified
 4022              		.thumb
 4023              		.thumb_func
 4025              	ToWord:
 4026              	.LFB84:
 719:common/lib.stm32/STM32_USB-FS-Device_Driver/src/usb_regs.c **** 
 720:common/lib.stm32/STM32_USB-FS-Device_Driver/src/usb_regs.c **** /*******************************************************************************
 721:common/lib.stm32/STM32_USB-FS-Device_Driver/src/usb_regs.c **** * Function Name  : ToWord
 722:common/lib.stm32/STM32_USB-FS-Device_Driver/src/usb_regs.c **** * Description    : merge two byte in a word.
 723:common/lib.stm32/STM32_USB-FS-Device_Driver/src/usb_regs.c **** * Input          : bh: byte high, bl: bytes low.
 724:common/lib.stm32/STM32_USB-FS-Device_Driver/src/usb_regs.c **** * Output         : None.
 725:common/lib.stm32/STM32_USB-FS-Device_Driver/src/usb_regs.c **** * Return         : resulted word.
 726:common/lib.stm32/STM32_USB-FS-Device_Driver/src/usb_regs.c **** *******************************************************************************/
 727:common/lib.stm32/STM32_USB-FS-Device_Driver/src/usb_regs.c **** uint16_t ToWord(uint8_t bh, uint8_t bl)
 728:common/lib.stm32/STM32_USB-FS-Device_Driver/src/usb_regs.c **** {
 4027              		.loc 1 728 1
 4028              		.cfi_startproc
 4029              		@ args = 0, pretend = 0, frame = 16
 4030              		@ frame_needed = 1, uses_anonymous_args = 0
 4031              		@ link register save eliminated.
 4032 0000 80B4     		push	{r7}
 4033              	.LCFI331:
 4034              		.cfi_def_cfa_offset 4
 4035              		.cfi_offset 7, -4
 4036 0002 85B0     		sub	sp, sp, #20
 4037              	.LCFI332:
 4038              		.cfi_def_cfa_offset 24
 4039 0004 00AF     		add	r7, sp, #0
 4040              	.LCFI333:
 4041              		.cfi_def_cfa_register 7
 4042 0006 0346     		mov	r3, r0
 4043 0008 0A46     		mov	r2, r1
 4044 000a FB71     		strb	r3, [r7, #7]
 4045 000c 1346     		mov	r3, r2
 4046 000e BB71     		strb	r3, [r7, #6]
 729:common/lib.stm32/STM32_USB-FS-Device_Driver/src/usb_regs.c ****   uint16_t wRet;
 730:common/lib.stm32/STM32_USB-FS-Device_Driver/src/usb_regs.c ****   wRet = (uint16_t)bl | ((uint16_t)bh << 8);
 4047              		.loc 1 730 23
 4048 0010 BB79     		ldrb	r3, [r7, #6]	@ zero_extendqisi2
 4049 0012 1AB2     		sxth	r2, r3
 4050              		.loc 1 730 26
 4051 0014 FB79     		ldrb	r3, [r7, #7]	@ zero_extendqisi2
 4052              		.loc 1 730 39
 4053 0016 1B02     		lsls	r3, r3, #8
 4054              		.loc 1 730 23
 4055 0018 1BB2     		sxth	r3, r3
 4056 001a 1343     		orrs	r3, r3, r2
 4057 001c 1BB2     		sxth	r3, r3
 4058              		.loc 1 730 8
 4059 001e FB81     		strh	r3, [r7, #14]	@ movhi
 731:common/lib.stm32/STM32_USB-FS-Device_Driver/src/usb_regs.c ****   return(wRet);
 4060              		.loc 1 731 9
 4061 0020 FB89     		ldrh	r3, [r7, #14]
 732:common/lib.stm32/STM32_USB-FS-Device_Driver/src/usb_regs.c **** }
 4062              		.loc 1 732 1
 4063 0022 1846     		mov	r0, r3
 4064 0024 1437     		adds	r7, r7, #20
 4065              	.LCFI334:
 4066              		.cfi_def_cfa_offset 4
 4067 0026 BD46     		mov	sp, r7
 4068              	.LCFI335:
 4069              		.cfi_def_cfa_register 13
 4070              		@ sp needed
 4071 0028 80BC     		pop	{r7}
 4072              	.LCFI336:
 4073              		.cfi_restore 7
 4074              		.cfi_def_cfa_offset 0
 4075 002a 7047     		bx	lr
 4076              		.cfi_endproc
 4077              	.LFE84:
 4079              		.section	.text.ByteSwap,"ax",%progbits
 4080              		.align	1
 4081              		.global	ByteSwap
 4082              		.syntax unified
 4083              		.thumb
 4084              		.thumb_func
 4086              	ByteSwap:
 4087              	.LFB85:
 733:common/lib.stm32/STM32_USB-FS-Device_Driver/src/usb_regs.c **** /*******************************************************************************
 734:common/lib.stm32/STM32_USB-FS-Device_Driver/src/usb_regs.c **** * Function Name  : ByteSwap
 735:common/lib.stm32/STM32_USB-FS-Device_Driver/src/usb_regs.c **** * Description    : Swap two byte in a word.
 736:common/lib.stm32/STM32_USB-FS-Device_Driver/src/usb_regs.c **** * Input          : wSwW: word to Swap.
 737:common/lib.stm32/STM32_USB-FS-Device_Driver/src/usb_regs.c **** * Output         : None.
 738:common/lib.stm32/STM32_USB-FS-Device_Driver/src/usb_regs.c **** * Return         : resulted word.
 739:common/lib.stm32/STM32_USB-FS-Device_Driver/src/usb_regs.c **** *******************************************************************************/
 740:common/lib.stm32/STM32_USB-FS-Device_Driver/src/usb_regs.c **** uint16_t ByteSwap(uint16_t wSwW)
 741:common/lib.stm32/STM32_USB-FS-Device_Driver/src/usb_regs.c **** {
 4088              		.loc 1 741 1
 4089              		.cfi_startproc
 4090              		@ args = 0, pretend = 0, frame = 16
 4091              		@ frame_needed = 1, uses_anonymous_args = 0
 4092              		@ link register save eliminated.
 4093 0000 80B4     		push	{r7}
 4094              	.LCFI337:
 4095              		.cfi_def_cfa_offset 4
 4096              		.cfi_offset 7, -4
 4097 0002 85B0     		sub	sp, sp, #20
 4098              	.LCFI338:
 4099              		.cfi_def_cfa_offset 24
 4100 0004 00AF     		add	r7, sp, #0
 4101              	.LCFI339:
 4102              		.cfi_def_cfa_register 7
 4103 0006 0346     		mov	r3, r0
 4104 0008 FB80     		strh	r3, [r7, #6]	@ movhi
 742:common/lib.stm32/STM32_USB-FS-Device_Driver/src/usb_regs.c ****   uint8_t bTemp;
 743:common/lib.stm32/STM32_USB-FS-Device_Driver/src/usb_regs.c ****   uint16_t wRet;
 744:common/lib.stm32/STM32_USB-FS-Device_Driver/src/usb_regs.c ****   bTemp = (uint8_t)(wSwW & 0xff);
 4105              		.loc 1 744 9
 4106 000a FB88     		ldrh	r3, [r7, #6]	@ movhi
 4107 000c FB73     		strb	r3, [r7, #15]
 745:common/lib.stm32/STM32_USB-FS-Device_Driver/src/usb_regs.c ****   wRet =  (wSwW >> 8) | ((uint16_t)bTemp << 8);
 4108              		.loc 1 745 23
 4109 000e FB88     		ldrh	r3, [r7, #6]
 4110 0010 1B0A     		lsrs	r3, r3, #8
 4111 0012 9BB2     		uxth	r3, r3
 4112 0014 1AB2     		sxth	r2, r3
 4113              		.loc 1 745 26
 4114 0016 FB7B     		ldrb	r3, [r7, #15]	@ zero_extendqisi2
 4115              		.loc 1 745 42
 4116 0018 1B02     		lsls	r3, r3, #8
 4117              		.loc 1 745 23
 4118 001a 1BB2     		sxth	r3, r3
 4119 001c 1343     		orrs	r3, r3, r2
 4120 001e 1BB2     		sxth	r3, r3
 4121              		.loc 1 745 8
 4122 0020 BB81     		strh	r3, [r7, #12]	@ movhi
 746:common/lib.stm32/STM32_USB-FS-Device_Driver/src/usb_regs.c ****   return(wRet);
 4123              		.loc 1 746 9
 4124 0022 BB89     		ldrh	r3, [r7, #12]
 747:common/lib.stm32/STM32_USB-FS-Device_Driver/src/usb_regs.c **** }
 4125              		.loc 1 747 1
 4126 0024 1846     		mov	r0, r3
 4127 0026 1437     		adds	r7, r7, #20
 4128              	.LCFI340:
 4129              		.cfi_def_cfa_offset 4
 4130 0028 BD46     		mov	sp, r7
 4131              	.LCFI341:
 4132              		.cfi_def_cfa_register 13
 4133              		@ sp needed
 4134 002a 80BC     		pop	{r7}
 4135              	.LCFI342:
 4136              		.cfi_restore 7
 4137              		.cfi_def_cfa_offset 0
 4138 002c 7047     		bx	lr
 4139              		.cfi_endproc
 4140              	.LFE85:
 4142              		.text
 4143              	.Letext0:
 4144              		.file 2 "c:\\program files (x86)\\gnu arm embedded toolchain\\10 2021.10\\arm-none-eabi\\include\\
 4145              		.file 3 "c:\\program files (x86)\\gnu arm embedded toolchain\\10 2021.10\\arm-none-eabi\\include\\
 4146              		.file 4 "common/lib.stm32/STM32_USB-FS-Device_Driver/inc/usb_regs.h"