   1              		.cpu cortex-m3
   2              		.arch armv7-m
   3              		.fpu softvfp
   4              		.eabi_attribute 20, 1
   5              		.eabi_attribute 21, 1
   6              		.eabi_attribute 23, 3
   7              		.eabi_attribute 24, 1
   8              		.eabi_attribute 25, 1
   9              		.eabi_attribute 26, 1
  10              		.eabi_attribute 30, 6
  11              		.eabi_attribute 34, 1
  12              		.eabi_attribute 18, 4
  13              		.file	"usb_core.c"
  14              		.text
  15              	.Ltext0:
  16              		.cfi_sections	.debug_frame
  17              		.global	StatusInfo
  18              		.section	.bss.StatusInfo,"aw",%nobits
  19              		.align	2
  22              	StatusInfo:
  23 0000 0000     		.space	2
  24              		.global	Data_Mul_MaxPacketSize
  25              		.section	.bss.Data_Mul_MaxPacketSize,"aw",%nobits
  28              	Data_Mul_MaxPacketSize:
  29 0000 00       		.space	1
  30              		.section	.text.Standard_GetConfiguration,"ax",%progbits
  31              		.align	1
  32              		.global	Standard_GetConfiguration
  33              		.syntax unified
  34              		.thumb
  35              		.thumb_func
  37              	Standard_GetConfiguration:
  38              	.LFB27:
  39              		.file 1 "common/lib.stm32/STM32_USB-FS-Device_Driver/src/usb_core.c"
   1:common/lib.stm32/STM32_USB-FS-Device_Driver/src/usb_core.c **** /******************** (C) COPYRIGHT 2010 STMicroelectronics ********************
   2:common/lib.stm32/STM32_USB-FS-Device_Driver/src/usb_core.c **** * File Name          : usb_core.c
   3:common/lib.stm32/STM32_USB-FS-Device_Driver/src/usb_core.c **** * Author             : MCD Application Team
   4:common/lib.stm32/STM32_USB-FS-Device_Driver/src/usb_core.c **** * Version            : V3.2.1
   5:common/lib.stm32/STM32_USB-FS-Device_Driver/src/usb_core.c **** * Date               : 07/05/2010
   6:common/lib.stm32/STM32_USB-FS-Device_Driver/src/usb_core.c **** * Description        : Standard protocol processing (USB v2.0)
   7:common/lib.stm32/STM32_USB-FS-Device_Driver/src/usb_core.c **** ********************************************************************************
   8:common/lib.stm32/STM32_USB-FS-Device_Driver/src/usb_core.c **** * THE PRESENT FIRMWARE WHICH IS FOR GUIDANCE ONLY AIMS AT PROVIDING CUSTOMERS
   9:common/lib.stm32/STM32_USB-FS-Device_Driver/src/usb_core.c **** * WITH CODING INFORMATION REGARDING THEIR PRODUCTS IN ORDER FOR THEM TO SAVE TIME.
  10:common/lib.stm32/STM32_USB-FS-Device_Driver/src/usb_core.c **** * AS A RESULT, STMICROELECTRONICS SHALL NOT BE HELD LIABLE FOR ANY DIRECT,
  11:common/lib.stm32/STM32_USB-FS-Device_Driver/src/usb_core.c **** * INDIRECT OR CONSEQUENTIAL DAMAGES WITH RESPECT TO ANY CLAIMS ARISING FROM THE
  12:common/lib.stm32/STM32_USB-FS-Device_Driver/src/usb_core.c **** * CONTENT OF SUCH FIRMWARE AND/OR THE USE MADE BY CUSTOMERS OF THE CODING
  13:common/lib.stm32/STM32_USB-FS-Device_Driver/src/usb_core.c **** * INFORMATION CONTAINED HEREIN IN CONNECTION WITH THEIR PRODUCTS.
  14:common/lib.stm32/STM32_USB-FS-Device_Driver/src/usb_core.c **** *******************************************************************************/
  15:common/lib.stm32/STM32_USB-FS-Device_Driver/src/usb_core.c **** 
  16:common/lib.stm32/STM32_USB-FS-Device_Driver/src/usb_core.c **** /* Includes ------------------------------------------------------------------*/
  17:common/lib.stm32/STM32_USB-FS-Device_Driver/src/usb_core.c **** #include "usb_lib.h"
  18:common/lib.stm32/STM32_USB-FS-Device_Driver/src/usb_core.c **** /* Private typedef -----------------------------------------------------------*/
  19:common/lib.stm32/STM32_USB-FS-Device_Driver/src/usb_core.c **** /* Private define ------------------------------------------------------------*/
  20:common/lib.stm32/STM32_USB-FS-Device_Driver/src/usb_core.c **** #define ValBit(VAR,Place)    (VAR & (1 << Place))
  21:common/lib.stm32/STM32_USB-FS-Device_Driver/src/usb_core.c **** #define SetBit(VAR,Place)    (VAR |= (1 << Place))
  22:common/lib.stm32/STM32_USB-FS-Device_Driver/src/usb_core.c **** #define ClrBit(VAR,Place)    (VAR &= ((1 << Place) ^ 255))
  23:common/lib.stm32/STM32_USB-FS-Device_Driver/src/usb_core.c **** 
  24:common/lib.stm32/STM32_USB-FS-Device_Driver/src/usb_core.c **** #ifdef STM32F10X_CL
  25:common/lib.stm32/STM32_USB-FS-Device_Driver/src/usb_core.c ****  #define Send0LengthData()  {PCD_EP_Write (0, 0, 0) ; vSetEPTxStatus(EP_TX_VALID);}
  26:common/lib.stm32/STM32_USB-FS-Device_Driver/src/usb_core.c **** #else
  27:common/lib.stm32/STM32_USB-FS-Device_Driver/src/usb_core.c **** #define Send0LengthData() { _SetEPTxCount(ENDP0, 0); \
  28:common/lib.stm32/STM32_USB-FS-Device_Driver/src/usb_core.c ****     vSetEPTxStatus(EP_TX_VALID); \
  29:common/lib.stm32/STM32_USB-FS-Device_Driver/src/usb_core.c ****   }
  30:common/lib.stm32/STM32_USB-FS-Device_Driver/src/usb_core.c **** #endif /* STM32F10X_CL */
  31:common/lib.stm32/STM32_USB-FS-Device_Driver/src/usb_core.c **** 
  32:common/lib.stm32/STM32_USB-FS-Device_Driver/src/usb_core.c **** #define vSetEPRxStatus(st) (SaveRState = st)
  33:common/lib.stm32/STM32_USB-FS-Device_Driver/src/usb_core.c **** #define vSetEPTxStatus(st) (SaveTState = st)
  34:common/lib.stm32/STM32_USB-FS-Device_Driver/src/usb_core.c **** 
  35:common/lib.stm32/STM32_USB-FS-Device_Driver/src/usb_core.c **** #define USB_StatusIn() Send0LengthData()
  36:common/lib.stm32/STM32_USB-FS-Device_Driver/src/usb_core.c **** #define USB_StatusOut() vSetEPRxStatus(EP_RX_VALID)
  37:common/lib.stm32/STM32_USB-FS-Device_Driver/src/usb_core.c **** 
  38:common/lib.stm32/STM32_USB-FS-Device_Driver/src/usb_core.c **** #define StatusInfo0 StatusInfo.bw.bb1 /* Reverse bb0 & bb1 */
  39:common/lib.stm32/STM32_USB-FS-Device_Driver/src/usb_core.c **** #define StatusInfo1 StatusInfo.bw.bb0
  40:common/lib.stm32/STM32_USB-FS-Device_Driver/src/usb_core.c **** 
  41:common/lib.stm32/STM32_USB-FS-Device_Driver/src/usb_core.c **** /* Private macro -------------------------------------------------------------*/
  42:common/lib.stm32/STM32_USB-FS-Device_Driver/src/usb_core.c **** /* Private variables ---------------------------------------------------------*/
  43:common/lib.stm32/STM32_USB-FS-Device_Driver/src/usb_core.c **** uint16_t_uint8_t StatusInfo;
  44:common/lib.stm32/STM32_USB-FS-Device_Driver/src/usb_core.c **** 
  45:common/lib.stm32/STM32_USB-FS-Device_Driver/src/usb_core.c **** bool Data_Mul_MaxPacketSize = FALSE;
  46:common/lib.stm32/STM32_USB-FS-Device_Driver/src/usb_core.c **** /* Private function prototypes -----------------------------------------------*/
  47:common/lib.stm32/STM32_USB-FS-Device_Driver/src/usb_core.c **** static void DataStageOut(void);
  48:common/lib.stm32/STM32_USB-FS-Device_Driver/src/usb_core.c **** static void DataStageIn(void);
  49:common/lib.stm32/STM32_USB-FS-Device_Driver/src/usb_core.c **** static void NoData_Setup0(void);
  50:common/lib.stm32/STM32_USB-FS-Device_Driver/src/usb_core.c **** static void Data_Setup0(void);
  51:common/lib.stm32/STM32_USB-FS-Device_Driver/src/usb_core.c **** /* Private functions ---------------------------------------------------------*/
  52:common/lib.stm32/STM32_USB-FS-Device_Driver/src/usb_core.c **** 
  53:common/lib.stm32/STM32_USB-FS-Device_Driver/src/usb_core.c **** /*******************************************************************************
  54:common/lib.stm32/STM32_USB-FS-Device_Driver/src/usb_core.c **** * Function Name  : Standard_GetConfiguration.
  55:common/lib.stm32/STM32_USB-FS-Device_Driver/src/usb_core.c **** * Description    : Return the current configuration variable address.
  56:common/lib.stm32/STM32_USB-FS-Device_Driver/src/usb_core.c **** * Input          : Length - How many bytes are needed.
  57:common/lib.stm32/STM32_USB-FS-Device_Driver/src/usb_core.c **** * Output         : None.
  58:common/lib.stm32/STM32_USB-FS-Device_Driver/src/usb_core.c **** * Return         : Return 1 , if the request is invalid when "Length" is 0.
  59:common/lib.stm32/STM32_USB-FS-Device_Driver/src/usb_core.c **** *                  Return "Buffer" if the "Length" is not 0.
  60:common/lib.stm32/STM32_USB-FS-Device_Driver/src/usb_core.c **** *******************************************************************************/
  61:common/lib.stm32/STM32_USB-FS-Device_Driver/src/usb_core.c **** uint8_t *Standard_GetConfiguration(uint16_t Length)
  62:common/lib.stm32/STM32_USB-FS-Device_Driver/src/usb_core.c **** {
  40              		.loc 1 62 1
  41              		.cfi_startproc
  42              		@ args = 0, pretend = 0, frame = 8
  43              		@ frame_needed = 1, uses_anonymous_args = 0
  44 0000 80B5     		push	{r7, lr}
  45              	.LCFI0:
  46              		.cfi_def_cfa_offset 8
  47              		.cfi_offset 7, -8
  48              		.cfi_offset 14, -4
  49 0002 82B0     		sub	sp, sp, #8
  50              	.LCFI1:
  51              		.cfi_def_cfa_offset 16
  52 0004 00AF     		add	r7, sp, #0
  53              	.LCFI2:
  54              		.cfi_def_cfa_register 7
  55 0006 0346     		mov	r3, r0
  56 0008 FB80     		strh	r3, [r7, #6]	@ movhi
  63:common/lib.stm32/STM32_USB-FS-Device_Driver/src/usb_core.c ****   if (Length == 0)
  57              		.loc 1 63 6
  58 000a FB88     		ldrh	r3, [r7, #6]
  59 000c 002B     		cmp	r3, #0
  60 000e 05D1     		bne	.L2
  64:common/lib.stm32/STM32_USB-FS-Device_Driver/src/usb_core.c ****   {
  65:common/lib.stm32/STM32_USB-FS-Device_Driver/src/usb_core.c ****     pInformation->Ctrl_Info.Usb_wLength =
  61              		.loc 1 65 17
  62 0010 084B     		ldr	r3, .L4
  63 0012 1B68     		ldr	r3, [r3]
  64              		.loc 1 65 41
  65 0014 0122     		movs	r2, #1
  66 0016 1A82     		strh	r2, [r3, #16]	@ movhi
  66:common/lib.stm32/STM32_USB-FS-Device_Driver/src/usb_core.c ****       sizeof(pInformation->Current_Configuration);
  67:common/lib.stm32/STM32_USB-FS-Device_Driver/src/usb_core.c ****     return 0;
  67              		.loc 1 67 12
  68 0018 0023     		movs	r3, #0
  69 001a 06E0     		b	.L3
  70              	.L2:
  68:common/lib.stm32/STM32_USB-FS-Device_Driver/src/usb_core.c ****   }
  69:common/lib.stm32/STM32_USB-FS-Device_Driver/src/usb_core.c ****   pUser_Standard_Requests->User_GetConfiguration();
  71              		.loc 1 69 26
  72 001c 064B     		ldr	r3, .L4+4
  73 001e 1B68     		ldr	r3, [r3]
  74 0020 1B68     		ldr	r3, [r3]
  75              		.loc 1 69 3
  76 0022 9847     		blx	r3
  77              	.LVL0:
  70:common/lib.stm32/STM32_USB-FS-Device_Driver/src/usb_core.c ****   return (uint8_t *)&pInformation->Current_Configuration;
  78              		.loc 1 70 34
  79 0024 034B     		ldr	r3, .L4
  80 0026 1B68     		ldr	r3, [r3]
  81              		.loc 1 70 10
  82 0028 0A33     		adds	r3, r3, #10
  83              	.L3:
  71:common/lib.stm32/STM32_USB-FS-Device_Driver/src/usb_core.c **** }
  84              		.loc 1 71 1
  85 002a 1846     		mov	r0, r3
  86 002c 0837     		adds	r7, r7, #8
  87              	.LCFI3:
  88              		.cfi_def_cfa_offset 8
  89 002e BD46     		mov	sp, r7
  90              	.LCFI4:
  91              		.cfi_def_cfa_register 13
  92              		@ sp needed
  93 0030 80BD     		pop	{r7, pc}
  94              	.L5:
  95 0032 00BF     		.align	2
  96              	.L4:
  97 0034 00000000 		.word	pInformation
  98 0038 00000000 		.word	pUser_Standard_Requests
  99              		.cfi_endproc
 100              	.LFE27:
 102              		.section	.text.Standard_SetConfiguration,"ax",%progbits
 103              		.align	1
 104              		.global	Standard_SetConfiguration
 105              		.syntax unified
 106              		.thumb
 107              		.thumb_func
 109              	Standard_SetConfiguration:
 110              	.LFB28:
  72:common/lib.stm32/STM32_USB-FS-Device_Driver/src/usb_core.c **** 
  73:common/lib.stm32/STM32_USB-FS-Device_Driver/src/usb_core.c **** /*******************************************************************************
  74:common/lib.stm32/STM32_USB-FS-Device_Driver/src/usb_core.c **** * Function Name  : Standard_SetConfiguration.
  75:common/lib.stm32/STM32_USB-FS-Device_Driver/src/usb_core.c **** * Description    : This routine is called to set the configuration value
  76:common/lib.stm32/STM32_USB-FS-Device_Driver/src/usb_core.c **** *                  Then each class should configure device themself.
  77:common/lib.stm32/STM32_USB-FS-Device_Driver/src/usb_core.c **** * Input          : None.
  78:common/lib.stm32/STM32_USB-FS-Device_Driver/src/usb_core.c **** * Output         : None.
  79:common/lib.stm32/STM32_USB-FS-Device_Driver/src/usb_core.c **** * Return         : Return USB_SUCCESS, if the request is performed.
  80:common/lib.stm32/STM32_USB-FS-Device_Driver/src/usb_core.c **** *                  Return USB_UNSUPPORT, if the request is invalid.
  81:common/lib.stm32/STM32_USB-FS-Device_Driver/src/usb_core.c **** *******************************************************************************/
  82:common/lib.stm32/STM32_USB-FS-Device_Driver/src/usb_core.c **** RESULT Standard_SetConfiguration(void)
  83:common/lib.stm32/STM32_USB-FS-Device_Driver/src/usb_core.c **** {
 111              		.loc 1 83 1
 112              		.cfi_startproc
 113              		@ args = 0, pretend = 0, frame = 0
 114              		@ frame_needed = 1, uses_anonymous_args = 0
 115 0000 80B5     		push	{r7, lr}
 116              	.LCFI5:
 117              		.cfi_def_cfa_offset 8
 118              		.cfi_offset 7, -8
 119              		.cfi_offset 14, -4
 120 0002 00AF     		add	r7, sp, #0
 121              	.LCFI6:
 122              		.cfi_def_cfa_register 7
  84:common/lib.stm32/STM32_USB-FS-Device_Driver/src/usb_core.c **** 
  85:common/lib.stm32/STM32_USB-FS-Device_Driver/src/usb_core.c ****   if ((pInformation->USBwValue0 <=
 123              		.loc 1 85 20
 124 0004 0F4B     		ldr	r3, .L9
 125 0006 1B68     		ldr	r3, [r3]
 126              		.loc 1 85 22
 127 0008 DA78     		ldrb	r2, [r3, #3]	@ zero_extendqisi2
  86:common/lib.stm32/STM32_USB-FS-Device_Driver/src/usb_core.c ****       Device_Table.Total_Configuration) && (pInformation->USBwValue1 == 0)
 128              		.loc 1 86 19
 129 000a 0F4B     		ldr	r3, .L9+4
 130 000c 5B78     		ldrb	r3, [r3, #1]	@ zero_extendqisi2
  85:common/lib.stm32/STM32_USB-FS-Device_Driver/src/usb_core.c ****       Device_Table.Total_Configuration) && (pInformation->USBwValue1 == 0)
 131              		.loc 1 85 6
 132 000e 9A42     		cmp	r2, r3
 133 0010 15D8     		bhi	.L7
 134              		.loc 1 86 57
 135 0012 0C4B     		ldr	r3, .L9
 136 0014 1B68     		ldr	r3, [r3]
 137              		.loc 1 86 59
 138 0016 9B78     		ldrb	r3, [r3, #2]	@ zero_extendqisi2
 139              		.loc 1 86 41
 140 0018 002B     		cmp	r3, #0
 141 001a 10D1     		bne	.L7
  87:common/lib.stm32/STM32_USB-FS-Device_Driver/src/usb_core.c ****       && (pInformation->USBwIndex == 0)) /*call Back usb spec 2.0*/
 142              		.loc 1 87 23
 143 001c 094B     		ldr	r3, .L9
 144 001e 1B68     		ldr	r3, [r3]
 145              		.loc 1 87 25
 146 0020 9B88     		ldrh	r3, [r3, #4]
 147              		.loc 1 87 7
 148 0022 002B     		cmp	r3, #0
 149 0024 0BD1     		bne	.L7
  88:common/lib.stm32/STM32_USB-FS-Device_Driver/src/usb_core.c ****   {
  89:common/lib.stm32/STM32_USB-FS-Device_Driver/src/usb_core.c ****     pInformation->Current_Configuration = pInformation->USBwValue0;
 150              		.loc 1 89 55
 151 0026 074B     		ldr	r3, .L9
 152 0028 1A68     		ldr	r2, [r3]
 153              		.loc 1 89 17
 154 002a 064B     		ldr	r3, .L9
 155 002c 1B68     		ldr	r3, [r3]
 156              		.loc 1 89 57
 157 002e D278     		ldrb	r2, [r2, #3]	@ zero_extendqisi2
 158              		.loc 1 89 41
 159 0030 9A72     		strb	r2, [r3, #10]
  90:common/lib.stm32/STM32_USB-FS-Device_Driver/src/usb_core.c ****     pUser_Standard_Requests->User_SetConfiguration();
 160              		.loc 1 90 28
 161 0032 064B     		ldr	r3, .L9+8
 162 0034 1B68     		ldr	r3, [r3]
 163 0036 5B68     		ldr	r3, [r3, #4]
 164              		.loc 1 90 5
 165 0038 9847     		blx	r3
 166              	.LVL1:
  91:common/lib.stm32/STM32_USB-FS-Device_Driver/src/usb_core.c ****     return USB_SUCCESS;
 167              		.loc 1 91 12
 168 003a 0023     		movs	r3, #0
 169 003c 00E0     		b	.L8
 170              	.L7:
  92:common/lib.stm32/STM32_USB-FS-Device_Driver/src/usb_core.c ****   }
  93:common/lib.stm32/STM32_USB-FS-Device_Driver/src/usb_core.c ****   else
  94:common/lib.stm32/STM32_USB-FS-Device_Driver/src/usb_core.c ****   {
  95:common/lib.stm32/STM32_USB-FS-Device_Driver/src/usb_core.c ****     return USB_UNSUPPORT;
 171              		.loc 1 95 12
 172 003e 0223     		movs	r3, #2
 173              	.L8:
  96:common/lib.stm32/STM32_USB-FS-Device_Driver/src/usb_core.c ****   }
  97:common/lib.stm32/STM32_USB-FS-Device_Driver/src/usb_core.c **** }
 174              		.loc 1 97 1
 175 0040 1846     		mov	r0, r3
 176 0042 80BD     		pop	{r7, pc}
 177              	.L10:
 178              		.align	2
 179              	.L9:
 180 0044 00000000 		.word	pInformation
 181 0048 00000000 		.word	Device_Table
 182 004c 00000000 		.word	pUser_Standard_Requests
 183              		.cfi_endproc
 184              	.LFE28:
 186              		.section	.text.Standard_GetInterface,"ax",%progbits
 187              		.align	1
 188              		.global	Standard_GetInterface
 189              		.syntax unified
 190              		.thumb
 191              		.thumb_func
 193              	Standard_GetInterface:
 194              	.LFB29:
  98:common/lib.stm32/STM32_USB-FS-Device_Driver/src/usb_core.c **** 
  99:common/lib.stm32/STM32_USB-FS-Device_Driver/src/usb_core.c **** /*******************************************************************************
 100:common/lib.stm32/STM32_USB-FS-Device_Driver/src/usb_core.c **** * Function Name  : Standard_GetInterface.
 101:common/lib.stm32/STM32_USB-FS-Device_Driver/src/usb_core.c **** * Description    : Return the Alternate Setting of the current interface.
 102:common/lib.stm32/STM32_USB-FS-Device_Driver/src/usb_core.c **** * Input          : Length - How many bytes are needed.
 103:common/lib.stm32/STM32_USB-FS-Device_Driver/src/usb_core.c **** * Output         : None.
 104:common/lib.stm32/STM32_USB-FS-Device_Driver/src/usb_core.c **** * Return         : Return 0, if the request is invalid when "Length" is 0.
 105:common/lib.stm32/STM32_USB-FS-Device_Driver/src/usb_core.c **** *                  Return "Buffer" if the "Length" is not 0.
 106:common/lib.stm32/STM32_USB-FS-Device_Driver/src/usb_core.c **** *******************************************************************************/
 107:common/lib.stm32/STM32_USB-FS-Device_Driver/src/usb_core.c **** uint8_t *Standard_GetInterface(uint16_t Length)
 108:common/lib.stm32/STM32_USB-FS-Device_Driver/src/usb_core.c **** {
 195              		.loc 1 108 1
 196              		.cfi_startproc
 197              		@ args = 0, pretend = 0, frame = 8
 198              		@ frame_needed = 1, uses_anonymous_args = 0
 199 0000 80B5     		push	{r7, lr}
 200              	.LCFI7:
 201              		.cfi_def_cfa_offset 8
 202              		.cfi_offset 7, -8
 203              		.cfi_offset 14, -4
 204 0002 82B0     		sub	sp, sp, #8
 205              	.LCFI8:
 206              		.cfi_def_cfa_offset 16
 207 0004 00AF     		add	r7, sp, #0
 208              	.LCFI9:
 209              		.cfi_def_cfa_register 7
 210 0006 0346     		mov	r3, r0
 211 0008 FB80     		strh	r3, [r7, #6]	@ movhi
 109:common/lib.stm32/STM32_USB-FS-Device_Driver/src/usb_core.c ****   if (Length == 0)
 212              		.loc 1 109 6
 213 000a FB88     		ldrh	r3, [r7, #6]
 214 000c 002B     		cmp	r3, #0
 215 000e 05D1     		bne	.L12
 110:common/lib.stm32/STM32_USB-FS-Device_Driver/src/usb_core.c ****   {
 111:common/lib.stm32/STM32_USB-FS-Device_Driver/src/usb_core.c ****     pInformation->Ctrl_Info.Usb_wLength =
 216              		.loc 1 111 17
 217 0010 084B     		ldr	r3, .L14
 218 0012 1B68     		ldr	r3, [r3]
 219              		.loc 1 111 41
 220 0014 0122     		movs	r2, #1
 221 0016 1A82     		strh	r2, [r3, #16]	@ movhi
 112:common/lib.stm32/STM32_USB-FS-Device_Driver/src/usb_core.c ****       sizeof(pInformation->Current_AlternateSetting);
 113:common/lib.stm32/STM32_USB-FS-Device_Driver/src/usb_core.c ****     return 0;
 222              		.loc 1 113 12
 223 0018 0023     		movs	r3, #0
 224 001a 06E0     		b	.L13
 225              	.L12:
 114:common/lib.stm32/STM32_USB-FS-Device_Driver/src/usb_core.c ****   }
 115:common/lib.stm32/STM32_USB-FS-Device_Driver/src/usb_core.c ****   pUser_Standard_Requests->User_GetInterface();
 226              		.loc 1 115 26
 227 001c 064B     		ldr	r3, .L14+4
 228 001e 1B68     		ldr	r3, [r3]
 229 0020 9B68     		ldr	r3, [r3, #8]
 230              		.loc 1 115 3
 231 0022 9847     		blx	r3
 232              	.LVL2:
 116:common/lib.stm32/STM32_USB-FS-Device_Driver/src/usb_core.c ****   return (uint8_t *)&pInformation->Current_AlternateSetting;
 233              		.loc 1 116 34
 234 0024 034B     		ldr	r3, .L14
 235 0026 1B68     		ldr	r3, [r3]
 236              		.loc 1 116 10
 237 0028 0C33     		adds	r3, r3, #12
 238              	.L13:
 117:common/lib.stm32/STM32_USB-FS-Device_Driver/src/usb_core.c **** }
 239              		.loc 1 117 1
 240 002a 1846     		mov	r0, r3
 241 002c 0837     		adds	r7, r7, #8
 242              	.LCFI10:
 243              		.cfi_def_cfa_offset 8
 244 002e BD46     		mov	sp, r7
 245              	.LCFI11:
 246              		.cfi_def_cfa_register 13
 247              		@ sp needed
 248 0030 80BD     		pop	{r7, pc}
 249              	.L15:
 250 0032 00BF     		.align	2
 251              	.L14:
 252 0034 00000000 		.word	pInformation
 253 0038 00000000 		.word	pUser_Standard_Requests
 254              		.cfi_endproc
 255              	.LFE29:
 257              		.section	.text.Standard_SetInterface,"ax",%progbits
 258              		.align	1
 259              		.global	Standard_SetInterface
 260              		.syntax unified
 261              		.thumb
 262              		.thumb_func
 264              	Standard_SetInterface:
 265              	.LFB30:
 118:common/lib.stm32/STM32_USB-FS-Device_Driver/src/usb_core.c **** 
 119:common/lib.stm32/STM32_USB-FS-Device_Driver/src/usb_core.c **** /*******************************************************************************
 120:common/lib.stm32/STM32_USB-FS-Device_Driver/src/usb_core.c **** * Function Name  : Standard_SetInterface.
 121:common/lib.stm32/STM32_USB-FS-Device_Driver/src/usb_core.c **** * Description    : This routine is called to set the interface.
 122:common/lib.stm32/STM32_USB-FS-Device_Driver/src/usb_core.c **** *                  Then each class should configure the interface them self.
 123:common/lib.stm32/STM32_USB-FS-Device_Driver/src/usb_core.c **** * Input          : None.
 124:common/lib.stm32/STM32_USB-FS-Device_Driver/src/usb_core.c **** * Output         : None.
 125:common/lib.stm32/STM32_USB-FS-Device_Driver/src/usb_core.c **** * Return         : - Return USB_SUCCESS, if the request is performed.
 126:common/lib.stm32/STM32_USB-FS-Device_Driver/src/usb_core.c **** *                  - Return USB_UNSUPPORT, if the request is invalid.
 127:common/lib.stm32/STM32_USB-FS-Device_Driver/src/usb_core.c **** *******************************************************************************/
 128:common/lib.stm32/STM32_USB-FS-Device_Driver/src/usb_core.c **** RESULT Standard_SetInterface(void)
 129:common/lib.stm32/STM32_USB-FS-Device_Driver/src/usb_core.c **** {
 266              		.loc 1 129 1
 267              		.cfi_startproc
 268              		@ args = 0, pretend = 0, frame = 8
 269              		@ frame_needed = 1, uses_anonymous_args = 0
 270 0000 80B5     		push	{r7, lr}
 271              	.LCFI12:
 272              		.cfi_def_cfa_offset 8
 273              		.cfi_offset 7, -8
 274              		.cfi_offset 14, -4
 275 0002 82B0     		sub	sp, sp, #8
 276              	.LCFI13:
 277              		.cfi_def_cfa_offset 16
 278 0004 00AF     		add	r7, sp, #0
 279              	.LCFI14:
 280              		.cfi_def_cfa_register 7
 130:common/lib.stm32/STM32_USB-FS-Device_Driver/src/usb_core.c ****   RESULT Re;
 131:common/lib.stm32/STM32_USB-FS-Device_Driver/src/usb_core.c ****   /*Test if the specified Interface and Alternate Setting are supported by
 132:common/lib.stm32/STM32_USB-FS-Device_Driver/src/usb_core.c ****     the application Firmware*/
 133:common/lib.stm32/STM32_USB-FS-Device_Driver/src/usb_core.c ****   Re = (*pProperty->Class_Get_Interface_Setting)(pInformation->USBwIndex0, pInformation->USBwValue0
 281              		.loc 1 133 19
 282 0006 1D4B     		ldr	r3, .L21
 283 0008 1B68     		ldr	r3, [r3]
 284              		.loc 1 133 9
 285 000a 9B69     		ldr	r3, [r3, #24]
 286              		.loc 1 133 62
 287 000c 1C4A     		ldr	r2, .L21+4
 288 000e 1268     		ldr	r2, [r2]
 289              		.loc 1 133 9
 290 0010 5079     		ldrb	r0, [r2, #5]	@ zero_extendqisi2
 291              		.loc 1 133 88
 292 0012 1B4A     		ldr	r2, .L21+4
 293 0014 1268     		ldr	r2, [r2]
 294              		.loc 1 133 9
 295 0016 D278     		ldrb	r2, [r2, #3]	@ zero_extendqisi2
 296 0018 1146     		mov	r1, r2
 297 001a 9847     		blx	r3
 298              	.LVL3:
 299 001c 0346     		mov	r3, r0
 300 001e FB71     		strb	r3, [r7, #7]
 134:common/lib.stm32/STM32_USB-FS-Device_Driver/src/usb_core.c **** 
 135:common/lib.stm32/STM32_USB-FS-Device_Driver/src/usb_core.c ****   if (pInformation->Current_Configuration != 0)
 301              		.loc 1 135 19
 302 0020 174B     		ldr	r3, .L21+4
 303 0022 1B68     		ldr	r3, [r3]
 304 0024 9B7A     		ldrb	r3, [r3, #10]	@ zero_extendqisi2
 305              		.loc 1 135 6
 306 0026 002B     		cmp	r3, #0
 307 0028 23D0     		beq	.L17
 136:common/lib.stm32/STM32_USB-FS-Device_Driver/src/usb_core.c ****   {
 137:common/lib.stm32/STM32_USB-FS-Device_Driver/src/usb_core.c ****     if ((Re != USB_SUCCESS) || (pInformation->USBwIndex1 != 0)
 308              		.loc 1 137 8
 309 002a FB79     		ldrb	r3, [r7, #7]	@ zero_extendqisi2
 310 002c 002B     		cmp	r3, #0
 311 002e 09D1     		bne	.L18
 312              		.loc 1 137 45 discriminator 1
 313 0030 134B     		ldr	r3, .L21+4
 314 0032 1B68     		ldr	r3, [r3]
 315              		.loc 1 137 47 discriminator 1
 316 0034 1B79     		ldrb	r3, [r3, #4]	@ zero_extendqisi2
 317              		.loc 1 137 29 discriminator 1
 318 0036 002B     		cmp	r3, #0
 319 0038 04D1     		bne	.L18
 138:common/lib.stm32/STM32_USB-FS-Device_Driver/src/usb_core.c ****         || (pInformation->USBwValue1 != 0))
 320              		.loc 1 138 25
 321 003a 114B     		ldr	r3, .L21+4
 322 003c 1B68     		ldr	r3, [r3]
 323              		.loc 1 138 27
 324 003e 9B78     		ldrb	r3, [r3, #2]	@ zero_extendqisi2
 325              		.loc 1 138 9
 326 0040 002B     		cmp	r3, #0
 327 0042 01D0     		beq	.L19
 328              	.L18:
 139:common/lib.stm32/STM32_USB-FS-Device_Driver/src/usb_core.c ****     {
 140:common/lib.stm32/STM32_USB-FS-Device_Driver/src/usb_core.c ****       return  USB_UNSUPPORT;
 329              		.loc 1 140 15
 330 0044 0223     		movs	r3, #2
 331 0046 15E0     		b	.L20
 332              	.L19:
 141:common/lib.stm32/STM32_USB-FS-Device_Driver/src/usb_core.c ****     }
 142:common/lib.stm32/STM32_USB-FS-Device_Driver/src/usb_core.c ****     else if (Re == USB_SUCCESS)
 333              		.loc 1 142 13
 334 0048 FB79     		ldrb	r3, [r7, #7]	@ zero_extendqisi2
 335 004a 002B     		cmp	r3, #0
 336 004c 11D1     		bne	.L17
 143:common/lib.stm32/STM32_USB-FS-Device_Driver/src/usb_core.c ****     {
 144:common/lib.stm32/STM32_USB-FS-Device_Driver/src/usb_core.c ****       pUser_Standard_Requests->User_SetInterface();
 337              		.loc 1 144 30
 338 004e 0D4B     		ldr	r3, .L21+8
 339 0050 1B68     		ldr	r3, [r3]
 340 0052 DB68     		ldr	r3, [r3, #12]
 341              		.loc 1 144 7
 342 0054 9847     		blx	r3
 343              	.LVL4:
 145:common/lib.stm32/STM32_USB-FS-Device_Driver/src/usb_core.c ****       pInformation->Current_Interface = pInformation->USBwIndex0;
 344              		.loc 1 145 53
 345 0056 0A4B     		ldr	r3, .L21+4
 346 0058 1A68     		ldr	r2, [r3]
 347              		.loc 1 145 19
 348 005a 094B     		ldr	r3, .L21+4
 349 005c 1B68     		ldr	r3, [r3]
 350              		.loc 1 145 55
 351 005e 5279     		ldrb	r2, [r2, #5]	@ zero_extendqisi2
 352              		.loc 1 145 39
 353 0060 DA72     		strb	r2, [r3, #11]
 146:common/lib.stm32/STM32_USB-FS-Device_Driver/src/usb_core.c ****       pInformation->Current_AlternateSetting = pInformation->USBwValue0;
 354              		.loc 1 146 60
 355 0062 074B     		ldr	r3, .L21+4
 356 0064 1A68     		ldr	r2, [r3]
 357              		.loc 1 146 19
 358 0066 064B     		ldr	r3, .L21+4
 359 0068 1B68     		ldr	r3, [r3]
 360              		.loc 1 146 62
 361 006a D278     		ldrb	r2, [r2, #3]	@ zero_extendqisi2
 362              		.loc 1 146 46
 363 006c 1A73     		strb	r2, [r3, #12]
 147:common/lib.stm32/STM32_USB-FS-Device_Driver/src/usb_core.c ****       return USB_SUCCESS;
 364              		.loc 1 147 14
 365 006e 0023     		movs	r3, #0
 366 0070 00E0     		b	.L20
 367              	.L17:
 148:common/lib.stm32/STM32_USB-FS-Device_Driver/src/usb_core.c ****     }
 149:common/lib.stm32/STM32_USB-FS-Device_Driver/src/usb_core.c **** 
 150:common/lib.stm32/STM32_USB-FS-Device_Driver/src/usb_core.c ****   }
 151:common/lib.stm32/STM32_USB-FS-Device_Driver/src/usb_core.c **** 
 152:common/lib.stm32/STM32_USB-FS-Device_Driver/src/usb_core.c ****   return USB_UNSUPPORT;
 368              		.loc 1 152 10
 369 0072 0223     		movs	r3, #2
 370              	.L20:
 153:common/lib.stm32/STM32_USB-FS-Device_Driver/src/usb_core.c **** }
 371              		.loc 1 153 1
 372 0074 1846     		mov	r0, r3
 373 0076 0837     		adds	r7, r7, #8
 374              	.LCFI15:
 375              		.cfi_def_cfa_offset 8
 376 0078 BD46     		mov	sp, r7
 377              	.LCFI16:
 378              		.cfi_def_cfa_register 13
 379              		@ sp needed
 380 007a 80BD     		pop	{r7, pc}
 381              	.L22:
 382              		.align	2
 383              	.L21:
 384 007c 00000000 		.word	pProperty
 385 0080 00000000 		.word	pInformation
 386 0084 00000000 		.word	pUser_Standard_Requests
 387              		.cfi_endproc
 388              	.LFE30:
 390              		.section	.text.Standard_GetStatus,"ax",%progbits
 391              		.align	1
 392              		.global	Standard_GetStatus
 393              		.syntax unified
 394              		.thumb
 395              		.thumb_func
 397              	Standard_GetStatus:
 398              	.LFB31:
 154:common/lib.stm32/STM32_USB-FS-Device_Driver/src/usb_core.c **** 
 155:common/lib.stm32/STM32_USB-FS-Device_Driver/src/usb_core.c **** /*******************************************************************************
 156:common/lib.stm32/STM32_USB-FS-Device_Driver/src/usb_core.c **** * Function Name  : Standard_GetStatus.
 157:common/lib.stm32/STM32_USB-FS-Device_Driver/src/usb_core.c **** * Description    : Copy the device request data to "StatusInfo buffer".
 158:common/lib.stm32/STM32_USB-FS-Device_Driver/src/usb_core.c **** * Input          : - Length - How many bytes are needed.
 159:common/lib.stm32/STM32_USB-FS-Device_Driver/src/usb_core.c **** * Output         : None.
 160:common/lib.stm32/STM32_USB-FS-Device_Driver/src/usb_core.c **** * Return         : Return 0, if the request is at end of data block,
 161:common/lib.stm32/STM32_USB-FS-Device_Driver/src/usb_core.c **** *                  or is invalid when "Length" is 0.
 162:common/lib.stm32/STM32_USB-FS-Device_Driver/src/usb_core.c **** *******************************************************************************/
 163:common/lib.stm32/STM32_USB-FS-Device_Driver/src/usb_core.c **** uint8_t *Standard_GetStatus(uint16_t Length)
 164:common/lib.stm32/STM32_USB-FS-Device_Driver/src/usb_core.c **** {
 399              		.loc 1 164 1
 400              		.cfi_startproc
 401              		@ args = 0, pretend = 0, frame = 16
 402              		@ frame_needed = 1, uses_anonymous_args = 0
 403 0000 80B5     		push	{r7, lr}
 404              	.LCFI17:
 405              		.cfi_def_cfa_offset 8
 406              		.cfi_offset 7, -8
 407              		.cfi_offset 14, -4
 408 0002 84B0     		sub	sp, sp, #16
 409              	.LCFI18:
 410              		.cfi_def_cfa_offset 24
 411 0004 00AF     		add	r7, sp, #0
 412              	.LCFI19:
 413              		.cfi_def_cfa_register 7
 414 0006 0346     		mov	r3, r0
 415 0008 FB80     		strh	r3, [r7, #6]	@ movhi
 165:common/lib.stm32/STM32_USB-FS-Device_Driver/src/usb_core.c ****   if (Length == 0)
 416              		.loc 1 165 6
 417 000a FB88     		ldrh	r3, [r7, #6]
 418 000c 002B     		cmp	r3, #0
 419 000e 05D1     		bne	.L24
 166:common/lib.stm32/STM32_USB-FS-Device_Driver/src/usb_core.c ****   {
 167:common/lib.stm32/STM32_USB-FS-Device_Driver/src/usb_core.c ****     pInformation->Ctrl_Info.Usb_wLength = 2;
 420              		.loc 1 167 17
 421 0010 464B     		ldr	r3, .L34
 422 0012 1B68     		ldr	r3, [r3]
 423              		.loc 1 167 41
 424 0014 0222     		movs	r2, #2
 425 0016 1A82     		strh	r2, [r3, #16]	@ movhi
 168:common/lib.stm32/STM32_USB-FS-Device_Driver/src/usb_core.c ****     return 0;
 426              		.loc 1 168 12
 427 0018 0023     		movs	r3, #0
 428 001a 82E0     		b	.L25
 429              	.L24:
 169:common/lib.stm32/STM32_USB-FS-Device_Driver/src/usb_core.c ****   }
 170:common/lib.stm32/STM32_USB-FS-Device_Driver/src/usb_core.c **** 
 171:common/lib.stm32/STM32_USB-FS-Device_Driver/src/usb_core.c ****   /* Reset Status Information */
 172:common/lib.stm32/STM32_USB-FS-Device_Driver/src/usb_core.c ****   StatusInfo.w = 0;
 430              		.loc 1 172 16
 431 001c 444B     		ldr	r3, .L34+4
 432 001e 0022     		movs	r2, #0
 433 0020 1A80     		strh	r2, [r3]	@ movhi
 173:common/lib.stm32/STM32_USB-FS-Device_Driver/src/usb_core.c **** 
 174:common/lib.stm32/STM32_USB-FS-Device_Driver/src/usb_core.c ****   if (Type_Recipient == (STANDARD_REQUEST | DEVICE_RECIPIENT))
 434              		.loc 1 174 7
 435 0022 424B     		ldr	r3, .L34
 436 0024 1B68     		ldr	r3, [r3]
 437 0026 1B78     		ldrb	r3, [r3]	@ zero_extendqisi2
 438 0028 03F07F03 		and	r3, r3, #127
 439              		.loc 1 174 6
 440 002c 002B     		cmp	r3, #0
 441 002e 2CD1     		bne	.L26
 442              	.LBB2:
 175:common/lib.stm32/STM32_USB-FS-Device_Driver/src/usb_core.c ****   {
 176:common/lib.stm32/STM32_USB-FS-Device_Driver/src/usb_core.c ****     /*Get Device Status */
 177:common/lib.stm32/STM32_USB-FS-Device_Driver/src/usb_core.c ****     uint8_t Feature = pInformation->Current_Feature;
 443              		.loc 1 177 35
 444 0030 3E4B     		ldr	r3, .L34
 445 0032 1B68     		ldr	r3, [r3]
 446              		.loc 1 177 13
 447 0034 5B7A     		ldrb	r3, [r3, #9]
 448 0036 7B73     		strb	r3, [r7, #13]
 178:common/lib.stm32/STM32_USB-FS-Device_Driver/src/usb_core.c **** 
 179:common/lib.stm32/STM32_USB-FS-Device_Driver/src/usb_core.c ****     /* Remote Wakeup enabled */
 180:common/lib.stm32/STM32_USB-FS-Device_Driver/src/usb_core.c ****     if (ValBit(Feature, 5))
 449              		.loc 1 180 9
 450 0038 7B7B     		ldrb	r3, [r7, #13]	@ zero_extendqisi2
 451 003a 03F02003 		and	r3, r3, #32
 452              		.loc 1 180 8
 453 003e 002B     		cmp	r3, #0
 454 0040 07D0     		beq	.L27
 181:common/lib.stm32/STM32_USB-FS-Device_Driver/src/usb_core.c ****     {
 182:common/lib.stm32/STM32_USB-FS-Device_Driver/src/usb_core.c ****       SetBit(StatusInfo0, 1);
 455              		.loc 1 182 7
 456 0042 3B4B     		ldr	r3, .L34+4
 457 0044 1B78     		ldrb	r3, [r3]	@ zero_extendqisi2
 458 0046 43F00203 		orr	r3, r3, #2
 459 004a DAB2     		uxtb	r2, r3
 460 004c 384B     		ldr	r3, .L34+4
 461 004e 1A70     		strb	r2, [r3]
 462 0050 06E0     		b	.L28
 463              	.L27:
 183:common/lib.stm32/STM32_USB-FS-Device_Driver/src/usb_core.c ****     }
 184:common/lib.stm32/STM32_USB-FS-Device_Driver/src/usb_core.c ****     else
 185:common/lib.stm32/STM32_USB-FS-Device_Driver/src/usb_core.c ****     {
 186:common/lib.stm32/STM32_USB-FS-Device_Driver/src/usb_core.c ****       ClrBit(StatusInfo0, 1);
 464              		.loc 1 186 7
 465 0052 374B     		ldr	r3, .L34+4
 466 0054 1B78     		ldrb	r3, [r3]	@ zero_extendqisi2
 467 0056 23F00203 		bic	r3, r3, #2
 468 005a DAB2     		uxtb	r2, r3
 469 005c 344B     		ldr	r3, .L34+4
 470 005e 1A70     		strb	r2, [r3]
 471              	.L28:
 187:common/lib.stm32/STM32_USB-FS-Device_Driver/src/usb_core.c ****     }      
 188:common/lib.stm32/STM32_USB-FS-Device_Driver/src/usb_core.c **** 
 189:common/lib.stm32/STM32_USB-FS-Device_Driver/src/usb_core.c ****     /* Bus-powered */
 190:common/lib.stm32/STM32_USB-FS-Device_Driver/src/usb_core.c ****     if (ValBit(Feature, 6))
 472              		.loc 1 190 9
 473 0060 7B7B     		ldrb	r3, [r7, #13]	@ zero_extendqisi2
 474 0062 03F04003 		and	r3, r3, #64
 475              		.loc 1 190 8
 476 0066 002B     		cmp	r3, #0
 477 0068 07D0     		beq	.L29
 191:common/lib.stm32/STM32_USB-FS-Device_Driver/src/usb_core.c ****     {
 192:common/lib.stm32/STM32_USB-FS-Device_Driver/src/usb_core.c ****       SetBit(StatusInfo0, 0);
 478              		.loc 1 192 7
 479 006a 314B     		ldr	r3, .L34+4
 480 006c 1B78     		ldrb	r3, [r3]	@ zero_extendqisi2
 481 006e 43F00103 		orr	r3, r3, #1
 482 0072 DAB2     		uxtb	r2, r3
 483 0074 2E4B     		ldr	r3, .L34+4
 484 0076 1A70     		strb	r2, [r3]
 485 0078 4EE0     		b	.L30
 486              	.L29:
 193:common/lib.stm32/STM32_USB-FS-Device_Driver/src/usb_core.c ****     }
 194:common/lib.stm32/STM32_USB-FS-Device_Driver/src/usb_core.c ****     else /* Self-powered */
 195:common/lib.stm32/STM32_USB-FS-Device_Driver/src/usb_core.c ****     {
 196:common/lib.stm32/STM32_USB-FS-Device_Driver/src/usb_core.c ****       ClrBit(StatusInfo0, 0);
 487              		.loc 1 196 7
 488 007a 2D4B     		ldr	r3, .L34+4
 489 007c 1B78     		ldrb	r3, [r3]	@ zero_extendqisi2
 490 007e 23F00103 		bic	r3, r3, #1
 491 0082 DAB2     		uxtb	r2, r3
 492 0084 2A4B     		ldr	r3, .L34+4
 493 0086 1A70     		strb	r2, [r3]
 494 0088 46E0     		b	.L30
 495              	.L26:
 496              	.LBE2:
 197:common/lib.stm32/STM32_USB-FS-Device_Driver/src/usb_core.c ****     }
 198:common/lib.stm32/STM32_USB-FS-Device_Driver/src/usb_core.c ****   }
 199:common/lib.stm32/STM32_USB-FS-Device_Driver/src/usb_core.c ****   /*Interface Status*/
 200:common/lib.stm32/STM32_USB-FS-Device_Driver/src/usb_core.c ****   else if (Type_Recipient == (STANDARD_REQUEST | INTERFACE_RECIPIENT))
 497              		.loc 1 200 12
 498 008a 284B     		ldr	r3, .L34
 499 008c 1B68     		ldr	r3, [r3]
 500 008e 1B78     		ldrb	r3, [r3]	@ zero_extendqisi2
 501 0090 03F07F03 		and	r3, r3, #127
 502              		.loc 1 200 11
 503 0094 012B     		cmp	r3, #1
 504 0096 01D1     		bne	.L31
 201:common/lib.stm32/STM32_USB-FS-Device_Driver/src/usb_core.c ****   {
 202:common/lib.stm32/STM32_USB-FS-Device_Driver/src/usb_core.c ****     return (uint8_t *)&StatusInfo;
 505              		.loc 1 202 12
 506 0098 254B     		ldr	r3, .L34+4
 507 009a 42E0     		b	.L25
 508              	.L31:
 203:common/lib.stm32/STM32_USB-FS-Device_Driver/src/usb_core.c ****   }
 204:common/lib.stm32/STM32_USB-FS-Device_Driver/src/usb_core.c ****   /*Get EndPoint Status*/
 205:common/lib.stm32/STM32_USB-FS-Device_Driver/src/usb_core.c ****   else if (Type_Recipient == (STANDARD_REQUEST | ENDPOINT_RECIPIENT))
 509              		.loc 1 205 12
 510 009c 234B     		ldr	r3, .L34
 511 009e 1B68     		ldr	r3, [r3]
 512 00a0 1B78     		ldrb	r3, [r3]	@ zero_extendqisi2
 513 00a2 03F07F03 		and	r3, r3, #127
 514              		.loc 1 205 11
 515 00a6 022B     		cmp	r3, #2
 516 00a8 34D1     		bne	.L32
 517              	.LBB3:
 206:common/lib.stm32/STM32_USB-FS-Device_Driver/src/usb_core.c ****   {
 207:common/lib.stm32/STM32_USB-FS-Device_Driver/src/usb_core.c ****     uint8_t Related_Endpoint;
 208:common/lib.stm32/STM32_USB-FS-Device_Driver/src/usb_core.c ****     uint8_t wIndex0 = pInformation->USBwIndex0;
 518              		.loc 1 208 35
 519 00aa 204B     		ldr	r3, .L34
 520 00ac 1B68     		ldr	r3, [r3]
 521              		.loc 1 208 13
 522 00ae 5B79     		ldrb	r3, [r3, #5]
 523 00b0 FB73     		strb	r3, [r7, #15]
 209:common/lib.stm32/STM32_USB-FS-Device_Driver/src/usb_core.c **** 
 210:common/lib.stm32/STM32_USB-FS-Device_Driver/src/usb_core.c ****     Related_Endpoint = (wIndex0 & 0x0f);
 524              		.loc 1 210 22
 525 00b2 FB7B     		ldrb	r3, [r7, #15]
 526 00b4 03F00F03 		and	r3, r3, #15
 527 00b8 BB73     		strb	r3, [r7, #14]
 211:common/lib.stm32/STM32_USB-FS-Device_Driver/src/usb_core.c ****     if (ValBit(wIndex0, 7))
 528              		.loc 1 211 9
 529 00ba 97F90F30 		ldrsb	r3, [r7, #15]
 530              		.loc 1 211 8
 531 00be 002B     		cmp	r3, #0
 532 00c0 13DA     		bge	.L33
 212:common/lib.stm32/STM32_USB-FS-Device_Driver/src/usb_core.c ****     {
 213:common/lib.stm32/STM32_USB-FS-Device_Driver/src/usb_core.c ****       /* IN endpoint */
 214:common/lib.stm32/STM32_USB-FS-Device_Driver/src/usb_core.c ****       if (_GetTxStallStatus(Related_Endpoint))
 533              		.loc 1 214 11
 534 00c2 BB7B     		ldrb	r3, [r7, #14]	@ zero_extendqisi2
 535 00c4 9B00     		lsls	r3, r3, #2
 536 00c6 03F18043 		add	r3, r3, #1073741824
 537 00ca 03F5B843 		add	r3, r3, #23552
 538 00ce 1B68     		ldr	r3, [r3]
 539 00d0 9BB2     		uxth	r3, r3
 540 00d2 03F03003 		and	r3, r3, #48
 541              		.loc 1 214 10
 542 00d6 102B     		cmp	r3, #16
 543 00d8 1ED1     		bne	.L30
 215:common/lib.stm32/STM32_USB-FS-Device_Driver/src/usb_core.c ****       {
 216:common/lib.stm32/STM32_USB-FS-Device_Driver/src/usb_core.c ****         SetBit(StatusInfo0, 0); /* IN Endpoint stalled */
 544              		.loc 1 216 9
 545 00da 154B     		ldr	r3, .L34+4
 546 00dc 1B78     		ldrb	r3, [r3]	@ zero_extendqisi2
 547 00de 43F00103 		orr	r3, r3, #1
 548 00e2 DAB2     		uxtb	r2, r3
 549 00e4 124B     		ldr	r3, .L34+4
 550 00e6 1A70     		strb	r2, [r3]
 551 00e8 16E0     		b	.L30
 552              	.L33:
 217:common/lib.stm32/STM32_USB-FS-Device_Driver/src/usb_core.c ****       }
 218:common/lib.stm32/STM32_USB-FS-Device_Driver/src/usb_core.c ****     }
 219:common/lib.stm32/STM32_USB-FS-Device_Driver/src/usb_core.c ****     else
 220:common/lib.stm32/STM32_USB-FS-Device_Driver/src/usb_core.c ****     {
 221:common/lib.stm32/STM32_USB-FS-Device_Driver/src/usb_core.c ****       /* OUT endpoint */
 222:common/lib.stm32/STM32_USB-FS-Device_Driver/src/usb_core.c ****       if (_GetRxStallStatus(Related_Endpoint))
 553              		.loc 1 222 11
 554 00ea BB7B     		ldrb	r3, [r7, #14]	@ zero_extendqisi2
 555 00ec 9B00     		lsls	r3, r3, #2
 556 00ee 03F18043 		add	r3, r3, #1073741824
 557 00f2 03F5B843 		add	r3, r3, #23552
 558 00f6 1B68     		ldr	r3, [r3]
 559 00f8 9BB2     		uxth	r3, r3
 560 00fa 03F44053 		and	r3, r3, #12288
 561              		.loc 1 222 10
 562 00fe B3F5805F 		cmp	r3, #4096
 563 0102 09D1     		bne	.L30
 223:common/lib.stm32/STM32_USB-FS-Device_Driver/src/usb_core.c ****       {
 224:common/lib.stm32/STM32_USB-FS-Device_Driver/src/usb_core.c ****         SetBit(StatusInfo0, 0); /* OUT Endpoint stalled */
 564              		.loc 1 224 9
 565 0104 0A4B     		ldr	r3, .L34+4
 566 0106 1B78     		ldrb	r3, [r3]	@ zero_extendqisi2
 567 0108 43F00103 		orr	r3, r3, #1
 568 010c DAB2     		uxtb	r2, r3
 569 010e 084B     		ldr	r3, .L34+4
 570 0110 1A70     		strb	r2, [r3]
 571 0112 01E0     		b	.L30
 572              	.L32:
 573              	.LBE3:
 225:common/lib.stm32/STM32_USB-FS-Device_Driver/src/usb_core.c ****       }
 226:common/lib.stm32/STM32_USB-FS-Device_Driver/src/usb_core.c ****     }
 227:common/lib.stm32/STM32_USB-FS-Device_Driver/src/usb_core.c **** 
 228:common/lib.stm32/STM32_USB-FS-Device_Driver/src/usb_core.c ****   }
 229:common/lib.stm32/STM32_USB-FS-Device_Driver/src/usb_core.c ****   else
 230:common/lib.stm32/STM32_USB-FS-Device_Driver/src/usb_core.c ****   {
 231:common/lib.stm32/STM32_USB-FS-Device_Driver/src/usb_core.c ****     return NULL;
 574              		.loc 1 231 12
 575 0114 0023     		movs	r3, #0
 576 0116 04E0     		b	.L25
 577              	.L30:
 232:common/lib.stm32/STM32_USB-FS-Device_Driver/src/usb_core.c ****   }
 233:common/lib.stm32/STM32_USB-FS-Device_Driver/src/usb_core.c ****   pUser_Standard_Requests->User_GetStatus();
 578              		.loc 1 233 26
 579 0118 064B     		ldr	r3, .L34+8
 580 011a 1B68     		ldr	r3, [r3]
 581 011c 1B69     		ldr	r3, [r3, #16]
 582              		.loc 1 233 3
 583 011e 9847     		blx	r3
 584              	.LVL5:
 234:common/lib.stm32/STM32_USB-FS-Device_Driver/src/usb_core.c ****   return (uint8_t *)&StatusInfo;
 585              		.loc 1 234 10
 586 0120 034B     		ldr	r3, .L34+4
 587              	.L25:
 235:common/lib.stm32/STM32_USB-FS-Device_Driver/src/usb_core.c **** }
 588              		.loc 1 235 1
 589 0122 1846     		mov	r0, r3
 590 0124 1037     		adds	r7, r7, #16
 591              	.LCFI20:
 592              		.cfi_def_cfa_offset 8
 593 0126 BD46     		mov	sp, r7
 594              	.LCFI21:
 595              		.cfi_def_cfa_register 13
 596              		@ sp needed
 597 0128 80BD     		pop	{r7, pc}
 598              	.L35:
 599 012a 00BF     		.align	2
 600              	.L34:
 601 012c 00000000 		.word	pInformation
 602 0130 00000000 		.word	StatusInfo
 603 0134 00000000 		.word	pUser_Standard_Requests
 604              		.cfi_endproc
 605              	.LFE31:
 607              		.section	.text.Standard_ClearFeature,"ax",%progbits
 608              		.align	1
 609              		.global	Standard_ClearFeature
 610              		.syntax unified
 611              		.thumb
 612              		.thumb_func
 614              	Standard_ClearFeature:
 615              	.LFB32:
 236:common/lib.stm32/STM32_USB-FS-Device_Driver/src/usb_core.c **** 
 237:common/lib.stm32/STM32_USB-FS-Device_Driver/src/usb_core.c **** /*******************************************************************************
 238:common/lib.stm32/STM32_USB-FS-Device_Driver/src/usb_core.c **** * Function Name  : Standard_ClearFeature.
 239:common/lib.stm32/STM32_USB-FS-Device_Driver/src/usb_core.c **** * Description    : Clear or disable a specific feature.
 240:common/lib.stm32/STM32_USB-FS-Device_Driver/src/usb_core.c **** * Input          : None.
 241:common/lib.stm32/STM32_USB-FS-Device_Driver/src/usb_core.c **** * Output         : None.
 242:common/lib.stm32/STM32_USB-FS-Device_Driver/src/usb_core.c **** * Return         : - Return USB_SUCCESS, if the request is performed.
 243:common/lib.stm32/STM32_USB-FS-Device_Driver/src/usb_core.c **** *                  - Return USB_UNSUPPORT, if the request is invalid.
 244:common/lib.stm32/STM32_USB-FS-Device_Driver/src/usb_core.c **** *******************************************************************************/
 245:common/lib.stm32/STM32_USB-FS-Device_Driver/src/usb_core.c **** RESULT Standard_ClearFeature(void)
 246:common/lib.stm32/STM32_USB-FS-Device_Driver/src/usb_core.c **** {
 616              		.loc 1 246 1
 617              		.cfi_startproc
 618              		@ args = 0, pretend = 0, frame = 24
 619              		@ frame_needed = 1, uses_anonymous_args = 0
 620 0000 90B5     		push	{r4, r7, lr}
 621              	.LCFI22:
 622              		.cfi_def_cfa_offset 12
 623              		.cfi_offset 4, -12
 624              		.cfi_offset 7, -8
 625              		.cfi_offset 14, -4
 626 0002 87B0     		sub	sp, sp, #28
 627              	.LCFI23:
 628              		.cfi_def_cfa_offset 40
 629 0004 00AF     		add	r7, sp, #0
 630              	.LCFI24:
 631              		.cfi_def_cfa_register 7
 247:common/lib.stm32/STM32_USB-FS-Device_Driver/src/usb_core.c ****   uint32_t     Type_Rec = Type_Recipient;
 632              		.loc 1 247 27
 633 0006 6F4B     		ldr	r3, .L49
 634 0008 1B68     		ldr	r3, [r3]
 635 000a 1B78     		ldrb	r3, [r3]	@ zero_extendqisi2
 636              		.loc 1 247 16
 637 000c 03F07F03 		and	r3, r3, #127
 638 0010 3B61     		str	r3, [r7, #16]
 248:common/lib.stm32/STM32_USB-FS-Device_Driver/src/usb_core.c ****   uint32_t     Status;
 249:common/lib.stm32/STM32_USB-FS-Device_Driver/src/usb_core.c **** 
 250:common/lib.stm32/STM32_USB-FS-Device_Driver/src/usb_core.c **** 
 251:common/lib.stm32/STM32_USB-FS-Device_Driver/src/usb_core.c ****   if (Type_Rec == (STANDARD_REQUEST | DEVICE_RECIPIENT))
 639              		.loc 1 251 6
 640 0012 3B69     		ldr	r3, [r7, #16]
 641 0014 002B     		cmp	r3, #0
 642 0016 0AD1     		bne	.L37
 252:common/lib.stm32/STM32_USB-FS-Device_Driver/src/usb_core.c ****   {/*Device Clear Feature*/
 253:common/lib.stm32/STM32_USB-FS-Device_Driver/src/usb_core.c ****     ClrBit(pInformation->Current_Feature, 5);
 643              		.loc 1 253 5
 644 0018 6A4B     		ldr	r3, .L49
 645 001a 1B68     		ldr	r3, [r3]
 646 001c 5A7A     		ldrb	r2, [r3, #9]	@ zero_extendqisi2
 647 001e 694B     		ldr	r3, .L49
 648 0020 1B68     		ldr	r3, [r3]
 649 0022 22F02002 		bic	r2, r2, #32
 650 0026 D2B2     		uxtb	r2, r2
 651 0028 5A72     		strb	r2, [r3, #9]
 254:common/lib.stm32/STM32_USB-FS-Device_Driver/src/usb_core.c ****     return USB_SUCCESS;
 652              		.loc 1 254 12
 653 002a 0023     		movs	r3, #0
 654 002c C6E0     		b	.L38
 655              	.L37:
 255:common/lib.stm32/STM32_USB-FS-Device_Driver/src/usb_core.c ****   }
 256:common/lib.stm32/STM32_USB-FS-Device_Driver/src/usb_core.c ****   else if (Type_Rec == (STANDARD_REQUEST | ENDPOINT_RECIPIENT))
 656              		.loc 1 256 11
 657 002e 3B69     		ldr	r3, [r7, #16]
 658 0030 022B     		cmp	r3, #2
 659 0032 40F0C280 		bne	.L39
 660              	.LBB4:
 257:common/lib.stm32/STM32_USB-FS-Device_Driver/src/usb_core.c ****   {/*EndPoint Clear Feature*/
 258:common/lib.stm32/STM32_USB-FS-Device_Driver/src/usb_core.c ****     DEVICE* pDev;
 259:common/lib.stm32/STM32_USB-FS-Device_Driver/src/usb_core.c ****     uint32_t Related_Endpoint;
 260:common/lib.stm32/STM32_USB-FS-Device_Driver/src/usb_core.c ****     uint32_t wIndex0;
 261:common/lib.stm32/STM32_USB-FS-Device_Driver/src/usb_core.c ****     uint32_t rEP;
 262:common/lib.stm32/STM32_USB-FS-Device_Driver/src/usb_core.c **** 
 263:common/lib.stm32/STM32_USB-FS-Device_Driver/src/usb_core.c ****     if ((pInformation->USBwValue != ENDPOINT_STALL)
 661              		.loc 1 263 22
 662 0036 634B     		ldr	r3, .L49
 663 0038 1B68     		ldr	r3, [r3]
 664              		.loc 1 263 24
 665 003a 5B88     		ldrh	r3, [r3, #2]
 666              		.loc 1 263 8
 667 003c 002B     		cmp	r3, #0
 668 003e 04D1     		bne	.L40
 264:common/lib.stm32/STM32_USB-FS-Device_Driver/src/usb_core.c ****         || (pInformation->USBwIndex1 != 0))
 669              		.loc 1 264 25
 670 0040 604B     		ldr	r3, .L49
 671 0042 1B68     		ldr	r3, [r3]
 672              		.loc 1 264 27
 673 0044 1B79     		ldrb	r3, [r3, #4]	@ zero_extendqisi2
 674              		.loc 1 264 9
 675 0046 002B     		cmp	r3, #0
 676 0048 01D0     		beq	.L41
 677              	.L40:
 265:common/lib.stm32/STM32_USB-FS-Device_Driver/src/usb_core.c ****     {
 266:common/lib.stm32/STM32_USB-FS-Device_Driver/src/usb_core.c ****       return USB_UNSUPPORT;
 678              		.loc 1 266 14
 679 004a 0223     		movs	r3, #2
 680 004c B6E0     		b	.L38
 681              	.L41:
 267:common/lib.stm32/STM32_USB-FS-Device_Driver/src/usb_core.c ****     }
 268:common/lib.stm32/STM32_USB-FS-Device_Driver/src/usb_core.c **** 
 269:common/lib.stm32/STM32_USB-FS-Device_Driver/src/usb_core.c ****     pDev = &Device_Table;
 682              		.loc 1 269 10
 683 004e 5E4B     		ldr	r3, .L49+4
 684 0050 FB60     		str	r3, [r7, #12]
 270:common/lib.stm32/STM32_USB-FS-Device_Driver/src/usb_core.c ****     wIndex0 = pInformation->USBwIndex0;
 685              		.loc 1 270 27
 686 0052 5C4B     		ldr	r3, .L49
 687 0054 1B68     		ldr	r3, [r3]
 688              		.loc 1 270 29
 689 0056 5B79     		ldrb	r3, [r3, #5]	@ zero_extendqisi2
 690              		.loc 1 270 13
 691 0058 BB60     		str	r3, [r7, #8]
 271:common/lib.stm32/STM32_USB-FS-Device_Driver/src/usb_core.c ****     rEP = wIndex0 & ~0x80;
 692              		.loc 1 271 9
 693 005a BB68     		ldr	r3, [r7, #8]
 694 005c 23F08003 		bic	r3, r3, #128
 695 0060 7B60     		str	r3, [r7, #4]
 272:common/lib.stm32/STM32_USB-FS-Device_Driver/src/usb_core.c ****     Related_Endpoint = ENDP0 + rEP;
 696              		.loc 1 272 22
 697 0062 7B68     		ldr	r3, [r7, #4]
 698 0064 3B60     		str	r3, [r7]
 273:common/lib.stm32/STM32_USB-FS-Device_Driver/src/usb_core.c **** 
 274:common/lib.stm32/STM32_USB-FS-Device_Driver/src/usb_core.c ****     if (ValBit(pInformation->USBwIndex0, 7))
 699              		.loc 1 274 9
 700 0066 574B     		ldr	r3, .L49
 701 0068 1B68     		ldr	r3, [r3]
 702 006a 5B79     		ldrb	r3, [r3, #5]	@ zero_extendqisi2
 703 006c 5BB2     		sxtb	r3, r3
 704              		.loc 1 274 8
 705 006e 002B     		cmp	r3, #0
 706 0070 0BDA     		bge	.L42
 275:common/lib.stm32/STM32_USB-FS-Device_Driver/src/usb_core.c ****     {
 276:common/lib.stm32/STM32_USB-FS-Device_Driver/src/usb_core.c ****       /*Get Status of endpoint & stall the request if the related_ENdpoint
 277:common/lib.stm32/STM32_USB-FS-Device_Driver/src/usb_core.c ****       is Disabled*/
 278:common/lib.stm32/STM32_USB-FS-Device_Driver/src/usb_core.c ****       Status = _GetEPTxStatus(Related_Endpoint);
 707              		.loc 1 278 16
 708 0072 3B68     		ldr	r3, [r7]
 709 0074 9B00     		lsls	r3, r3, #2
 710 0076 03F18043 		add	r3, r3, #1073741824
 711 007a 03F5B843 		add	r3, r3, #23552
 712 007e 1B68     		ldr	r3, [r3]
 713 0080 9BB2     		uxth	r3, r3
 714              		.loc 1 278 14
 715 0082 03F03003 		and	r3, r3, #48
 716 0086 7B61     		str	r3, [r7, #20]
 717 0088 0AE0     		b	.L43
 718              	.L42:
 279:common/lib.stm32/STM32_USB-FS-Device_Driver/src/usb_core.c ****     }
 280:common/lib.stm32/STM32_USB-FS-Device_Driver/src/usb_core.c ****     else
 281:common/lib.stm32/STM32_USB-FS-Device_Driver/src/usb_core.c ****     {
 282:common/lib.stm32/STM32_USB-FS-Device_Driver/src/usb_core.c ****       Status = _GetEPRxStatus(Related_Endpoint);
 719              		.loc 1 282 16
 720 008a 3B68     		ldr	r3, [r7]
 721 008c 9B00     		lsls	r3, r3, #2
 722 008e 03F18043 		add	r3, r3, #1073741824
 723 0092 03F5B843 		add	r3, r3, #23552
 724 0096 1B68     		ldr	r3, [r3]
 725 0098 9BB2     		uxth	r3, r3
 726              		.loc 1 282 14
 727 009a 03F44053 		and	r3, r3, #12288
 728 009e 7B61     		str	r3, [r7, #20]
 729              	.L43:
 283:common/lib.stm32/STM32_USB-FS-Device_Driver/src/usb_core.c ****     }
 284:common/lib.stm32/STM32_USB-FS-Device_Driver/src/usb_core.c **** 
 285:common/lib.stm32/STM32_USB-FS-Device_Driver/src/usb_core.c ****     if ((rEP >= pDev->Total_Endpoint) || (Status == 0)
 730              		.loc 1 285 21
 731 00a0 FB68     		ldr	r3, [r7, #12]
 732 00a2 1B78     		ldrb	r3, [r3]	@ zero_extendqisi2
 733 00a4 1A46     		mov	r2, r3
 734              		.loc 1 285 8
 735 00a6 7B68     		ldr	r3, [r7, #4]
 736 00a8 9342     		cmp	r3, r2
 737 00aa 07D2     		bcs	.L44
 738              		.loc 1 285 39 discriminator 1
 739 00ac 7B69     		ldr	r3, [r7, #20]
 740 00ae 002B     		cmp	r3, #0
 741 00b0 04D0     		beq	.L44
 286:common/lib.stm32/STM32_USB-FS-Device_Driver/src/usb_core.c ****         || (pInformation->Current_Configuration == 0))
 742              		.loc 1 286 25
 743 00b2 444B     		ldr	r3, .L49
 744 00b4 1B68     		ldr	r3, [r3]
 745 00b6 9B7A     		ldrb	r3, [r3, #10]	@ zero_extendqisi2
 746              		.loc 1 286 9
 747 00b8 002B     		cmp	r3, #0
 748 00ba 01D1     		bne	.L45
 749              	.L44:
 287:common/lib.stm32/STM32_USB-FS-Device_Driver/src/usb_core.c ****     {
 288:common/lib.stm32/STM32_USB-FS-Device_Driver/src/usb_core.c ****       return USB_UNSUPPORT;
 750              		.loc 1 288 14
 751 00bc 0223     		movs	r3, #2
 752 00be 7DE0     		b	.L38
 753              	.L45:
 289:common/lib.stm32/STM32_USB-FS-Device_Driver/src/usb_core.c ****     }
 290:common/lib.stm32/STM32_USB-FS-Device_Driver/src/usb_core.c **** 
 291:common/lib.stm32/STM32_USB-FS-Device_Driver/src/usb_core.c **** 
 292:common/lib.stm32/STM32_USB-FS-Device_Driver/src/usb_core.c ****     if (wIndex0 & 0x80)
 754              		.loc 1 292 17
 755 00c0 BB68     		ldr	r3, [r7, #8]
 756 00c2 03F08003 		and	r3, r3, #128
 757              		.loc 1 292 8
 758 00c6 002B     		cmp	r3, #0
 759 00c8 17D0     		beq	.L46
 293:common/lib.stm32/STM32_USB-FS-Device_Driver/src/usb_core.c ****     {
 294:common/lib.stm32/STM32_USB-FS-Device_Driver/src/usb_core.c ****       /* IN endpoint */
 295:common/lib.stm32/STM32_USB-FS-Device_Driver/src/usb_core.c ****       if (_GetTxStallStatus(Related_Endpoint ))
 760              		.loc 1 295 11
 761 00ca 3B68     		ldr	r3, [r7]
 762 00cc 9B00     		lsls	r3, r3, #2
 763 00ce 03F18043 		add	r3, r3, #1073741824
 764 00d2 03F5B843 		add	r3, r3, #23552
 765 00d6 1B68     		ldr	r3, [r3]
 766 00d8 9BB2     		uxth	r3, r3
 767 00da 03F03003 		and	r3, r3, #48
 768              		.loc 1 295 10
 769 00de 102B     		cmp	r3, #16
 770 00e0 65D1     		bne	.L47
 296:common/lib.stm32/STM32_USB-FS-Device_Driver/src/usb_core.c ****       {
 297:common/lib.stm32/STM32_USB-FS-Device_Driver/src/usb_core.c ****       #ifndef STM32F10X_CL
 298:common/lib.stm32/STM32_USB-FS-Device_Driver/src/usb_core.c ****         ClearDTOG_TX(Related_Endpoint);
 771              		.loc 1 298 9
 772 00e2 3B68     		ldr	r3, [r7]
 773 00e4 DBB2     		uxtb	r3, r3
 774 00e6 1846     		mov	r0, r3
 775 00e8 384B     		ldr	r3, .L49+8
 776 00ea 9847     		blx	r3
 777              	.LVL6:
 299:common/lib.stm32/STM32_USB-FS-Device_Driver/src/usb_core.c ****       #endif /* STM32F10X_CL */
 300:common/lib.stm32/STM32_USB-FS-Device_Driver/src/usb_core.c ****         SetEPTxStatus(Related_Endpoint, EP_TX_VALID);
 778              		.loc 1 300 9
 779 00ec 3B68     		ldr	r3, [r7]
 780 00ee DBB2     		uxtb	r3, r3
 781 00f0 3021     		movs	r1, #48
 782 00f2 1846     		mov	r0, r3
 783 00f4 364B     		ldr	r3, .L49+12
 784 00f6 9847     		blx	r3
 785              	.LVL7:
 786 00f8 59E0     		b	.L47
 787              	.L46:
 301:common/lib.stm32/STM32_USB-FS-Device_Driver/src/usb_core.c ****       }
 302:common/lib.stm32/STM32_USB-FS-Device_Driver/src/usb_core.c ****     }
 303:common/lib.stm32/STM32_USB-FS-Device_Driver/src/usb_core.c ****     else
 304:common/lib.stm32/STM32_USB-FS-Device_Driver/src/usb_core.c ****     {
 305:common/lib.stm32/STM32_USB-FS-Device_Driver/src/usb_core.c ****       /* OUT endpoint */
 306:common/lib.stm32/STM32_USB-FS-Device_Driver/src/usb_core.c ****       if (_GetRxStallStatus(Related_Endpoint))
 788              		.loc 1 306 11
 789 00fa 3B68     		ldr	r3, [r7]
 790 00fc 9B00     		lsls	r3, r3, #2
 791 00fe 03F18043 		add	r3, r3, #1073741824
 792 0102 03F5B843 		add	r3, r3, #23552
 793 0106 1B68     		ldr	r3, [r3]
 794 0108 9BB2     		uxth	r3, r3
 795 010a 03F44053 		and	r3, r3, #12288
 796              		.loc 1 306 10
 797 010e B3F5805F 		cmp	r3, #4096
 798 0112 4CD1     		bne	.L47
 307:common/lib.stm32/STM32_USB-FS-Device_Driver/src/usb_core.c ****       {
 308:common/lib.stm32/STM32_USB-FS-Device_Driver/src/usb_core.c ****         if (Related_Endpoint == ENDP0)
 799              		.loc 1 308 12
 800 0114 3B68     		ldr	r3, [r7]
 801 0116 002B     		cmp	r3, #0
 802 0118 27D1     		bne	.L48
 309:common/lib.stm32/STM32_USB-FS-Device_Driver/src/usb_core.c ****         {
 310:common/lib.stm32/STM32_USB-FS-Device_Driver/src/usb_core.c ****           /* After clear the STALL, enable the default endpoint receiver */
 311:common/lib.stm32/STM32_USB-FS-Device_Driver/src/usb_core.c ****           SetEPRxCount(Related_Endpoint, Device_Property.MaxPacketSize);
 803              		.loc 1 311 11
 804 011a 3B68     		ldr	r3, [r7]
 805 011c DBB2     		uxtb	r3, r3
 806              		.loc 1 311 57
 807 011e 2D4A     		ldr	r2, .L49+16
 808 0120 92F82C20 		ldrb	r2, [r2, #44]	@ zero_extendqisi2
 809              		.loc 1 311 11
 810 0124 92B2     		uxth	r2, r2
 811 0126 1146     		mov	r1, r2
 812 0128 1846     		mov	r0, r3
 813 012a 2B4B     		ldr	r3, .L49+20
 814 012c 9847     		blx	r3
 815              	.LVL8:
 816              	.LBB5:
 312:common/lib.stm32/STM32_USB-FS-Device_Driver/src/usb_core.c ****           _SetEPRxStatus(Related_Endpoint, EP_RX_VALID);
 817              		.loc 1 312 11
 818 012e 3B68     		ldr	r3, [r7]
 819 0130 9B00     		lsls	r3, r3, #2
 820 0132 03F18043 		add	r3, r3, #1073741824
 821 0136 03F5B843 		add	r3, r3, #23552
 822 013a 1B68     		ldr	r3, [r3]
 823 013c 9BB2     		uxth	r3, r3
 824 013e 23F48043 		bic	r3, r3, #16384
 825 0142 23F07003 		bic	r3, r3, #112
 826 0146 9CB2     		uxth	r4, r3
 827 0148 84F48053 		eor	r3, r4, #4096
 828 014c 9CB2     		uxth	r4, r3
 829 014e 84F40053 		eor	r3, r4, #8192
 830 0152 9CB2     		uxth	r4, r3
 831 0154 214B     		ldr	r3, .L49+24
 832 0156 2343     		orrs	r3, r3, r4
 833 0158 9AB2     		uxth	r2, r3
 834 015a 3B68     		ldr	r3, [r7]
 835 015c 9B00     		lsls	r3, r3, #2
 836 015e 03F18043 		add	r3, r3, #1073741824
 837 0162 03F5B843 		add	r3, r3, #23552
 838 0166 1A60     		str	r2, [r3]
 839              	.LBE5:
 840 0168 21E0     		b	.L47
 841              	.L48:
 313:common/lib.stm32/STM32_USB-FS-Device_Driver/src/usb_core.c ****         }
 314:common/lib.stm32/STM32_USB-FS-Device_Driver/src/usb_core.c ****         else
 315:common/lib.stm32/STM32_USB-FS-Device_Driver/src/usb_core.c ****         {
 316:common/lib.stm32/STM32_USB-FS-Device_Driver/src/usb_core.c ****         #ifndef STM32F10X_CL
 317:common/lib.stm32/STM32_USB-FS-Device_Driver/src/usb_core.c ****           ClearDTOG_RX(Related_Endpoint);
 842              		.loc 1 317 11
 843 016a 3B68     		ldr	r3, [r7]
 844 016c DBB2     		uxtb	r3, r3
 845 016e 1846     		mov	r0, r3
 846 0170 1B4B     		ldr	r3, .L49+28
 847 0172 9847     		blx	r3
 848              	.LVL9:
 849              	.LBB6:
 318:common/lib.stm32/STM32_USB-FS-Device_Driver/src/usb_core.c ****         #endif /* STM32F10X_CL */
 319:common/lib.stm32/STM32_USB-FS-Device_Driver/src/usb_core.c ****           _SetEPRxStatus(Related_Endpoint, EP_RX_VALID);
 850              		.loc 1 319 11
 851 0174 3B68     		ldr	r3, [r7]
 852 0176 9B00     		lsls	r3, r3, #2
 853 0178 03F18043 		add	r3, r3, #1073741824
 854 017c 03F5B843 		add	r3, r3, #23552
 855 0180 1B68     		ldr	r3, [r3]
 856 0182 9BB2     		uxth	r3, r3
 857 0184 23F48043 		bic	r3, r3, #16384
 858 0188 23F07003 		bic	r3, r3, #112
 859 018c 9CB2     		uxth	r4, r3
 860 018e 84F48053 		eor	r3, r4, #4096
 861 0192 9CB2     		uxth	r4, r3
 862 0194 84F40053 		eor	r3, r4, #8192
 863 0198 9CB2     		uxth	r4, r3
 864 019a 104B     		ldr	r3, .L49+24
 865 019c 2343     		orrs	r3, r3, r4
 866 019e 9AB2     		uxth	r2, r3
 867 01a0 3B68     		ldr	r3, [r7]
 868 01a2 9B00     		lsls	r3, r3, #2
 869 01a4 03F18043 		add	r3, r3, #1073741824
 870 01a8 03F5B843 		add	r3, r3, #23552
 871 01ac 1A60     		str	r2, [r3]
 872              	.L47:
 873              	.LBE6:
 320:common/lib.stm32/STM32_USB-FS-Device_Driver/src/usb_core.c ****         }
 321:common/lib.stm32/STM32_USB-FS-Device_Driver/src/usb_core.c ****       }
 322:common/lib.stm32/STM32_USB-FS-Device_Driver/src/usb_core.c ****     }
 323:common/lib.stm32/STM32_USB-FS-Device_Driver/src/usb_core.c ****     pUser_Standard_Requests->User_ClearFeature();
 874              		.loc 1 323 28
 875 01ae 0D4B     		ldr	r3, .L49+32
 876 01b0 1B68     		ldr	r3, [r3]
 877 01b2 5B69     		ldr	r3, [r3, #20]
 878              		.loc 1 323 5
 879 01b4 9847     		blx	r3
 880              	.LVL10:
 324:common/lib.stm32/STM32_USB-FS-Device_Driver/src/usb_core.c ****     return USB_SUCCESS;
 881              		.loc 1 324 12
 882 01b6 0023     		movs	r3, #0
 883 01b8 00E0     		b	.L38
 884              	.L39:
 885              	.LBE4:
 325:common/lib.stm32/STM32_USB-FS-Device_Driver/src/usb_core.c ****   }
 326:common/lib.stm32/STM32_USB-FS-Device_Driver/src/usb_core.c **** 
 327:common/lib.stm32/STM32_USB-FS-Device_Driver/src/usb_core.c ****   return USB_UNSUPPORT;
 886              		.loc 1 327 10
 887 01ba 0223     		movs	r3, #2
 888              	.L38:
 328:common/lib.stm32/STM32_USB-FS-Device_Driver/src/usb_core.c **** }
 889              		.loc 1 328 1
 890 01bc 1846     		mov	r0, r3
 891 01be 1C37     		adds	r7, r7, #28
 892              	.LCFI25:
 893              		.cfi_def_cfa_offset 12
 894 01c0 BD46     		mov	sp, r7
 895              	.LCFI26:
 896              		.cfi_def_cfa_register 13
 897              		@ sp needed
 898 01c2 90BD     		pop	{r4, r7, pc}
 899              	.L50:
 900              		.align	2
 901              	.L49:
 902 01c4 00000000 		.word	pInformation
 903 01c8 00000000 		.word	Device_Table
 904 01cc 00000000 		.word	ClearDTOG_TX
 905 01d0 00000000 		.word	SetEPTxStatus
 906 01d4 00000000 		.word	Device_Property
 907 01d8 00000000 		.word	SetEPRxCount
 908 01dc 8080FFFF 		.word	-32640
 909 01e0 00000000 		.word	ClearDTOG_RX
 910 01e4 00000000 		.word	pUser_Standard_Requests
 911              		.cfi_endproc
 912              	.LFE32:
 914              		.section	.text.Standard_SetEndPointFeature,"ax",%progbits
 915              		.align	1
 916              		.global	Standard_SetEndPointFeature
 917              		.syntax unified
 918              		.thumb
 919              		.thumb_func
 921              	Standard_SetEndPointFeature:
 922              	.LFB33:
 329:common/lib.stm32/STM32_USB-FS-Device_Driver/src/usb_core.c **** 
 330:common/lib.stm32/STM32_USB-FS-Device_Driver/src/usb_core.c **** /*******************************************************************************
 331:common/lib.stm32/STM32_USB-FS-Device_Driver/src/usb_core.c **** * Function Name  : Standard_SetEndPointFeature
 332:common/lib.stm32/STM32_USB-FS-Device_Driver/src/usb_core.c **** * Description    : Set or enable a specific feature of EndPoint
 333:common/lib.stm32/STM32_USB-FS-Device_Driver/src/usb_core.c **** * Input          : None.
 334:common/lib.stm32/STM32_USB-FS-Device_Driver/src/usb_core.c **** * Output         : None.
 335:common/lib.stm32/STM32_USB-FS-Device_Driver/src/usb_core.c **** * Return         : - Return USB_SUCCESS, if the request is performed.
 336:common/lib.stm32/STM32_USB-FS-Device_Driver/src/usb_core.c **** *                  - Return USB_UNSUPPORT, if the request is invalid.
 337:common/lib.stm32/STM32_USB-FS-Device_Driver/src/usb_core.c **** *******************************************************************************/
 338:common/lib.stm32/STM32_USB-FS-Device_Driver/src/usb_core.c **** RESULT Standard_SetEndPointFeature(void)
 339:common/lib.stm32/STM32_USB-FS-Device_Driver/src/usb_core.c **** {
 923              		.loc 1 339 1
 924              		.cfi_startproc
 925              		@ args = 0, pretend = 0, frame = 16
 926              		@ frame_needed = 1, uses_anonymous_args = 0
 927 0000 90B5     		push	{r4, r7, lr}
 928              	.LCFI27:
 929              		.cfi_def_cfa_offset 12
 930              		.cfi_offset 4, -12
 931              		.cfi_offset 7, -8
 932              		.cfi_offset 14, -4
 933 0002 85B0     		sub	sp, sp, #20
 934              	.LCFI28:
 935              		.cfi_def_cfa_offset 32
 936 0004 00AF     		add	r7, sp, #0
 937              	.LCFI29:
 938              		.cfi_def_cfa_register 7
 340:common/lib.stm32/STM32_USB-FS-Device_Driver/src/usb_core.c ****   uint32_t    wIndex0;
 341:common/lib.stm32/STM32_USB-FS-Device_Driver/src/usb_core.c ****   uint32_t    Related_Endpoint;
 342:common/lib.stm32/STM32_USB-FS-Device_Driver/src/usb_core.c ****   uint32_t    rEP;
 343:common/lib.stm32/STM32_USB-FS-Device_Driver/src/usb_core.c ****   uint32_t    Status;
 344:common/lib.stm32/STM32_USB-FS-Device_Driver/src/usb_core.c **** 
 345:common/lib.stm32/STM32_USB-FS-Device_Driver/src/usb_core.c ****   wIndex0 = pInformation->USBwIndex0;
 939              		.loc 1 345 25
 940 0006 3F4B     		ldr	r3, .L59
 941 0008 1B68     		ldr	r3, [r3]
 942              		.loc 1 345 27
 943 000a 5B79     		ldrb	r3, [r3, #5]	@ zero_extendqisi2
 944              		.loc 1 345 11
 945 000c BB60     		str	r3, [r7, #8]
 346:common/lib.stm32/STM32_USB-FS-Device_Driver/src/usb_core.c ****   rEP = wIndex0 & ~0x80;
 946              		.loc 1 346 7
 947 000e BB68     		ldr	r3, [r7, #8]
 948 0010 23F08003 		bic	r3, r3, #128
 949 0014 7B60     		str	r3, [r7, #4]
 347:common/lib.stm32/STM32_USB-FS-Device_Driver/src/usb_core.c ****   Related_Endpoint = ENDP0 + rEP;
 950              		.loc 1 347 20
 951 0016 7B68     		ldr	r3, [r7, #4]
 952 0018 3B60     		str	r3, [r7]
 348:common/lib.stm32/STM32_USB-FS-Device_Driver/src/usb_core.c **** 
 349:common/lib.stm32/STM32_USB-FS-Device_Driver/src/usb_core.c ****   if (ValBit(pInformation->USBwIndex0, 7))
 953              		.loc 1 349 7
 954 001a 3A4B     		ldr	r3, .L59
 955 001c 1B68     		ldr	r3, [r3]
 956 001e 5B79     		ldrb	r3, [r3, #5]	@ zero_extendqisi2
 957 0020 5BB2     		sxtb	r3, r3
 958              		.loc 1 349 6
 959 0022 002B     		cmp	r3, #0
 960 0024 0BDA     		bge	.L52
 350:common/lib.stm32/STM32_USB-FS-Device_Driver/src/usb_core.c ****   {
 351:common/lib.stm32/STM32_USB-FS-Device_Driver/src/usb_core.c ****     /* get Status of endpoint & stall the request if the related_ENdpoint
 352:common/lib.stm32/STM32_USB-FS-Device_Driver/src/usb_core.c ****     is Disabled*/
 353:common/lib.stm32/STM32_USB-FS-Device_Driver/src/usb_core.c ****     Status = _GetEPTxStatus(Related_Endpoint);
 961              		.loc 1 353 14
 962 0026 3B68     		ldr	r3, [r7]
 963 0028 9B00     		lsls	r3, r3, #2
 964 002a 03F18043 		add	r3, r3, #1073741824
 965 002e 03F5B843 		add	r3, r3, #23552
 966 0032 1B68     		ldr	r3, [r3]
 967 0034 9BB2     		uxth	r3, r3
 968              		.loc 1 353 12
 969 0036 03F03003 		and	r3, r3, #48
 970 003a FB60     		str	r3, [r7, #12]
 971 003c 0AE0     		b	.L53
 972              	.L52:
 354:common/lib.stm32/STM32_USB-FS-Device_Driver/src/usb_core.c ****   }
 355:common/lib.stm32/STM32_USB-FS-Device_Driver/src/usb_core.c ****   else
 356:common/lib.stm32/STM32_USB-FS-Device_Driver/src/usb_core.c ****   {
 357:common/lib.stm32/STM32_USB-FS-Device_Driver/src/usb_core.c ****     Status = _GetEPRxStatus(Related_Endpoint);
 973              		.loc 1 357 14
 974 003e 3B68     		ldr	r3, [r7]
 975 0040 9B00     		lsls	r3, r3, #2
 976 0042 03F18043 		add	r3, r3, #1073741824
 977 0046 03F5B843 		add	r3, r3, #23552
 978 004a 1B68     		ldr	r3, [r3]
 979 004c 9BB2     		uxth	r3, r3
 980              		.loc 1 357 12
 981 004e 03F44053 		and	r3, r3, #12288
 982 0052 FB60     		str	r3, [r7, #12]
 983              	.L53:
 358:common/lib.stm32/STM32_USB-FS-Device_Driver/src/usb_core.c ****   }
 359:common/lib.stm32/STM32_USB-FS-Device_Driver/src/usb_core.c **** 
 360:common/lib.stm32/STM32_USB-FS-Device_Driver/src/usb_core.c ****   if (Related_Endpoint >= Device_Table.Total_Endpoint
 984              		.loc 1 360 39
 985 0054 2C4B     		ldr	r3, .L59+4
 986 0056 1B78     		ldrb	r3, [r3]	@ zero_extendqisi2
 987 0058 1A46     		mov	r2, r3
 988              		.loc 1 360 6
 989 005a 3B68     		ldr	r3, [r7]
 990 005c 9342     		cmp	r3, r2
 991 005e 0CD2     		bcs	.L54
 361:common/lib.stm32/STM32_USB-FS-Device_Driver/src/usb_core.c ****       || pInformation->USBwValue != 0 || Status == 0
 992              		.loc 1 361 22
 993 0060 284B     		ldr	r3, .L59
 994 0062 1B68     		ldr	r3, [r3]
 995              		.loc 1 361 24
 996 0064 5B88     		ldrh	r3, [r3, #2]
 997              		.loc 1 361 7
 998 0066 002B     		cmp	r3, #0
 999 0068 07D1     		bne	.L54
 1000              		.loc 1 361 39 discriminator 1
 1001 006a FB68     		ldr	r3, [r7, #12]
 1002 006c 002B     		cmp	r3, #0
 1003 006e 04D0     		beq	.L54
 362:common/lib.stm32/STM32_USB-FS-Device_Driver/src/usb_core.c ****       || pInformation->Current_Configuration == 0)
 1004              		.loc 1 362 22
 1005 0070 244B     		ldr	r3, .L59
 1006 0072 1B68     		ldr	r3, [r3]
 1007 0074 9B7A     		ldrb	r3, [r3, #10]	@ zero_extendqisi2
 1008              		.loc 1 362 7
 1009 0076 002B     		cmp	r3, #0
 1010 0078 01D1     		bne	.L55
 1011              	.L54:
 363:common/lib.stm32/STM32_USB-FS-Device_Driver/src/usb_core.c ****   {
 364:common/lib.stm32/STM32_USB-FS-Device_Driver/src/usb_core.c ****     return USB_UNSUPPORT;
 1012              		.loc 1 364 12
 1013 007a 0223     		movs	r3, #2
 1014 007c 3EE0     		b	.L56
 1015              	.L55:
 365:common/lib.stm32/STM32_USB-FS-Device_Driver/src/usb_core.c ****   }
 366:common/lib.stm32/STM32_USB-FS-Device_Driver/src/usb_core.c ****   else
 367:common/lib.stm32/STM32_USB-FS-Device_Driver/src/usb_core.c ****   {
 368:common/lib.stm32/STM32_USB-FS-Device_Driver/src/usb_core.c ****     if (wIndex0 & 0x80)
 1016              		.loc 1 368 17
 1017 007e BB68     		ldr	r3, [r7, #8]
 1018 0080 03F08003 		and	r3, r3, #128
 1019              		.loc 1 368 8
 1020 0084 002B     		cmp	r3, #0
 1021 0086 1AD0     		beq	.L57
 1022              	.LBB7:
 369:common/lib.stm32/STM32_USB-FS-Device_Driver/src/usb_core.c ****     {
 370:common/lib.stm32/STM32_USB-FS-Device_Driver/src/usb_core.c ****       /* IN endpoint */
 371:common/lib.stm32/STM32_USB-FS-Device_Driver/src/usb_core.c ****       _SetEPTxStatus(Related_Endpoint, EP_TX_STALL);
 1023              		.loc 1 371 7
 1024 0088 3B68     		ldr	r3, [r7]
 1025 008a 9B00     		lsls	r3, r3, #2
 1026 008c 03F18043 		add	r3, r3, #1073741824
 1027 0090 03F5B843 		add	r3, r3, #23552
 1028 0094 1B68     		ldr	r3, [r3]
 1029 0096 9BB2     		uxth	r3, r3
 1030 0098 23F4E043 		bic	r3, r3, #28672
 1031 009c 23F04003 		bic	r3, r3, #64
 1032 00a0 9CB2     		uxth	r4, r3
 1033 00a2 84F01003 		eor	r3, r4, #16
 1034 00a6 9CB2     		uxth	r4, r3
 1035 00a8 184B     		ldr	r3, .L59+8
 1036 00aa 2343     		orrs	r3, r3, r4
 1037 00ac 9AB2     		uxth	r2, r3
 1038 00ae 3B68     		ldr	r3, [r7]
 1039 00b0 9B00     		lsls	r3, r3, #2
 1040 00b2 03F18043 		add	r3, r3, #1073741824
 1041 00b6 03F5B843 		add	r3, r3, #23552
 1042 00ba 1A60     		str	r2, [r3]
 1043              	.LBE7:
 1044 00bc 19E0     		b	.L58
 1045              	.L57:
 1046              	.LBB8:
 372:common/lib.stm32/STM32_USB-FS-Device_Driver/src/usb_core.c ****     }
 373:common/lib.stm32/STM32_USB-FS-Device_Driver/src/usb_core.c **** 
 374:common/lib.stm32/STM32_USB-FS-Device_Driver/src/usb_core.c ****     else
 375:common/lib.stm32/STM32_USB-FS-Device_Driver/src/usb_core.c ****     {
 376:common/lib.stm32/STM32_USB-FS-Device_Driver/src/usb_core.c ****       /* OUT endpoint */
 377:common/lib.stm32/STM32_USB-FS-Device_Driver/src/usb_core.c ****       _SetEPRxStatus(Related_Endpoint, EP_RX_STALL);
 1047              		.loc 1 377 7
 1048 00be 3B68     		ldr	r3, [r7]
 1049 00c0 9B00     		lsls	r3, r3, #2
 1050 00c2 03F18043 		add	r3, r3, #1073741824
 1051 00c6 03F5B843 		add	r3, r3, #23552
 1052 00ca 1B68     		ldr	r3, [r3]
 1053 00cc 9BB2     		uxth	r3, r3
 1054 00ce 23F48043 		bic	r3, r3, #16384
 1055 00d2 23F07003 		bic	r3, r3, #112
 1056 00d6 9CB2     		uxth	r4, r3
 1057 00d8 84F48053 		eor	r3, r4, #4096
 1058 00dc 9CB2     		uxth	r4, r3
 1059 00de 0B4B     		ldr	r3, .L59+8
 1060 00e0 2343     		orrs	r3, r3, r4
 1061 00e2 9AB2     		uxth	r2, r3
 1062 00e4 3B68     		ldr	r3, [r7]
 1063 00e6 9B00     		lsls	r3, r3, #2
 1064 00e8 03F18043 		add	r3, r3, #1073741824
 1065 00ec 03F5B843 		add	r3, r3, #23552
 1066 00f0 1A60     		str	r2, [r3]
 1067              	.L58:
 1068              	.LBE8:
 378:common/lib.stm32/STM32_USB-FS-Device_Driver/src/usb_core.c ****     }
 379:common/lib.stm32/STM32_USB-FS-Device_Driver/src/usb_core.c ****   }
 380:common/lib.stm32/STM32_USB-FS-Device_Driver/src/usb_core.c ****   pUser_Standard_Requests->User_SetEndPointFeature();
 1069              		.loc 1 380 26
 1070 00f2 074B     		ldr	r3, .L59+12
 1071 00f4 1B68     		ldr	r3, [r3]
 1072 00f6 9B69     		ldr	r3, [r3, #24]
 1073              		.loc 1 380 3
 1074 00f8 9847     		blx	r3
 1075              	.LVL11:
 381:common/lib.stm32/STM32_USB-FS-Device_Driver/src/usb_core.c ****   return USB_SUCCESS;
 1076              		.loc 1 381 10
 1077 00fa 0023     		movs	r3, #0
 1078              	.L56:
 382:common/lib.stm32/STM32_USB-FS-Device_Driver/src/usb_core.c **** }
 1079              		.loc 1 382 1
 1080 00fc 1846     		mov	r0, r3
 1081 00fe 1437     		adds	r7, r7, #20
 1082              	.LCFI30:
 1083              		.cfi_def_cfa_offset 12
 1084 0100 BD46     		mov	sp, r7
 1085              	.LCFI31:
 1086              		.cfi_def_cfa_register 13
 1087              		@ sp needed
 1088 0102 90BD     		pop	{r4, r7, pc}
 1089              	.L60:
 1090              		.align	2
 1091              	.L59:
 1092 0104 00000000 		.word	pInformation
 1093 0108 00000000 		.word	Device_Table
 1094 010c 8080FFFF 		.word	-32640
 1095 0110 00000000 		.word	pUser_Standard_Requests
 1096              		.cfi_endproc
 1097              	.LFE33:
 1099              		.section	.text.Standard_SetDeviceFeature,"ax",%progbits
 1100              		.align	1
 1101              		.global	Standard_SetDeviceFeature
 1102              		.syntax unified
 1103              		.thumb
 1104              		.thumb_func
 1106              	Standard_SetDeviceFeature:
 1107              	.LFB34:
 383:common/lib.stm32/STM32_USB-FS-Device_Driver/src/usb_core.c **** 
 384:common/lib.stm32/STM32_USB-FS-Device_Driver/src/usb_core.c **** /*******************************************************************************
 385:common/lib.stm32/STM32_USB-FS-Device_Driver/src/usb_core.c **** * Function Name  : Standard_SetDeviceFeature.
 386:common/lib.stm32/STM32_USB-FS-Device_Driver/src/usb_core.c **** * Description    : Set or enable a specific feature of Device.
 387:common/lib.stm32/STM32_USB-FS-Device_Driver/src/usb_core.c **** * Input          : None.
 388:common/lib.stm32/STM32_USB-FS-Device_Driver/src/usb_core.c **** * Output         : None.
 389:common/lib.stm32/STM32_USB-FS-Device_Driver/src/usb_core.c **** * Return         : - Return USB_SUCCESS, if the request is performed.
 390:common/lib.stm32/STM32_USB-FS-Device_Driver/src/usb_core.c **** *                  - Return USB_UNSUPPORT, if the request is invalid.
 391:common/lib.stm32/STM32_USB-FS-Device_Driver/src/usb_core.c **** *******************************************************************************/
 392:common/lib.stm32/STM32_USB-FS-Device_Driver/src/usb_core.c **** RESULT Standard_SetDeviceFeature(void)
 393:common/lib.stm32/STM32_USB-FS-Device_Driver/src/usb_core.c **** {
 1108              		.loc 1 393 1
 1109              		.cfi_startproc
 1110              		@ args = 0, pretend = 0, frame = 0
 1111              		@ frame_needed = 1, uses_anonymous_args = 0
 1112 0000 80B5     		push	{r7, lr}
 1113              	.LCFI32:
 1114              		.cfi_def_cfa_offset 8
 1115              		.cfi_offset 7, -8
 1116              		.cfi_offset 14, -4
 1117 0002 00AF     		add	r7, sp, #0
 1118              	.LCFI33:
 1119              		.cfi_def_cfa_register 7
 394:common/lib.stm32/STM32_USB-FS-Device_Driver/src/usb_core.c ****   SetBit(pInformation->Current_Feature, 5);
 1120              		.loc 1 394 3
 1121 0004 074B     		ldr	r3, .L63
 1122 0006 1B68     		ldr	r3, [r3]
 1123 0008 5A7A     		ldrb	r2, [r3, #9]	@ zero_extendqisi2
 1124 000a 064B     		ldr	r3, .L63
 1125 000c 1B68     		ldr	r3, [r3]
 1126 000e 42F02002 		orr	r2, r2, #32
 1127 0012 D2B2     		uxtb	r2, r2
 1128 0014 5A72     		strb	r2, [r3, #9]
 395:common/lib.stm32/STM32_USB-FS-Device_Driver/src/usb_core.c ****   pUser_Standard_Requests->User_SetDeviceFeature();
 1129              		.loc 1 395 26
 1130 0016 044B     		ldr	r3, .L63+4
 1131 0018 1B68     		ldr	r3, [r3]
 1132 001a DB69     		ldr	r3, [r3, #28]
 1133              		.loc 1 395 3
 1134 001c 9847     		blx	r3
 1135              	.LVL12:
 396:common/lib.stm32/STM32_USB-FS-Device_Driver/src/usb_core.c ****   return USB_SUCCESS;
 1136              		.loc 1 396 10
 1137 001e 0023     		movs	r3, #0
 397:common/lib.stm32/STM32_USB-FS-Device_Driver/src/usb_core.c **** }
 1138              		.loc 1 397 1
 1139 0020 1846     		mov	r0, r3
 1140 0022 80BD     		pop	{r7, pc}
 1141              	.L64:
 1142              		.align	2
 1143              	.L63:
 1144 0024 00000000 		.word	pInformation
 1145 0028 00000000 		.word	pUser_Standard_Requests
 1146              		.cfi_endproc
 1147              	.LFE34:
 1149              		.section	.text.Standard_GetDescriptorData,"ax",%progbits
 1150              		.align	1
 1151              		.global	Standard_GetDescriptorData
 1152              		.syntax unified
 1153              		.thumb
 1154              		.thumb_func
 1156              	Standard_GetDescriptorData:
 1157              	.LFB35:
 398:common/lib.stm32/STM32_USB-FS-Device_Driver/src/usb_core.c **** 
 399:common/lib.stm32/STM32_USB-FS-Device_Driver/src/usb_core.c **** /*******************************************************************************
 400:common/lib.stm32/STM32_USB-FS-Device_Driver/src/usb_core.c **** * Function Name  : Standard_GetDescriptorData.
 401:common/lib.stm32/STM32_USB-FS-Device_Driver/src/usb_core.c **** * Description    : Standard_GetDescriptorData is used for descriptors transfer.
 402:common/lib.stm32/STM32_USB-FS-Device_Driver/src/usb_core.c **** *                : This routine is used for the descriptors resident in Flash
 403:common/lib.stm32/STM32_USB-FS-Device_Driver/src/usb_core.c **** *                  or RAM
 404:common/lib.stm32/STM32_USB-FS-Device_Driver/src/usb_core.c **** *                  pDesc can be in either Flash or RAM
 405:common/lib.stm32/STM32_USB-FS-Device_Driver/src/usb_core.c **** *                  The purpose of this routine is to have a versatile way to
 406:common/lib.stm32/STM32_USB-FS-Device_Driver/src/usb_core.c **** *                  response descriptors request. It allows user to generate
 407:common/lib.stm32/STM32_USB-FS-Device_Driver/src/usb_core.c **** *                  certain descriptors with software or read descriptors from
 408:common/lib.stm32/STM32_USB-FS-Device_Driver/src/usb_core.c **** *                  external storage part by part.
 409:common/lib.stm32/STM32_USB-FS-Device_Driver/src/usb_core.c **** * Input          : - Length - Length of the data in this transfer.
 410:common/lib.stm32/STM32_USB-FS-Device_Driver/src/usb_core.c **** *                  - pDesc - A pointer points to descriptor struct.
 411:common/lib.stm32/STM32_USB-FS-Device_Driver/src/usb_core.c **** *                  The structure gives the initial address of the descriptor and
 412:common/lib.stm32/STM32_USB-FS-Device_Driver/src/usb_core.c **** *                  its original size.
 413:common/lib.stm32/STM32_USB-FS-Device_Driver/src/usb_core.c **** * Output         : None.
 414:common/lib.stm32/STM32_USB-FS-Device_Driver/src/usb_core.c **** * Return         : Address of a part of the descriptor pointed by the Usb_
 415:common/lib.stm32/STM32_USB-FS-Device_Driver/src/usb_core.c **** *                  wOffset The buffer pointed by this address contains at least
 416:common/lib.stm32/STM32_USB-FS-Device_Driver/src/usb_core.c **** *                  Length bytes.
 417:common/lib.stm32/STM32_USB-FS-Device_Driver/src/usb_core.c **** *******************************************************************************/
 418:common/lib.stm32/STM32_USB-FS-Device_Driver/src/usb_core.c **** uint8_t *Standard_GetDescriptorData(uint16_t Length, ONE_DESCRIPTOR *pDesc)
 419:common/lib.stm32/STM32_USB-FS-Device_Driver/src/usb_core.c **** {
 1158              		.loc 1 419 1
 1159              		.cfi_startproc
 1160              		@ args = 0, pretend = 0, frame = 16
 1161              		@ frame_needed = 1, uses_anonymous_args = 0
 1162              		@ link register save eliminated.
 1163 0000 80B4     		push	{r7}
 1164              	.LCFI34:
 1165              		.cfi_def_cfa_offset 4
 1166              		.cfi_offset 7, -4
 1167 0002 85B0     		sub	sp, sp, #20
 1168              	.LCFI35:
 1169              		.cfi_def_cfa_offset 24
 1170 0004 00AF     		add	r7, sp, #0
 1171              	.LCFI36:
 1172              		.cfi_def_cfa_register 7
 1173 0006 0346     		mov	r3, r0
 1174 0008 3960     		str	r1, [r7]
 1175 000a FB80     		strh	r3, [r7, #6]	@ movhi
 420:common/lib.stm32/STM32_USB-FS-Device_Driver/src/usb_core.c ****   uint32_t  wOffset;
 421:common/lib.stm32/STM32_USB-FS-Device_Driver/src/usb_core.c **** 
 422:common/lib.stm32/STM32_USB-FS-Device_Driver/src/usb_core.c ****   wOffset = pInformation->Ctrl_Info.Usb_wOffset;
 1176              		.loc 1 422 25
 1177 000c 0D4B     		ldr	r3, .L68
 1178 000e 1B68     		ldr	r3, [r3]
 1179              		.loc 1 422 36
 1180 0010 5B8A     		ldrh	r3, [r3, #18]
 1181              		.loc 1 422 11
 1182 0012 FB60     		str	r3, [r7, #12]
 423:common/lib.stm32/STM32_USB-FS-Device_Driver/src/usb_core.c ****   if (Length == 0)
 1183              		.loc 1 423 6
 1184 0014 FB88     		ldrh	r3, [r7, #6]
 1185 0016 002B     		cmp	r3, #0
 1186 0018 0AD1     		bne	.L66
 424:common/lib.stm32/STM32_USB-FS-Device_Driver/src/usb_core.c ****   {
 425:common/lib.stm32/STM32_USB-FS-Device_Driver/src/usb_core.c ****     pInformation->Ctrl_Info.Usb_wLength = pDesc->Descriptor_Size - wOffset;
 1187              		.loc 1 425 48
 1188 001a 3B68     		ldr	r3, [r7]
 1189 001c 9988     		ldrh	r1, [r3, #4]
 1190              		.loc 1 425 66
 1191 001e FB68     		ldr	r3, [r7, #12]
 1192 0020 9AB2     		uxth	r2, r3
 1193              		.loc 1 425 17
 1194 0022 084B     		ldr	r3, .L68
 1195 0024 1B68     		ldr	r3, [r3]
 1196              		.loc 1 425 66
 1197 0026 8A1A     		subs	r2, r1, r2
 1198 0028 92B2     		uxth	r2, r2
 1199              		.loc 1 425 41
 1200 002a 1A82     		strh	r2, [r3, #16]	@ movhi
 426:common/lib.stm32/STM32_USB-FS-Device_Driver/src/usb_core.c ****     return 0;
 1201              		.loc 1 426 12
 1202 002c 0023     		movs	r3, #0
 1203 002e 03E0     		b	.L67
 1204              	.L66:
 427:common/lib.stm32/STM32_USB-FS-Device_Driver/src/usb_core.c ****   }
 428:common/lib.stm32/STM32_USB-FS-Device_Driver/src/usb_core.c **** 
 429:common/lib.stm32/STM32_USB-FS-Device_Driver/src/usb_core.c ****   return pDesc->Descriptor + wOffset;
 1205              		.loc 1 429 15
 1206 0030 3B68     		ldr	r3, [r7]
 1207 0032 1A68     		ldr	r2, [r3]
 1208              		.loc 1 429 28
 1209 0034 FB68     		ldr	r3, [r7, #12]
 1210 0036 1344     		add	r3, r3, r2
 1211              	.L67:
 430:common/lib.stm32/STM32_USB-FS-Device_Driver/src/usb_core.c **** }
 1212              		.loc 1 430 1
 1213 0038 1846     		mov	r0, r3
 1214 003a 1437     		adds	r7, r7, #20
 1215              	.LCFI37:
 1216              		.cfi_def_cfa_offset 4
 1217 003c BD46     		mov	sp, r7
 1218              	.LCFI38:
 1219              		.cfi_def_cfa_register 13
 1220              		@ sp needed
 1221 003e 80BC     		pop	{r7}
 1222              	.LCFI39:
 1223              		.cfi_restore 7
 1224              		.cfi_def_cfa_offset 0
 1225 0040 7047     		bx	lr
 1226              	.L69:
 1227 0042 00BF     		.align	2
 1228              	.L68:
 1229 0044 00000000 		.word	pInformation
 1230              		.cfi_endproc
 1231              	.LFE35:
 1233              		.section	.text.DataStageOut,"ax",%progbits
 1234              		.align	1
 1235              		.syntax unified
 1236              		.thumb
 1237              		.thumb_func
 1239              	DataStageOut:
 1240              	.LFB36:
 431:common/lib.stm32/STM32_USB-FS-Device_Driver/src/usb_core.c **** 
 432:common/lib.stm32/STM32_USB-FS-Device_Driver/src/usb_core.c **** /*******************************************************************************
 433:common/lib.stm32/STM32_USB-FS-Device_Driver/src/usb_core.c **** * Function Name  : DataStageOut.
 434:common/lib.stm32/STM32_USB-FS-Device_Driver/src/usb_core.c **** * Description    : Data stage of a Control Write Transfer.
 435:common/lib.stm32/STM32_USB-FS-Device_Driver/src/usb_core.c **** * Input          : None.
 436:common/lib.stm32/STM32_USB-FS-Device_Driver/src/usb_core.c **** * Output         : None.
 437:common/lib.stm32/STM32_USB-FS-Device_Driver/src/usb_core.c **** * Return         : None.
 438:common/lib.stm32/STM32_USB-FS-Device_Driver/src/usb_core.c **** *******************************************************************************/
 439:common/lib.stm32/STM32_USB-FS-Device_Driver/src/usb_core.c **** void DataStageOut(void)
 440:common/lib.stm32/STM32_USB-FS-Device_Driver/src/usb_core.c **** {
 1241              		.loc 1 440 1
 1242              		.cfi_startproc
 1243              		@ args = 0, pretend = 0, frame = 16
 1244              		@ frame_needed = 1, uses_anonymous_args = 0
 1245 0000 80B5     		push	{r7, lr}
 1246              	.LCFI40:
 1247              		.cfi_def_cfa_offset 8
 1248              		.cfi_offset 7, -8
 1249              		.cfi_offset 14, -4
 1250 0002 84B0     		sub	sp, sp, #16
 1251              	.LCFI41:
 1252              		.cfi_def_cfa_offset 24
 1253 0004 00AF     		add	r7, sp, #0
 1254              	.LCFI42:
 1255              		.cfi_def_cfa_register 7
 441:common/lib.stm32/STM32_USB-FS-Device_Driver/src/usb_core.c ****   ENDPOINT_INFO *pEPinfo = &pInformation->Ctrl_Info;
 1256              		.loc 1 441 41
 1257 0006 3A4B     		ldr	r3, .L78
 1258 0008 1B68     		ldr	r3, [r3]
 1259              		.loc 1 441 18
 1260 000a 1033     		adds	r3, r3, #16
 1261 000c BB60     		str	r3, [r7, #8]
 442:common/lib.stm32/STM32_USB-FS-Device_Driver/src/usb_core.c ****   uint32_t save_rLength;
 443:common/lib.stm32/STM32_USB-FS-Device_Driver/src/usb_core.c **** 
 444:common/lib.stm32/STM32_USB-FS-Device_Driver/src/usb_core.c ****   save_rLength = pEPinfo->Usb_rLength;
 1262              		.loc 1 444 25
 1263 000e BB68     		ldr	r3, [r7, #8]
 1264 0010 1B88     		ldrh	r3, [r3]
 1265              		.loc 1 444 16
 1266 0012 7B60     		str	r3, [r7, #4]
 445:common/lib.stm32/STM32_USB-FS-Device_Driver/src/usb_core.c **** 
 446:common/lib.stm32/STM32_USB-FS-Device_Driver/src/usb_core.c ****   if (pEPinfo->CopyData && save_rLength)
 1267              		.loc 1 446 14
 1268 0014 BB68     		ldr	r3, [r7, #8]
 1269 0016 9B68     		ldr	r3, [r3, #8]
 1270              		.loc 1 446 6
 1271 0018 002B     		cmp	r3, #0
 1272 001a 2DD0     		beq	.L71
 1273              		.loc 1 446 25 discriminator 1
 1274 001c 7B68     		ldr	r3, [r7, #4]
 1275 001e 002B     		cmp	r3, #0
 1276 0020 2AD0     		beq	.L71
 1277              	.LBB9:
 447:common/lib.stm32/STM32_USB-FS-Device_Driver/src/usb_core.c ****   {
 448:common/lib.stm32/STM32_USB-FS-Device_Driver/src/usb_core.c ****     uint8_t *Buffer;
 449:common/lib.stm32/STM32_USB-FS-Device_Driver/src/usb_core.c ****     uint32_t Length;
 450:common/lib.stm32/STM32_USB-FS-Device_Driver/src/usb_core.c **** 
 451:common/lib.stm32/STM32_USB-FS-Device_Driver/src/usb_core.c ****     Length = pEPinfo->PacketSize;
 1278              		.loc 1 451 21
 1279 0022 BB68     		ldr	r3, [r7, #8]
 1280 0024 9B88     		ldrh	r3, [r3, #4]
 1281              		.loc 1 451 12
 1282 0026 FB60     		str	r3, [r7, #12]
 452:common/lib.stm32/STM32_USB-FS-Device_Driver/src/usb_core.c ****     if (Length > save_rLength)
 1283              		.loc 1 452 8
 1284 0028 FA68     		ldr	r2, [r7, #12]
 1285 002a 7B68     		ldr	r3, [r7, #4]
 1286 002c 9A42     		cmp	r2, r3
 1287 002e 01D9     		bls	.L72
 453:common/lib.stm32/STM32_USB-FS-Device_Driver/src/usb_core.c ****     {
 454:common/lib.stm32/STM32_USB-FS-Device_Driver/src/usb_core.c ****       Length = save_rLength;
 1288              		.loc 1 454 14
 1289 0030 7B68     		ldr	r3, [r7, #4]
 1290 0032 FB60     		str	r3, [r7, #12]
 1291              	.L72:
 455:common/lib.stm32/STM32_USB-FS-Device_Driver/src/usb_core.c ****     }
 456:common/lib.stm32/STM32_USB-FS-Device_Driver/src/usb_core.c **** 
 457:common/lib.stm32/STM32_USB-FS-Device_Driver/src/usb_core.c ****     Buffer = (*pEPinfo->CopyData)(Length);
 1292              		.loc 1 457 15
 1293 0034 BB68     		ldr	r3, [r7, #8]
 1294 0036 9B68     		ldr	r3, [r3, #8]
 1295 0038 FA68     		ldr	r2, [r7, #12]
 1296 003a 92B2     		uxth	r2, r2
 1297 003c 1046     		mov	r0, r2
 1298 003e 9847     		blx	r3
 1299              	.LVL13:
 1300 0040 3860     		str	r0, [r7]
 458:common/lib.stm32/STM32_USB-FS-Device_Driver/src/usb_core.c ****     pEPinfo->Usb_rLength -= Length;
 1301              		.loc 1 458 26
 1302 0042 BB68     		ldr	r3, [r7, #8]
 1303 0044 1A88     		ldrh	r2, [r3]
 1304 0046 FB68     		ldr	r3, [r7, #12]
 1305 0048 9BB2     		uxth	r3, r3
 1306 004a D31A     		subs	r3, r2, r3
 1307 004c 9AB2     		uxth	r2, r3
 1308 004e BB68     		ldr	r3, [r7, #8]
 1309 0050 1A80     		strh	r2, [r3]	@ movhi
 459:common/lib.stm32/STM32_USB-FS-Device_Driver/src/usb_core.c ****     pEPinfo->Usb_rOffset += Length;
 1310              		.loc 1 459 26
 1311 0052 BB68     		ldr	r3, [r7, #8]
 1312 0054 5A88     		ldrh	r2, [r3, #2]
 1313 0056 FB68     		ldr	r3, [r7, #12]
 1314 0058 9BB2     		uxth	r3, r3
 1315 005a 1344     		add	r3, r3, r2
 1316 005c 9AB2     		uxth	r2, r3
 1317 005e BB68     		ldr	r3, [r7, #8]
 1318 0060 5A80     		strh	r2, [r3, #2]	@ movhi
 460:common/lib.stm32/STM32_USB-FS-Device_Driver/src/usb_core.c **** 
 461:common/lib.stm32/STM32_USB-FS-Device_Driver/src/usb_core.c ****   #ifdef STM32F10X_CL  
 462:common/lib.stm32/STM32_USB-FS-Device_Driver/src/usb_core.c ****     PCD_EP_Read(ENDP0, Buffer, Length); 
 463:common/lib.stm32/STM32_USB-FS-Device_Driver/src/usb_core.c ****   #else  
 464:common/lib.stm32/STM32_USB-FS-Device_Driver/src/usb_core.c ****     PMAToUserBufferCopy(Buffer, GetEPRxAddr(ENDP0), Length);
 1319              		.loc 1 464 5
 1320 0062 0020     		movs	r0, #0
 1321 0064 234B     		ldr	r3, .L78+4
 1322 0066 9847     		blx	r3
 1323              	.LVL14:
 1324 0068 0346     		mov	r3, r0
 1325 006a 1946     		mov	r1, r3
 1326 006c FB68     		ldr	r3, [r7, #12]
 1327 006e 9BB2     		uxth	r3, r3
 1328 0070 1A46     		mov	r2, r3
 1329 0072 3868     		ldr	r0, [r7]
 1330 0074 204B     		ldr	r3, .L78+8
 1331 0076 9847     		blx	r3
 1332              	.LVL15:
 1333              	.L71:
 1334              	.LBE9:
 465:common/lib.stm32/STM32_USB-FS-Device_Driver/src/usb_core.c ****   #endif  /* STM32F10X_CL */
 466:common/lib.stm32/STM32_USB-FS-Device_Driver/src/usb_core.c ****   }
 467:common/lib.stm32/STM32_USB-FS-Device_Driver/src/usb_core.c **** 
 468:common/lib.stm32/STM32_USB-FS-Device_Driver/src/usb_core.c ****   if (pEPinfo->Usb_rLength != 0)
 1335              		.loc 1 468 14
 1336 0078 BB68     		ldr	r3, [r7, #8]
 1337 007a 1B88     		ldrh	r3, [r3]
 1338              		.loc 1 468 6
 1339 007c 002B     		cmp	r3, #0
 1340 007e 0AD0     		beq	.L73
 469:common/lib.stm32/STM32_USB-FS-Device_Driver/src/usb_core.c ****   {
 470:common/lib.stm32/STM32_USB-FS-Device_Driver/src/usb_core.c ****     vSetEPRxStatus(EP_RX_VALID);/* re-enable for next data reception */
 1341              		.loc 1 470 5
 1342 0080 1E4B     		ldr	r3, .L78+12
 1343 0082 4FF44052 		mov	r2, #12288
 1344 0086 1A80     		strh	r2, [r3]	@ movhi
 471:common/lib.stm32/STM32_USB-FS-Device_Driver/src/usb_core.c ****     SetEPTxCount(ENDP0, 0);
 1345              		.loc 1 471 5
 1346 0088 0021     		movs	r1, #0
 1347 008a 0020     		movs	r0, #0
 1348 008c 1C4B     		ldr	r3, .L78+16
 1349 008e 9847     		blx	r3
 1350              	.LVL16:
 472:common/lib.stm32/STM32_USB-FS-Device_Driver/src/usb_core.c ****     vSetEPTxStatus(EP_TX_VALID);/* Expect the host to abort the data OUT stage */
 1351              		.loc 1 472 5
 1352 0090 1C4B     		ldr	r3, .L78+20
 1353 0092 3022     		movs	r2, #48
 1354 0094 1A80     		strh	r2, [r3]	@ movhi
 1355              	.L73:
 473:common/lib.stm32/STM32_USB-FS-Device_Driver/src/usb_core.c ****   }
 474:common/lib.stm32/STM32_USB-FS-Device_Driver/src/usb_core.c ****   /* Set the next State*/
 475:common/lib.stm32/STM32_USB-FS-Device_Driver/src/usb_core.c ****   if (pEPinfo->Usb_rLength >= pEPinfo->PacketSize)
 1356              		.loc 1 475 14
 1357 0096 BB68     		ldr	r3, [r7, #8]
 1358 0098 1A88     		ldrh	r2, [r3]
 1359              		.loc 1 475 38
 1360 009a BB68     		ldr	r3, [r7, #8]
 1361 009c 9B88     		ldrh	r3, [r3, #4]
 1362              		.loc 1 475 6
 1363 009e 9A42     		cmp	r2, r3
 1364 00a0 04D3     		bcc	.L74
 476:common/lib.stm32/STM32_USB-FS-Device_Driver/src/usb_core.c ****   {
 477:common/lib.stm32/STM32_USB-FS-Device_Driver/src/usb_core.c ****     pInformation->ControlState = OUT_DATA;
 1365              		.loc 1 477 17
 1366 00a2 134B     		ldr	r3, .L78
 1367 00a4 1B68     		ldr	r3, [r3]
 1368              		.loc 1 477 32
 1369 00a6 0322     		movs	r2, #3
 1370 00a8 1A72     		strb	r2, [r3, #8]
 478:common/lib.stm32/STM32_USB-FS-Device_Driver/src/usb_core.c ****   }
 479:common/lib.stm32/STM32_USB-FS-Device_Driver/src/usb_core.c ****   else
 480:common/lib.stm32/STM32_USB-FS-Device_Driver/src/usb_core.c ****   {
 481:common/lib.stm32/STM32_USB-FS-Device_Driver/src/usb_core.c ****     if (pEPinfo->Usb_rLength > 0)
 482:common/lib.stm32/STM32_USB-FS-Device_Driver/src/usb_core.c ****     {
 483:common/lib.stm32/STM32_USB-FS-Device_Driver/src/usb_core.c ****       pInformation->ControlState = LAST_OUT_DATA;
 484:common/lib.stm32/STM32_USB-FS-Device_Driver/src/usb_core.c ****     }
 485:common/lib.stm32/STM32_USB-FS-Device_Driver/src/usb_core.c ****     else if (pEPinfo->Usb_rLength == 0)
 486:common/lib.stm32/STM32_USB-FS-Device_Driver/src/usb_core.c ****     {
 487:common/lib.stm32/STM32_USB-FS-Device_Driver/src/usb_core.c ****       pInformation->ControlState = WAIT_STATUS_IN;
 488:common/lib.stm32/STM32_USB-FS-Device_Driver/src/usb_core.c ****       USB_StatusIn();
 489:common/lib.stm32/STM32_USB-FS-Device_Driver/src/usb_core.c ****     }
 490:common/lib.stm32/STM32_USB-FS-Device_Driver/src/usb_core.c ****   }
 491:common/lib.stm32/STM32_USB-FS-Device_Driver/src/usb_core.c **** }
 1371              		.loc 1 491 1
 1372 00aa 1DE0     		b	.L77
 1373              	.L74:
 481:common/lib.stm32/STM32_USB-FS-Device_Driver/src/usb_core.c ****     {
 1374              		.loc 1 481 16
 1375 00ac BB68     		ldr	r3, [r7, #8]
 1376 00ae 1B88     		ldrh	r3, [r3]
 481:common/lib.stm32/STM32_USB-FS-Device_Driver/src/usb_core.c ****     {
 1377              		.loc 1 481 8
 1378 00b0 002B     		cmp	r3, #0
 1379 00b2 04D0     		beq	.L76
 483:common/lib.stm32/STM32_USB-FS-Device_Driver/src/usb_core.c ****     }
 1380              		.loc 1 483 19
 1381 00b4 0E4B     		ldr	r3, .L78
 1382 00b6 1B68     		ldr	r3, [r3]
 483:common/lib.stm32/STM32_USB-FS-Device_Driver/src/usb_core.c ****     }
 1383              		.loc 1 483 34
 1384 00b8 0522     		movs	r2, #5
 1385 00ba 1A72     		strb	r2, [r3, #8]
 1386              		.loc 1 491 1
 1387 00bc 14E0     		b	.L77
 1388              	.L76:
 485:common/lib.stm32/STM32_USB-FS-Device_Driver/src/usb_core.c ****     {
 1389              		.loc 1 485 21
 1390 00be BB68     		ldr	r3, [r7, #8]
 1391 00c0 1B88     		ldrh	r3, [r3]
 485:common/lib.stm32/STM32_USB-FS-Device_Driver/src/usb_core.c ****     {
 1392              		.loc 1 485 13
 1393 00c2 002B     		cmp	r3, #0
 1394 00c4 10D1     		bne	.L77
 487:common/lib.stm32/STM32_USB-FS-Device_Driver/src/usb_core.c ****       USB_StatusIn();
 1395              		.loc 1 487 19
 1396 00c6 0A4B     		ldr	r3, .L78
 1397 00c8 1B68     		ldr	r3, [r3]
 487:common/lib.stm32/STM32_USB-FS-Device_Driver/src/usb_core.c ****       USB_StatusIn();
 1398              		.loc 1 487 34
 1399 00ca 0622     		movs	r2, #6
 1400 00cc 1A72     		strb	r2, [r3, #8]
 488:common/lib.stm32/STM32_USB-FS-Device_Driver/src/usb_core.c ****     }
 1401              		.loc 1 488 7
 1402 00ce 0E4B     		ldr	r3, .L78+24
 1403 00d0 1B68     		ldr	r3, [r3]
 1404 00d2 9BB2     		uxth	r3, r3
 1405 00d4 1A46     		mov	r2, r3
 1406 00d6 0D4B     		ldr	r3, .L78+28
 1407 00d8 1344     		add	r3, r3, r2
 1408 00da 5B00     		lsls	r3, r3, #1
 1409 00dc 1A46     		mov	r2, r3
 1410 00de 0023     		movs	r3, #0
 1411 00e0 1360     		str	r3, [r2]
 1412 00e2 084B     		ldr	r3, .L78+20
 1413 00e4 3022     		movs	r2, #48
 1414 00e6 1A80     		strh	r2, [r3]	@ movhi
 1415              	.L77:
 1416              		.loc 1 491 1
 1417 00e8 00BF     		nop
 1418 00ea 1037     		adds	r7, r7, #16
 1419              	.LCFI43:
 1420              		.cfi_def_cfa_offset 8
 1421 00ec BD46     		mov	sp, r7
 1422              	.LCFI44:
 1423              		.cfi_def_cfa_register 13
 1424              		@ sp needed
 1425 00ee 80BD     		pop	{r7, pc}
 1426              	.L79:
 1427              		.align	2
 1428              	.L78:
 1429 00f0 00000000 		.word	pInformation
 1430 00f4 00000000 		.word	GetEPRxAddr
 1431 00f8 00000000 		.word	PMAToUserBufferCopy
 1432 00fc 00000000 		.word	SaveRState
 1433 0100 00000000 		.word	SetEPTxCount
 1434 0104 00000000 		.word	SaveTState
 1435 0108 505C0040 		.word	1073765456
 1436 010c 02300020 		.word	536883202
 1437              		.cfi_endproc
 1438              	.LFE36:
 1440              		.section	.text.DataStageIn,"ax",%progbits
 1441              		.align	1
 1442              		.syntax unified
 1443              		.thumb
 1444              		.thumb_func
 1446              	DataStageIn:
 1447              	.LFB37:
 492:common/lib.stm32/STM32_USB-FS-Device_Driver/src/usb_core.c **** 
 493:common/lib.stm32/STM32_USB-FS-Device_Driver/src/usb_core.c **** /*******************************************************************************
 494:common/lib.stm32/STM32_USB-FS-Device_Driver/src/usb_core.c **** * Function Name  : DataStageIn.
 495:common/lib.stm32/STM32_USB-FS-Device_Driver/src/usb_core.c **** * Description    : Data stage of a Control Read Transfer.
 496:common/lib.stm32/STM32_USB-FS-Device_Driver/src/usb_core.c **** * Input          : None.
 497:common/lib.stm32/STM32_USB-FS-Device_Driver/src/usb_core.c **** * Output         : None.
 498:common/lib.stm32/STM32_USB-FS-Device_Driver/src/usb_core.c **** * Return         : None.
 499:common/lib.stm32/STM32_USB-FS-Device_Driver/src/usb_core.c **** *******************************************************************************/
 500:common/lib.stm32/STM32_USB-FS-Device_Driver/src/usb_core.c **** void DataStageIn(void)
 501:common/lib.stm32/STM32_USB-FS-Device_Driver/src/usb_core.c **** {
 1448              		.loc 1 501 1
 1449              		.cfi_startproc
 1450              		@ args = 0, pretend = 0, frame = 24
 1451              		@ frame_needed = 1, uses_anonymous_args = 0
 1452 0000 80B5     		push	{r7, lr}
 1453              	.LCFI45:
 1454              		.cfi_def_cfa_offset 8
 1455              		.cfi_offset 7, -8
 1456              		.cfi_offset 14, -4
 1457 0002 86B0     		sub	sp, sp, #24
 1458              	.LCFI46:
 1459              		.cfi_def_cfa_offset 32
 1460 0004 00AF     		add	r7, sp, #0
 1461              	.LCFI47:
 1462              		.cfi_def_cfa_register 7
 502:common/lib.stm32/STM32_USB-FS-Device_Driver/src/usb_core.c ****   ENDPOINT_INFO *pEPinfo = &pInformation->Ctrl_Info;
 1463              		.loc 1 502 41
 1464 0006 3B4B     		ldr	r3, .L88
 1465 0008 1B68     		ldr	r3, [r3]
 1466              		.loc 1 502 18
 1467 000a 1033     		adds	r3, r3, #16
 1468 000c FB60     		str	r3, [r7, #12]
 503:common/lib.stm32/STM32_USB-FS-Device_Driver/src/usb_core.c ****   uint32_t save_wLength = pEPinfo->Usb_wLength;
 1469              		.loc 1 503 34
 1470 000e FB68     		ldr	r3, [r7, #12]
 1471 0010 1B88     		ldrh	r3, [r3]
 1472              		.loc 1 503 12
 1473 0012 BB60     		str	r3, [r7, #8]
 504:common/lib.stm32/STM32_USB-FS-Device_Driver/src/usb_core.c ****   uint32_t ControlState = pInformation->ControlState;
 1474              		.loc 1 504 39
 1475 0014 374B     		ldr	r3, .L88
 1476 0016 1B68     		ldr	r3, [r3]
 1477 0018 1B7A     		ldrb	r3, [r3, #8]	@ zero_extendqisi2
 1478              		.loc 1 504 12
 1479 001a 7B61     		str	r3, [r7, #20]
 505:common/lib.stm32/STM32_USB-FS-Device_Driver/src/usb_core.c **** 
 506:common/lib.stm32/STM32_USB-FS-Device_Driver/src/usb_core.c ****   uint8_t *DataBuffer;
 507:common/lib.stm32/STM32_USB-FS-Device_Driver/src/usb_core.c ****   uint32_t Length;
 508:common/lib.stm32/STM32_USB-FS-Device_Driver/src/usb_core.c **** 
 509:common/lib.stm32/STM32_USB-FS-Device_Driver/src/usb_core.c ****   if ((save_wLength == 0) && (ControlState == LAST_IN_DATA))
 1480              		.loc 1 509 6
 1481 001c BB68     		ldr	r3, [r7, #8]
 1482 001e 002B     		cmp	r3, #0
 1483 0020 1FD1     		bne	.L81
 1484              		.loc 1 509 27 discriminator 1
 1485 0022 7B69     		ldr	r3, [r7, #20]
 1486 0024 042B     		cmp	r3, #4
 1487 0026 1CD1     		bne	.L81
 510:common/lib.stm32/STM32_USB-FS-Device_Driver/src/usb_core.c ****   {
 511:common/lib.stm32/STM32_USB-FS-Device_Driver/src/usb_core.c ****     if(Data_Mul_MaxPacketSize == TRUE)
 1488              		.loc 1 511 31
 1489 0028 334B     		ldr	r3, .L88+4
 1490 002a 1B78     		ldrb	r3, [r3]	@ zero_extendqisi2
 1491              		.loc 1 511 7
 1492 002c 002B     		cmp	r3, #0
 1493 002e 12D0     		beq	.L82
 512:common/lib.stm32/STM32_USB-FS-Device_Driver/src/usb_core.c ****     {
 513:common/lib.stm32/STM32_USB-FS-Device_Driver/src/usb_core.c ****       /* No more data to send and empty packet */
 514:common/lib.stm32/STM32_USB-FS-Device_Driver/src/usb_core.c ****       Send0LengthData();
 1494              		.loc 1 514 7
 1495 0030 324B     		ldr	r3, .L88+8
 1496 0032 1B68     		ldr	r3, [r3]
 1497 0034 9BB2     		uxth	r3, r3
 1498 0036 1A46     		mov	r2, r3
 1499 0038 314B     		ldr	r3, .L88+12
 1500 003a 1344     		add	r3, r3, r2
 1501 003c 5B00     		lsls	r3, r3, #1
 1502 003e 1A46     		mov	r2, r3
 1503 0040 0023     		movs	r3, #0
 1504 0042 1360     		str	r3, [r2]
 1505 0044 2F4B     		ldr	r3, .L88+16
 1506 0046 3022     		movs	r2, #48
 1507 0048 1A80     		strh	r2, [r3]	@ movhi
 515:common/lib.stm32/STM32_USB-FS-Device_Driver/src/usb_core.c ****       ControlState = LAST_IN_DATA;
 1508              		.loc 1 515 20
 1509 004a 0423     		movs	r3, #4
 1510 004c 7B61     		str	r3, [r7, #20]
 516:common/lib.stm32/STM32_USB-FS-Device_Driver/src/usb_core.c ****       Data_Mul_MaxPacketSize = FALSE;
 1511              		.loc 1 516 30
 1512 004e 2A4B     		ldr	r3, .L88+4
 1513 0050 0022     		movs	r2, #0
 1514 0052 1A70     		strb	r2, [r3]
 517:common/lib.stm32/STM32_USB-FS-Device_Driver/src/usb_core.c ****     }
 518:common/lib.stm32/STM32_USB-FS-Device_Driver/src/usb_core.c ****     else 
 519:common/lib.stm32/STM32_USB-FS-Device_Driver/src/usb_core.c ****     {
 520:common/lib.stm32/STM32_USB-FS-Device_Driver/src/usb_core.c ****       /* No more data to send so STALL the TX Status*/
 521:common/lib.stm32/STM32_USB-FS-Device_Driver/src/usb_core.c ****       ControlState = WAIT_STATUS_OUT;
 522:common/lib.stm32/STM32_USB-FS-Device_Driver/src/usb_core.c **** 
 523:common/lib.stm32/STM32_USB-FS-Device_Driver/src/usb_core.c ****     #ifdef STM32F10X_CL      
 524:common/lib.stm32/STM32_USB-FS-Device_Driver/src/usb_core.c ****       PCD_EP_Read (ENDP0, 0, 0);
 525:common/lib.stm32/STM32_USB-FS-Device_Driver/src/usb_core.c ****     #endif  /* STM32F10X_CL */ 
 526:common/lib.stm32/STM32_USB-FS-Device_Driver/src/usb_core.c ****     
 527:common/lib.stm32/STM32_USB-FS-Device_Driver/src/usb_core.c ****     #ifndef STM32F10X_CL 
 528:common/lib.stm32/STM32_USB-FS-Device_Driver/src/usb_core.c ****       vSetEPTxStatus(EP_TX_STALL);
 529:common/lib.stm32/STM32_USB-FS-Device_Driver/src/usb_core.c ****     #endif  /* STM32F10X_CL */ 
 530:common/lib.stm32/STM32_USB-FS-Device_Driver/src/usb_core.c ****     }
 531:common/lib.stm32/STM32_USB-FS-Device_Driver/src/usb_core.c ****     
 532:common/lib.stm32/STM32_USB-FS-Device_Driver/src/usb_core.c ****     goto Expect_Status_Out;
 1515              		.loc 1 532 5
 1516 0054 45E0     		b	.L84
 1517              	.L82:
 521:common/lib.stm32/STM32_USB-FS-Device_Driver/src/usb_core.c **** 
 1518              		.loc 1 521 20
 1519 0056 0723     		movs	r3, #7
 1520 0058 7B61     		str	r3, [r7, #20]
 528:common/lib.stm32/STM32_USB-FS-Device_Driver/src/usb_core.c ****     #endif  /* STM32F10X_CL */ 
 1521              		.loc 1 528 7
 1522 005a 2A4B     		ldr	r3, .L88+16
 1523 005c 1022     		movs	r2, #16
 1524 005e 1A80     		strh	r2, [r3]	@ movhi
 1525              		.loc 1 532 5
 1526 0060 3FE0     		b	.L84
 1527              	.L81:
 533:common/lib.stm32/STM32_USB-FS-Device_Driver/src/usb_core.c ****   }
 534:common/lib.stm32/STM32_USB-FS-Device_Driver/src/usb_core.c **** 
 535:common/lib.stm32/STM32_USB-FS-Device_Driver/src/usb_core.c ****   Length = pEPinfo->PacketSize;
 1528              		.loc 1 535 19
 1529 0062 FB68     		ldr	r3, [r7, #12]
 1530 0064 9B88     		ldrh	r3, [r3, #4]
 1531              		.loc 1 535 10
 1532 0066 3B61     		str	r3, [r7, #16]
 536:common/lib.stm32/STM32_USB-FS-Device_Driver/src/usb_core.c ****   ControlState = (save_wLength <= Length) ? LAST_IN_DATA : IN_DATA;
 1533              		.loc 1 536 58
 1534 0068 BA68     		ldr	r2, [r7, #8]
 1535 006a 3B69     		ldr	r3, [r7, #16]
 1536 006c 9A42     		cmp	r2, r3
 1537 006e 01D8     		bhi	.L85
 1538              		.loc 1 536 58 is_stmt 0 discriminator 1
 1539 0070 0423     		movs	r3, #4
 1540 0072 00E0     		b	.L86
 1541              	.L85:
 1542              		.loc 1 536 58 discriminator 2
 1543 0074 0223     		movs	r3, #2
 1544              	.L86:
 1545              		.loc 1 536 16 is_stmt 1 discriminator 4
 1546 0076 7B61     		str	r3, [r7, #20]
 537:common/lib.stm32/STM32_USB-FS-Device_Driver/src/usb_core.c **** 
 538:common/lib.stm32/STM32_USB-FS-Device_Driver/src/usb_core.c ****   if (Length > save_wLength)
 1547              		.loc 1 538 6 discriminator 4
 1548 0078 3A69     		ldr	r2, [r7, #16]
 1549 007a BB68     		ldr	r3, [r7, #8]
 1550 007c 9A42     		cmp	r2, r3
 1551 007e 01D9     		bls	.L87
 539:common/lib.stm32/STM32_USB-FS-Device_Driver/src/usb_core.c ****   {
 540:common/lib.stm32/STM32_USB-FS-Device_Driver/src/usb_core.c ****     Length = save_wLength;
 1552              		.loc 1 540 12
 1553 0080 BB68     		ldr	r3, [r7, #8]
 1554 0082 3B61     		str	r3, [r7, #16]
 1555              	.L87:
 541:common/lib.stm32/STM32_USB-FS-Device_Driver/src/usb_core.c ****   }
 542:common/lib.stm32/STM32_USB-FS-Device_Driver/src/usb_core.c **** 
 543:common/lib.stm32/STM32_USB-FS-Device_Driver/src/usb_core.c ****   DataBuffer = (*pEPinfo->CopyData)(Length);
 1556              		.loc 1 543 17
 1557 0084 FB68     		ldr	r3, [r7, #12]
 1558 0086 9B68     		ldr	r3, [r3, #8]
 1559 0088 3A69     		ldr	r2, [r7, #16]
 1560 008a 92B2     		uxth	r2, r2
 1561 008c 1046     		mov	r0, r2
 1562 008e 9847     		blx	r3
 1563              	.LVL17:
 1564 0090 7860     		str	r0, [r7, #4]
 544:common/lib.stm32/STM32_USB-FS-Device_Driver/src/usb_core.c **** 
 545:common/lib.stm32/STM32_USB-FS-Device_Driver/src/usb_core.c **** #ifdef STM32F10X_CL
 546:common/lib.stm32/STM32_USB-FS-Device_Driver/src/usb_core.c ****   PCD_EP_Write (ENDP0, DataBuffer, Length);
 547:common/lib.stm32/STM32_USB-FS-Device_Driver/src/usb_core.c **** #else   
 548:common/lib.stm32/STM32_USB-FS-Device_Driver/src/usb_core.c ****   UserToPMABufferCopy(DataBuffer, GetEPTxAddr(ENDP0), Length);
 1565              		.loc 1 548 3
 1566 0092 0020     		movs	r0, #0
 1567 0094 1C4B     		ldr	r3, .L88+20
 1568 0096 9847     		blx	r3
 1569              	.LVL18:
 1570 0098 0346     		mov	r3, r0
 1571 009a 1946     		mov	r1, r3
 1572 009c 3B69     		ldr	r3, [r7, #16]
 1573 009e 9BB2     		uxth	r3, r3
 1574 00a0 1A46     		mov	r2, r3
 1575 00a2 7868     		ldr	r0, [r7, #4]
 1576 00a4 194B     		ldr	r3, .L88+24
 1577 00a6 9847     		blx	r3
 1578              	.LVL19:
 549:common/lib.stm32/STM32_USB-FS-Device_Driver/src/usb_core.c **** #endif /* STM32F10X_CL */ 
 550:common/lib.stm32/STM32_USB-FS-Device_Driver/src/usb_core.c **** 
 551:common/lib.stm32/STM32_USB-FS-Device_Driver/src/usb_core.c ****   SetEPTxCount(ENDP0, Length);
 1579              		.loc 1 551 3
 1580 00a8 3B69     		ldr	r3, [r7, #16]
 1581 00aa 9BB2     		uxth	r3, r3
 1582 00ac 1946     		mov	r1, r3
 1583 00ae 0020     		movs	r0, #0
 1584 00b0 174B     		ldr	r3, .L88+28
 1585 00b2 9847     		blx	r3
 1586              	.LVL20:
 552:common/lib.stm32/STM32_USB-FS-Device_Driver/src/usb_core.c **** 
 553:common/lib.stm32/STM32_USB-FS-Device_Driver/src/usb_core.c ****   pEPinfo->Usb_wLength -= Length;
 1587              		.loc 1 553 24
 1588 00b4 FB68     		ldr	r3, [r7, #12]
 1589 00b6 1A88     		ldrh	r2, [r3]
 1590 00b8 3B69     		ldr	r3, [r7, #16]
 1591 00ba 9BB2     		uxth	r3, r3
 1592 00bc D31A     		subs	r3, r2, r3
 1593 00be 9AB2     		uxth	r2, r3
 1594 00c0 FB68     		ldr	r3, [r7, #12]
 1595 00c2 1A80     		strh	r2, [r3]	@ movhi
 554:common/lib.stm32/STM32_USB-FS-Device_Driver/src/usb_core.c ****   pEPinfo->Usb_wOffset += Length;
 1596              		.loc 1 554 24
 1597 00c4 FB68     		ldr	r3, [r7, #12]
 1598 00c6 5A88     		ldrh	r2, [r3, #2]
 1599 00c8 3B69     		ldr	r3, [r7, #16]
 1600 00ca 9BB2     		uxth	r3, r3
 1601 00cc 1344     		add	r3, r3, r2
 1602 00ce 9AB2     		uxth	r2, r3
 1603 00d0 FB68     		ldr	r3, [r7, #12]
 1604 00d2 5A80     		strh	r2, [r3, #2]	@ movhi
 555:common/lib.stm32/STM32_USB-FS-Device_Driver/src/usb_core.c ****   vSetEPTxStatus(EP_TX_VALID);
 1605              		.loc 1 555 3
 1606 00d4 0B4B     		ldr	r3, .L88+16
 1607 00d6 3022     		movs	r2, #48
 1608 00d8 1A80     		strh	r2, [r3]	@ movhi
 556:common/lib.stm32/STM32_USB-FS-Device_Driver/src/usb_core.c **** 
 557:common/lib.stm32/STM32_USB-FS-Device_Driver/src/usb_core.c ****   USB_StatusOut();/* Expect the host to abort the data IN stage */
 1609              		.loc 1 557 3
 1610 00da 0E4B     		ldr	r3, .L88+32
 1611 00dc 4FF44052 		mov	r2, #12288
 1612 00e0 1A80     		strh	r2, [r3]	@ movhi
 1613              	.L84:
 558:common/lib.stm32/STM32_USB-FS-Device_Driver/src/usb_core.c **** 
 559:common/lib.stm32/STM32_USB-FS-Device_Driver/src/usb_core.c **** Expect_Status_Out:
 560:common/lib.stm32/STM32_USB-FS-Device_Driver/src/usb_core.c ****   pInformation->ControlState = ControlState;
 1614              		.loc 1 560 15
 1615 00e2 044B     		ldr	r3, .L88
 1616 00e4 1B68     		ldr	r3, [r3]
 1617              		.loc 1 560 30
 1618 00e6 7A69     		ldr	r2, [r7, #20]
 1619 00e8 D2B2     		uxtb	r2, r2
 1620 00ea 1A72     		strb	r2, [r3, #8]
 561:common/lib.stm32/STM32_USB-FS-Device_Driver/src/usb_core.c **** }
 1621              		.loc 1 561 1
 1622 00ec 00BF     		nop
 1623 00ee 1837     		adds	r7, r7, #24
 1624              	.LCFI48:
 1625              		.cfi_def_cfa_offset 8
 1626 00f0 BD46     		mov	sp, r7
 1627              	.LCFI49:
 1628              		.cfi_def_cfa_register 13
 1629              		@ sp needed
 1630 00f2 80BD     		pop	{r7, pc}
 1631              	.L89:
 1632              		.align	2
 1633              	.L88:
 1634 00f4 00000000 		.word	pInformation
 1635 00f8 00000000 		.word	Data_Mul_MaxPacketSize
 1636 00fc 505C0040 		.word	1073765456
 1637 0100 02300020 		.word	536883202
 1638 0104 00000000 		.word	SaveTState
 1639 0108 00000000 		.word	GetEPTxAddr
 1640 010c 00000000 		.word	UserToPMABufferCopy
 1641 0110 00000000 		.word	SetEPTxCount
 1642 0114 00000000 		.word	SaveRState
 1643              		.cfi_endproc
 1644              	.LFE37:
 1646              		.section	.text.NoData_Setup0,"ax",%progbits
 1647              		.align	1
 1648              		.syntax unified
 1649              		.thumb
 1650              		.thumb_func
 1652              	NoData_Setup0:
 1653              	.LFB38:
 562:common/lib.stm32/STM32_USB-FS-Device_Driver/src/usb_core.c **** 
 563:common/lib.stm32/STM32_USB-FS-Device_Driver/src/usb_core.c **** /*******************************************************************************
 564:common/lib.stm32/STM32_USB-FS-Device_Driver/src/usb_core.c **** * Function Name  : NoData_Setup0.
 565:common/lib.stm32/STM32_USB-FS-Device_Driver/src/usb_core.c **** * Description    : Proceed the processing of setup request without data stage.
 566:common/lib.stm32/STM32_USB-FS-Device_Driver/src/usb_core.c **** * Input          : None.
 567:common/lib.stm32/STM32_USB-FS-Device_Driver/src/usb_core.c **** * Output         : None.
 568:common/lib.stm32/STM32_USB-FS-Device_Driver/src/usb_core.c **** * Return         : None.
 569:common/lib.stm32/STM32_USB-FS-Device_Driver/src/usb_core.c **** *******************************************************************************/
 570:common/lib.stm32/STM32_USB-FS-Device_Driver/src/usb_core.c **** void NoData_Setup0(void)
 571:common/lib.stm32/STM32_USB-FS-Device_Driver/src/usb_core.c **** {
 1654              		.loc 1 571 1
 1655              		.cfi_startproc
 1656              		@ args = 0, pretend = 0, frame = 16
 1657              		@ frame_needed = 1, uses_anonymous_args = 0
 1658 0000 80B5     		push	{r7, lr}
 1659              	.LCFI50:
 1660              		.cfi_def_cfa_offset 8
 1661              		.cfi_offset 7, -8
 1662              		.cfi_offset 14, -4
 1663 0002 84B0     		sub	sp, sp, #16
 1664              	.LCFI51:
 1665              		.cfi_def_cfa_offset 24
 1666 0004 00AF     		add	r7, sp, #0
 1667              	.LCFI52:
 1668              		.cfi_def_cfa_register 7
 572:common/lib.stm32/STM32_USB-FS-Device_Driver/src/usb_core.c ****   RESULT Result = USB_UNSUPPORT;
 1669              		.loc 1 572 10
 1670 0006 0223     		movs	r3, #2
 1671 0008 FB73     		strb	r3, [r7, #15]
 573:common/lib.stm32/STM32_USB-FS-Device_Driver/src/usb_core.c ****   uint32_t RequestNo = pInformation->USBbRequest;
 1672              		.loc 1 573 36
 1673 000a 604B     		ldr	r3, .L109
 1674 000c 1B68     		ldr	r3, [r3]
 1675 000e 5B78     		ldrb	r3, [r3, #1]	@ zero_extendqisi2
 1676              		.loc 1 573 12
 1677 0010 7B60     		str	r3, [r7, #4]
 574:common/lib.stm32/STM32_USB-FS-Device_Driver/src/usb_core.c ****   uint32_t ControlState;
 575:common/lib.stm32/STM32_USB-FS-Device_Driver/src/usb_core.c **** 
 576:common/lib.stm32/STM32_USB-FS-Device_Driver/src/usb_core.c ****   if (Type_Recipient == (STANDARD_REQUEST | DEVICE_RECIPIENT))
 1678              		.loc 1 576 7
 1679 0012 5E4B     		ldr	r3, .L109
 1680 0014 1B68     		ldr	r3, [r3]
 1681 0016 1B78     		ldrb	r3, [r3]	@ zero_extendqisi2
 1682 0018 03F07F03 		and	r3, r3, #127
 1683              		.loc 1 576 6
 1684 001c 002B     		cmp	r3, #0
 1685 001e 5DD1     		bne	.L91
 577:common/lib.stm32/STM32_USB-FS-Device_Driver/src/usb_core.c ****   {
 578:common/lib.stm32/STM32_USB-FS-Device_Driver/src/usb_core.c ****     /* Device Request*/
 579:common/lib.stm32/STM32_USB-FS-Device_Driver/src/usb_core.c ****     /* SET_CONFIGURATION*/
 580:common/lib.stm32/STM32_USB-FS-Device_Driver/src/usb_core.c ****     if (RequestNo == SET_CONFIGURATION)
 1686              		.loc 1 580 8
 1687 0020 7B68     		ldr	r3, [r7, #4]
 1688 0022 092B     		cmp	r3, #9
 1689 0024 04D1     		bne	.L92
 581:common/lib.stm32/STM32_USB-FS-Device_Driver/src/usb_core.c ****     {
 582:common/lib.stm32/STM32_USB-FS-Device_Driver/src/usb_core.c ****       Result = Standard_SetConfiguration();
 1690              		.loc 1 582 16
 1691 0026 5A4B     		ldr	r3, .L109+4
 1692 0028 9847     		blx	r3
 1693              	.LVL21:
 1694 002a 0346     		mov	r3, r0
 1695 002c FB73     		strb	r3, [r7, #15]
 1696 002e 7DE0     		b	.L102
 1697              	.L92:
 583:common/lib.stm32/STM32_USB-FS-Device_Driver/src/usb_core.c ****     }
 584:common/lib.stm32/STM32_USB-FS-Device_Driver/src/usb_core.c **** 
 585:common/lib.stm32/STM32_USB-FS-Device_Driver/src/usb_core.c ****     /*SET ADDRESS*/
 586:common/lib.stm32/STM32_USB-FS-Device_Driver/src/usb_core.c ****     else if (RequestNo == SET_ADDRESS)
 1698              		.loc 1 586 13
 1699 0030 7B68     		ldr	r3, [r7, #4]
 1700 0032 052B     		cmp	r3, #5
 1701 0034 1AD1     		bne	.L94
 587:common/lib.stm32/STM32_USB-FS-Device_Driver/src/usb_core.c ****     {
 588:common/lib.stm32/STM32_USB-FS-Device_Driver/src/usb_core.c ****       if ((pInformation->USBwValue0 > 127) || (pInformation->USBwValue1 != 0)
 1702              		.loc 1 588 24
 1703 0036 554B     		ldr	r3, .L109
 1704 0038 1B68     		ldr	r3, [r3]
 1705              		.loc 1 588 26
 1706 003a DB78     		ldrb	r3, [r3, #3]	@ zero_extendqisi2
 1707              		.loc 1 588 37
 1708 003c 5BB2     		sxtb	r3, r3
 1709              		.loc 1 588 10
 1710 003e 002B     		cmp	r3, #0
 1711 0040 0EDB     		blt	.L95
 1712              		.loc 1 588 60 discriminator 1
 1713 0042 524B     		ldr	r3, .L109
 1714 0044 1B68     		ldr	r3, [r3]
 1715              		.loc 1 588 62 discriminator 1
 1716 0046 9B78     		ldrb	r3, [r3, #2]	@ zero_extendqisi2
 1717              		.loc 1 588 44 discriminator 1
 1718 0048 002B     		cmp	r3, #0
 1719 004a 09D1     		bne	.L95
 589:common/lib.stm32/STM32_USB-FS-Device_Driver/src/usb_core.c ****           || (pInformation->USBwIndex != 0)
 1720              		.loc 1 589 27
 1721 004c 4F4B     		ldr	r3, .L109
 1722 004e 1B68     		ldr	r3, [r3]
 1723              		.loc 1 589 29
 1724 0050 9B88     		ldrh	r3, [r3, #4]
 1725              		.loc 1 589 11
 1726 0052 002B     		cmp	r3, #0
 1727 0054 04D1     		bne	.L95
 590:common/lib.stm32/STM32_USB-FS-Device_Driver/src/usb_core.c ****           || (pInformation->Current_Configuration != 0))
 1728              		.loc 1 590 27
 1729 0056 4D4B     		ldr	r3, .L109
 1730 0058 1B68     		ldr	r3, [r3]
 1731 005a 9B7A     		ldrb	r3, [r3, #10]	@ zero_extendqisi2
 1732              		.loc 1 590 11
 1733 005c 002B     		cmp	r3, #0
 1734 005e 02D0     		beq	.L96
 1735              	.L95:
 591:common/lib.stm32/STM32_USB-FS-Device_Driver/src/usb_core.c ****         /* Device Address should be 127 or less*/
 592:common/lib.stm32/STM32_USB-FS-Device_Driver/src/usb_core.c ****       {
 593:common/lib.stm32/STM32_USB-FS-Device_Driver/src/usb_core.c ****         ControlState = STALLED;
 1736              		.loc 1 593 22
 1737 0060 0823     		movs	r3, #8
 1738 0062 BB60     		str	r3, [r7, #8]
 594:common/lib.stm32/STM32_USB-FS-Device_Driver/src/usb_core.c ****         goto exit_NoData_Setup0;
 1739              		.loc 1 594 9
 1740 0064 89E0     		b	.L97
 1741              	.L96:
 595:common/lib.stm32/STM32_USB-FS-Device_Driver/src/usb_core.c ****       }
 596:common/lib.stm32/STM32_USB-FS-Device_Driver/src/usb_core.c ****       else
 597:common/lib.stm32/STM32_USB-FS-Device_Driver/src/usb_core.c ****       {
 598:common/lib.stm32/STM32_USB-FS-Device_Driver/src/usb_core.c ****         Result = USB_SUCCESS;
 1742              		.loc 1 598 16
 1743 0066 0023     		movs	r3, #0
 1744 0068 FB73     		strb	r3, [r7, #15]
 1745 006a 5FE0     		b	.L102
 1746              	.L94:
 599:common/lib.stm32/STM32_USB-FS-Device_Driver/src/usb_core.c **** 
 600:common/lib.stm32/STM32_USB-FS-Device_Driver/src/usb_core.c ****       #ifdef STM32F10X_CL
 601:common/lib.stm32/STM32_USB-FS-Device_Driver/src/usb_core.c ****          SetDeviceAddress(pInformation->USBwValue0);
 602:common/lib.stm32/STM32_USB-FS-Device_Driver/src/usb_core.c ****       #endif  /* STM32F10X_CL */
 603:common/lib.stm32/STM32_USB-FS-Device_Driver/src/usb_core.c ****       }
 604:common/lib.stm32/STM32_USB-FS-Device_Driver/src/usb_core.c ****     }
 605:common/lib.stm32/STM32_USB-FS-Device_Driver/src/usb_core.c ****     /*SET FEATURE for Device*/
 606:common/lib.stm32/STM32_USB-FS-Device_Driver/src/usb_core.c ****     else if (RequestNo == SET_FEATURE)
 1747              		.loc 1 606 13
 1748 006c 7B68     		ldr	r3, [r7, #4]
 1749 006e 032B     		cmp	r3, #3
 1750 0070 18D1     		bne	.L98
 607:common/lib.stm32/STM32_USB-FS-Device_Driver/src/usb_core.c ****     {
 608:common/lib.stm32/STM32_USB-FS-Device_Driver/src/usb_core.c ****       if ((pInformation->USBwValue0 == DEVICE_REMOTE_WAKEUP)
 1751              		.loc 1 608 24
 1752 0072 464B     		ldr	r3, .L109
 1753 0074 1B68     		ldr	r3, [r3]
 1754              		.loc 1 608 26
 1755 0076 DB78     		ldrb	r3, [r3, #3]	@ zero_extendqisi2
 1756              		.loc 1 608 10
 1757 0078 012B     		cmp	r3, #1
 1758 007a 10D1     		bne	.L99
 609:common/lib.stm32/STM32_USB-FS-Device_Driver/src/usb_core.c ****           && (pInformation->USBwIndex == 0)
 1759              		.loc 1 609 27
 1760 007c 434B     		ldr	r3, .L109
 1761 007e 1B68     		ldr	r3, [r3]
 1762              		.loc 1 609 29
 1763 0080 9B88     		ldrh	r3, [r3, #4]
 1764              		.loc 1 609 11
 1765 0082 002B     		cmp	r3, #0
 1766 0084 0BD1     		bne	.L99
 610:common/lib.stm32/STM32_USB-FS-Device_Driver/src/usb_core.c ****           && (ValBit(pInformation->Current_Feature, 5)))
 1767              		.loc 1 610 15
 1768 0086 414B     		ldr	r3, .L109
 1769 0088 1B68     		ldr	r3, [r3]
 1770 008a 5B7A     		ldrb	r3, [r3, #9]	@ zero_extendqisi2
 1771 008c 03F02003 		and	r3, r3, #32
 1772              		.loc 1 610 11
 1773 0090 002B     		cmp	r3, #0
 1774 0092 04D0     		beq	.L99
 611:common/lib.stm32/STM32_USB-FS-Device_Driver/src/usb_core.c ****       {
 612:common/lib.stm32/STM32_USB-FS-Device_Driver/src/usb_core.c ****         Result = Standard_SetDeviceFeature();
 1775              		.loc 1 612 18
 1776 0094 3F4B     		ldr	r3, .L109+8
 1777 0096 9847     		blx	r3
 1778              	.LVL22:
 1779 0098 0346     		mov	r3, r0
 1780 009a FB73     		strb	r3, [r7, #15]
 1781              		.loc 1 612 16
 1782 009c 46E0     		b	.L102
 1783              	.L99:
 613:common/lib.stm32/STM32_USB-FS-Device_Driver/src/usb_core.c ****       }
 614:common/lib.stm32/STM32_USB-FS-Device_Driver/src/usb_core.c ****       else
 615:common/lib.stm32/STM32_USB-FS-Device_Driver/src/usb_core.c ****       {
 616:common/lib.stm32/STM32_USB-FS-Device_Driver/src/usb_core.c ****         Result = USB_UNSUPPORT;
 1784              		.loc 1 616 16
 1785 009e 0223     		movs	r3, #2
 1786 00a0 FB73     		strb	r3, [r7, #15]
 1787 00a2 43E0     		b	.L102
 1788              	.L98:
 617:common/lib.stm32/STM32_USB-FS-Device_Driver/src/usb_core.c ****       }
 618:common/lib.stm32/STM32_USB-FS-Device_Driver/src/usb_core.c ****     }
 619:common/lib.stm32/STM32_USB-FS-Device_Driver/src/usb_core.c ****     /*Clear FEATURE for Device */
 620:common/lib.stm32/STM32_USB-FS-Device_Driver/src/usb_core.c ****     else if (RequestNo == CLEAR_FEATURE)
 1789              		.loc 1 620 13
 1790 00a4 7B68     		ldr	r3, [r7, #4]
 1791 00a6 012B     		cmp	r3, #1
 1792 00a8 40D1     		bne	.L102
 621:common/lib.stm32/STM32_USB-FS-Device_Driver/src/usb_core.c ****     {
 622:common/lib.stm32/STM32_USB-FS-Device_Driver/src/usb_core.c ****       if (pInformation->USBwValue0 == DEVICE_REMOTE_WAKEUP
 1793              		.loc 1 622 23
 1794 00aa 384B     		ldr	r3, .L109
 1795 00ac 1B68     		ldr	r3, [r3]
 1796              		.loc 1 622 25
 1797 00ae DB78     		ldrb	r3, [r3, #3]	@ zero_extendqisi2
 1798              		.loc 1 622 10
 1799 00b0 012B     		cmp	r3, #1
 1800 00b2 10D1     		bne	.L101
 623:common/lib.stm32/STM32_USB-FS-Device_Driver/src/usb_core.c ****           && pInformation->USBwIndex == 0
 1801              		.loc 1 623 26
 1802 00b4 354B     		ldr	r3, .L109
 1803 00b6 1B68     		ldr	r3, [r3]
 1804              		.loc 1 623 28
 1805 00b8 9B88     		ldrh	r3, [r3, #4]
 1806              		.loc 1 623 11
 1807 00ba 002B     		cmp	r3, #0
 1808 00bc 0BD1     		bne	.L101
 624:common/lib.stm32/STM32_USB-FS-Device_Driver/src/usb_core.c ****           && ValBit(pInformation->Current_Feature, 5))
 1809              		.loc 1 624 14
 1810 00be 334B     		ldr	r3, .L109
 1811 00c0 1B68     		ldr	r3, [r3]
 1812 00c2 5B7A     		ldrb	r3, [r3, #9]	@ zero_extendqisi2
 1813 00c4 03F02003 		and	r3, r3, #32
 1814              		.loc 1 624 11
 1815 00c8 002B     		cmp	r3, #0
 1816 00ca 04D0     		beq	.L101
 625:common/lib.stm32/STM32_USB-FS-Device_Driver/src/usb_core.c ****       {
 626:common/lib.stm32/STM32_USB-FS-Device_Driver/src/usb_core.c ****         Result = Standard_ClearFeature();
 1817              		.loc 1 626 18
 1818 00cc 324B     		ldr	r3, .L109+12
 1819 00ce 9847     		blx	r3
 1820              	.LVL23:
 1821 00d0 0346     		mov	r3, r0
 1822 00d2 FB73     		strb	r3, [r7, #15]
 1823              		.loc 1 626 16
 1824 00d4 2AE0     		b	.L102
 1825              	.L101:
 627:common/lib.stm32/STM32_USB-FS-Device_Driver/src/usb_core.c ****       }
 628:common/lib.stm32/STM32_USB-FS-Device_Driver/src/usb_core.c ****       else
 629:common/lib.stm32/STM32_USB-FS-Device_Driver/src/usb_core.c ****       {
 630:common/lib.stm32/STM32_USB-FS-Device_Driver/src/usb_core.c ****         Result = USB_UNSUPPORT;
 1826              		.loc 1 630 16
 1827 00d6 0223     		movs	r3, #2
 1828 00d8 FB73     		strb	r3, [r7, #15]
 1829 00da 27E0     		b	.L102
 1830              	.L91:
 631:common/lib.stm32/STM32_USB-FS-Device_Driver/src/usb_core.c ****       }
 632:common/lib.stm32/STM32_USB-FS-Device_Driver/src/usb_core.c ****     }
 633:common/lib.stm32/STM32_USB-FS-Device_Driver/src/usb_core.c **** 
 634:common/lib.stm32/STM32_USB-FS-Device_Driver/src/usb_core.c ****   }
 635:common/lib.stm32/STM32_USB-FS-Device_Driver/src/usb_core.c **** 
 636:common/lib.stm32/STM32_USB-FS-Device_Driver/src/usb_core.c ****   /* Interface Request*/
 637:common/lib.stm32/STM32_USB-FS-Device_Driver/src/usb_core.c ****   else if (Type_Recipient == (STANDARD_REQUEST | INTERFACE_RECIPIENT))
 1831              		.loc 1 637 12
 1832 00dc 2B4B     		ldr	r3, .L109
 1833 00de 1B68     		ldr	r3, [r3]
 1834 00e0 1B78     		ldrb	r3, [r3]	@ zero_extendqisi2
 1835 00e2 03F07F03 		and	r3, r3, #127
 1836              		.loc 1 637 11
 1837 00e6 012B     		cmp	r3, #1
 1838 00e8 07D1     		bne	.L103
 638:common/lib.stm32/STM32_USB-FS-Device_Driver/src/usb_core.c ****   {
 639:common/lib.stm32/STM32_USB-FS-Device_Driver/src/usb_core.c ****     /*SET INTERFACE*/
 640:common/lib.stm32/STM32_USB-FS-Device_Driver/src/usb_core.c ****     if (RequestNo == SET_INTERFACE)
 1839              		.loc 1 640 8
 1840 00ea 7B68     		ldr	r3, [r7, #4]
 1841 00ec 0B2B     		cmp	r3, #11
 1842 00ee 1DD1     		bne	.L102
 641:common/lib.stm32/STM32_USB-FS-Device_Driver/src/usb_core.c ****     {
 642:common/lib.stm32/STM32_USB-FS-Device_Driver/src/usb_core.c ****       Result = Standard_SetInterface();
 1843              		.loc 1 642 16
 1844 00f0 2A4B     		ldr	r3, .L109+16
 1845 00f2 9847     		blx	r3
 1846              	.LVL24:
 1847 00f4 0346     		mov	r3, r0
 1848 00f6 FB73     		strb	r3, [r7, #15]
 1849 00f8 18E0     		b	.L102
 1850              	.L103:
 643:common/lib.stm32/STM32_USB-FS-Device_Driver/src/usb_core.c ****     }
 644:common/lib.stm32/STM32_USB-FS-Device_Driver/src/usb_core.c ****   }
 645:common/lib.stm32/STM32_USB-FS-Device_Driver/src/usb_core.c **** 
 646:common/lib.stm32/STM32_USB-FS-Device_Driver/src/usb_core.c ****   /* EndPoint Request*/
 647:common/lib.stm32/STM32_USB-FS-Device_Driver/src/usb_core.c ****   else if (Type_Recipient == (STANDARD_REQUEST | ENDPOINT_RECIPIENT))
 1851              		.loc 1 647 12
 1852 00fa 244B     		ldr	r3, .L109
 1853 00fc 1B68     		ldr	r3, [r3]
 1854 00fe 1B78     		ldrb	r3, [r3]	@ zero_extendqisi2
 1855 0100 03F07F03 		and	r3, r3, #127
 1856              		.loc 1 647 11
 1857 0104 022B     		cmp	r3, #2
 1858 0106 0FD1     		bne	.L104
 648:common/lib.stm32/STM32_USB-FS-Device_Driver/src/usb_core.c ****   {
 649:common/lib.stm32/STM32_USB-FS-Device_Driver/src/usb_core.c ****     /*CLEAR FEATURE for EndPoint*/
 650:common/lib.stm32/STM32_USB-FS-Device_Driver/src/usb_core.c ****     if (RequestNo == CLEAR_FEATURE)
 1859              		.loc 1 650 8
 1860 0108 7B68     		ldr	r3, [r7, #4]
 1861 010a 012B     		cmp	r3, #1
 1862 010c 04D1     		bne	.L105
 651:common/lib.stm32/STM32_USB-FS-Device_Driver/src/usb_core.c ****     {
 652:common/lib.stm32/STM32_USB-FS-Device_Driver/src/usb_core.c ****       Result = Standard_ClearFeature();
 1863              		.loc 1 652 16
 1864 010e 224B     		ldr	r3, .L109+12
 1865 0110 9847     		blx	r3
 1866              	.LVL25:
 1867 0112 0346     		mov	r3, r0
 1868 0114 FB73     		strb	r3, [r7, #15]
 1869 0116 09E0     		b	.L102
 1870              	.L105:
 653:common/lib.stm32/STM32_USB-FS-Device_Driver/src/usb_core.c ****     }
 654:common/lib.stm32/STM32_USB-FS-Device_Driver/src/usb_core.c ****     /* SET FEATURE for EndPoint*/
 655:common/lib.stm32/STM32_USB-FS-Device_Driver/src/usb_core.c ****     else if (RequestNo == SET_FEATURE)
 1871              		.loc 1 655 13
 1872 0118 7B68     		ldr	r3, [r7, #4]
 1873 011a 032B     		cmp	r3, #3
 1874 011c 06D1     		bne	.L102
 656:common/lib.stm32/STM32_USB-FS-Device_Driver/src/usb_core.c ****     {
 657:common/lib.stm32/STM32_USB-FS-Device_Driver/src/usb_core.c ****       Result = Standard_SetEndPointFeature();
 1875              		.loc 1 657 16
 1876 011e 204B     		ldr	r3, .L109+20
 1877 0120 9847     		blx	r3
 1878              	.LVL26:
 1879 0122 0346     		mov	r3, r0
 1880 0124 FB73     		strb	r3, [r7, #15]
 1881 0126 01E0     		b	.L102
 1882              	.L104:
 658:common/lib.stm32/STM32_USB-FS-Device_Driver/src/usb_core.c ****     }
 659:common/lib.stm32/STM32_USB-FS-Device_Driver/src/usb_core.c ****   }
 660:common/lib.stm32/STM32_USB-FS-Device_Driver/src/usb_core.c ****   else
 661:common/lib.stm32/STM32_USB-FS-Device_Driver/src/usb_core.c ****   {
 662:common/lib.stm32/STM32_USB-FS-Device_Driver/src/usb_core.c ****     Result = USB_UNSUPPORT;
 1883              		.loc 1 662 12
 1884 0128 0223     		movs	r3, #2
 1885 012a FB73     		strb	r3, [r7, #15]
 1886              	.L102:
 663:common/lib.stm32/STM32_USB-FS-Device_Driver/src/usb_core.c ****   }
 664:common/lib.stm32/STM32_USB-FS-Device_Driver/src/usb_core.c **** 
 665:common/lib.stm32/STM32_USB-FS-Device_Driver/src/usb_core.c **** 
 666:common/lib.stm32/STM32_USB-FS-Device_Driver/src/usb_core.c ****   if (Result != USB_SUCCESS)
 1887              		.loc 1 666 6
 1888 012c FB7B     		ldrb	r3, [r7, #15]	@ zero_extendqisi2
 1889 012e 002B     		cmp	r3, #0
 1890 0130 0ED0     		beq	.L106
 667:common/lib.stm32/STM32_USB-FS-Device_Driver/src/usb_core.c ****   {
 668:common/lib.stm32/STM32_USB-FS-Device_Driver/src/usb_core.c ****     Result = (*pProperty->Class_NoData_Setup)(RequestNo);
 1891              		.loc 1 668 25
 1892 0132 1C4B     		ldr	r3, .L109+24
 1893 0134 1B68     		ldr	r3, [r3]
 1894              		.loc 1 668 15
 1895 0136 5B69     		ldr	r3, [r3, #20]
 1896 0138 7A68     		ldr	r2, [r7, #4]
 1897 013a D2B2     		uxtb	r2, r2
 1898 013c 1046     		mov	r0, r2
 1899 013e 9847     		blx	r3
 1900              	.LVL27:
 1901 0140 0346     		mov	r3, r0
 1902 0142 FB73     		strb	r3, [r7, #15]
 669:common/lib.stm32/STM32_USB-FS-Device_Driver/src/usb_core.c ****     if (Result == USB_NOT_READY)
 1903              		.loc 1 669 8
 1904 0144 FB7B     		ldrb	r3, [r7, #15]	@ zero_extendqisi2
 1905 0146 032B     		cmp	r3, #3
 1906 0148 02D1     		bne	.L106
 670:common/lib.stm32/STM32_USB-FS-Device_Driver/src/usb_core.c ****     {
 671:common/lib.stm32/STM32_USB-FS-Device_Driver/src/usb_core.c ****       ControlState = PAUSE;
 1907              		.loc 1 671 20
 1908 014a 0923     		movs	r3, #9
 1909 014c BB60     		str	r3, [r7, #8]
 672:common/lib.stm32/STM32_USB-FS-Device_Driver/src/usb_core.c ****       goto exit_NoData_Setup0;
 1910              		.loc 1 672 7
 1911 014e 14E0     		b	.L97
 1912              	.L106:
 673:common/lib.stm32/STM32_USB-FS-Device_Driver/src/usb_core.c ****     }
 674:common/lib.stm32/STM32_USB-FS-Device_Driver/src/usb_core.c ****   }
 675:common/lib.stm32/STM32_USB-FS-Device_Driver/src/usb_core.c **** 
 676:common/lib.stm32/STM32_USB-FS-Device_Driver/src/usb_core.c ****   if (Result != USB_SUCCESS)
 1913              		.loc 1 676 6
 1914 0150 FB7B     		ldrb	r3, [r7, #15]	@ zero_extendqisi2
 1915 0152 002B     		cmp	r3, #0
 1916 0154 02D0     		beq	.L107
 677:common/lib.stm32/STM32_USB-FS-Device_Driver/src/usb_core.c ****   {
 678:common/lib.stm32/STM32_USB-FS-Device_Driver/src/usb_core.c ****     ControlState = STALLED;
 1917              		.loc 1 678 18
 1918 0156 0823     		movs	r3, #8
 1919 0158 BB60     		str	r3, [r7, #8]
 679:common/lib.stm32/STM32_USB-FS-Device_Driver/src/usb_core.c ****     goto exit_NoData_Setup0;
 1920              		.loc 1 679 5
 1921 015a 0EE0     		b	.L97
 1922              	.L107:
 680:common/lib.stm32/STM32_USB-FS-Device_Driver/src/usb_core.c ****   }
 681:common/lib.stm32/STM32_USB-FS-Device_Driver/src/usb_core.c **** 
 682:common/lib.stm32/STM32_USB-FS-Device_Driver/src/usb_core.c ****   ControlState = WAIT_STATUS_IN;/* After no data stage SETUP */
 1923              		.loc 1 682 16
 1924 015c 0623     		movs	r3, #6
 1925 015e BB60     		str	r3, [r7, #8]
 683:common/lib.stm32/STM32_USB-FS-Device_Driver/src/usb_core.c **** 
 684:common/lib.stm32/STM32_USB-FS-Device_Driver/src/usb_core.c ****   USB_StatusIn();
 1926              		.loc 1 684 3
 1927 0160 114B     		ldr	r3, .L109+28
 1928 0162 1B68     		ldr	r3, [r3]
 1929 0164 9BB2     		uxth	r3, r3
 1930 0166 1A46     		mov	r2, r3
 1931 0168 104B     		ldr	r3, .L109+32
 1932 016a 1344     		add	r3, r3, r2
 1933 016c 5B00     		lsls	r3, r3, #1
 1934 016e 1A46     		mov	r2, r3
 1935 0170 0023     		movs	r3, #0
 1936 0172 1360     		str	r3, [r2]
 1937 0174 0E4B     		ldr	r3, .L109+36
 1938 0176 3022     		movs	r2, #48
 1939 0178 1A80     		strh	r2, [r3]	@ movhi
 1940              	.L97:
 685:common/lib.stm32/STM32_USB-FS-Device_Driver/src/usb_core.c **** 
 686:common/lib.stm32/STM32_USB-FS-Device_Driver/src/usb_core.c **** exit_NoData_Setup0:
 687:common/lib.stm32/STM32_USB-FS-Device_Driver/src/usb_core.c ****   pInformation->ControlState = ControlState;
 1941              		.loc 1 687 15
 1942 017a 044B     		ldr	r3, .L109
 1943 017c 1B68     		ldr	r3, [r3]
 1944              		.loc 1 687 30
 1945 017e BA68     		ldr	r2, [r7, #8]
 1946 0180 D2B2     		uxtb	r2, r2
 1947 0182 1A72     		strb	r2, [r3, #8]
 688:common/lib.stm32/STM32_USB-FS-Device_Driver/src/usb_core.c ****   return;
 1948              		.loc 1 688 3
 1949 0184 00BF     		nop
 689:common/lib.stm32/STM32_USB-FS-Device_Driver/src/usb_core.c **** }
 1950              		.loc 1 689 1
 1951 0186 1037     		adds	r7, r7, #16
 1952              	.LCFI53:
 1953              		.cfi_def_cfa_offset 8
 1954 0188 BD46     		mov	sp, r7
 1955              	.LCFI54:
 1956              		.cfi_def_cfa_register 13
 1957              		@ sp needed
 1958 018a 80BD     		pop	{r7, pc}
 1959              	.L110:
 1960              		.align	2
 1961              	.L109:
 1962 018c 00000000 		.word	pInformation
 1963 0190 00000000 		.word	Standard_SetConfiguration
 1964 0194 00000000 		.word	Standard_SetDeviceFeature
 1965 0198 00000000 		.word	Standard_ClearFeature
 1966 019c 00000000 		.word	Standard_SetInterface
 1967 01a0 00000000 		.word	Standard_SetEndPointFeature
 1968 01a4 00000000 		.word	pProperty
 1969 01a8 505C0040 		.word	1073765456
 1970 01ac 02300020 		.word	536883202
 1971 01b0 00000000 		.word	SaveTState
 1972              		.cfi_endproc
 1973              	.LFE38:
 1975              		.section	.text.Data_Setup0,"ax",%progbits
 1976              		.align	1
 1977              		.syntax unified
 1978              		.thumb
 1979              		.thumb_func
 1981              	Data_Setup0:
 1982              	.LFB39:
 690:common/lib.stm32/STM32_USB-FS-Device_Driver/src/usb_core.c **** 
 691:common/lib.stm32/STM32_USB-FS-Device_Driver/src/usb_core.c **** /*******************************************************************************
 692:common/lib.stm32/STM32_USB-FS-Device_Driver/src/usb_core.c **** * Function Name  : Data_Setup0.
 693:common/lib.stm32/STM32_USB-FS-Device_Driver/src/usb_core.c **** * Description    : Proceed the processing of setup request with data stage.
 694:common/lib.stm32/STM32_USB-FS-Device_Driver/src/usb_core.c **** * Input          : None.
 695:common/lib.stm32/STM32_USB-FS-Device_Driver/src/usb_core.c **** * Output         : None.
 696:common/lib.stm32/STM32_USB-FS-Device_Driver/src/usb_core.c **** * Return         : None.
 697:common/lib.stm32/STM32_USB-FS-Device_Driver/src/usb_core.c **** *******************************************************************************/
 698:common/lib.stm32/STM32_USB-FS-Device_Driver/src/usb_core.c **** void Data_Setup0(void)
 699:common/lib.stm32/STM32_USB-FS-Device_Driver/src/usb_core.c **** {
 1983              		.loc 1 699 1
 1984              		.cfi_startproc
 1985              		@ args = 0, pretend = 0, frame = 40
 1986              		@ frame_needed = 1, uses_anonymous_args = 0
 1987 0000 80B5     		push	{r7, lr}
 1988              	.LCFI55:
 1989              		.cfi_def_cfa_offset 8
 1990              		.cfi_offset 7, -8
 1991              		.cfi_offset 14, -4
 1992 0002 8AB0     		sub	sp, sp, #40
 1993              	.LCFI56:
 1994              		.cfi_def_cfa_offset 48
 1995 0004 00AF     		add	r7, sp, #0
 1996              	.LCFI57:
 1997              		.cfi_def_cfa_register 7
 700:common/lib.stm32/STM32_USB-FS-Device_Driver/src/usb_core.c ****   uint8_t *(*CopyRoutine)(uint16_t);
 701:common/lib.stm32/STM32_USB-FS-Device_Driver/src/usb_core.c ****   RESULT Result;
 702:common/lib.stm32/STM32_USB-FS-Device_Driver/src/usb_core.c ****   uint32_t Request_No = pInformation->USBbRequest;
 1998              		.loc 1 702 37
 1999 0006 8D4B     		ldr	r3, .L136
 2000 0008 1B68     		ldr	r3, [r3]
 2001 000a 5B78     		ldrb	r3, [r3, #1]	@ zero_extendqisi2
 2002              		.loc 1 702 12
 2003 000c BB61     		str	r3, [r7, #24]
 703:common/lib.stm32/STM32_USB-FS-Device_Driver/src/usb_core.c **** 
 704:common/lib.stm32/STM32_USB-FS-Device_Driver/src/usb_core.c ****   uint32_t Related_Endpoint, Reserved;
 705:common/lib.stm32/STM32_USB-FS-Device_Driver/src/usb_core.c ****   uint32_t wOffset, Status;
 706:common/lib.stm32/STM32_USB-FS-Device_Driver/src/usb_core.c **** 
 707:common/lib.stm32/STM32_USB-FS-Device_Driver/src/usb_core.c **** 
 708:common/lib.stm32/STM32_USB-FS-Device_Driver/src/usb_core.c **** 
 709:common/lib.stm32/STM32_USB-FS-Device_Driver/src/usb_core.c ****   CopyRoutine = NULL;
 2004              		.loc 1 709 15
 2005 000e 0023     		movs	r3, #0
 2006 0010 7B62     		str	r3, [r7, #36]
 710:common/lib.stm32/STM32_USB-FS-Device_Driver/src/usb_core.c ****   wOffset = 0;
 2007              		.loc 1 710 11
 2008 0012 0023     		movs	r3, #0
 2009 0014 7B61     		str	r3, [r7, #20]
 711:common/lib.stm32/STM32_USB-FS-Device_Driver/src/usb_core.c **** 
 712:common/lib.stm32/STM32_USB-FS-Device_Driver/src/usb_core.c ****   /*GET DESCRIPTOR*/
 713:common/lib.stm32/STM32_USB-FS-Device_Driver/src/usb_core.c ****   if (Request_No == GET_DESCRIPTOR)
 2010              		.loc 1 713 6
 2011 0016 BB69     		ldr	r3, [r7, #24]
 2012 0018 062B     		cmp	r3, #6
 2013 001a 24D1     		bne	.L112
 714:common/lib.stm32/STM32_USB-FS-Device_Driver/src/usb_core.c ****   {
 715:common/lib.stm32/STM32_USB-FS-Device_Driver/src/usb_core.c ****     if (Type_Recipient == (STANDARD_REQUEST | DEVICE_RECIPIENT))
 2014              		.loc 1 715 9
 2015 001c 874B     		ldr	r3, .L136
 2016 001e 1B68     		ldr	r3, [r3]
 2017 0020 1B78     		ldrb	r3, [r3]	@ zero_extendqisi2
 2018 0022 03F07F03 		and	r3, r3, #127
 2019              		.loc 1 715 8
 2020 0026 002B     		cmp	r3, #0
 2021 0028 40F0D480 		bne	.L113
 2022              	.LBB10:
 716:common/lib.stm32/STM32_USB-FS-Device_Driver/src/usb_core.c ****     {
 717:common/lib.stm32/STM32_USB-FS-Device_Driver/src/usb_core.c ****       uint8_t wValue1 = pInformation->USBwValue1;
 2023              		.loc 1 717 37
 2024 002c 834B     		ldr	r3, .L136
 2025 002e 1B68     		ldr	r3, [r3]
 2026              		.loc 1 717 15
 2027 0030 9B78     		ldrb	r3, [r3, #2]
 2028 0032 FB72     		strb	r3, [r7, #11]
 718:common/lib.stm32/STM32_USB-FS-Device_Driver/src/usb_core.c ****       if (wValue1 == DEVICE_DESCRIPTOR)
 2029              		.loc 1 718 10
 2030 0034 FB7A     		ldrb	r3, [r7, #11]	@ zero_extendqisi2
 2031 0036 012B     		cmp	r3, #1
 2032 0038 04D1     		bne	.L114
 719:common/lib.stm32/STM32_USB-FS-Device_Driver/src/usb_core.c ****       {
 720:common/lib.stm32/STM32_USB-FS-Device_Driver/src/usb_core.c ****         CopyRoutine = pProperty->GetDeviceDescriptor;
 2033              		.loc 1 720 32
 2034 003a 814B     		ldr	r3, .L136+4
 2035 003c 1B68     		ldr	r3, [r3]
 2036              		.loc 1 720 21
 2037 003e DB69     		ldr	r3, [r3, #28]
 2038 0040 7B62     		str	r3, [r7, #36]
 2039 0042 C7E0     		b	.L113
 2040              	.L114:
 721:common/lib.stm32/STM32_USB-FS-Device_Driver/src/usb_core.c ****       }
 722:common/lib.stm32/STM32_USB-FS-Device_Driver/src/usb_core.c ****       else if (wValue1 == CONFIG_DESCRIPTOR)
 2041              		.loc 1 722 15
 2042 0044 FB7A     		ldrb	r3, [r7, #11]	@ zero_extendqisi2
 2043 0046 022B     		cmp	r3, #2
 2044 0048 04D1     		bne	.L115
 723:common/lib.stm32/STM32_USB-FS-Device_Driver/src/usb_core.c ****       {
 724:common/lib.stm32/STM32_USB-FS-Device_Driver/src/usb_core.c ****         CopyRoutine = pProperty->GetConfigDescriptor;
 2045              		.loc 1 724 32
 2046 004a 7D4B     		ldr	r3, .L136+4
 2047 004c 1B68     		ldr	r3, [r3]
 2048              		.loc 1 724 21
 2049 004e 1B6A     		ldr	r3, [r3, #32]
 2050 0050 7B62     		str	r3, [r7, #36]
 2051 0052 BFE0     		b	.L113
 2052              	.L115:
 725:common/lib.stm32/STM32_USB-FS-Device_Driver/src/usb_core.c ****       }
 726:common/lib.stm32/STM32_USB-FS-Device_Driver/src/usb_core.c ****       else if (wValue1 == STRING_DESCRIPTOR)
 2053              		.loc 1 726 15
 2054 0054 FB7A     		ldrb	r3, [r7, #11]	@ zero_extendqisi2
 2055 0056 032B     		cmp	r3, #3
 2056 0058 40F0BC80 		bne	.L113
 727:common/lib.stm32/STM32_USB-FS-Device_Driver/src/usb_core.c ****       {
 728:common/lib.stm32/STM32_USB-FS-Device_Driver/src/usb_core.c ****         CopyRoutine = pProperty->GetStringDescriptor;
 2057              		.loc 1 728 32
 2058 005c 784B     		ldr	r3, .L136+4
 2059 005e 1B68     		ldr	r3, [r3]
 2060              		.loc 1 728 21
 2061 0060 5B6A     		ldr	r3, [r3, #36]
 2062 0062 7B62     		str	r3, [r7, #36]
 2063 0064 B6E0     		b	.L113
 2064              	.L112:
 2065              	.LBE10:
 729:common/lib.stm32/STM32_USB-FS-Device_Driver/src/usb_core.c ****       }  /* End of GET_DESCRIPTOR */
 730:common/lib.stm32/STM32_USB-FS-Device_Driver/src/usb_core.c ****     }
 731:common/lib.stm32/STM32_USB-FS-Device_Driver/src/usb_core.c ****   }
 732:common/lib.stm32/STM32_USB-FS-Device_Driver/src/usb_core.c **** 
 733:common/lib.stm32/STM32_USB-FS-Device_Driver/src/usb_core.c ****   /*GET STATUS*/
 734:common/lib.stm32/STM32_USB-FS-Device_Driver/src/usb_core.c ****   else if ((Request_No == GET_STATUS) && (pInformation->USBwValue == 0)
 2066              		.loc 1 734 11
 2067 0066 BB69     		ldr	r3, [r7, #24]
 2068 0068 002B     		cmp	r3, #0
 2069 006a 78D1     		bne	.L116
 2070              		.loc 1 734 55 discriminator 1
 2071 006c 734B     		ldr	r3, .L136
 2072 006e 1B68     		ldr	r3, [r3]
 2073              		.loc 1 734 57 discriminator 1
 2074 0070 5B88     		ldrh	r3, [r3, #2]
 2075              		.loc 1 734 39 discriminator 1
 2076 0072 002B     		cmp	r3, #0
 2077 0074 73D1     		bne	.L116
 735:common/lib.stm32/STM32_USB-FS-Device_Driver/src/usb_core.c ****            && (pInformation->USBwLength == 0x0002)
 2078              		.loc 1 735 28
 2079 0076 714B     		ldr	r3, .L136
 2080 0078 1B68     		ldr	r3, [r3]
 2081              		.loc 1 735 30
 2082 007a DB88     		ldrh	r3, [r3, #6]
 2083              		.loc 1 735 12
 2084 007c 022B     		cmp	r3, #2
 2085 007e 6ED1     		bne	.L116
 736:common/lib.stm32/STM32_USB-FS-Device_Driver/src/usb_core.c ****            && (pInformation->USBwIndex1 == 0))
 2086              		.loc 1 736 28
 2087 0080 6E4B     		ldr	r3, .L136
 2088 0082 1B68     		ldr	r3, [r3]
 2089              		.loc 1 736 30
 2090 0084 1B79     		ldrb	r3, [r3, #4]	@ zero_extendqisi2
 2091              		.loc 1 736 12
 2092 0086 002B     		cmp	r3, #0
 2093 0088 69D1     		bne	.L116
 737:common/lib.stm32/STM32_USB-FS-Device_Driver/src/usb_core.c ****   {
 738:common/lib.stm32/STM32_USB-FS-Device_Driver/src/usb_core.c ****     /* GET STATUS for Device*/
 739:common/lib.stm32/STM32_USB-FS-Device_Driver/src/usb_core.c ****     if ((Type_Recipient == (STANDARD_REQUEST | DEVICE_RECIPIENT))
 2094              		.loc 1 739 10
 2095 008a 6C4B     		ldr	r3, .L136
 2096 008c 1B68     		ldr	r3, [r3]
 2097 008e 1B78     		ldrb	r3, [r3]	@ zero_extendqisi2
 2098 0090 03F07F03 		and	r3, r3, #127
 2099              		.loc 1 739 8
 2100 0094 002B     		cmp	r3, #0
 2101 0096 07D1     		bne	.L117
 740:common/lib.stm32/STM32_USB-FS-Device_Driver/src/usb_core.c ****         && (pInformation->USBwIndex == 0))
 2102              		.loc 1 740 25
 2103 0098 684B     		ldr	r3, .L136
 2104 009a 1B68     		ldr	r3, [r3]
 2105              		.loc 1 740 27
 2106 009c 9B88     		ldrh	r3, [r3, #4]
 2107              		.loc 1 740 9
 2108 009e 002B     		cmp	r3, #0
 2109 00a0 02D1     		bne	.L117
 741:common/lib.stm32/STM32_USB-FS-Device_Driver/src/usb_core.c ****     {
 742:common/lib.stm32/STM32_USB-FS-Device_Driver/src/usb_core.c ****       CopyRoutine = Standard_GetStatus;
 2110              		.loc 1 742 19
 2111 00a2 684B     		ldr	r3, .L136+8
 2112 00a4 7B62     		str	r3, [r7, #36]
 739:common/lib.stm32/STM32_USB-FS-Device_Driver/src/usb_core.c ****         && (pInformation->USBwIndex == 0))
 2113              		.loc 1 739 8
 2114 00a6 94E0     		b	.L134
 2115              	.L117:
 743:common/lib.stm32/STM32_USB-FS-Device_Driver/src/usb_core.c ****     }
 744:common/lib.stm32/STM32_USB-FS-Device_Driver/src/usb_core.c **** 
 745:common/lib.stm32/STM32_USB-FS-Device_Driver/src/usb_core.c ****     /* GET STATUS for Interface*/
 746:common/lib.stm32/STM32_USB-FS-Device_Driver/src/usb_core.c ****     else if (Type_Recipient == (STANDARD_REQUEST | INTERFACE_RECIPIENT))
 2116              		.loc 1 746 14
 2117 00a8 644B     		ldr	r3, .L136
 2118 00aa 1B68     		ldr	r3, [r3]
 2119 00ac 1B78     		ldrb	r3, [r3]	@ zero_extendqisi2
 2120 00ae 03F07F03 		and	r3, r3, #127
 2121              		.loc 1 746 13
 2122 00b2 012B     		cmp	r3, #1
 2123 00b4 14D1     		bne	.L119
 747:common/lib.stm32/STM32_USB-FS-Device_Driver/src/usb_core.c ****     {
 748:common/lib.stm32/STM32_USB-FS-Device_Driver/src/usb_core.c ****       if (((*pProperty->Class_Get_Interface_Setting)(pInformation->USBwIndex0, 0) == USB_SUCCESS)
 2124              		.loc 1 748 23
 2125 00b6 624B     		ldr	r3, .L136+4
 2126 00b8 1B68     		ldr	r3, [r3]
 2127              		.loc 1 748 13
 2128 00ba 9B69     		ldr	r3, [r3, #24]
 2129              		.loc 1 748 66
 2130 00bc 5F4A     		ldr	r2, .L136
 2131 00be 1268     		ldr	r2, [r2]
 2132              		.loc 1 748 13
 2133 00c0 5279     		ldrb	r2, [r2, #5]	@ zero_extendqisi2
 2134 00c2 0021     		movs	r1, #0
 2135 00c4 1046     		mov	r0, r2
 2136 00c6 9847     		blx	r3
 2137              	.LVL28:
 2138 00c8 0346     		mov	r3, r0
 2139              		.loc 1 748 10
 2140 00ca 002B     		cmp	r3, #0
 2141 00cc 40F08180 		bne	.L134
 749:common/lib.stm32/STM32_USB-FS-Device_Driver/src/usb_core.c ****           && (pInformation->Current_Configuration != 0))
 2142              		.loc 1 749 27
 2143 00d0 5A4B     		ldr	r3, .L136
 2144 00d2 1B68     		ldr	r3, [r3]
 2145 00d4 9B7A     		ldrb	r3, [r3, #10]	@ zero_extendqisi2
 2146              		.loc 1 749 11
 2147 00d6 002B     		cmp	r3, #0
 2148 00d8 7BD0     		beq	.L134
 750:common/lib.stm32/STM32_USB-FS-Device_Driver/src/usb_core.c ****       {
 751:common/lib.stm32/STM32_USB-FS-Device_Driver/src/usb_core.c ****         CopyRoutine = Standard_GetStatus;
 2149              		.loc 1 751 21
 2150 00da 5A4B     		ldr	r3, .L136+8
 2151 00dc 7B62     		str	r3, [r7, #36]
 739:common/lib.stm32/STM32_USB-FS-Device_Driver/src/usb_core.c ****         && (pInformation->USBwIndex == 0))
 2152              		.loc 1 739 8
 2153 00de 78E0     		b	.L134
 2154              	.L119:
 752:common/lib.stm32/STM32_USB-FS-Device_Driver/src/usb_core.c ****       }
 753:common/lib.stm32/STM32_USB-FS-Device_Driver/src/usb_core.c ****     }
 754:common/lib.stm32/STM32_USB-FS-Device_Driver/src/usb_core.c **** 
 755:common/lib.stm32/STM32_USB-FS-Device_Driver/src/usb_core.c ****     /* GET STATUS for EndPoint*/
 756:common/lib.stm32/STM32_USB-FS-Device_Driver/src/usb_core.c ****     else if (Type_Recipient == (STANDARD_REQUEST | ENDPOINT_RECIPIENT))
 2155              		.loc 1 756 14
 2156 00e0 564B     		ldr	r3, .L136
 2157 00e2 1B68     		ldr	r3, [r3]
 2158 00e4 1B78     		ldrb	r3, [r3]	@ zero_extendqisi2
 2159 00e6 03F07F03 		and	r3, r3, #127
 2160              		.loc 1 756 13
 2161 00ea 022B     		cmp	r3, #2
 2162 00ec 71D1     		bne	.L134
 757:common/lib.stm32/STM32_USB-FS-Device_Driver/src/usb_core.c ****     {
 758:common/lib.stm32/STM32_USB-FS-Device_Driver/src/usb_core.c ****       Related_Endpoint = (pInformation->USBwIndex0 & 0x0f);
 2163              		.loc 1 758 39
 2164 00ee 534B     		ldr	r3, .L136
 2165 00f0 1B68     		ldr	r3, [r3]
 2166              		.loc 1 758 41
 2167 00f2 5B79     		ldrb	r3, [r3, #5]	@ zero_extendqisi2
 2168              		.loc 1 758 24
 2169 00f4 03F00F03 		and	r3, r3, #15
 2170 00f8 3B61     		str	r3, [r7, #16]
 759:common/lib.stm32/STM32_USB-FS-Device_Driver/src/usb_core.c ****       Reserved = pInformation->USBwIndex0 & 0x70;
 2171              		.loc 1 759 30
 2172 00fa 504B     		ldr	r3, .L136
 2173 00fc 1B68     		ldr	r3, [r3]
 2174              		.loc 1 759 32
 2175 00fe 5B79     		ldrb	r3, [r3, #5]	@ zero_extendqisi2
 2176              		.loc 1 759 16
 2177 0100 03F07003 		and	r3, r3, #112
 2178 0104 FB60     		str	r3, [r7, #12]
 760:common/lib.stm32/STM32_USB-FS-Device_Driver/src/usb_core.c **** 
 761:common/lib.stm32/STM32_USB-FS-Device_Driver/src/usb_core.c ****       if (ValBit(pInformation->USBwIndex0, 7))
 2179              		.loc 1 761 11
 2180 0106 4D4B     		ldr	r3, .L136
 2181 0108 1B68     		ldr	r3, [r3]
 2182 010a 5B79     		ldrb	r3, [r3, #5]	@ zero_extendqisi2
 2183 010c 5BB2     		sxtb	r3, r3
 2184              		.loc 1 761 10
 2185 010e 002B     		cmp	r3, #0
 2186 0110 0BDA     		bge	.L120
 762:common/lib.stm32/STM32_USB-FS-Device_Driver/src/usb_core.c ****       {
 763:common/lib.stm32/STM32_USB-FS-Device_Driver/src/usb_core.c ****         /*Get Status of endpoint & stall the request if the related_ENdpoint
 764:common/lib.stm32/STM32_USB-FS-Device_Driver/src/usb_core.c ****         is Disabled*/
 765:common/lib.stm32/STM32_USB-FS-Device_Driver/src/usb_core.c ****         Status = _GetEPTxStatus(Related_Endpoint);
 2187              		.loc 1 765 18
 2188 0112 3B69     		ldr	r3, [r7, #16]
 2189 0114 9B00     		lsls	r3, r3, #2
 2190 0116 03F18043 		add	r3, r3, #1073741824
 2191 011a 03F5B843 		add	r3, r3, #23552
 2192 011e 1B68     		ldr	r3, [r3]
 2193 0120 9BB2     		uxth	r3, r3
 2194              		.loc 1 765 16
 2195 0122 03F03003 		and	r3, r3, #48
 2196 0126 FB61     		str	r3, [r7, #28]
 2197 0128 0AE0     		b	.L121
 2198              	.L120:
 766:common/lib.stm32/STM32_USB-FS-Device_Driver/src/usb_core.c ****       }
 767:common/lib.stm32/STM32_USB-FS-Device_Driver/src/usb_core.c ****       else
 768:common/lib.stm32/STM32_USB-FS-Device_Driver/src/usb_core.c ****       {
 769:common/lib.stm32/STM32_USB-FS-Device_Driver/src/usb_core.c ****         Status = _GetEPRxStatus(Related_Endpoint);
 2199              		.loc 1 769 18
 2200 012a 3B69     		ldr	r3, [r7, #16]
 2201 012c 9B00     		lsls	r3, r3, #2
 2202 012e 03F18043 		add	r3, r3, #1073741824
 2203 0132 03F5B843 		add	r3, r3, #23552
 2204 0136 1B68     		ldr	r3, [r3]
 2205 0138 9BB2     		uxth	r3, r3
 2206              		.loc 1 769 16
 2207 013a 03F44053 		and	r3, r3, #12288
 2208 013e FB61     		str	r3, [r7, #28]
 2209              	.L121:
 770:common/lib.stm32/STM32_USB-FS-Device_Driver/src/usb_core.c ****       }
 771:common/lib.stm32/STM32_USB-FS-Device_Driver/src/usb_core.c **** 
 772:common/lib.stm32/STM32_USB-FS-Device_Driver/src/usb_core.c ****       if ((Related_Endpoint < Device_Table.Total_Endpoint) && (Reserved == 0)
 2210              		.loc 1 772 43
 2211 0140 414B     		ldr	r3, .L136+12
 2212 0142 1B78     		ldrb	r3, [r3]	@ zero_extendqisi2
 2213 0144 1A46     		mov	r2, r3
 2214              		.loc 1 772 10
 2215 0146 3B69     		ldr	r3, [r7, #16]
 2216 0148 9342     		cmp	r3, r2
 2217 014a 42D2     		bcs	.L134
 2218              		.loc 1 772 60 discriminator 1
 2219 014c FB68     		ldr	r3, [r7, #12]
 2220 014e 002B     		cmp	r3, #0
 2221 0150 3FD1     		bne	.L134
 773:common/lib.stm32/STM32_USB-FS-Device_Driver/src/usb_core.c ****           && (Status != 0))
 2222              		.loc 1 773 11
 2223 0152 FB69     		ldr	r3, [r7, #28]
 2224 0154 002B     		cmp	r3, #0
 2225 0156 3CD0     		beq	.L134
 774:common/lib.stm32/STM32_USB-FS-Device_Driver/src/usb_core.c ****       {
 775:common/lib.stm32/STM32_USB-FS-Device_Driver/src/usb_core.c ****         CopyRoutine = Standard_GetStatus;
 2226              		.loc 1 775 21
 2227 0158 3A4B     		ldr	r3, .L136+8
 2228 015a 7B62     		str	r3, [r7, #36]
 739:common/lib.stm32/STM32_USB-FS-Device_Driver/src/usb_core.c ****         && (pInformation->USBwIndex == 0))
 2229              		.loc 1 739 8
 2230 015c 39E0     		b	.L134
 2231              	.L116:
 776:common/lib.stm32/STM32_USB-FS-Device_Driver/src/usb_core.c ****       }
 777:common/lib.stm32/STM32_USB-FS-Device_Driver/src/usb_core.c ****     }
 778:common/lib.stm32/STM32_USB-FS-Device_Driver/src/usb_core.c **** 
 779:common/lib.stm32/STM32_USB-FS-Device_Driver/src/usb_core.c ****   }
 780:common/lib.stm32/STM32_USB-FS-Device_Driver/src/usb_core.c **** 
 781:common/lib.stm32/STM32_USB-FS-Device_Driver/src/usb_core.c ****   /*GET CONFIGURATION*/
 782:common/lib.stm32/STM32_USB-FS-Device_Driver/src/usb_core.c ****   else if (Request_No == GET_CONFIGURATION)
 2232              		.loc 1 782 11
 2233 015e BB69     		ldr	r3, [r7, #24]
 2234 0160 082B     		cmp	r3, #8
 2235 0162 09D1     		bne	.L122
 783:common/lib.stm32/STM32_USB-FS-Device_Driver/src/usb_core.c ****   {
 784:common/lib.stm32/STM32_USB-FS-Device_Driver/src/usb_core.c ****     if (Type_Recipient == (STANDARD_REQUEST | DEVICE_RECIPIENT))
 2236              		.loc 1 784 9
 2237 0164 354B     		ldr	r3, .L136
 2238 0166 1B68     		ldr	r3, [r3]
 2239 0168 1B78     		ldrb	r3, [r3]	@ zero_extendqisi2
 2240 016a 03F07F03 		and	r3, r3, #127
 2241              		.loc 1 784 8
 2242 016e 002B     		cmp	r3, #0
 2243 0170 30D1     		bne	.L113
 785:common/lib.stm32/STM32_USB-FS-Device_Driver/src/usb_core.c ****     {
 786:common/lib.stm32/STM32_USB-FS-Device_Driver/src/usb_core.c ****       CopyRoutine = Standard_GetConfiguration;
 2244              		.loc 1 786 19
 2245 0172 364B     		ldr	r3, .L136+16
 2246 0174 7B62     		str	r3, [r7, #36]
 2247 0176 2DE0     		b	.L113
 2248              	.L122:
 787:common/lib.stm32/STM32_USB-FS-Device_Driver/src/usb_core.c ****     }
 788:common/lib.stm32/STM32_USB-FS-Device_Driver/src/usb_core.c ****   }
 789:common/lib.stm32/STM32_USB-FS-Device_Driver/src/usb_core.c ****   /*GET INTERFACE*/
 790:common/lib.stm32/STM32_USB-FS-Device_Driver/src/usb_core.c ****   else if (Request_No == GET_INTERFACE)
 2249              		.loc 1 790 11
 2250 0178 BB69     		ldr	r3, [r7, #24]
 2251 017a 0A2B     		cmp	r3, #10
 2252 017c 2AD1     		bne	.L113
 791:common/lib.stm32/STM32_USB-FS-Device_Driver/src/usb_core.c ****   {
 792:common/lib.stm32/STM32_USB-FS-Device_Driver/src/usb_core.c ****     if ((Type_Recipient == (STANDARD_REQUEST | INTERFACE_RECIPIENT))
 2253              		.loc 1 792 10
 2254 017e 2F4B     		ldr	r3, .L136
 2255 0180 1B68     		ldr	r3, [r3]
 2256 0182 1B78     		ldrb	r3, [r3]	@ zero_extendqisi2
 2257 0184 03F07F03 		and	r3, r3, #127
 2258              		.loc 1 792 8
 2259 0188 012B     		cmp	r3, #1
 2260 018a 23D1     		bne	.L113
 793:common/lib.stm32/STM32_USB-FS-Device_Driver/src/usb_core.c ****         && (pInformation->Current_Configuration != 0) && (pInformation->USBwValue == 0)
 2261              		.loc 1 793 25
 2262 018c 2B4B     		ldr	r3, .L136
 2263 018e 1B68     		ldr	r3, [r3]
 2264 0190 9B7A     		ldrb	r3, [r3, #10]	@ zero_extendqisi2
 2265              		.loc 1 793 9
 2266 0192 002B     		cmp	r3, #0
 2267 0194 1ED0     		beq	.L113
 2268              		.loc 1 793 71 discriminator 1
 2269 0196 294B     		ldr	r3, .L136
 2270 0198 1B68     		ldr	r3, [r3]
 2271              		.loc 1 793 73 discriminator 1
 2272 019a 5B88     		ldrh	r3, [r3, #2]
 2273              		.loc 1 793 55 discriminator 1
 2274 019c 002B     		cmp	r3, #0
 2275 019e 19D1     		bne	.L113
 794:common/lib.stm32/STM32_USB-FS-Device_Driver/src/usb_core.c ****         && (pInformation->USBwIndex1 == 0) && (pInformation->USBwLength == 0x0001)
 2276              		.loc 1 794 25
 2277 01a0 264B     		ldr	r3, .L136
 2278 01a2 1B68     		ldr	r3, [r3]
 2279              		.loc 1 794 27
 2280 01a4 1B79     		ldrb	r3, [r3, #4]	@ zero_extendqisi2
 2281              		.loc 1 794 9
 2282 01a6 002B     		cmp	r3, #0
 2283 01a8 14D1     		bne	.L113
 2284              		.loc 1 794 60 discriminator 1
 2285 01aa 244B     		ldr	r3, .L136
 2286 01ac 1B68     		ldr	r3, [r3]
 2287              		.loc 1 794 62 discriminator 1
 2288 01ae DB88     		ldrh	r3, [r3, #6]
 2289              		.loc 1 794 44 discriminator 1
 2290 01b0 012B     		cmp	r3, #1
 2291 01b2 0FD1     		bne	.L113
 795:common/lib.stm32/STM32_USB-FS-Device_Driver/src/usb_core.c ****         && ((*pProperty->Class_Get_Interface_Setting)(pInformation->USBwIndex0, 0) == USB_SUCCESS))
 2292              		.loc 1 795 24
 2293 01b4 224B     		ldr	r3, .L136+4
 2294 01b6 1B68     		ldr	r3, [r3]
 2295              		.loc 1 795 14
 2296 01b8 9B69     		ldr	r3, [r3, #24]
 2297              		.loc 1 795 67
 2298 01ba 204A     		ldr	r2, .L136
 2299 01bc 1268     		ldr	r2, [r2]
 2300              		.loc 1 795 14
 2301 01be 5279     		ldrb	r2, [r2, #5]	@ zero_extendqisi2
 2302 01c0 0021     		movs	r1, #0
 2303 01c2 1046     		mov	r0, r2
 2304 01c4 9847     		blx	r3
 2305              	.LVL29:
 2306 01c6 0346     		mov	r3, r0
 2307              		.loc 1 795 9
 2308 01c8 002B     		cmp	r3, #0
 2309 01ca 03D1     		bne	.L113
 796:common/lib.stm32/STM32_USB-FS-Device_Driver/src/usb_core.c ****     {
 797:common/lib.stm32/STM32_USB-FS-Device_Driver/src/usb_core.c ****       CopyRoutine = Standard_GetInterface;
 2310              		.loc 1 797 19
 2311 01cc 204B     		ldr	r3, .L136+20
 2312 01ce 7B62     		str	r3, [r7, #36]
 2313 01d0 00E0     		b	.L113
 2314              	.L134:
 739:common/lib.stm32/STM32_USB-FS-Device_Driver/src/usb_core.c ****         && (pInformation->USBwIndex == 0))
 2315              		.loc 1 739 8
 2316 01d2 00BF     		nop
 2317              	.L113:
 798:common/lib.stm32/STM32_USB-FS-Device_Driver/src/usb_core.c ****     }
 799:common/lib.stm32/STM32_USB-FS-Device_Driver/src/usb_core.c **** 
 800:common/lib.stm32/STM32_USB-FS-Device_Driver/src/usb_core.c ****   }
 801:common/lib.stm32/STM32_USB-FS-Device_Driver/src/usb_core.c ****   
 802:common/lib.stm32/STM32_USB-FS-Device_Driver/src/usb_core.c ****   if (CopyRoutine)
 2318              		.loc 1 802 6
 2319 01d4 7B6A     		ldr	r3, [r7, #36]
 2320 01d6 002B     		cmp	r3, #0
 2321 01d8 0FD0     		beq	.L123
 803:common/lib.stm32/STM32_USB-FS-Device_Driver/src/usb_core.c ****   {
 804:common/lib.stm32/STM32_USB-FS-Device_Driver/src/usb_core.c ****     pInformation->Ctrl_Info.Usb_wOffset = wOffset;
 2322              		.loc 1 804 17
 2323 01da 184B     		ldr	r3, .L136
 2324 01dc 1B68     		ldr	r3, [r3]
 2325              		.loc 1 804 41
 2326 01de 7A69     		ldr	r2, [r7, #20]
 2327 01e0 92B2     		uxth	r2, r2
 2328 01e2 5A82     		strh	r2, [r3, #18]	@ movhi
 805:common/lib.stm32/STM32_USB-FS-Device_Driver/src/usb_core.c ****     pInformation->Ctrl_Info.CopyData = CopyRoutine;
 2329              		.loc 1 805 17
 2330 01e4 154B     		ldr	r3, .L136
 2331 01e6 1B68     		ldr	r3, [r3]
 2332              		.loc 1 805 38
 2333 01e8 7A6A     		ldr	r2, [r7, #36]
 2334 01ea 9A61     		str	r2, [r3, #24]
 806:common/lib.stm32/STM32_USB-FS-Device_Driver/src/usb_core.c ****     /* sb in the original the cast to word was directly */
 807:common/lib.stm32/STM32_USB-FS-Device_Driver/src/usb_core.c ****     /* now the cast is made step by step */
 808:common/lib.stm32/STM32_USB-FS-Device_Driver/src/usb_core.c ****     (*CopyRoutine)(0);
 2335              		.loc 1 808 6
 2336 01ec 7B6A     		ldr	r3, [r7, #36]
 2337 01ee 0020     		movs	r0, #0
 2338 01f0 9847     		blx	r3
 2339              	.LVL30:
 809:common/lib.stm32/STM32_USB-FS-Device_Driver/src/usb_core.c ****     Result = USB_SUCCESS;
 2340              		.loc 1 809 12
 2341 01f2 0023     		movs	r3, #0
 2342 01f4 87F82330 		strb	r3, [r7, #35]
 2343 01f8 13E0     		b	.L124
 2344              	.L123:
 810:common/lib.stm32/STM32_USB-FS-Device_Driver/src/usb_core.c ****   }
 811:common/lib.stm32/STM32_USB-FS-Device_Driver/src/usb_core.c ****   else
 812:common/lib.stm32/STM32_USB-FS-Device_Driver/src/usb_core.c ****   {
 813:common/lib.stm32/STM32_USB-FS-Device_Driver/src/usb_core.c ****     Result = (*pProperty->Class_Data_Setup)(pInformation->USBbRequest);
 2345              		.loc 1 813 25
 2346 01fa 114B     		ldr	r3, .L136+4
 2347 01fc 1B68     		ldr	r3, [r3]
 2348              		.loc 1 813 15
 2349 01fe 1B69     		ldr	r3, [r3, #16]
 2350              		.loc 1 813 57
 2351 0200 0E4A     		ldr	r2, .L136
 2352 0202 1268     		ldr	r2, [r2]
 2353              		.loc 1 813 15
 2354 0204 5278     		ldrb	r2, [r2, #1]	@ zero_extendqisi2
 2355 0206 1046     		mov	r0, r2
 2356 0208 9847     		blx	r3
 2357              	.LVL31:
 2358 020a 0346     		mov	r3, r0
 2359 020c 87F82330 		strb	r3, [r7, #35]
 814:common/lib.stm32/STM32_USB-FS-Device_Driver/src/usb_core.c ****     if (Result == USB_NOT_READY)
 2360              		.loc 1 814 8
 2361 0210 97F82330 		ldrb	r3, [r7, #35]	@ zero_extendqisi2
 2362 0214 032B     		cmp	r3, #3
 2363 0216 04D1     		bne	.L124
 815:common/lib.stm32/STM32_USB-FS-Device_Driver/src/usb_core.c ****     {
 816:common/lib.stm32/STM32_USB-FS-Device_Driver/src/usb_core.c ****       pInformation->ControlState = PAUSE;
 2364              		.loc 1 816 19
 2365 0218 084B     		ldr	r3, .L136
 2366 021a 1B68     		ldr	r3, [r3]
 2367              		.loc 1 816 34
 2368 021c 0922     		movs	r2, #9
 2369 021e 1A72     		strb	r2, [r3, #8]
 817:common/lib.stm32/STM32_USB-FS-Device_Driver/src/usb_core.c ****       return;
 2370              		.loc 1 817 7
 2371 0220 78E0     		b	.L111
 2372              	.L124:
 818:common/lib.stm32/STM32_USB-FS-Device_Driver/src/usb_core.c ****     }
 819:common/lib.stm32/STM32_USB-FS-Device_Driver/src/usb_core.c ****   }
 820:common/lib.stm32/STM32_USB-FS-Device_Driver/src/usb_core.c **** 
 821:common/lib.stm32/STM32_USB-FS-Device_Driver/src/usb_core.c ****   if (pInformation->Ctrl_Info.Usb_wLength == 0xFFFF)
 2373              		.loc 1 821 19
 2374 0222 064B     		ldr	r3, .L136
 2375 0224 1B68     		ldr	r3, [r3]
 2376              		.loc 1 821 30
 2377 0226 1B8A     		ldrh	r3, [r3, #16]
 2378              		.loc 1 821 6
 2379 0228 4FF6FF72 		movw	r2, #65535
 2380 022c 9342     		cmp	r3, r2
 2381 022e 11D1     		bne	.L126
 822:common/lib.stm32/STM32_USB-FS-Device_Driver/src/usb_core.c ****   {
 823:common/lib.stm32/STM32_USB-FS-Device_Driver/src/usb_core.c ****     /* Data is not ready, wait it */
 824:common/lib.stm32/STM32_USB-FS-Device_Driver/src/usb_core.c ****     pInformation->ControlState = PAUSE;
 2382              		.loc 1 824 17
 2383 0230 024B     		ldr	r3, .L136
 2384 0232 1B68     		ldr	r3, [r3]
 2385              		.loc 1 824 32
 2386 0234 0922     		movs	r2, #9
 2387 0236 1A72     		strb	r2, [r3, #8]
 825:common/lib.stm32/STM32_USB-FS-Device_Driver/src/usb_core.c ****     return;
 2388              		.loc 1 825 5
 2389 0238 6CE0     		b	.L111
 2390              	.L137:
 2391 023a 00BF     		.align	2
 2392              	.L136:
 2393 023c 00000000 		.word	pInformation
 2394 0240 00000000 		.word	pProperty
 2395 0244 00000000 		.word	Standard_GetStatus
 2396 0248 00000000 		.word	Device_Table
 2397 024c 00000000 		.word	Standard_GetConfiguration
 2398 0250 00000000 		.word	Standard_GetInterface
 2399              	.L126:
 826:common/lib.stm32/STM32_USB-FS-Device_Driver/src/usb_core.c ****   }
 827:common/lib.stm32/STM32_USB-FS-Device_Driver/src/usb_core.c ****   if ((Result == USB_UNSUPPORT) || (pInformation->Ctrl_Info.Usb_wLength == 0))
 2400              		.loc 1 827 6
 2401 0254 97F82330 		ldrb	r3, [r7, #35]	@ zero_extendqisi2
 2402 0258 022B     		cmp	r3, #2
 2403 025a 04D0     		beq	.L127
 2404              		.loc 1 827 49 discriminator 1
 2405 025c 2F4B     		ldr	r3, .L138
 2406 025e 1B68     		ldr	r3, [r3]
 2407              		.loc 1 827 60 discriminator 1
 2408 0260 1B8A     		ldrh	r3, [r3, #16]
 2409              		.loc 1 827 33 discriminator 1
 2410 0262 002B     		cmp	r3, #0
 2411 0264 04D1     		bne	.L128
 2412              	.L127:
 828:common/lib.stm32/STM32_USB-FS-Device_Driver/src/usb_core.c ****   {
 829:common/lib.stm32/STM32_USB-FS-Device_Driver/src/usb_core.c ****     /* Unsupported request */
 830:common/lib.stm32/STM32_USB-FS-Device_Driver/src/usb_core.c ****     pInformation->ControlState = STALLED;
 2413              		.loc 1 830 17
 2414 0266 2D4B     		ldr	r3, .L138
 2415 0268 1B68     		ldr	r3, [r3]
 2416              		.loc 1 830 32
 2417 026a 0822     		movs	r2, #8
 2418 026c 1A72     		strb	r2, [r3, #8]
 831:common/lib.stm32/STM32_USB-FS-Device_Driver/src/usb_core.c ****     return;
 2419              		.loc 1 831 5
 2420 026e 51E0     		b	.L111
 2421              	.L128:
 832:common/lib.stm32/STM32_USB-FS-Device_Driver/src/usb_core.c ****   }
 833:common/lib.stm32/STM32_USB-FS-Device_Driver/src/usb_core.c **** 
 834:common/lib.stm32/STM32_USB-FS-Device_Driver/src/usb_core.c **** 
 835:common/lib.stm32/STM32_USB-FS-Device_Driver/src/usb_core.c ****   if (ValBit(pInformation->USBbmRequestType, 7))
 2422              		.loc 1 835 7
 2423 0270 2A4B     		ldr	r3, .L138
 2424 0272 1B68     		ldr	r3, [r3]
 2425 0274 1B78     		ldrb	r3, [r3]	@ zero_extendqisi2
 2426 0276 5BB2     		sxtb	r3, r3
 2427              		.loc 1 835 6
 2428 0278 002B     		cmp	r3, #0
 2429 027a 42DA     		bge	.L129
 2430              	.LBB11:
 836:common/lib.stm32/STM32_USB-FS-Device_Driver/src/usb_core.c ****   {
 837:common/lib.stm32/STM32_USB-FS-Device_Driver/src/usb_core.c ****     /* Device ==> Host */
 838:common/lib.stm32/STM32_USB-FS-Device_Driver/src/usb_core.c ****     __IO uint32_t wLength = pInformation->USBwLength;
 2431              		.loc 1 838 41
 2432 027c 274B     		ldr	r3, .L138
 2433 027e 1B68     		ldr	r3, [r3]
 2434              		.loc 1 838 43
 2435 0280 DB88     		ldrh	r3, [r3, #6]
 2436              		.loc 1 838 19
 2437 0282 7B60     		str	r3, [r7, #4]
 839:common/lib.stm32/STM32_USB-FS-Device_Driver/src/usb_core.c ****      
 840:common/lib.stm32/STM32_USB-FS-Device_Driver/src/usb_core.c ****     /* Restrict the data length to be the one host asks for */
 841:common/lib.stm32/STM32_USB-FS-Device_Driver/src/usb_core.c ****     if (pInformation->Ctrl_Info.Usb_wLength > wLength)
 2438              		.loc 1 841 21
 2439 0284 254B     		ldr	r3, .L138
 2440 0286 1B68     		ldr	r3, [r3]
 2441              		.loc 1 841 32
 2442 0288 1B8A     		ldrh	r3, [r3, #16]
 2443 028a 1A46     		mov	r2, r3
 2444              		.loc 1 841 45
 2445 028c 7B68     		ldr	r3, [r7, #4]
 2446              		.loc 1 841 8
 2447 028e 9A42     		cmp	r2, r3
 2448 0290 05D9     		bls	.L130
 842:common/lib.stm32/STM32_USB-FS-Device_Driver/src/usb_core.c ****     {
 843:common/lib.stm32/STM32_USB-FS-Device_Driver/src/usb_core.c ****       pInformation->Ctrl_Info.Usb_wLength = wLength;
 2449              		.loc 1 843 43
 2450 0292 7A68     		ldr	r2, [r7, #4]
 2451              		.loc 1 843 19
 2452 0294 214B     		ldr	r3, .L138
 2453 0296 1B68     		ldr	r3, [r3]
 2454              		.loc 1 843 43
 2455 0298 92B2     		uxth	r2, r2
 2456 029a 1A82     		strh	r2, [r3, #16]	@ movhi
 2457 029c 26E0     		b	.L131
 2458              	.L130:
 844:common/lib.stm32/STM32_USB-FS-Device_Driver/src/usb_core.c ****     }
 845:common/lib.stm32/STM32_USB-FS-Device_Driver/src/usb_core.c ****     
 846:common/lib.stm32/STM32_USB-FS-Device_Driver/src/usb_core.c ****     else if (pInformation->Ctrl_Info.Usb_wLength < pInformation->USBwLength)
 2459              		.loc 1 846 26
 2460 029e 1F4B     		ldr	r3, .L138
 2461 02a0 1B68     		ldr	r3, [r3]
 2462              		.loc 1 846 37
 2463 02a2 1A8A     		ldrh	r2, [r3, #16]
 2464              		.loc 1 846 64
 2465 02a4 1D4B     		ldr	r3, .L138
 2466 02a6 1B68     		ldr	r3, [r3]
 2467              		.loc 1 846 66
 2468 02a8 DB88     		ldrh	r3, [r3, #6]
 2469              		.loc 1 846 13
 2470 02aa 9A42     		cmp	r2, r3
 2471 02ac 1ED2     		bcs	.L131
 847:common/lib.stm32/STM32_USB-FS-Device_Driver/src/usb_core.c ****     {
 848:common/lib.stm32/STM32_USB-FS-Device_Driver/src/usb_core.c ****       if (pInformation->Ctrl_Info.Usb_wLength < pProperty->MaxPacketSize)
 2472              		.loc 1 848 23
 2473 02ae 1B4B     		ldr	r3, .L138
 2474 02b0 1B68     		ldr	r3, [r3]
 2475              		.loc 1 848 34
 2476 02b2 1A8A     		ldrh	r2, [r3, #16]
 2477              		.loc 1 848 58
 2478 02b4 1A4B     		ldr	r3, .L138+4
 2479 02b6 1B68     		ldr	r3, [r3]
 2480 02b8 93F82C30 		ldrb	r3, [r3, #44]	@ zero_extendqisi2
 2481              		.loc 1 848 47
 2482 02bc 9BB2     		uxth	r3, r3
 2483              		.loc 1 848 10
 2484 02be 9A42     		cmp	r2, r3
 2485 02c0 03D2     		bcs	.L132
 849:common/lib.stm32/STM32_USB-FS-Device_Driver/src/usb_core.c ****       {
 850:common/lib.stm32/STM32_USB-FS-Device_Driver/src/usb_core.c ****         Data_Mul_MaxPacketSize = FALSE;
 2486              		.loc 1 850 32
 2487 02c2 184B     		ldr	r3, .L138+8
 2488 02c4 0022     		movs	r2, #0
 2489 02c6 1A70     		strb	r2, [r3]
 2490 02c8 10E0     		b	.L131
 2491              	.L132:
 851:common/lib.stm32/STM32_USB-FS-Device_Driver/src/usb_core.c ****       }
 852:common/lib.stm32/STM32_USB-FS-Device_Driver/src/usb_core.c ****       else if ((pInformation->Ctrl_Info.Usb_wLength % pProperty->MaxPacketSize) == 0)
 2492              		.loc 1 852 29
 2493 02ca 144B     		ldr	r3, .L138
 2494 02cc 1B68     		ldr	r3, [r3]
 2495              		.loc 1 852 40
 2496 02ce 1B8A     		ldrh	r3, [r3, #16]
 2497              		.loc 1 852 64
 2498 02d0 134A     		ldr	r2, .L138+4
 2499 02d2 1268     		ldr	r2, [r2]
 2500 02d4 92F82C20 		ldrb	r2, [r2, #44]	@ zero_extendqisi2
 2501              		.loc 1 852 53
 2502 02d8 93FBF2F1 		sdiv	r1, r3, r2
 2503 02dc 01FB02F2 		mul	r2, r1, r2
 2504 02e0 9B1A     		subs	r3, r3, r2
 2505              		.loc 1 852 15
 2506 02e2 002B     		cmp	r3, #0
 2507 02e4 02D1     		bne	.L131
 853:common/lib.stm32/STM32_USB-FS-Device_Driver/src/usb_core.c ****       {
 854:common/lib.stm32/STM32_USB-FS-Device_Driver/src/usb_core.c ****         Data_Mul_MaxPacketSize = TRUE;
 2508              		.loc 1 854 32
 2509 02e6 0F4B     		ldr	r3, .L138+8
 2510 02e8 0122     		movs	r2, #1
 2511 02ea 1A70     		strb	r2, [r3]
 2512              	.L131:
 855:common/lib.stm32/STM32_USB-FS-Device_Driver/src/usb_core.c ****       }
 856:common/lib.stm32/STM32_USB-FS-Device_Driver/src/usb_core.c ****     }   
 857:common/lib.stm32/STM32_USB-FS-Device_Driver/src/usb_core.c **** 
 858:common/lib.stm32/STM32_USB-FS-Device_Driver/src/usb_core.c ****     pInformation->Ctrl_Info.PacketSize = pProperty->MaxPacketSize;
 2513              		.loc 1 858 51
 2514 02ec 0C4B     		ldr	r3, .L138+4
 2515 02ee 1B68     		ldr	r3, [r3]
 2516 02f0 93F82C20 		ldrb	r2, [r3, #44]	@ zero_extendqisi2
 2517              		.loc 1 858 17
 2518 02f4 094B     		ldr	r3, .L138
 2519 02f6 1B68     		ldr	r3, [r3]
 2520              		.loc 1 858 51
 2521 02f8 92B2     		uxth	r2, r2
 2522              		.loc 1 858 40
 2523 02fa 9A82     		strh	r2, [r3, #20]	@ movhi
 859:common/lib.stm32/STM32_USB-FS-Device_Driver/src/usb_core.c ****     DataStageIn();
 2524              		.loc 1 859 5
 2525 02fc 0A4B     		ldr	r3, .L138+12
 2526 02fe 9847     		blx	r3
 2527              	.LVL32:
 2528              	.LBE11:
 860:common/lib.stm32/STM32_USB-FS-Device_Driver/src/usb_core.c ****   }
 861:common/lib.stm32/STM32_USB-FS-Device_Driver/src/usb_core.c ****   else
 862:common/lib.stm32/STM32_USB-FS-Device_Driver/src/usb_core.c ****   {
 863:common/lib.stm32/STM32_USB-FS-Device_Driver/src/usb_core.c ****     pInformation->ControlState = OUT_DATA;
 864:common/lib.stm32/STM32_USB-FS-Device_Driver/src/usb_core.c ****     vSetEPRxStatus(EP_RX_VALID); /* enable for next data reception */
 865:common/lib.stm32/STM32_USB-FS-Device_Driver/src/usb_core.c ****   }
 866:common/lib.stm32/STM32_USB-FS-Device_Driver/src/usb_core.c **** 
 867:common/lib.stm32/STM32_USB-FS-Device_Driver/src/usb_core.c ****   return;
 2529              		.loc 1 867 3
 2530 0300 07E0     		b	.L135
 2531              	.L129:
 863:common/lib.stm32/STM32_USB-FS-Device_Driver/src/usb_core.c ****     vSetEPRxStatus(EP_RX_VALID); /* enable for next data reception */
 2532              		.loc 1 863 17
 2533 0302 064B     		ldr	r3, .L138
 2534 0304 1B68     		ldr	r3, [r3]
 863:common/lib.stm32/STM32_USB-FS-Device_Driver/src/usb_core.c ****     vSetEPRxStatus(EP_RX_VALID); /* enable for next data reception */
 2535              		.loc 1 863 32
 2536 0306 0322     		movs	r2, #3
 2537 0308 1A72     		strb	r2, [r3, #8]
 864:common/lib.stm32/STM32_USB-FS-Device_Driver/src/usb_core.c ****   }
 2538              		.loc 1 864 5
 2539 030a 084B     		ldr	r3, .L138+16
 2540 030c 4FF44052 		mov	r2, #12288
 2541 0310 1A80     		strh	r2, [r3]	@ movhi
 2542              	.L135:
 2543              		.loc 1 867 3
 2544 0312 00BF     		nop
 2545              	.L111:
 868:common/lib.stm32/STM32_USB-FS-Device_Driver/src/usb_core.c **** }
 2546              		.loc 1 868 1
 2547 0314 2837     		adds	r7, r7, #40
 2548              	.LCFI58:
 2549              		.cfi_def_cfa_offset 8
 2550 0316 BD46     		mov	sp, r7
 2551              	.LCFI59:
 2552              		.cfi_def_cfa_register 13
 2553              		@ sp needed
 2554 0318 80BD     		pop	{r7, pc}
 2555              	.L139:
 2556 031a 00BF     		.align	2
 2557              	.L138:
 2558 031c 00000000 		.word	pInformation
 2559 0320 00000000 		.word	pProperty
 2560 0324 00000000 		.word	Data_Mul_MaxPacketSize
 2561 0328 00000000 		.word	DataStageIn
 2562 032c 00000000 		.word	SaveRState
 2563              		.cfi_endproc
 2564              	.LFE39:
 2566              		.section	.text.Setup0_Process,"ax",%progbits
 2567              		.align	1
 2568              		.global	Setup0_Process
 2569              		.syntax unified
 2570              		.thumb
 2571              		.thumb_func
 2573              	Setup0_Process:
 2574              	.LFB40:
 869:common/lib.stm32/STM32_USB-FS-Device_Driver/src/usb_core.c **** 
 870:common/lib.stm32/STM32_USB-FS-Device_Driver/src/usb_core.c **** /*******************************************************************************
 871:common/lib.stm32/STM32_USB-FS-Device_Driver/src/usb_core.c **** * Function Name  : Setup0_Process
 872:common/lib.stm32/STM32_USB-FS-Device_Driver/src/usb_core.c **** * Description    : Get the device request data and dispatch to individual process.
 873:common/lib.stm32/STM32_USB-FS-Device_Driver/src/usb_core.c **** * Input          : None.
 874:common/lib.stm32/STM32_USB-FS-Device_Driver/src/usb_core.c **** * Output         : None.
 875:common/lib.stm32/STM32_USB-FS-Device_Driver/src/usb_core.c **** * Return         : Post0_Process.
 876:common/lib.stm32/STM32_USB-FS-Device_Driver/src/usb_core.c **** *******************************************************************************/
 877:common/lib.stm32/STM32_USB-FS-Device_Driver/src/usb_core.c **** uint8_t Setup0_Process(void)
 878:common/lib.stm32/STM32_USB-FS-Device_Driver/src/usb_core.c **** {
 2575              		.loc 1 878 1
 2576              		.cfi_startproc
 2577              		@ args = 0, pretend = 0, frame = 8
 2578              		@ frame_needed = 1, uses_anonymous_args = 0
 2579 0000 90B5     		push	{r4, r7, lr}
 2580              	.LCFI60:
 2581              		.cfi_def_cfa_offset 12
 2582              		.cfi_offset 4, -12
 2583              		.cfi_offset 7, -8
 2584              		.cfi_offset 14, -4
 2585 0002 83B0     		sub	sp, sp, #12
 2586              	.LCFI61:
 2587              		.cfi_def_cfa_offset 24
 2588 0004 00AF     		add	r7, sp, #0
 2589              	.LCFI62:
 2590              		.cfi_def_cfa_register 7
 879:common/lib.stm32/STM32_USB-FS-Device_Driver/src/usb_core.c **** 
 880:common/lib.stm32/STM32_USB-FS-Device_Driver/src/usb_core.c ****   union
 881:common/lib.stm32/STM32_USB-FS-Device_Driver/src/usb_core.c ****   {
 882:common/lib.stm32/STM32_USB-FS-Device_Driver/src/usb_core.c ****     uint8_t* b;
 883:common/lib.stm32/STM32_USB-FS-Device_Driver/src/usb_core.c ****     uint16_t* w;
 884:common/lib.stm32/STM32_USB-FS-Device_Driver/src/usb_core.c ****   } pBuf;
 885:common/lib.stm32/STM32_USB-FS-Device_Driver/src/usb_core.c **** 
 886:common/lib.stm32/STM32_USB-FS-Device_Driver/src/usb_core.c **** #ifdef STM32F10X_CL
 887:common/lib.stm32/STM32_USB-FS-Device_Driver/src/usb_core.c ****   USB_OTG_EP *ep;
 888:common/lib.stm32/STM32_USB-FS-Device_Driver/src/usb_core.c ****   uint16_t offset = 0;
 889:common/lib.stm32/STM32_USB-FS-Device_Driver/src/usb_core.c ****  
 890:common/lib.stm32/STM32_USB-FS-Device_Driver/src/usb_core.c ****   ep = PCD_GetOutEP(ENDP0);
 891:common/lib.stm32/STM32_USB-FS-Device_Driver/src/usb_core.c ****   pBuf.b = ep->xfer_buff;
 892:common/lib.stm32/STM32_USB-FS-Device_Driver/src/usb_core.c **** #else  
 893:common/lib.stm32/STM32_USB-FS-Device_Driver/src/usb_core.c ****   uint16_t offset = 1;
 2591              		.loc 1 893 12
 2592 0006 0123     		movs	r3, #1
 2593 0008 FB80     		strh	r3, [r7, #6]	@ movhi
 894:common/lib.stm32/STM32_USB-FS-Device_Driver/src/usb_core.c ****   
 895:common/lib.stm32/STM32_USB-FS-Device_Driver/src/usb_core.c ****   pBuf.b = PMAAddr + (uint8_t *)(_GetEPRxAddr(ENDP0) * 2); /* *2 for 32 bits addr */
 2594              		.loc 1 895 34
 2595 000a 304B     		ldr	r3, .L145
 2596 000c 1B68     		ldr	r3, [r3]
 2597 000e 9BB2     		uxth	r3, r3
 2598 0010 1A46     		mov	r2, r3
 2599 0012 2F4B     		ldr	r3, .L145+4
 2600 0014 1344     		add	r3, r3, r2
 2601 0016 5B00     		lsls	r3, r3, #1
 2602 0018 1B68     		ldr	r3, [r3]
 2603 001a 9BB2     		uxth	r3, r3
 2604              		.loc 1 895 54
 2605 001c 5B00     		lsls	r3, r3, #1
 2606              		.loc 1 895 20
 2607 001e 03F18043 		add	r3, r3, #1073741824
 2608 0022 03F5C043 		add	r3, r3, #24576
 2609              		.loc 1 895 10
 2610 0026 3B60     		str	r3, [r7]
 896:common/lib.stm32/STM32_USB-FS-Device_Driver/src/usb_core.c **** #endif /* STM32F10X_CL */
 897:common/lib.stm32/STM32_USB-FS-Device_Driver/src/usb_core.c **** 
 898:common/lib.stm32/STM32_USB-FS-Device_Driver/src/usb_core.c ****   if (pInformation->ControlState != PAUSE)
 2611              		.loc 1 898 19
 2612 0028 2A4B     		ldr	r3, .L145+8
 2613 002a 1B68     		ldr	r3, [r3]
 2614 002c 1B7A     		ldrb	r3, [r3, #8]	@ zero_extendqisi2
 2615              		.loc 1 898 6
 2616 002e 092B     		cmp	r3, #9
 2617 0030 37D0     		beq	.L141
 899:common/lib.stm32/STM32_USB-FS-Device_Driver/src/usb_core.c ****   {
 900:common/lib.stm32/STM32_USB-FS-Device_Driver/src/usb_core.c ****     pInformation->USBbmRequestType = *pBuf.b++; /* bmRequestType */
 2618              		.loc 1 900 43
 2619 0032 3B68     		ldr	r3, [r7]
 2620              		.loc 1 900 45
 2621 0034 5A1C     		adds	r2, r3, #1
 2622 0036 3A60     		str	r2, [r7]
 2623              		.loc 1 900 17
 2624 0038 264A     		ldr	r2, .L145+8
 2625 003a 1268     		ldr	r2, [r2]
 2626              		.loc 1 900 38
 2627 003c 1B78     		ldrb	r3, [r3]	@ zero_extendqisi2
 2628              		.loc 1 900 36
 2629 003e 1370     		strb	r3, [r2]
 901:common/lib.stm32/STM32_USB-FS-Device_Driver/src/usb_core.c ****     pInformation->USBbRequest = *pBuf.b++; /* bRequest */
 2630              		.loc 1 901 38
 2631 0040 3B68     		ldr	r3, [r7]
 2632              		.loc 1 901 40
 2633 0042 5A1C     		adds	r2, r3, #1
 2634 0044 3A60     		str	r2, [r7]
 2635              		.loc 1 901 17
 2636 0046 234A     		ldr	r2, .L145+8
 2637 0048 1268     		ldr	r2, [r2]
 2638              		.loc 1 901 33
 2639 004a 1B78     		ldrb	r3, [r3]	@ zero_extendqisi2
 2640              		.loc 1 901 31
 2641 004c 5370     		strb	r3, [r2, #1]
 902:common/lib.stm32/STM32_USB-FS-Device_Driver/src/usb_core.c ****     pBuf.w += offset;  /* word not accessed because of 32 bits addressing */
 2642              		.loc 1 902 12
 2643 004e 3A68     		ldr	r2, [r7]
 2644 0050 FB88     		ldrh	r3, [r7, #6]
 2645 0052 5B00     		lsls	r3, r3, #1
 2646 0054 1344     		add	r3, r3, r2
 2647 0056 3B60     		str	r3, [r7]
 903:common/lib.stm32/STM32_USB-FS-Device_Driver/src/usb_core.c ****     pInformation->USBwValue = ByteSwap(*pBuf.w++); /* wValue */
 2648              		.loc 1 903 45
 2649 0058 3B68     		ldr	r3, [r7]
 2650              		.loc 1 903 47
 2651 005a 9A1C     		adds	r2, r3, #2
 2652 005c 3A60     		str	r2, [r7]
 2653              		.loc 1 903 31
 2654 005e 1B88     		ldrh	r3, [r3]
 2655              		.loc 1 903 17
 2656 0060 1C4A     		ldr	r2, .L145+8
 2657 0062 1468     		ldr	r4, [r2]
 2658              		.loc 1 903 31
 2659 0064 1846     		mov	r0, r3
 2660 0066 1C4B     		ldr	r3, .L145+12
 2661 0068 9847     		blx	r3
 2662              	.LVL33:
 2663 006a 0346     		mov	r3, r0
 2664              		.loc 1 903 29
 2665 006c 6380     		strh	r3, [r4, #2]	@ movhi
 904:common/lib.stm32/STM32_USB-FS-Device_Driver/src/usb_core.c ****     pBuf.w += offset;  /* word not accessed because of 32 bits addressing */
 2666              		.loc 1 904 12
 2667 006e 3A68     		ldr	r2, [r7]
 2668 0070 FB88     		ldrh	r3, [r7, #6]
 2669 0072 5B00     		lsls	r3, r3, #1
 2670 0074 1344     		add	r3, r3, r2
 2671 0076 3B60     		str	r3, [r7]
 905:common/lib.stm32/STM32_USB-FS-Device_Driver/src/usb_core.c ****     pInformation->USBwIndex  = ByteSwap(*pBuf.w++); /* wIndex */
 2672              		.loc 1 905 46
 2673 0078 3B68     		ldr	r3, [r7]
 2674              		.loc 1 905 48
 2675 007a 9A1C     		adds	r2, r3, #2
 2676 007c 3A60     		str	r2, [r7]
 2677              		.loc 1 905 32
 2678 007e 1B88     		ldrh	r3, [r3]
 2679              		.loc 1 905 17
 2680 0080 144A     		ldr	r2, .L145+8
 2681 0082 1468     		ldr	r4, [r2]
 2682              		.loc 1 905 32
 2683 0084 1846     		mov	r0, r3
 2684 0086 144B     		ldr	r3, .L145+12
 2685 0088 9847     		blx	r3
 2686              	.LVL34:
 2687 008a 0346     		mov	r3, r0
 2688              		.loc 1 905 30
 2689 008c A380     		strh	r3, [r4, #4]	@ movhi
 906:common/lib.stm32/STM32_USB-FS-Device_Driver/src/usb_core.c ****     pBuf.w += offset;  /* word not accessed because of 32 bits addressing */
 2690              		.loc 1 906 12
 2691 008e 3A68     		ldr	r2, [r7]
 2692 0090 FB88     		ldrh	r3, [r7, #6]
 2693 0092 5B00     		lsls	r3, r3, #1
 2694 0094 1344     		add	r3, r3, r2
 2695 0096 3B60     		str	r3, [r7]
 907:common/lib.stm32/STM32_USB-FS-Device_Driver/src/usb_core.c ****     pInformation->USBwLength = *pBuf.w; /* wLength */
 2696              		.loc 1 907 37
 2697 0098 3A68     		ldr	r2, [r7]
 2698              		.loc 1 907 17
 2699 009a 0E4B     		ldr	r3, .L145+8
 2700 009c 1B68     		ldr	r3, [r3]
 2701              		.loc 1 907 32
 2702 009e 1288     		ldrh	r2, [r2]
 2703              		.loc 1 907 30
 2704 00a0 DA80     		strh	r2, [r3, #6]	@ movhi
 2705              	.L141:
 908:common/lib.stm32/STM32_USB-FS-Device_Driver/src/usb_core.c ****   }
 909:common/lib.stm32/STM32_USB-FS-Device_Driver/src/usb_core.c **** 
 910:common/lib.stm32/STM32_USB-FS-Device_Driver/src/usb_core.c ****   pInformation->ControlState = SETTING_UP;
 2706              		.loc 1 910 15
 2707 00a2 0C4B     		ldr	r3, .L145+8
 2708 00a4 1B68     		ldr	r3, [r3]
 2709              		.loc 1 910 30
 2710 00a6 0122     		movs	r2, #1
 2711 00a8 1A72     		strb	r2, [r3, #8]
 911:common/lib.stm32/STM32_USB-FS-Device_Driver/src/usb_core.c ****   if (pInformation->USBwLength == 0)
 2712              		.loc 1 911 19
 2713 00aa 0A4B     		ldr	r3, .L145+8
 2714 00ac 1B68     		ldr	r3, [r3]
 2715              		.loc 1 911 21
 2716 00ae DB88     		ldrh	r3, [r3, #6]
 2717              		.loc 1 911 6
 2718 00b0 002B     		cmp	r3, #0
 2719 00b2 02D1     		bne	.L142
 912:common/lib.stm32/STM32_USB-FS-Device_Driver/src/usb_core.c ****   {
 913:common/lib.stm32/STM32_USB-FS-Device_Driver/src/usb_core.c ****     /* Setup with no data stage */
 914:common/lib.stm32/STM32_USB-FS-Device_Driver/src/usb_core.c ****     NoData_Setup0();
 2720              		.loc 1 914 5
 2721 00b4 094B     		ldr	r3, .L145+16
 2722 00b6 9847     		blx	r3
 2723              	.LVL35:
 2724 00b8 01E0     		b	.L143
 2725              	.L142:
 915:common/lib.stm32/STM32_USB-FS-Device_Driver/src/usb_core.c ****   }
 916:common/lib.stm32/STM32_USB-FS-Device_Driver/src/usb_core.c ****   else
 917:common/lib.stm32/STM32_USB-FS-Device_Driver/src/usb_core.c ****   {
 918:common/lib.stm32/STM32_USB-FS-Device_Driver/src/usb_core.c ****     /* Setup with data stage */
 919:common/lib.stm32/STM32_USB-FS-Device_Driver/src/usb_core.c ****     Data_Setup0();
 2726              		.loc 1 919 5
 2727 00ba 094B     		ldr	r3, .L145+20
 2728 00bc 9847     		blx	r3
 2729              	.LVL36:
 2730              	.L143:
 920:common/lib.stm32/STM32_USB-FS-Device_Driver/src/usb_core.c ****   }
 921:common/lib.stm32/STM32_USB-FS-Device_Driver/src/usb_core.c ****   return Post0_Process();
 2731              		.loc 1 921 10
 2732 00be 094B     		ldr	r3, .L145+24
 2733 00c0 9847     		blx	r3
 2734              	.LVL37:
 2735 00c2 0346     		mov	r3, r0
 922:common/lib.stm32/STM32_USB-FS-Device_Driver/src/usb_core.c **** }
 2736              		.loc 1 922 1
 2737 00c4 1846     		mov	r0, r3
 2738 00c6 0C37     		adds	r7, r7, #12
 2739              	.LCFI63:
 2740              		.cfi_def_cfa_offset 12
 2741 00c8 BD46     		mov	sp, r7
 2742              	.LCFI64:
 2743              		.cfi_def_cfa_register 13
 2744              		@ sp needed
 2745 00ca 90BD     		pop	{r4, r7, pc}
 2746              	.L146:
 2747              		.align	2
 2748              	.L145:
 2749 00cc 505C0040 		.word	1073765456
 2750 00d0 04300020 		.word	536883204
 2751 00d4 00000000 		.word	pInformation
 2752 00d8 00000000 		.word	ByteSwap
 2753 00dc 00000000 		.word	NoData_Setup0
 2754 00e0 00000000 		.word	Data_Setup0
 2755 00e4 00000000 		.word	Post0_Process
 2756              		.cfi_endproc
 2757              	.LFE40:
 2759              		.section	.text.In0_Process,"ax",%progbits
 2760              		.align	1
 2761              		.global	In0_Process
 2762              		.syntax unified
 2763              		.thumb
 2764              		.thumb_func
 2766              	In0_Process:
 2767              	.LFB41:
 923:common/lib.stm32/STM32_USB-FS-Device_Driver/src/usb_core.c **** 
 924:common/lib.stm32/STM32_USB-FS-Device_Driver/src/usb_core.c **** /*******************************************************************************
 925:common/lib.stm32/STM32_USB-FS-Device_Driver/src/usb_core.c **** * Function Name  : In0_Process
 926:common/lib.stm32/STM32_USB-FS-Device_Driver/src/usb_core.c **** * Description    : Process the IN token on all default endpoint.
 927:common/lib.stm32/STM32_USB-FS-Device_Driver/src/usb_core.c **** * Input          : None.
 928:common/lib.stm32/STM32_USB-FS-Device_Driver/src/usb_core.c **** * Output         : None.
 929:common/lib.stm32/STM32_USB-FS-Device_Driver/src/usb_core.c **** * Return         : Post0_Process.
 930:common/lib.stm32/STM32_USB-FS-Device_Driver/src/usb_core.c **** *******************************************************************************/
 931:common/lib.stm32/STM32_USB-FS-Device_Driver/src/usb_core.c **** uint8_t In0_Process(void)
 932:common/lib.stm32/STM32_USB-FS-Device_Driver/src/usb_core.c **** {
 2768              		.loc 1 932 1
 2769              		.cfi_startproc
 2770              		@ args = 0, pretend = 0, frame = 8
 2771              		@ frame_needed = 1, uses_anonymous_args = 0
 2772 0000 80B5     		push	{r7, lr}
 2773              	.LCFI65:
 2774              		.cfi_def_cfa_offset 8
 2775              		.cfi_offset 7, -8
 2776              		.cfi_offset 14, -4
 2777 0002 82B0     		sub	sp, sp, #8
 2778              	.LCFI66:
 2779              		.cfi_def_cfa_offset 16
 2780 0004 00AF     		add	r7, sp, #0
 2781              	.LCFI67:
 2782              		.cfi_def_cfa_register 7
 933:common/lib.stm32/STM32_USB-FS-Device_Driver/src/usb_core.c ****   uint32_t ControlState = pInformation->ControlState;
 2783              		.loc 1 933 39
 2784 0006 1F4B     		ldr	r3, .L154
 2785 0008 1B68     		ldr	r3, [r3]
 2786 000a 1B7A     		ldrb	r3, [r3, #8]	@ zero_extendqisi2
 2787              		.loc 1 933 12
 2788 000c 7B60     		str	r3, [r7, #4]
 934:common/lib.stm32/STM32_USB-FS-Device_Driver/src/usb_core.c **** 
 935:common/lib.stm32/STM32_USB-FS-Device_Driver/src/usb_core.c ****   if ((ControlState == IN_DATA) || (ControlState == LAST_IN_DATA))
 2789              		.loc 1 935 6
 2790 000e 7B68     		ldr	r3, [r7, #4]
 2791 0010 022B     		cmp	r3, #2
 2792 0012 02D0     		beq	.L148
 2793              		.loc 1 935 33 discriminator 1
 2794 0014 7B68     		ldr	r3, [r7, #4]
 2795 0016 042B     		cmp	r3, #4
 2796 0018 06D1     		bne	.L149
 2797              	.L148:
 936:common/lib.stm32/STM32_USB-FS-Device_Driver/src/usb_core.c ****   {
 937:common/lib.stm32/STM32_USB-FS-Device_Driver/src/usb_core.c ****     DataStageIn();
 2798              		.loc 1 937 5
 2799 001a 1B4B     		ldr	r3, .L154+4
 2800 001c 9847     		blx	r3
 2801              	.LVL38:
 938:common/lib.stm32/STM32_USB-FS-Device_Driver/src/usb_core.c ****     /* ControlState may be changed outside the function */
 939:common/lib.stm32/STM32_USB-FS-Device_Driver/src/usb_core.c ****     ControlState = pInformation->ControlState;
 2802              		.loc 1 939 32
 2803 001e 194B     		ldr	r3, .L154
 2804 0020 1B68     		ldr	r3, [r3]
 2805 0022 1B7A     		ldrb	r3, [r3, #8]	@ zero_extendqisi2
 2806              		.loc 1 939 18
 2807 0024 7B60     		str	r3, [r7, #4]
 2808 0026 21E0     		b	.L150
 2809              	.L149:
 940:common/lib.stm32/STM32_USB-FS-Device_Driver/src/usb_core.c ****   }
 941:common/lib.stm32/STM32_USB-FS-Device_Driver/src/usb_core.c **** 
 942:common/lib.stm32/STM32_USB-FS-Device_Driver/src/usb_core.c ****   else if (ControlState == WAIT_STATUS_IN)
 2810              		.loc 1 942 11
 2811 0028 7B68     		ldr	r3, [r7, #4]
 2812 002a 062B     		cmp	r3, #6
 2813 002c 1CD1     		bne	.L151
 943:common/lib.stm32/STM32_USB-FS-Device_Driver/src/usb_core.c ****   {
 944:common/lib.stm32/STM32_USB-FS-Device_Driver/src/usb_core.c ****     if ((pInformation->USBbRequest == SET_ADDRESS) &&
 2814              		.loc 1 944 22
 2815 002e 154B     		ldr	r3, .L154
 2816 0030 1B68     		ldr	r3, [r3]
 2817 0032 5B78     		ldrb	r3, [r3, #1]	@ zero_extendqisi2
 2818              		.loc 1 944 8
 2819 0034 052B     		cmp	r3, #5
 2820 0036 10D1     		bne	.L152
 945:common/lib.stm32/STM32_USB-FS-Device_Driver/src/usb_core.c ****         (Type_Recipient == (STANDARD_REQUEST | DEVICE_RECIPIENT)))
 2821              		.loc 1 945 10 discriminator 1
 2822 0038 124B     		ldr	r3, .L154
 2823 003a 1B68     		ldr	r3, [r3]
 2824 003c 1B78     		ldrb	r3, [r3]	@ zero_extendqisi2
 2825 003e 03F07F03 		and	r3, r3, #127
 944:common/lib.stm32/STM32_USB-FS-Device_Driver/src/usb_core.c ****         (Type_Recipient == (STANDARD_REQUEST | DEVICE_RECIPIENT)))
 2826              		.loc 1 944 52 discriminator 1
 2827 0042 002B     		cmp	r3, #0
 2828 0044 09D1     		bne	.L152
 946:common/lib.stm32/STM32_USB-FS-Device_Driver/src/usb_core.c ****     {
 947:common/lib.stm32/STM32_USB-FS-Device_Driver/src/usb_core.c ****       SetDeviceAddress(pInformation->USBwValue0);
 2829              		.loc 1 947 36
 2830 0046 0F4B     		ldr	r3, .L154
 2831 0048 1B68     		ldr	r3, [r3]
 2832              		.loc 1 947 7
 2833 004a DB78     		ldrb	r3, [r3, #3]	@ zero_extendqisi2
 2834 004c 1846     		mov	r0, r3
 2835 004e 0F4B     		ldr	r3, .L154+8
 2836 0050 9847     		blx	r3
 2837              	.LVL39:
 948:common/lib.stm32/STM32_USB-FS-Device_Driver/src/usb_core.c ****       pUser_Standard_Requests->User_SetDeviceAddress();
 2838              		.loc 1 948 30
 2839 0052 0F4B     		ldr	r3, .L154+12
 2840 0054 1B68     		ldr	r3, [r3]
 2841 0056 1B6A     		ldr	r3, [r3, #32]
 2842              		.loc 1 948 7
 2843 0058 9847     		blx	r3
 2844              	.LVL40:
 2845              	.L152:
 949:common/lib.stm32/STM32_USB-FS-Device_Driver/src/usb_core.c ****     }
 950:common/lib.stm32/STM32_USB-FS-Device_Driver/src/usb_core.c ****     (*pProperty->Process_Status_IN)();
 2846              		.loc 1 950 16
 2847 005a 0E4B     		ldr	r3, .L154+16
 2848 005c 1B68     		ldr	r3, [r3]
 2849              		.loc 1 950 6
 2850 005e 9B68     		ldr	r3, [r3, #8]
 2851 0060 9847     		blx	r3
 2852              	.LVL41:
 951:common/lib.stm32/STM32_USB-FS-Device_Driver/src/usb_core.c ****     ControlState = STALLED;
 2853              		.loc 1 951 18
 2854 0062 0823     		movs	r3, #8
 2855 0064 7B60     		str	r3, [r7, #4]
 2856 0066 01E0     		b	.L150
 2857              	.L151:
 952:common/lib.stm32/STM32_USB-FS-Device_Driver/src/usb_core.c ****   }
 953:common/lib.stm32/STM32_USB-FS-Device_Driver/src/usb_core.c **** 
 954:common/lib.stm32/STM32_USB-FS-Device_Driver/src/usb_core.c ****   else
 955:common/lib.stm32/STM32_USB-FS-Device_Driver/src/usb_core.c ****   {
 956:common/lib.stm32/STM32_USB-FS-Device_Driver/src/usb_core.c ****     ControlState = STALLED;
 2858              		.loc 1 956 18
 2859 0068 0823     		movs	r3, #8
 2860 006a 7B60     		str	r3, [r7, #4]
 2861              	.L150:
 957:common/lib.stm32/STM32_USB-FS-Device_Driver/src/usb_core.c ****   }
 958:common/lib.stm32/STM32_USB-FS-Device_Driver/src/usb_core.c **** 
 959:common/lib.stm32/STM32_USB-FS-Device_Driver/src/usb_core.c ****   pInformation->ControlState = ControlState;
 2862              		.loc 1 959 15
 2863 006c 054B     		ldr	r3, .L154
 2864 006e 1B68     		ldr	r3, [r3]
 2865              		.loc 1 959 30
 2866 0070 7A68     		ldr	r2, [r7, #4]
 2867 0072 D2B2     		uxtb	r2, r2
 2868 0074 1A72     		strb	r2, [r3, #8]
 960:common/lib.stm32/STM32_USB-FS-Device_Driver/src/usb_core.c **** 
 961:common/lib.stm32/STM32_USB-FS-Device_Driver/src/usb_core.c ****   return Post0_Process();
 2869              		.loc 1 961 10
 2870 0076 084B     		ldr	r3, .L154+20
 2871 0078 9847     		blx	r3
 2872              	.LVL42:
 2873 007a 0346     		mov	r3, r0
 962:common/lib.stm32/STM32_USB-FS-Device_Driver/src/usb_core.c **** }
 2874              		.loc 1 962 1
 2875 007c 1846     		mov	r0, r3
 2876 007e 0837     		adds	r7, r7, #8
 2877              	.LCFI68:
 2878              		.cfi_def_cfa_offset 8
 2879 0080 BD46     		mov	sp, r7
 2880              	.LCFI69:
 2881              		.cfi_def_cfa_register 13
 2882              		@ sp needed
 2883 0082 80BD     		pop	{r7, pc}
 2884              	.L155:
 2885              		.align	2
 2886              	.L154:
 2887 0084 00000000 		.word	pInformation
 2888 0088 00000000 		.word	DataStageIn
 2889 008c 00000000 		.word	SetDeviceAddress
 2890 0090 00000000 		.word	pUser_Standard_Requests
 2891 0094 00000000 		.word	pProperty
 2892 0098 00000000 		.word	Post0_Process
 2893              		.cfi_endproc
 2894              	.LFE41:
 2896              		.section	.text.Out0_Process,"ax",%progbits
 2897              		.align	1
 2898              		.global	Out0_Process
 2899              		.syntax unified
 2900              		.thumb
 2901              		.thumb_func
 2903              	Out0_Process:
 2904              	.LFB42:
 963:common/lib.stm32/STM32_USB-FS-Device_Driver/src/usb_core.c **** 
 964:common/lib.stm32/STM32_USB-FS-Device_Driver/src/usb_core.c **** /*******************************************************************************
 965:common/lib.stm32/STM32_USB-FS-Device_Driver/src/usb_core.c **** * Function Name  : Out0_Process
 966:common/lib.stm32/STM32_USB-FS-Device_Driver/src/usb_core.c **** * Description    : Process the OUT token on all default endpoint.
 967:common/lib.stm32/STM32_USB-FS-Device_Driver/src/usb_core.c **** * Input          : None.
 968:common/lib.stm32/STM32_USB-FS-Device_Driver/src/usb_core.c **** * Output         : None.
 969:common/lib.stm32/STM32_USB-FS-Device_Driver/src/usb_core.c **** * Return         : Post0_Process.
 970:common/lib.stm32/STM32_USB-FS-Device_Driver/src/usb_core.c **** *******************************************************************************/
 971:common/lib.stm32/STM32_USB-FS-Device_Driver/src/usb_core.c **** uint8_t Out0_Process(void)
 972:common/lib.stm32/STM32_USB-FS-Device_Driver/src/usb_core.c **** {
 2905              		.loc 1 972 1
 2906              		.cfi_startproc
 2907              		@ args = 0, pretend = 0, frame = 8
 2908              		@ frame_needed = 1, uses_anonymous_args = 0
 2909 0000 80B5     		push	{r7, lr}
 2910              	.LCFI70:
 2911              		.cfi_def_cfa_offset 8
 2912              		.cfi_offset 7, -8
 2913              		.cfi_offset 14, -4
 2914 0002 82B0     		sub	sp, sp, #8
 2915              	.LCFI71:
 2916              		.cfi_def_cfa_offset 16
 2917 0004 00AF     		add	r7, sp, #0
 2918              	.LCFI72:
 2919              		.cfi_def_cfa_register 7
 973:common/lib.stm32/STM32_USB-FS-Device_Driver/src/usb_core.c ****   uint32_t ControlState = pInformation->ControlState;
 2920              		.loc 1 973 39
 2921 0006 194B     		ldr	r3, .L164
 2922 0008 1B68     		ldr	r3, [r3]
 2923 000a 1B7A     		ldrb	r3, [r3, #8]	@ zero_extendqisi2
 2924              		.loc 1 973 12
 2925 000c 7B60     		str	r3, [r7, #4]
 974:common/lib.stm32/STM32_USB-FS-Device_Driver/src/usb_core.c **** 
 975:common/lib.stm32/STM32_USB-FS-Device_Driver/src/usb_core.c ****   if ((ControlState == IN_DATA) || (ControlState == LAST_IN_DATA))
 2926              		.loc 1 975 6
 2927 000e 7B68     		ldr	r3, [r7, #4]
 2928 0010 022B     		cmp	r3, #2
 2929 0012 02D0     		beq	.L157
 2930              		.loc 1 975 33 discriminator 1
 2931 0014 7B68     		ldr	r3, [r7, #4]
 2932 0016 042B     		cmp	r3, #4
 2933 0018 02D1     		bne	.L158
 2934              	.L157:
 976:common/lib.stm32/STM32_USB-FS-Device_Driver/src/usb_core.c ****   {
 977:common/lib.stm32/STM32_USB-FS-Device_Driver/src/usb_core.c ****     /* host aborts the transfer before finish */
 978:common/lib.stm32/STM32_USB-FS-Device_Driver/src/usb_core.c ****     ControlState = STALLED;
 2935              		.loc 1 978 18
 2936 001a 0823     		movs	r3, #8
 2937 001c 7B60     		str	r3, [r7, #4]
 2938 001e 18E0     		b	.L159
 2939              	.L158:
 979:common/lib.stm32/STM32_USB-FS-Device_Driver/src/usb_core.c ****   }
 980:common/lib.stm32/STM32_USB-FS-Device_Driver/src/usb_core.c ****   else if ((ControlState == OUT_DATA) || (ControlState == LAST_OUT_DATA))
 2940              		.loc 1 980 11
 2941 0020 7B68     		ldr	r3, [r7, #4]
 2942 0022 032B     		cmp	r3, #3
 2943 0024 02D0     		beq	.L160
 2944              		.loc 1 980 39 discriminator 1
 2945 0026 7B68     		ldr	r3, [r7, #4]
 2946 0028 052B     		cmp	r3, #5
 2947 002a 06D1     		bne	.L161
 2948              	.L160:
 981:common/lib.stm32/STM32_USB-FS-Device_Driver/src/usb_core.c ****   {
 982:common/lib.stm32/STM32_USB-FS-Device_Driver/src/usb_core.c ****     DataStageOut();
 2949              		.loc 1 982 5
 2950 002c 104B     		ldr	r3, .L164+4
 2951 002e 9847     		blx	r3
 2952              	.LVL43:
 983:common/lib.stm32/STM32_USB-FS-Device_Driver/src/usb_core.c ****     ControlState = pInformation->ControlState; /* may be changed outside the function */
 2953              		.loc 1 983 32
 2954 0030 0E4B     		ldr	r3, .L164
 2955 0032 1B68     		ldr	r3, [r3]
 2956 0034 1B7A     		ldrb	r3, [r3, #8]	@ zero_extendqisi2
 2957              		.loc 1 983 18
 2958 0036 7B60     		str	r3, [r7, #4]
 2959 0038 0BE0     		b	.L159
 2960              	.L161:
 984:common/lib.stm32/STM32_USB-FS-Device_Driver/src/usb_core.c ****   }
 985:common/lib.stm32/STM32_USB-FS-Device_Driver/src/usb_core.c **** 
 986:common/lib.stm32/STM32_USB-FS-Device_Driver/src/usb_core.c ****   else if (ControlState == WAIT_STATUS_OUT)
 2961              		.loc 1 986 11
 2962 003a 7B68     		ldr	r3, [r7, #4]
 2963 003c 072B     		cmp	r3, #7
 2964 003e 06D1     		bne	.L162
 987:common/lib.stm32/STM32_USB-FS-Device_Driver/src/usb_core.c ****   {
 988:common/lib.stm32/STM32_USB-FS-Device_Driver/src/usb_core.c ****     (*pProperty->Process_Status_OUT)();
 2965              		.loc 1 988 16
 2966 0040 0C4B     		ldr	r3, .L164+8
 2967 0042 1B68     		ldr	r3, [r3]
 2968              		.loc 1 988 6
 2969 0044 DB68     		ldr	r3, [r3, #12]
 2970 0046 9847     		blx	r3
 2971              	.LVL44:
 989:common/lib.stm32/STM32_USB-FS-Device_Driver/src/usb_core.c ****   #ifndef STM32F10X_CL
 990:common/lib.stm32/STM32_USB-FS-Device_Driver/src/usb_core.c ****     ControlState = STALLED;
 2972              		.loc 1 990 18
 2973 0048 0823     		movs	r3, #8
 2974 004a 7B60     		str	r3, [r7, #4]
 2975 004c 01E0     		b	.L159
 2976              	.L162:
 991:common/lib.stm32/STM32_USB-FS-Device_Driver/src/usb_core.c ****   #endif /* STM32F10X_CL */
 992:common/lib.stm32/STM32_USB-FS-Device_Driver/src/usb_core.c ****   }
 993:common/lib.stm32/STM32_USB-FS-Device_Driver/src/usb_core.c **** 
 994:common/lib.stm32/STM32_USB-FS-Device_Driver/src/usb_core.c **** 
 995:common/lib.stm32/STM32_USB-FS-Device_Driver/src/usb_core.c ****   /* Unexpect state, STALL the endpoint */
 996:common/lib.stm32/STM32_USB-FS-Device_Driver/src/usb_core.c ****   else
 997:common/lib.stm32/STM32_USB-FS-Device_Driver/src/usb_core.c ****   {
 998:common/lib.stm32/STM32_USB-FS-Device_Driver/src/usb_core.c ****     ControlState = STALLED;
 2977              		.loc 1 998 18
 2978 004e 0823     		movs	r3, #8
 2979 0050 7B60     		str	r3, [r7, #4]
 2980              	.L159:
 999:common/lib.stm32/STM32_USB-FS-Device_Driver/src/usb_core.c ****   }
1000:common/lib.stm32/STM32_USB-FS-Device_Driver/src/usb_core.c **** 
1001:common/lib.stm32/STM32_USB-FS-Device_Driver/src/usb_core.c ****   pInformation->ControlState = ControlState;
 2981              		.loc 1 1001 15
 2982 0052 064B     		ldr	r3, .L164
 2983 0054 1B68     		ldr	r3, [r3]
 2984              		.loc 1 1001 30
 2985 0056 7A68     		ldr	r2, [r7, #4]
 2986 0058 D2B2     		uxtb	r2, r2
 2987 005a 1A72     		strb	r2, [r3, #8]
1002:common/lib.stm32/STM32_USB-FS-Device_Driver/src/usb_core.c **** 
1003:common/lib.stm32/STM32_USB-FS-Device_Driver/src/usb_core.c ****   return Post0_Process();
 2988              		.loc 1 1003 10
 2989 005c 064B     		ldr	r3, .L164+12
 2990 005e 9847     		blx	r3
 2991              	.LVL45:
 2992 0060 0346     		mov	r3, r0
1004:common/lib.stm32/STM32_USB-FS-Device_Driver/src/usb_core.c **** }
 2993              		.loc 1 1004 1
 2994 0062 1846     		mov	r0, r3
 2995 0064 0837     		adds	r7, r7, #8
 2996              	.LCFI73:
 2997              		.cfi_def_cfa_offset 8
 2998 0066 BD46     		mov	sp, r7
 2999              	.LCFI74:
 3000              		.cfi_def_cfa_register 13
 3001              		@ sp needed
 3002 0068 80BD     		pop	{r7, pc}
 3003              	.L165:
 3004 006a 00BF     		.align	2
 3005              	.L164:
 3006 006c 00000000 		.word	pInformation
 3007 0070 00000000 		.word	DataStageOut
 3008 0074 00000000 		.word	pProperty
 3009 0078 00000000 		.word	Post0_Process
 3010              		.cfi_endproc
 3011              	.LFE42:
 3013              		.section	.text.Post0_Process,"ax",%progbits
 3014              		.align	1
 3015              		.global	Post0_Process
 3016              		.syntax unified
 3017              		.thumb
 3018              		.thumb_func
 3020              	Post0_Process:
 3021              	.LFB43:
1005:common/lib.stm32/STM32_USB-FS-Device_Driver/src/usb_core.c **** 
1006:common/lib.stm32/STM32_USB-FS-Device_Driver/src/usb_core.c **** /*******************************************************************************
1007:common/lib.stm32/STM32_USB-FS-Device_Driver/src/usb_core.c **** * Function Name  : Post0_Process
1008:common/lib.stm32/STM32_USB-FS-Device_Driver/src/usb_core.c **** * Description    : Stall the Endpoint 0 in case of error.
1009:common/lib.stm32/STM32_USB-FS-Device_Driver/src/usb_core.c **** * Input          : None.
1010:common/lib.stm32/STM32_USB-FS-Device_Driver/src/usb_core.c **** * Output         : None.
1011:common/lib.stm32/STM32_USB-FS-Device_Driver/src/usb_core.c **** * Return         : - 0 if the control State is in PAUSE
1012:common/lib.stm32/STM32_USB-FS-Device_Driver/src/usb_core.c **** *                  - 1 if not.
1013:common/lib.stm32/STM32_USB-FS-Device_Driver/src/usb_core.c **** *******************************************************************************/
1014:common/lib.stm32/STM32_USB-FS-Device_Driver/src/usb_core.c **** uint8_t Post0_Process(void)
1015:common/lib.stm32/STM32_USB-FS-Device_Driver/src/usb_core.c **** {
 3022              		.loc 1 1015 1
 3023              		.cfi_startproc
 3024              		@ args = 0, pretend = 0, frame = 0
 3025              		@ frame_needed = 1, uses_anonymous_args = 0
 3026 0000 80B5     		push	{r7, lr}
 3027              	.LCFI75:
 3028              		.cfi_def_cfa_offset 8
 3029              		.cfi_offset 7, -8
 3030              		.cfi_offset 14, -4
 3031 0002 00AF     		add	r7, sp, #0
 3032              	.LCFI76:
 3033              		.cfi_def_cfa_register 7
1016:common/lib.stm32/STM32_USB-FS-Device_Driver/src/usb_core.c **** #ifdef STM32F10X_CL  
1017:common/lib.stm32/STM32_USB-FS-Device_Driver/src/usb_core.c ****   USB_OTG_EP *ep;
1018:common/lib.stm32/STM32_USB-FS-Device_Driver/src/usb_core.c **** #endif /* STM32F10X_CL */
1019:common/lib.stm32/STM32_USB-FS-Device_Driver/src/usb_core.c ****       
1020:common/lib.stm32/STM32_USB-FS-Device_Driver/src/usb_core.c ****   SetEPRxCount(ENDP0, Device_Property.MaxPacketSize);
 3034              		.loc 1 1020 38
 3035 0004 0E4B     		ldr	r3, .L169
 3036 0006 93F82C30 		ldrb	r3, [r3, #44]	@ zero_extendqisi2
 3037              		.loc 1 1020 3
 3038 000a 9BB2     		uxth	r3, r3
 3039 000c 1946     		mov	r1, r3
 3040 000e 0020     		movs	r0, #0
 3041 0010 0C4B     		ldr	r3, .L169+4
 3042 0012 9847     		blx	r3
 3043              	.LVL46:
1021:common/lib.stm32/STM32_USB-FS-Device_Driver/src/usb_core.c **** 
1022:common/lib.stm32/STM32_USB-FS-Device_Driver/src/usb_core.c ****   if (pInformation->ControlState == STALLED)
 3044              		.loc 1 1022 19
 3045 0014 0C4B     		ldr	r3, .L169+8
 3046 0016 1B68     		ldr	r3, [r3]
 3047 0018 1B7A     		ldrb	r3, [r3, #8]	@ zero_extendqisi2
 3048              		.loc 1 1022 6
 3049 001a 082B     		cmp	r3, #8
 3050 001c 06D1     		bne	.L167
1023:common/lib.stm32/STM32_USB-FS-Device_Driver/src/usb_core.c ****   {
1024:common/lib.stm32/STM32_USB-FS-Device_Driver/src/usb_core.c ****     vSetEPRxStatus(EP_RX_STALL);
 3051              		.loc 1 1024 5
 3052 001e 0B4B     		ldr	r3, .L169+12
 3053 0020 4FF48052 		mov	r2, #4096
 3054 0024 1A80     		strh	r2, [r3]	@ movhi
1025:common/lib.stm32/STM32_USB-FS-Device_Driver/src/usb_core.c ****     vSetEPTxStatus(EP_TX_STALL);
 3055              		.loc 1 1025 5
 3056 0026 0A4B     		ldr	r3, .L169+16
 3057 0028 1022     		movs	r2, #16
 3058 002a 1A80     		strh	r2, [r3]	@ movhi
 3059              	.L167:
1026:common/lib.stm32/STM32_USB-FS-Device_Driver/src/usb_core.c ****   }
1027:common/lib.stm32/STM32_USB-FS-Device_Driver/src/usb_core.c **** 
1028:common/lib.stm32/STM32_USB-FS-Device_Driver/src/usb_core.c **** #ifdef STM32F10X_CL
1029:common/lib.stm32/STM32_USB-FS-Device_Driver/src/usb_core.c ****   else if ((pInformation->ControlState == OUT_DATA) ||
1030:common/lib.stm32/STM32_USB-FS-Device_Driver/src/usb_core.c ****       (pInformation->ControlState == WAIT_STATUS_OUT))
1031:common/lib.stm32/STM32_USB-FS-Device_Driver/src/usb_core.c ****   {
1032:common/lib.stm32/STM32_USB-FS-Device_Driver/src/usb_core.c ****     ep = PCD_GetInEP(0);
1033:common/lib.stm32/STM32_USB-FS-Device_Driver/src/usb_core.c ****     ep->is_in = 0;
1034:common/lib.stm32/STM32_USB-FS-Device_Driver/src/usb_core.c ****     OTGD_FS_EP0StartXfer(ep);
1035:common/lib.stm32/STM32_USB-FS-Device_Driver/src/usb_core.c ****     
1036:common/lib.stm32/STM32_USB-FS-Device_Driver/src/usb_core.c ****     vSetEPTxStatus(EP_TX_VALID);
1037:common/lib.stm32/STM32_USB-FS-Device_Driver/src/usb_core.c ****   }
1038:common/lib.stm32/STM32_USB-FS-Device_Driver/src/usb_core.c ****   
1039:common/lib.stm32/STM32_USB-FS-Device_Driver/src/usb_core.c ****   else if ((pInformation->ControlState == IN_DATA) || 
1040:common/lib.stm32/STM32_USB-FS-Device_Driver/src/usb_core.c ****       (pInformation->ControlState == WAIT_STATUS_IN))
1041:common/lib.stm32/STM32_USB-FS-Device_Driver/src/usb_core.c ****   {
1042:common/lib.stm32/STM32_USB-FS-Device_Driver/src/usb_core.c ****     ep = PCD_GetInEP(0);
1043:common/lib.stm32/STM32_USB-FS-Device_Driver/src/usb_core.c ****     ep->is_in = 1;
1044:common/lib.stm32/STM32_USB-FS-Device_Driver/src/usb_core.c ****     OTGD_FS_EP0StartXfer(ep);    
1045:common/lib.stm32/STM32_USB-FS-Device_Driver/src/usb_core.c ****   }  
1046:common/lib.stm32/STM32_USB-FS-Device_Driver/src/usb_core.c **** #endif /* STM32F10X_CL */
1047:common/lib.stm32/STM32_USB-FS-Device_Driver/src/usb_core.c **** 
1048:common/lib.stm32/STM32_USB-FS-Device_Driver/src/usb_core.c ****   return (pInformation->ControlState == PAUSE);
 3060              		.loc 1 1048 23
 3061 002c 064B     		ldr	r3, .L169+8
 3062 002e 1B68     		ldr	r3, [r3]
 3063 0030 1B7A     		ldrb	r3, [r3, #8]	@ zero_extendqisi2
 3064              		.loc 1 1048 38
 3065 0032 092B     		cmp	r3, #9
 3066 0034 0CBF     		ite	eq
 3067 0036 0123     		moveq	r3, #1
 3068 0038 0023     		movne	r3, #0
 3069 003a DBB2     		uxtb	r3, r3
1049:common/lib.stm32/STM32_USB-FS-Device_Driver/src/usb_core.c **** }
 3070              		.loc 1 1049 1
 3071 003c 1846     		mov	r0, r3
 3072 003e 80BD     		pop	{r7, pc}
 3073              	.L170:
 3074              		.align	2
 3075              	.L169:
 3076 0040 00000000 		.word	Device_Property
 3077 0044 00000000 		.word	SetEPRxCount
 3078 0048 00000000 		.word	pInformation
 3079 004c 00000000 		.word	SaveRState
 3080 0050 00000000 		.word	SaveTState
 3081              		.cfi_endproc
 3082              	.LFE43:
 3084              		.section	.text.SetDeviceAddress,"ax",%progbits
 3085              		.align	1
 3086              		.global	SetDeviceAddress
 3087              		.syntax unified
 3088              		.thumb
 3089              		.thumb_func
 3091              	SetDeviceAddress:
 3092              	.LFB44:
1050:common/lib.stm32/STM32_USB-FS-Device_Driver/src/usb_core.c **** 
1051:common/lib.stm32/STM32_USB-FS-Device_Driver/src/usb_core.c **** /*******************************************************************************
1052:common/lib.stm32/STM32_USB-FS-Device_Driver/src/usb_core.c **** * Function Name  : SetDeviceAddress.
1053:common/lib.stm32/STM32_USB-FS-Device_Driver/src/usb_core.c **** * Description    : Set the device and all the used Endpoints addresses.
1054:common/lib.stm32/STM32_USB-FS-Device_Driver/src/usb_core.c **** * Input          : - Val: device adress.
1055:common/lib.stm32/STM32_USB-FS-Device_Driver/src/usb_core.c **** * Output         : None.
1056:common/lib.stm32/STM32_USB-FS-Device_Driver/src/usb_core.c **** * Return         : None.
1057:common/lib.stm32/STM32_USB-FS-Device_Driver/src/usb_core.c **** *******************************************************************************/
1058:common/lib.stm32/STM32_USB-FS-Device_Driver/src/usb_core.c **** void SetDeviceAddress(uint8_t Val)
1059:common/lib.stm32/STM32_USB-FS-Device_Driver/src/usb_core.c **** {
 3093              		.loc 1 1059 1
 3094              		.cfi_startproc
 3095              		@ args = 0, pretend = 0, frame = 16
 3096              		@ frame_needed = 1, uses_anonymous_args = 0
 3097              		@ link register save eliminated.
 3098 0000 80B4     		push	{r7}
 3099              	.LCFI77:
 3100              		.cfi_def_cfa_offset 4
 3101              		.cfi_offset 7, -4
 3102 0002 85B0     		sub	sp, sp, #20
 3103              	.LCFI78:
 3104              		.cfi_def_cfa_offset 24
 3105 0004 00AF     		add	r7, sp, #0
 3106              	.LCFI79:
 3107              		.cfi_def_cfa_register 7
 3108 0006 0346     		mov	r3, r0
 3109 0008 FB71     		strb	r3, [r7, #7]
1060:common/lib.stm32/STM32_USB-FS-Device_Driver/src/usb_core.c **** #ifdef STM32F10X_CL 
1061:common/lib.stm32/STM32_USB-FS-Device_Driver/src/usb_core.c ****   PCD_EP_SetAddress ((uint8_t)Val);
1062:common/lib.stm32/STM32_USB-FS-Device_Driver/src/usb_core.c **** #else 
1063:common/lib.stm32/STM32_USB-FS-Device_Driver/src/usb_core.c ****   uint32_t i;
1064:common/lib.stm32/STM32_USB-FS-Device_Driver/src/usb_core.c ****   uint32_t nEP = Device_Table.Total_Endpoint;
 3110              		.loc 1 1064 30
 3111 000a 1A4B     		ldr	r3, .L174
 3112 000c 1B78     		ldrb	r3, [r3]	@ zero_extendqisi2
 3113              		.loc 1 1064 12
 3114 000e BB60     		str	r3, [r7, #8]
1065:common/lib.stm32/STM32_USB-FS-Device_Driver/src/usb_core.c **** 
1066:common/lib.stm32/STM32_USB-FS-Device_Driver/src/usb_core.c ****   /* set address in every used endpoint */
1067:common/lib.stm32/STM32_USB-FS-Device_Driver/src/usb_core.c ****   for (i = 0; i < nEP; i++)
 3115              		.loc 1 1067 10
 3116 0010 0023     		movs	r3, #0
 3117 0012 FB60     		str	r3, [r7, #12]
 3118              		.loc 1 1067 3
 3119 0014 1EE0     		b	.L172
 3120              	.L173:
1068:common/lib.stm32/STM32_USB-FS-Device_Driver/src/usb_core.c ****   {
1069:common/lib.stm32/STM32_USB-FS-Device_Driver/src/usb_core.c ****     _SetEPAddress((uint8_t)i, (uint8_t)i);
 3121              		.loc 1 1069 5 discriminator 3
 3122 0016 FB68     		ldr	r3, [r7, #12]
 3123 0018 DBB2     		uxtb	r3, r3
 3124 001a 9B00     		lsls	r3, r3, #2
 3125 001c 03F18043 		add	r3, r3, #1073741824
 3126 0020 03F5B843 		add	r3, r3, #23552
 3127 0024 1B68     		ldr	r3, [r3]
 3128 0026 9BB2     		uxth	r3, r3
 3129 0028 1A46     		mov	r2, r3
 3130 002a 40F60F73 		movw	r3, #3855
 3131 002e 1340     		ands	r3, r3, r2
 3132 0030 43F40043 		orr	r3, r3, #32768
 3133 0034 43F08003 		orr	r3, r3, #128
 3134 0038 FA68     		ldr	r2, [r7, #12]
 3135 003a D2B2     		uxtb	r2, r2
 3136 003c 1A43     		orrs	r2, r2, r3
 3137 003e FB68     		ldr	r3, [r7, #12]
 3138 0040 DBB2     		uxtb	r3, r3
 3139 0042 9B00     		lsls	r3, r3, #2
 3140 0044 03F18043 		add	r3, r3, #1073741824
 3141 0048 03F5B843 		add	r3, r3, #23552
 3142 004c 1A60     		str	r2, [r3]
1067:common/lib.stm32/STM32_USB-FS-Device_Driver/src/usb_core.c ****   {
 3143              		.loc 1 1067 25 discriminator 3
 3144 004e FB68     		ldr	r3, [r7, #12]
 3145 0050 0133     		adds	r3, r3, #1
 3146 0052 FB60     		str	r3, [r7, #12]
 3147              	.L172:
1067:common/lib.stm32/STM32_USB-FS-Device_Driver/src/usb_core.c ****   {
 3148              		.loc 1 1067 3 discriminator 1
 3149 0054 FA68     		ldr	r2, [r7, #12]
 3150 0056 BB68     		ldr	r3, [r7, #8]
 3151 0058 9A42     		cmp	r2, r3
 3152 005a DCD3     		bcc	.L173
1070:common/lib.stm32/STM32_USB-FS-Device_Driver/src/usb_core.c ****   } /* for */
1071:common/lib.stm32/STM32_USB-FS-Device_Driver/src/usb_core.c ****   _SetDADDR(Val | DADDR_EF); /* set device address and enable function */
 3153              		.loc 1 1071 3
 3154 005c FB79     		ldrb	r3, [r7, #7]
 3155 005e 63F07F03 		orn	r3, r3, #127
 3156 0062 DAB2     		uxtb	r2, r3
 3157 0064 044B     		ldr	r3, .L174+4
 3158 0066 1A60     		str	r2, [r3]
1072:common/lib.stm32/STM32_USB-FS-Device_Driver/src/usb_core.c **** #endif  /* STM32F10X_CL */  
1073:common/lib.stm32/STM32_USB-FS-Device_Driver/src/usb_core.c **** }
 3159              		.loc 1 1073 1
 3160 0068 00BF     		nop
 3161 006a 1437     		adds	r7, r7, #20
 3162              	.LCFI80:
 3163              		.cfi_def_cfa_offset 4
 3164 006c BD46     		mov	sp, r7
 3165              	.LCFI81:
 3166              		.cfi_def_cfa_register 13
 3167              		@ sp needed
 3168 006e 80BC     		pop	{r7}
 3169              	.LCFI82:
 3170              		.cfi_restore 7
 3171              		.cfi_def_cfa_offset 0
 3172 0070 7047     		bx	lr
 3173              	.L175:
 3174 0072 00BF     		.align	2
 3175              	.L174:
 3176 0074 00000000 		.word	Device_Table
 3177 0078 4C5C0040 		.word	1073765452
 3178              		.cfi_endproc
 3179              	.LFE44:
 3181              		.section	.text.NOP_Process,"ax",%progbits
 3182              		.align	1
 3183              		.global	NOP_Process
 3184              		.syntax unified
 3185              		.thumb
 3186              		.thumb_func
 3188              	NOP_Process:
 3189              	.LFB45:
1074:common/lib.stm32/STM32_USB-FS-Device_Driver/src/usb_core.c **** 
1075:common/lib.stm32/STM32_USB-FS-Device_Driver/src/usb_core.c **** /*******************************************************************************
1076:common/lib.stm32/STM32_USB-FS-Device_Driver/src/usb_core.c **** * Function Name  : NOP_Process
1077:common/lib.stm32/STM32_USB-FS-Device_Driver/src/usb_core.c **** * Description    : No operation function.
1078:common/lib.stm32/STM32_USB-FS-Device_Driver/src/usb_core.c **** * Input          : None.
1079:common/lib.stm32/STM32_USB-FS-Device_Driver/src/usb_core.c **** * Output         : None.
1080:common/lib.stm32/STM32_USB-FS-Device_Driver/src/usb_core.c **** * Return         : None.
1081:common/lib.stm32/STM32_USB-FS-Device_Driver/src/usb_core.c **** *******************************************************************************/
1082:common/lib.stm32/STM32_USB-FS-Device_Driver/src/usb_core.c **** void NOP_Process(void)
1083:common/lib.stm32/STM32_USB-FS-Device_Driver/src/usb_core.c **** {
 3190              		.loc 1 1083 1
 3191              		.cfi_startproc
 3192              		@ args = 0, pretend = 0, frame = 0
 3193              		@ frame_needed = 1, uses_anonymous_args = 0
 3194              		@ link register save eliminated.
 3195 0000 80B4     		push	{r7}
 3196              	.LCFI83:
 3197              		.cfi_def_cfa_offset 4
 3198              		.cfi_offset 7, -4
 3199 0002 00AF     		add	r7, sp, #0
 3200              	.LCFI84:
 3201              		.cfi_def_cfa_register 7
1084:common/lib.stm32/STM32_USB-FS-Device_Driver/src/usb_core.c **** }
 3202              		.loc 1 1084 1
 3203 0004 00BF     		nop
 3204 0006 BD46     		mov	sp, r7
 3205              	.LCFI85:
 3206              		.cfi_def_cfa_register 13
 3207              		@ sp needed
 3208 0008 80BC     		pop	{r7}
 3209              	.LCFI86:
 3210              		.cfi_restore 7
 3211              		.cfi_def_cfa_offset 0
 3212 000a 7047     		bx	lr
 3213              		.cfi_endproc
 3214              	.LFE45:
 3216              		.text
 3217              	.Letext0:
 3218              		.file 2 "c:\\program files (x86)\\gnu arm embedded toolchain\\10 2021.10\\arm-none-eabi\\include\\
 3219              		.file 3 "c:\\program files (x86)\\gnu arm embedded toolchain\\10 2021.10\\arm-none-eabi\\include\\
 3220              		.file 4 "common/lib.stm32/STM32_USB-FS-Device_Driver/inc/usb_def.h"
 3221              		.file 5 "common/lib.stm32/STM32_USB-FS-Device_Driver/inc/usb_core.h"
 3222              		.file 6 "common/lib.stm32/STM32_USB-FS-Device_Driver/inc/usb_init.h"
 3223              		.file 7 "common/lib.stm32/STM32_USB-FS-Device_Driver/inc/usb_regs.h"
 3224              		.file 8 "common/lib.stm32/STM32_USB-FS-Device_Driver/inc/usb_mem.h"