   1              		.cpu cortex-m3
   2              		.arch armv7-m
   3              		.fpu softvfp
   4              		.eabi_attribute 20, 1
   5              		.eabi_attribute 21, 1
   6              		.eabi_attribute 23, 3
   7              		.eabi_attribute 24, 1
   8              		.eabi_attribute 25, 1
   9              		.eabi_attribute 26, 1
  10              		.eabi_attribute 30, 6
  11              		.eabi_attribute 34, 1
  12              		.eabi_attribute 18, 4
  13              		.file	"usb_sil.c"
  14              		.text
  15              	.Ltext0:
  16              		.cfi_sections	.debug_frame
  17              		.section	.text.USB_SIL_Init,"ax",%progbits
  18              		.align	1
  19              		.global	USB_SIL_Init
  20              		.syntax unified
  21              		.thumb
  22              		.thumb_func
  24              	USB_SIL_Init:
  25              	.LFB27:
  26              		.file 1 "common/lib.stm32/STM32_USB-FS-Device_Driver/src/usb_sil.c"
   1:common/lib.stm32/STM32_USB-FS-Device_Driver/src/usb_sil.c **** /******************** (C) COPYRIGHT 2010 STMicroelectronics ********************
   2:common/lib.stm32/STM32_USB-FS-Device_Driver/src/usb_sil.c **** * File Name          : usb_sil.c
   3:common/lib.stm32/STM32_USB-FS-Device_Driver/src/usb_sil.c **** * Author             : MCD Application Team
   4:common/lib.stm32/STM32_USB-FS-Device_Driver/src/usb_sil.c **** * Version            : V3.2.1
   5:common/lib.stm32/STM32_USB-FS-Device_Driver/src/usb_sil.c **** * Date               : 07/05/2010
   6:common/lib.stm32/STM32_USB-FS-Device_Driver/src/usb_sil.c **** * Description        : Simplified Interface Layer for Global Initialization and 
   7:common/lib.stm32/STM32_USB-FS-Device_Driver/src/usb_sil.c **** *                      Endpoint Rea/Write operations.
   8:common/lib.stm32/STM32_USB-FS-Device_Driver/src/usb_sil.c **** ********************************************************************************
   9:common/lib.stm32/STM32_USB-FS-Device_Driver/src/usb_sil.c **** * THE PRESENT FIRMWARE WHICH IS FOR GUIDANCE ONLY AIMS AT PROVIDING CUSTOMERS
  10:common/lib.stm32/STM32_USB-FS-Device_Driver/src/usb_sil.c **** * WITH CODING INFORMATION REGARDING THEIR PRODUCTS IN ORDER FOR THEM TO SAVE TIME.
  11:common/lib.stm32/STM32_USB-FS-Device_Driver/src/usb_sil.c **** * AS A RESULT, STMICROELECTRONICS SHALL NOT BE HELD LIABLE FOR ANY DIRECT,
  12:common/lib.stm32/STM32_USB-FS-Device_Driver/src/usb_sil.c **** * INDIRECT OR CONSEQUENTIAL DAMAGES WITH RESPECT TO ANY CLAIMS ARISING FROM THE
  13:common/lib.stm32/STM32_USB-FS-Device_Driver/src/usb_sil.c **** * CONTENT OF SUCH FIRMWARE AND/OR THE USE MADE BY CUSTOMERS OF THE CODING
  14:common/lib.stm32/STM32_USB-FS-Device_Driver/src/usb_sil.c **** * INFORMATION CONTAINED HEREIN IN CONNECTION WITH THEIR PRODUCTS.
  15:common/lib.stm32/STM32_USB-FS-Device_Driver/src/usb_sil.c **** *******************************************************************************/
  16:common/lib.stm32/STM32_USB-FS-Device_Driver/src/usb_sil.c **** 
  17:common/lib.stm32/STM32_USB-FS-Device_Driver/src/usb_sil.c **** /* Includes ------------------------------------------------------------------*/
  18:common/lib.stm32/STM32_USB-FS-Device_Driver/src/usb_sil.c **** #include "usb_lib.h"
  19:common/lib.stm32/STM32_USB-FS-Device_Driver/src/usb_sil.c **** 
  20:common/lib.stm32/STM32_USB-FS-Device_Driver/src/usb_sil.c **** /* Private typedef -----------------------------------------------------------*/
  21:common/lib.stm32/STM32_USB-FS-Device_Driver/src/usb_sil.c **** /* Private define ------------------------------------------------------------*/
  22:common/lib.stm32/STM32_USB-FS-Device_Driver/src/usb_sil.c **** /* Private macro -------------------------------------------------------------*/
  23:common/lib.stm32/STM32_USB-FS-Device_Driver/src/usb_sil.c **** /* Private variables ---------------------------------------------------------*/
  24:common/lib.stm32/STM32_USB-FS-Device_Driver/src/usb_sil.c **** /* Extern variables ----------------------------------------------------------*/
  25:common/lib.stm32/STM32_USB-FS-Device_Driver/src/usb_sil.c **** /* Private function prototypes -----------------------------------------------*/
  26:common/lib.stm32/STM32_USB-FS-Device_Driver/src/usb_sil.c **** /* Private functions ---------------------------------------------------------*/
  27:common/lib.stm32/STM32_USB-FS-Device_Driver/src/usb_sil.c **** 
  28:common/lib.stm32/STM32_USB-FS-Device_Driver/src/usb_sil.c **** /*******************************************************************************
  29:common/lib.stm32/STM32_USB-FS-Device_Driver/src/usb_sil.c **** * Function Name  : USB_SIL_Init
  30:common/lib.stm32/STM32_USB-FS-Device_Driver/src/usb_sil.c **** * Description    : Initialize the USB Device IP and the Endpoint 0.
  31:common/lib.stm32/STM32_USB-FS-Device_Driver/src/usb_sil.c **** * Input          : None.
  32:common/lib.stm32/STM32_USB-FS-Device_Driver/src/usb_sil.c **** * Output         : None.
  33:common/lib.stm32/STM32_USB-FS-Device_Driver/src/usb_sil.c **** * Return         : Status.
  34:common/lib.stm32/STM32_USB-FS-Device_Driver/src/usb_sil.c **** *******************************************************************************/
  35:common/lib.stm32/STM32_USB-FS-Device_Driver/src/usb_sil.c **** uint32_t USB_SIL_Init(void)
  36:common/lib.stm32/STM32_USB-FS-Device_Driver/src/usb_sil.c **** {
  27              		.loc 1 36 1
  28              		.cfi_startproc
  29              		@ args = 0, pretend = 0, frame = 0
  30              		@ frame_needed = 1, uses_anonymous_args = 0
  31              		@ link register save eliminated.
  32 0000 80B4     		push	{r7}
  33              	.LCFI0:
  34              		.cfi_def_cfa_offset 4
  35              		.cfi_offset 7, -4
  36 0002 00AF     		add	r7, sp, #0
  37              	.LCFI1:
  38              		.cfi_def_cfa_register 7
  37:common/lib.stm32/STM32_USB-FS-Device_Driver/src/usb_sil.c **** #ifndef STM32F10X_CL
  38:common/lib.stm32/STM32_USB-FS-Device_Driver/src/usb_sil.c ****   
  39:common/lib.stm32/STM32_USB-FS-Device_Driver/src/usb_sil.c ****   /* USB interrupts initialization */
  40:common/lib.stm32/STM32_USB-FS-Device_Driver/src/usb_sil.c ****   /* clear pending interrupts */
  41:common/lib.stm32/STM32_USB-FS-Device_Driver/src/usb_sil.c ****   _SetISTR(0);
  39              		.loc 1 41 3
  40 0004 074B     		ldr	r3, .L3
  41 0006 0022     		movs	r2, #0
  42 0008 1A60     		str	r2, [r3]
  42:common/lib.stm32/STM32_USB-FS-Device_Driver/src/usb_sil.c ****   wInterrupt_Mask = IMR_MSK;
  43              		.loc 1 42 19
  44 000a 074B     		ldr	r3, .L3+4
  45 000c 4FF40642 		mov	r2, #34304
  46 0010 1A80     		strh	r2, [r3]	@ movhi
  43:common/lib.stm32/STM32_USB-FS-Device_Driver/src/usb_sil.c ****   /* set interrupts mask */
  44:common/lib.stm32/STM32_USB-FS-Device_Driver/src/usb_sil.c ****   _SetCNTR(wInterrupt_Mask);
  47              		.loc 1 44 3
  48 0012 054B     		ldr	r3, .L3+4
  49 0014 1A88     		ldrh	r2, [r3]
  50 0016 054B     		ldr	r3, .L3+8
  51 0018 1A60     		str	r2, [r3]
  45:common/lib.stm32/STM32_USB-FS-Device_Driver/src/usb_sil.c ****   
  46:common/lib.stm32/STM32_USB-FS-Device_Driver/src/usb_sil.c **** #else
  47:common/lib.stm32/STM32_USB-FS-Device_Driver/src/usb_sil.c ****   
  48:common/lib.stm32/STM32_USB-FS-Device_Driver/src/usb_sil.c ****   /* Perform OTG Device initialization procedure (including EP0 init) */
  49:common/lib.stm32/STM32_USB-FS-Device_Driver/src/usb_sil.c ****   OTG_DEV_Init();
  50:common/lib.stm32/STM32_USB-FS-Device_Driver/src/usb_sil.c ****   
  51:common/lib.stm32/STM32_USB-FS-Device_Driver/src/usb_sil.c **** #endif /* STM32F10X_CL */
  52:common/lib.stm32/STM32_USB-FS-Device_Driver/src/usb_sil.c **** 
  53:common/lib.stm32/STM32_USB-FS-Device_Driver/src/usb_sil.c ****   return 0;
  52              		.loc 1 53 10
  53 001a 0023     		movs	r3, #0
  54:common/lib.stm32/STM32_USB-FS-Device_Driver/src/usb_sil.c **** }
  54              		.loc 1 54 1
  55 001c 1846     		mov	r0, r3
  56 001e BD46     		mov	sp, r7
  57              	.LCFI2:
  58              		.cfi_def_cfa_register 13
  59              		@ sp needed
  60 0020 80BC     		pop	{r7}
  61              	.LCFI3:
  62              		.cfi_restore 7
  63              		.cfi_def_cfa_offset 0
  64 0022 7047     		bx	lr
  65              	.L4:
  66              		.align	2
  67              	.L3:
  68 0024 445C0040 		.word	1073765444
  69 0028 00000000 		.word	wInterrupt_Mask
  70 002c 405C0040 		.word	1073765440
  71              		.cfi_endproc
  72              	.LFE27:
  74              		.section	.text.USB_SIL_Write,"ax",%progbits
  75              		.align	1
  76              		.global	USB_SIL_Write
  77              		.syntax unified
  78              		.thumb
  79              		.thumb_func
  81              	USB_SIL_Write:
  82              	.LFB28:
  55:common/lib.stm32/STM32_USB-FS-Device_Driver/src/usb_sil.c **** 
  56:common/lib.stm32/STM32_USB-FS-Device_Driver/src/usb_sil.c **** /*******************************************************************************
  57:common/lib.stm32/STM32_USB-FS-Device_Driver/src/usb_sil.c **** * Function Name  : USB_SIL_Write
  58:common/lib.stm32/STM32_USB-FS-Device_Driver/src/usb_sil.c **** * Description    : Write a buffer of data to a selected endpoint.
  59:common/lib.stm32/STM32_USB-FS-Device_Driver/src/usb_sil.c **** * Input          : - bEpAddr: The address of the non control endpoint.
  60:common/lib.stm32/STM32_USB-FS-Device_Driver/src/usb_sil.c **** *                  - pBufferPointer: The pointer to the buffer of data to be written
  61:common/lib.stm32/STM32_USB-FS-Device_Driver/src/usb_sil.c **** *                    to the endpoint.
  62:common/lib.stm32/STM32_USB-FS-Device_Driver/src/usb_sil.c **** *                  - wBufferSize: Number of data to be written (in bytes).
  63:common/lib.stm32/STM32_USB-FS-Device_Driver/src/usb_sil.c **** * Output         : None.
  64:common/lib.stm32/STM32_USB-FS-Device_Driver/src/usb_sil.c **** * Return         : Status.
  65:common/lib.stm32/STM32_USB-FS-Device_Driver/src/usb_sil.c **** *******************************************************************************/
  66:common/lib.stm32/STM32_USB-FS-Device_Driver/src/usb_sil.c **** uint32_t USB_SIL_Write(uint8_t bEpAddr, uint8_t* pBufferPointer, uint32_t wBufferSize)
  67:common/lib.stm32/STM32_USB-FS-Device_Driver/src/usb_sil.c **** {
  83              		.loc 1 67 1
  84              		.cfi_startproc
  85              		@ args = 0, pretend = 0, frame = 16
  86              		@ frame_needed = 1, uses_anonymous_args = 0
  87 0000 80B5     		push	{r7, lr}
  88              	.LCFI4:
  89              		.cfi_def_cfa_offset 8
  90              		.cfi_offset 7, -8
  91              		.cfi_offset 14, -4
  92 0002 84B0     		sub	sp, sp, #16
  93              	.LCFI5:
  94              		.cfi_def_cfa_offset 24
  95 0004 00AF     		add	r7, sp, #0
  96              	.LCFI6:
  97              		.cfi_def_cfa_register 7
  98 0006 0346     		mov	r3, r0
  99 0008 B960     		str	r1, [r7, #8]
 100 000a 7A60     		str	r2, [r7, #4]
 101 000c FB73     		strb	r3, [r7, #15]
  68:common/lib.stm32/STM32_USB-FS-Device_Driver/src/usb_sil.c **** #ifndef STM32F10X_CL
  69:common/lib.stm32/STM32_USB-FS-Device_Driver/src/usb_sil.c **** 
  70:common/lib.stm32/STM32_USB-FS-Device_Driver/src/usb_sil.c ****   /* Use the memory interface function to write to the selected endpoint */
  71:common/lib.stm32/STM32_USB-FS-Device_Driver/src/usb_sil.c ****   UserToPMABufferCopy(pBufferPointer, GetEPTxAddr(bEpAddr & 0x7F), wBufferSize);
 102              		.loc 1 71 3
 103 000e FB7B     		ldrb	r3, [r7, #15]
 104 0010 03F07F03 		and	r3, r3, #127
 105 0014 DBB2     		uxtb	r3, r3
 106 0016 1846     		mov	r0, r3
 107 0018 0C4B     		ldr	r3, .L7
 108 001a 9847     		blx	r3
 109              	.LVL0:
 110 001c 0346     		mov	r3, r0
 111 001e 1946     		mov	r1, r3
 112 0020 7B68     		ldr	r3, [r7, #4]
 113 0022 9BB2     		uxth	r3, r3
 114 0024 1A46     		mov	r2, r3
 115 0026 B868     		ldr	r0, [r7, #8]
 116 0028 094B     		ldr	r3, .L7+4
 117 002a 9847     		blx	r3
 118              	.LVL1:
  72:common/lib.stm32/STM32_USB-FS-Device_Driver/src/usb_sil.c **** 
  73:common/lib.stm32/STM32_USB-FS-Device_Driver/src/usb_sil.c ****   /* Update the data length in the control register */
  74:common/lib.stm32/STM32_USB-FS-Device_Driver/src/usb_sil.c ****   SetEPTxCount((bEpAddr & 0x7F), wBufferSize);
 119              		.loc 1 74 3
 120 002c FB7B     		ldrb	r3, [r7, #15]
 121 002e 03F07F03 		and	r3, r3, #127
 122 0032 DBB2     		uxtb	r3, r3
 123 0034 7A68     		ldr	r2, [r7, #4]
 124 0036 92B2     		uxth	r2, r2
 125 0038 1146     		mov	r1, r2
 126 003a 1846     		mov	r0, r3
 127 003c 054B     		ldr	r3, .L7+8
 128 003e 9847     		blx	r3
 129              	.LVL2:
  75:common/lib.stm32/STM32_USB-FS-Device_Driver/src/usb_sil.c ****   
  76:common/lib.stm32/STM32_USB-FS-Device_Driver/src/usb_sil.c **** #else
  77:common/lib.stm32/STM32_USB-FS-Device_Driver/src/usb_sil.c ****   
  78:common/lib.stm32/STM32_USB-FS-Device_Driver/src/usb_sil.c ****    /* Use the PCD interface layer function to write to the selected endpoint */
  79:common/lib.stm32/STM32_USB-FS-Device_Driver/src/usb_sil.c ****    PCD_EP_Write (bEpAddr, pBufferPointer, wBufferSize); 
  80:common/lib.stm32/STM32_USB-FS-Device_Driver/src/usb_sil.c ****    
  81:common/lib.stm32/STM32_USB-FS-Device_Driver/src/usb_sil.c **** #endif /* STM32F10X_CL */
  82:common/lib.stm32/STM32_USB-FS-Device_Driver/src/usb_sil.c **** 
  83:common/lib.stm32/STM32_USB-FS-Device_Driver/src/usb_sil.c ****   return 0;
 130              		.loc 1 83 10
 131 0040 0023     		movs	r3, #0
  84:common/lib.stm32/STM32_USB-FS-Device_Driver/src/usb_sil.c **** }
 132              		.loc 1 84 1
 133 0042 1846     		mov	r0, r3
 134 0044 1037     		adds	r7, r7, #16
 135              	.LCFI7:
 136              		.cfi_def_cfa_offset 8
 137 0046 BD46     		mov	sp, r7
 138              	.LCFI8:
 139              		.cfi_def_cfa_register 13
 140              		@ sp needed
 141 0048 80BD     		pop	{r7, pc}
 142              	.L8:
 143 004a 00BF     		.align	2
 144              	.L7:
 145 004c 00000000 		.word	GetEPTxAddr
 146 0050 00000000 		.word	UserToPMABufferCopy
 147 0054 00000000 		.word	SetEPTxCount
 148              		.cfi_endproc
 149              	.LFE28:
 151              		.section	.text.USB_SIL_Read,"ax",%progbits
 152              		.align	1
 153              		.global	USB_SIL_Read
 154              		.syntax unified
 155              		.thumb
 156              		.thumb_func
 158              	USB_SIL_Read:
 159              	.LFB29:
  85:common/lib.stm32/STM32_USB-FS-Device_Driver/src/usb_sil.c **** 
  86:common/lib.stm32/STM32_USB-FS-Device_Driver/src/usb_sil.c **** /*******************************************************************************
  87:common/lib.stm32/STM32_USB-FS-Device_Driver/src/usb_sil.c **** * Function Name  : USB_SIL_Read
  88:common/lib.stm32/STM32_USB-FS-Device_Driver/src/usb_sil.c **** * Description    : Write a buffer of data to a selected endpoint.
  89:common/lib.stm32/STM32_USB-FS-Device_Driver/src/usb_sil.c **** * Input          : - bEpAddr: The address of the non control endpoint.
  90:common/lib.stm32/STM32_USB-FS-Device_Driver/src/usb_sil.c **** *                  - pBufferPointer: The pointer to which will be saved the 
  91:common/lib.stm32/STM32_USB-FS-Device_Driver/src/usb_sil.c **** *                     received data buffer.
  92:common/lib.stm32/STM32_USB-FS-Device_Driver/src/usb_sil.c **** * Output         : None.
  93:common/lib.stm32/STM32_USB-FS-Device_Driver/src/usb_sil.c **** * Return         : Number of received data (in Bytes).
  94:common/lib.stm32/STM32_USB-FS-Device_Driver/src/usb_sil.c **** *******************************************************************************/
  95:common/lib.stm32/STM32_USB-FS-Device_Driver/src/usb_sil.c **** uint32_t USB_SIL_Read(uint8_t bEpAddr, uint8_t* pBufferPointer)
  96:common/lib.stm32/STM32_USB-FS-Device_Driver/src/usb_sil.c **** {
 160              		.loc 1 96 1
 161              		.cfi_startproc
 162              		@ args = 0, pretend = 0, frame = 16
 163              		@ frame_needed = 1, uses_anonymous_args = 0
 164 0000 80B5     		push	{r7, lr}
 165              	.LCFI9:
 166              		.cfi_def_cfa_offset 8
 167              		.cfi_offset 7, -8
 168              		.cfi_offset 14, -4
 169 0002 84B0     		sub	sp, sp, #16
 170              	.LCFI10:
 171              		.cfi_def_cfa_offset 24
 172 0004 00AF     		add	r7, sp, #0
 173              	.LCFI11:
 174              		.cfi_def_cfa_register 7
 175 0006 0346     		mov	r3, r0
 176 0008 3960     		str	r1, [r7]
 177 000a FB71     		strb	r3, [r7, #7]
  97:common/lib.stm32/STM32_USB-FS-Device_Driver/src/usb_sil.c ****   uint32_t DataLength = 0;
 178              		.loc 1 97 12
 179 000c 0023     		movs	r3, #0
 180 000e FB60     		str	r3, [r7, #12]
  98:common/lib.stm32/STM32_USB-FS-Device_Driver/src/usb_sil.c **** 
  99:common/lib.stm32/STM32_USB-FS-Device_Driver/src/usb_sil.c **** #ifndef STM32F10X_CL
 100:common/lib.stm32/STM32_USB-FS-Device_Driver/src/usb_sil.c **** 
 101:common/lib.stm32/STM32_USB-FS-Device_Driver/src/usb_sil.c ****   /* Get the number of received data on the selected Endpoint */
 102:common/lib.stm32/STM32_USB-FS-Device_Driver/src/usb_sil.c ****   DataLength = GetEPRxCount(bEpAddr & 0x7F);
 181              		.loc 1 102 16
 182 0010 FB79     		ldrb	r3, [r7, #7]
 183 0012 03F07F03 		and	r3, r3, #127
 184 0016 DBB2     		uxtb	r3, r3
 185 0018 1846     		mov	r0, r3
 186 001a 0C4B     		ldr	r3, .L11
 187 001c 9847     		blx	r3
 188              	.LVL3:
 189 001e 0346     		mov	r3, r0
 190              		.loc 1 102 14
 191 0020 FB60     		str	r3, [r7, #12]
 103:common/lib.stm32/STM32_USB-FS-Device_Driver/src/usb_sil.c ****   
 104:common/lib.stm32/STM32_USB-FS-Device_Driver/src/usb_sil.c ****   /* Use the memory interface function to write to the selected endpoint */
 105:common/lib.stm32/STM32_USB-FS-Device_Driver/src/usb_sil.c ****   PMAToUserBufferCopy(pBufferPointer, GetEPRxAddr(bEpAddr & 0x7F), DataLength);
 192              		.loc 1 105 3
 193 0022 FB79     		ldrb	r3, [r7, #7]
 194 0024 03F07F03 		and	r3, r3, #127
 195 0028 DBB2     		uxtb	r3, r3
 196 002a 1846     		mov	r0, r3
 197 002c 084B     		ldr	r3, .L11+4
 198 002e 9847     		blx	r3
 199              	.LVL4:
 200 0030 0346     		mov	r3, r0
 201 0032 1946     		mov	r1, r3
 202 0034 FB68     		ldr	r3, [r7, #12]
 203 0036 9BB2     		uxth	r3, r3
 204 0038 1A46     		mov	r2, r3
 205 003a 3868     		ldr	r0, [r7]
 206 003c 054B     		ldr	r3, .L11+8
 207 003e 9847     		blx	r3
 208              	.LVL5:
 106:common/lib.stm32/STM32_USB-FS-Device_Driver/src/usb_sil.c **** 
 107:common/lib.stm32/STM32_USB-FS-Device_Driver/src/usb_sil.c **** #else
 108:common/lib.stm32/STM32_USB-FS-Device_Driver/src/usb_sil.c ****   
 109:common/lib.stm32/STM32_USB-FS-Device_Driver/src/usb_sil.c ****   USB_OTG_EP *ep;
 110:common/lib.stm32/STM32_USB-FS-Device_Driver/src/usb_sil.c **** 
 111:common/lib.stm32/STM32_USB-FS-Device_Driver/src/usb_sil.c ****   /* Get the structure pointer of the selected Endpoint */
 112:common/lib.stm32/STM32_USB-FS-Device_Driver/src/usb_sil.c ****   ep = PCD_GetOutEP(bEpAddr);
 113:common/lib.stm32/STM32_USB-FS-Device_Driver/src/usb_sil.c ****   
 114:common/lib.stm32/STM32_USB-FS-Device_Driver/src/usb_sil.c ****   /* Get the number of received data */
 115:common/lib.stm32/STM32_USB-FS-Device_Driver/src/usb_sil.c ****   DataLength = ep->xfer_len;
 116:common/lib.stm32/STM32_USB-FS-Device_Driver/src/usb_sil.c ****   
 117:common/lib.stm32/STM32_USB-FS-Device_Driver/src/usb_sil.c ****   /* Use the PCD interface layer function to read the selected endpoint */
 118:common/lib.stm32/STM32_USB-FS-Device_Driver/src/usb_sil.c ****   PCD_EP_Read (bEpAddr, pBufferPointer, DataLength);
 119:common/lib.stm32/STM32_USB-FS-Device_Driver/src/usb_sil.c ****   
 120:common/lib.stm32/STM32_USB-FS-Device_Driver/src/usb_sil.c **** #endif /* STM32F10X_CL */
 121:common/lib.stm32/STM32_USB-FS-Device_Driver/src/usb_sil.c **** 
 122:common/lib.stm32/STM32_USB-FS-Device_Driver/src/usb_sil.c ****   /* Return the number of received data */
 123:common/lib.stm32/STM32_USB-FS-Device_Driver/src/usb_sil.c ****   return DataLength;
 209              		.loc 1 123 10
 210 0040 FB68     		ldr	r3, [r7, #12]
 124:common/lib.stm32/STM32_USB-FS-Device_Driver/src/usb_sil.c **** }
 211              		.loc 1 124 1
 212 0042 1846     		mov	r0, r3
 213 0044 1037     		adds	r7, r7, #16
 214              	.LCFI12:
 215              		.cfi_def_cfa_offset 8
 216 0046 BD46     		mov	sp, r7
 217              	.LCFI13:
 218              		.cfi_def_cfa_register 13
 219              		@ sp needed
 220 0048 80BD     		pop	{r7, pc}
 221              	.L12:
 222 004a 00BF     		.align	2
 223              	.L11:
 224 004c 00000000 		.word	GetEPRxCount
 225 0050 00000000 		.word	GetEPRxAddr
 226 0054 00000000 		.word	PMAToUserBufferCopy
 227              		.cfi_endproc
 228              	.LFE29:
 230              		.text
 231              	.Letext0:
 232              		.file 2 "c:\\program files (x86)\\gnu arm embedded toolchain\\10 2021.10\\arm-none-eabi\\include\\
 233              		.file 3 "c:\\program files (x86)\\gnu arm embedded toolchain\\10 2021.10\\arm-none-eabi\\include\\
 234              		.file 4 "common/lib.stm32/STM32_USB-FS-Device_Driver/inc/usb_regs.h"
 235              		.file 5 "common/lib.stm32/STM32_USB-FS-Device_Driver/inc/usb_mem.h"
 236              		.file 6 "common/lib.stm32/STM32_USB-FS-Device_Driver/inc/usb_init.h"