   1              		.cpu cortex-m3
   2              		.arch armv7-m
   3              		.fpu softvfp
   4              		.eabi_attribute 20, 1
   5              		.eabi_attribute 21, 1
   6              		.eabi_attribute 23, 3
   7              		.eabi_attribute 24, 1
   8              		.eabi_attribute 25, 1
   9              		.eabi_attribute 26, 1
  10              		.eabi_attribute 30, 6
  11              		.eabi_attribute 34, 1
  12              		.eabi_attribute 18, 4
  13              		.file	"usb_int.c"
  14              		.text
  15              	.Ltext0:
  16              		.cfi_sections	.debug_frame
  17              		.global	SaveRState
  18              		.section	.bss.SaveRState,"aw",%nobits
  19              		.align	1
  22              	SaveRState:
  23 0000 0000     		.space	2
  24              		.global	SaveTState
  25              		.section	.bss.SaveTState,"aw",%nobits
  26              		.align	1
  29              	SaveTState:
  30 0000 0000     		.space	2
  31              		.section	.text.CTR_LP,"ax",%progbits
  32              		.align	1
  33              		.global	CTR_LP
  34              		.syntax unified
  35              		.thumb
  36              		.thumb_func
  38              	CTR_LP:
  39              	.LFB27:
  40              		.file 1 "common/lib.stm32/STM32_USB-FS-Device_Driver/src/usb_int.c"
   1:common/lib.stm32/STM32_USB-FS-Device_Driver/src/usb_int.c **** /******************** (C) COPYRIGHT 2010 STMicroelectronics ********************
   2:common/lib.stm32/STM32_USB-FS-Device_Driver/src/usb_int.c **** * File Name          : usb_int.c
   3:common/lib.stm32/STM32_USB-FS-Device_Driver/src/usb_int.c **** * Author             : MCD Application Team
   4:common/lib.stm32/STM32_USB-FS-Device_Driver/src/usb_int.c **** * Version            : V3.2.1
   5:common/lib.stm32/STM32_USB-FS-Device_Driver/src/usb_int.c **** * Date               : 07/05/2010
   6:common/lib.stm32/STM32_USB-FS-Device_Driver/src/usb_int.c **** * Description        : Endpoint CTR (Low and High) interrupt's service routines
   7:common/lib.stm32/STM32_USB-FS-Device_Driver/src/usb_int.c **** ********************************************************************************
   8:common/lib.stm32/STM32_USB-FS-Device_Driver/src/usb_int.c **** * THE PRESENT FIRMWARE WHICH IS FOR GUIDANCE ONLY AIMS AT PROVIDING CUSTOMERS
   9:common/lib.stm32/STM32_USB-FS-Device_Driver/src/usb_int.c **** * WITH CODING INFORMATION REGARDING THEIR PRODUCTS IN ORDER FOR THEM TO SAVE TIME.
  10:common/lib.stm32/STM32_USB-FS-Device_Driver/src/usb_int.c **** * AS A RESULT, STMICROELECTRONICS SHALL NOT BE HELD LIABLE FOR ANY DIRECT,
  11:common/lib.stm32/STM32_USB-FS-Device_Driver/src/usb_int.c **** * INDIRECT OR CONSEQUENTIAL DAMAGES WITH RESPECT TO ANY CLAIMS ARISING FROM THE
  12:common/lib.stm32/STM32_USB-FS-Device_Driver/src/usb_int.c **** * CONTENT OF SUCH FIRMWARE AND/OR THE USE MADE BY CUSTOMERS OF THE CODING
  13:common/lib.stm32/STM32_USB-FS-Device_Driver/src/usb_int.c **** * INFORMATION CONTAINED HEREIN IN CONNECTION WITH THEIR PRODUCTS.
  14:common/lib.stm32/STM32_USB-FS-Device_Driver/src/usb_int.c **** *******************************************************************************/
  15:common/lib.stm32/STM32_USB-FS-Device_Driver/src/usb_int.c **** #ifndef STM32F10X_CL
  16:common/lib.stm32/STM32_USB-FS-Device_Driver/src/usb_int.c **** 
  17:common/lib.stm32/STM32_USB-FS-Device_Driver/src/usb_int.c **** /* Includes ------------------------------------------------------------------*/
  18:common/lib.stm32/STM32_USB-FS-Device_Driver/src/usb_int.c **** #include "usb_lib.h"
  19:common/lib.stm32/STM32_USB-FS-Device_Driver/src/usb_int.c **** 
  20:common/lib.stm32/STM32_USB-FS-Device_Driver/src/usb_int.c **** /* Private typedef -----------------------------------------------------------*/
  21:common/lib.stm32/STM32_USB-FS-Device_Driver/src/usb_int.c **** /* Private define ------------------------------------------------------------*/
  22:common/lib.stm32/STM32_USB-FS-Device_Driver/src/usb_int.c **** /* Private macro -------------------------------------------------------------*/
  23:common/lib.stm32/STM32_USB-FS-Device_Driver/src/usb_int.c **** /* Private variables ---------------------------------------------------------*/
  24:common/lib.stm32/STM32_USB-FS-Device_Driver/src/usb_int.c **** __IO uint16_t SaveRState;
  25:common/lib.stm32/STM32_USB-FS-Device_Driver/src/usb_int.c **** __IO uint16_t SaveTState;
  26:common/lib.stm32/STM32_USB-FS-Device_Driver/src/usb_int.c **** 
  27:common/lib.stm32/STM32_USB-FS-Device_Driver/src/usb_int.c **** /* Extern variables ----------------------------------------------------------*/
  28:common/lib.stm32/STM32_USB-FS-Device_Driver/src/usb_int.c **** extern void (*pEpInt_IN[7])(void);    /*  Handles IN  interrupts   */
  29:common/lib.stm32/STM32_USB-FS-Device_Driver/src/usb_int.c **** extern void (*pEpInt_OUT[7])(void);   /*  Handles OUT interrupts   */
  30:common/lib.stm32/STM32_USB-FS-Device_Driver/src/usb_int.c **** 
  31:common/lib.stm32/STM32_USB-FS-Device_Driver/src/usb_int.c **** /* Private function prototypes -----------------------------------------------*/
  32:common/lib.stm32/STM32_USB-FS-Device_Driver/src/usb_int.c **** /* Private functions ---------------------------------------------------------*/
  33:common/lib.stm32/STM32_USB-FS-Device_Driver/src/usb_int.c **** 
  34:common/lib.stm32/STM32_USB-FS-Device_Driver/src/usb_int.c **** /*******************************************************************************
  35:common/lib.stm32/STM32_USB-FS-Device_Driver/src/usb_int.c **** * Function Name  : CTR_LP.
  36:common/lib.stm32/STM32_USB-FS-Device_Driver/src/usb_int.c **** * Description    : Low priority Endpoint Correct Transfer interrupt's service
  37:common/lib.stm32/STM32_USB-FS-Device_Driver/src/usb_int.c **** *                  routine.
  38:common/lib.stm32/STM32_USB-FS-Device_Driver/src/usb_int.c **** * Input          : None.
  39:common/lib.stm32/STM32_USB-FS-Device_Driver/src/usb_int.c **** * Output         : None.
  40:common/lib.stm32/STM32_USB-FS-Device_Driver/src/usb_int.c **** * Return         : None.
  41:common/lib.stm32/STM32_USB-FS-Device_Driver/src/usb_int.c **** *******************************************************************************/
  42:common/lib.stm32/STM32_USB-FS-Device_Driver/src/usb_int.c **** void CTR_LP(void)
  43:common/lib.stm32/STM32_USB-FS-Device_Driver/src/usb_int.c **** {
  41              		.loc 1 43 1
  42              		.cfi_startproc
  43              		@ args = 0, pretend = 0, frame = 8
  44              		@ frame_needed = 1, uses_anonymous_args = 0
  45 0000 90B5     		push	{r4, r7, lr}
  46              	.LCFI0:
  47              		.cfi_def_cfa_offset 12
  48              		.cfi_offset 4, -12
  49              		.cfi_offset 7, -8
  50              		.cfi_offset 14, -4
  51 0002 83B0     		sub	sp, sp, #12
  52              	.LCFI1:
  53              		.cfi_def_cfa_offset 24
  54 0004 00AF     		add	r7, sp, #0
  55              	.LCFI2:
  56              		.cfi_def_cfa_register 7
  44:common/lib.stm32/STM32_USB-FS-Device_Driver/src/usb_int.c ****   __IO uint16_t wEPVal = 0;
  57              		.loc 1 44 17
  58 0006 0023     		movs	r3, #0
  59 0008 FB80     		strh	r3, [r7, #6]	@ movhi
  45:common/lib.stm32/STM32_USB-FS-Device_Driver/src/usb_int.c ****   /* stay in loop while pending ints */
  46:common/lib.stm32/STM32_USB-FS-Device_Driver/src/usb_int.c ****   while (((wIstr = _GetISTR()) & ISTR_CTR) != 0)
  60              		.loc 1 46 9
  61 000a 68E1     		b	.L2
  62              	.L20:
  47:common/lib.stm32/STM32_USB-FS-Device_Driver/src/usb_int.c ****   {
  48:common/lib.stm32/STM32_USB-FS-Device_Driver/src/usb_int.c ****     /* extract highest priority endpoint number */
  49:common/lib.stm32/STM32_USB-FS-Device_Driver/src/usb_int.c ****     EPindex = (uint8_t)(wIstr & ISTR_EP_ID);
  63              		.loc 1 49 31
  64 000c 844B     		ldr	r3, .L21
  65 000e 1B88     		ldrh	r3, [r3]	@ movhi
  66 0010 9BB2     		uxth	r3, r3
  67 0012 DBB2     		uxtb	r3, r3
  68              		.loc 1 49 15
  69 0014 03F00F03 		and	r3, r3, #15
  70 0018 DAB2     		uxtb	r2, r3
  71              		.loc 1 49 13
  72 001a 824B     		ldr	r3, .L21+4
  73 001c 1A70     		strb	r2, [r3]
  50:common/lib.stm32/STM32_USB-FS-Device_Driver/src/usb_int.c ****     if (EPindex == 0)
  74              		.loc 1 50 17
  75 001e 814B     		ldr	r3, .L21+4
  76 0020 1B78     		ldrb	r3, [r3]	@ zero_extendqisi2
  77              		.loc 1 50 8
  78 0022 002B     		cmp	r3, #0
  79 0024 40F00E81 		bne	.L3
  51:common/lib.stm32/STM32_USB-FS-Device_Driver/src/usb_int.c ****     {
  52:common/lib.stm32/STM32_USB-FS-Device_Driver/src/usb_int.c ****       /* Decode and service control endpoint interrupt */
  53:common/lib.stm32/STM32_USB-FS-Device_Driver/src/usb_int.c ****       /* calling related service routine */
  54:common/lib.stm32/STM32_USB-FS-Device_Driver/src/usb_int.c ****       /* (Setup0_Process, In0_Process, Out0_Process) */
  55:common/lib.stm32/STM32_USB-FS-Device_Driver/src/usb_int.c **** 
  56:common/lib.stm32/STM32_USB-FS-Device_Driver/src/usb_int.c ****       /* save RX & TX status */
  57:common/lib.stm32/STM32_USB-FS-Device_Driver/src/usb_int.c ****       /* and set both to NAK */
  58:common/lib.stm32/STM32_USB-FS-Device_Driver/src/usb_int.c **** 
  59:common/lib.stm32/STM32_USB-FS-Device_Driver/src/usb_int.c **** 
  60:common/lib.stm32/STM32_USB-FS-Device_Driver/src/usb_int.c **** 	    SaveRState = _GetENDPOINT(ENDP0);
  80              		.loc 1 60 19
  81 0028 7F4B     		ldr	r3, .L21+8
  82 002a 1B68     		ldr	r3, [r3]
  83 002c 9AB2     		uxth	r2, r3
  84              		.loc 1 60 17
  85 002e 7F4B     		ldr	r3, .L21+12
  86 0030 1A80     		strh	r2, [r3]	@ movhi
  61:common/lib.stm32/STM32_USB-FS-Device_Driver/src/usb_int.c **** 	    SaveTState = SaveRState & EPTX_STAT;
  87              		.loc 1 61 30
  88 0032 7E4B     		ldr	r3, .L21+12
  89 0034 1B88     		ldrh	r3, [r3]	@ movhi
  90 0036 9BB2     		uxth	r3, r3
  91 0038 03F03003 		and	r3, r3, #48
  92 003c 9AB2     		uxth	r2, r3
  93              		.loc 1 61 17
  94 003e 7C4B     		ldr	r3, .L21+16
  95 0040 1A80     		strh	r2, [r3]	@ movhi
  62:common/lib.stm32/STM32_USB-FS-Device_Driver/src/usb_int.c **** 	    SaveRState &=  EPRX_STAT;	
  96              		.loc 1 62 17
  97 0042 7A4B     		ldr	r3, .L21+12
  98 0044 1B88     		ldrh	r3, [r3]	@ movhi
  99 0046 9BB2     		uxth	r3, r3
 100 0048 03F44053 		and	r3, r3, #12288
 101 004c 9AB2     		uxth	r2, r3
 102 004e 774B     		ldr	r3, .L21+12
 103 0050 1A80     		strh	r2, [r3]	@ movhi
 104              	.LBB2:
  63:common/lib.stm32/STM32_USB-FS-Device_Driver/src/usb_int.c **** 
  64:common/lib.stm32/STM32_USB-FS-Device_Driver/src/usb_int.c **** 	    _SetEPRxTxStatus(ENDP0,EP_RX_NAK,EP_TX_NAK);
 105              		.loc 1 64 6
 106 0052 754B     		ldr	r3, .L21+8
 107 0054 1B68     		ldr	r3, [r3]
 108 0056 9BB2     		uxth	r3, r3
 109 0058 4BF6BF74 		movw	r4, #49087
 110 005c 1C40     		ands	r4, r4, r3
 111 005e 84F40054 		eor	r4, r4, #8192
 112 0062 84F02004 		eor	r4, r4, #32
 113 0066 A2B2     		uxth	r2, r4
 114 0068 724B     		ldr	r3, .L21+20
 115 006a 1343     		orrs	r3, r3, r2
 116 006c 9AB2     		uxth	r2, r3
 117 006e 6E4B     		ldr	r3, .L21+8
 118 0070 1A60     		str	r2, [r3]
 119              	.LBE2:
  65:common/lib.stm32/STM32_USB-FS-Device_Driver/src/usb_int.c **** 
  66:common/lib.stm32/STM32_USB-FS-Device_Driver/src/usb_int.c ****       /* DIR bit = origin of the interrupt */
  67:common/lib.stm32/STM32_USB-FS-Device_Driver/src/usb_int.c **** 
  68:common/lib.stm32/STM32_USB-FS-Device_Driver/src/usb_int.c ****       if ((wIstr & ISTR_DIR) == 0)
 120              		.loc 1 68 18
 121 0072 6B4B     		ldr	r3, .L21
 122 0074 1B88     		ldrh	r3, [r3]	@ movhi
 123 0076 9BB2     		uxth	r3, r3
 124 0078 03F01003 		and	r3, r3, #16
 125              		.loc 1 68 10
 126 007c 002B     		cmp	r3, #0
 127 007e 3FD1     		bne	.L4
  69:common/lib.stm32/STM32_USB-FS-Device_Driver/src/usb_int.c ****       {
  70:common/lib.stm32/STM32_USB-FS-Device_Driver/src/usb_int.c ****         /* DIR = 0 */
  71:common/lib.stm32/STM32_USB-FS-Device_Driver/src/usb_int.c **** 
  72:common/lib.stm32/STM32_USB-FS-Device_Driver/src/usb_int.c ****         /* DIR = 0      => IN  int */
  73:common/lib.stm32/STM32_USB-FS-Device_Driver/src/usb_int.c ****         /* DIR = 0 implies that (EP_CTR_TX = 1) always  */
  74:common/lib.stm32/STM32_USB-FS-Device_Driver/src/usb_int.c **** 
  75:common/lib.stm32/STM32_USB-FS-Device_Driver/src/usb_int.c **** 
  76:common/lib.stm32/STM32_USB-FS-Device_Driver/src/usb_int.c ****         _ClearEP_CTR_TX(ENDP0);
 128              		.loc 1 76 9
 129 0080 694B     		ldr	r3, .L21+8
 130 0082 1B68     		ldr	r3, [r3]
 131 0084 9BB2     		uxth	r3, r3
 132 0086 1946     		mov	r1, r3
 133 0088 674A     		ldr	r2, .L21+8
 134 008a 48F60F73 		movw	r3, #36623
 135 008e 0B40     		ands	r3, r3, r1
 136 0090 1360     		str	r3, [r2]
  77:common/lib.stm32/STM32_USB-FS-Device_Driver/src/usb_int.c ****         In0_Process();
 137              		.loc 1 77 9
 138 0092 694B     		ldr	r3, .L21+24
 139 0094 9847     		blx	r3
 140              	.LVL0:
 141              	.LBB3:
  78:common/lib.stm32/STM32_USB-FS-Device_Driver/src/usb_int.c **** 
  79:common/lib.stm32/STM32_USB-FS-Device_Driver/src/usb_int.c ****            /* before terminate set Tx & Rx status */
  80:common/lib.stm32/STM32_USB-FS-Device_Driver/src/usb_int.c **** 
  81:common/lib.stm32/STM32_USB-FS-Device_Driver/src/usb_int.c ****             _SetEPRxTxStatus(ENDP0,SaveRState,SaveTState);
 142              		.loc 1 81 13
 143 0096 644B     		ldr	r3, .L21+8
 144 0098 1B68     		ldr	r3, [r3]
 145 009a 9BB2     		uxth	r3, r3
 146 009c 4BF6BF74 		movw	r4, #49087
 147 00a0 1C40     		ands	r4, r4, r3
 148 00a2 624B     		ldr	r3, .L21+12
 149 00a4 1B88     		ldrh	r3, [r3]	@ movhi
 150 00a6 9BB2     		uxth	r3, r3
 151 00a8 03F48053 		and	r3, r3, #4096
 152 00ac 9BB2     		uxth	r3, r3
 153 00ae 002B     		cmp	r3, #0
 154 00b0 01D0     		beq	.L5
 155              		.loc 1 81 13 is_stmt 0 discriminator 1
 156 00b2 84F48054 		eor	r4, r4, #4096
 157              	.L5:
 158              		.loc 1 81 13 discriminator 3
 159 00b6 5D4B     		ldr	r3, .L21+12
 160 00b8 1B88     		ldrh	r3, [r3]	@ movhi
 161 00ba 9BB2     		uxth	r3, r3
 162 00bc 03F40053 		and	r3, r3, #8192
 163 00c0 9BB2     		uxth	r3, r3
 164 00c2 002B     		cmp	r3, #0
 165 00c4 01D0     		beq	.L6
 166              		.loc 1 81 13 discriminator 4
 167 00c6 84F40054 		eor	r4, r4, #8192
 168              	.L6:
 169              		.loc 1 81 13 discriminator 6
 170 00ca 594B     		ldr	r3, .L21+16
 171 00cc 1B88     		ldrh	r3, [r3]	@ movhi
 172 00ce 9BB2     		uxth	r3, r3
 173 00d0 03F01003 		and	r3, r3, #16
 174 00d4 9BB2     		uxth	r3, r3
 175 00d6 002B     		cmp	r3, #0
 176 00d8 01D0     		beq	.L7
 177              		.loc 1 81 13 discriminator 7
 178 00da 84F01004 		eor	r4, r4, #16
 179              	.L7:
 180              		.loc 1 81 13 discriminator 9
 181 00de 544B     		ldr	r3, .L21+16
 182 00e0 1B88     		ldrh	r3, [r3]	@ movhi
 183 00e2 9BB2     		uxth	r3, r3
 184 00e4 03F02003 		and	r3, r3, #32
 185 00e8 9BB2     		uxth	r3, r3
 186 00ea 002B     		cmp	r3, #0
 187 00ec 01D0     		beq	.L8
 188              		.loc 1 81 13 discriminator 10
 189 00ee 84F02004 		eor	r4, r4, #32
 190              	.L8:
 191              		.loc 1 81 13 discriminator 12
 192 00f2 A2B2     		uxth	r2, r4
 193 00f4 4F4B     		ldr	r3, .L21+20
 194 00f6 1343     		orrs	r3, r3, r2
 195 00f8 9AB2     		uxth	r2, r3
 196 00fa 4B4B     		ldr	r3, .L21+8
 197 00fc 1A60     		str	r2, [r3]
 198              	.LBE3:
  82:common/lib.stm32/STM32_USB-FS-Device_Driver/src/usb_int.c **** 		  return;
 199              		.loc 1 82 5 is_stmt 1 discriminator 12
 200 00fe F8E0     		b	.L1
 201              	.L4:
  83:common/lib.stm32/STM32_USB-FS-Device_Driver/src/usb_int.c ****       }
  84:common/lib.stm32/STM32_USB-FS-Device_Driver/src/usb_int.c ****       else
  85:common/lib.stm32/STM32_USB-FS-Device_Driver/src/usb_int.c ****       {
  86:common/lib.stm32/STM32_USB-FS-Device_Driver/src/usb_int.c ****         /* DIR = 1 */
  87:common/lib.stm32/STM32_USB-FS-Device_Driver/src/usb_int.c **** 
  88:common/lib.stm32/STM32_USB-FS-Device_Driver/src/usb_int.c ****         /* DIR = 1 & CTR_RX       => SETUP or OUT int */
  89:common/lib.stm32/STM32_USB-FS-Device_Driver/src/usb_int.c ****         /* DIR = 1 & (CTR_TX | CTR_RX) => 2 int pending */
  90:common/lib.stm32/STM32_USB-FS-Device_Driver/src/usb_int.c **** 
  91:common/lib.stm32/STM32_USB-FS-Device_Driver/src/usb_int.c ****         wEPVal = _GetENDPOINT(ENDP0);
 202              		.loc 1 91 18
 203 0100 494B     		ldr	r3, .L21+8
 204 0102 1B68     		ldr	r3, [r3]
 205 0104 9BB2     		uxth	r3, r3
 206              		.loc 1 91 16
 207 0106 FB80     		strh	r3, [r7, #6]	@ movhi
  92:common/lib.stm32/STM32_USB-FS-Device_Driver/src/usb_int.c ****         
  93:common/lib.stm32/STM32_USB-FS-Device_Driver/src/usb_int.c ****         if ((wEPVal &EP_SETUP) != 0)
 208              		.loc 1 93 21
 209 0108 FB88     		ldrh	r3, [r7, #6]	@ movhi
 210 010a 9BB2     		uxth	r3, r3
 211 010c 03F40063 		and	r3, r3, #2048
 212              		.loc 1 93 12
 213 0110 002B     		cmp	r3, #0
 214 0112 3FD0     		beq	.L10
  94:common/lib.stm32/STM32_USB-FS-Device_Driver/src/usb_int.c ****         {
  95:common/lib.stm32/STM32_USB-FS-Device_Driver/src/usb_int.c ****           _ClearEP_CTR_RX(ENDP0); /* SETUP bit kept frozen while CTR_RX = 1 */
 215              		.loc 1 95 11
 216 0114 444B     		ldr	r3, .L21+8
 217 0116 1B68     		ldr	r3, [r3]
 218 0118 9BB2     		uxth	r3, r3
 219 011a 1946     		mov	r1, r3
 220 011c 424A     		ldr	r2, .L21+8
 221 011e 40F68F73 		movw	r3, #3983
 222 0122 0B40     		ands	r3, r3, r1
 223 0124 1360     		str	r3, [r2]
  96:common/lib.stm32/STM32_USB-FS-Device_Driver/src/usb_int.c ****           Setup0_Process();
 224              		.loc 1 96 11
 225 0126 454B     		ldr	r3, .L21+28
 226 0128 9847     		blx	r3
 227              	.LVL1:
 228              	.LBB4:
  97:common/lib.stm32/STM32_USB-FS-Device_Driver/src/usb_int.c ****           /* before terminate set Tx & Rx status */
  98:common/lib.stm32/STM32_USB-FS-Device_Driver/src/usb_int.c **** 
  99:common/lib.stm32/STM32_USB-FS-Device_Driver/src/usb_int.c **** 		      _SetEPRxTxStatus(ENDP0,SaveRState,SaveTState);
 229              		.loc 1 99 9
 230 012a 3F4B     		ldr	r3, .L21+8
 231 012c 1B68     		ldr	r3, [r3]
 232 012e 9BB2     		uxth	r3, r3
 233 0130 4BF6BF74 		movw	r4, #49087
 234 0134 1C40     		ands	r4, r4, r3
 235 0136 3D4B     		ldr	r3, .L21+12
 236 0138 1B88     		ldrh	r3, [r3]	@ movhi
 237 013a 9BB2     		uxth	r3, r3
 238 013c 03F48053 		and	r3, r3, #4096
 239 0140 9BB2     		uxth	r3, r3
 240 0142 002B     		cmp	r3, #0
 241 0144 01D0     		beq	.L11
 242              		.loc 1 99 9 is_stmt 0 discriminator 1
 243 0146 84F48054 		eor	r4, r4, #4096
 244              	.L11:
 245              		.loc 1 99 9 discriminator 3
 246 014a 384B     		ldr	r3, .L21+12
 247 014c 1B88     		ldrh	r3, [r3]	@ movhi
 248 014e 9BB2     		uxth	r3, r3
 249 0150 03F40053 		and	r3, r3, #8192
 250 0154 9BB2     		uxth	r3, r3
 251 0156 002B     		cmp	r3, #0
 252 0158 01D0     		beq	.L12
 253              		.loc 1 99 9 discriminator 4
 254 015a 84F40054 		eor	r4, r4, #8192
 255              	.L12:
 256              		.loc 1 99 9 discriminator 6
 257 015e 344B     		ldr	r3, .L21+16
 258 0160 1B88     		ldrh	r3, [r3]	@ movhi
 259 0162 9BB2     		uxth	r3, r3
 260 0164 03F01003 		and	r3, r3, #16
 261 0168 9BB2     		uxth	r3, r3
 262 016a 002B     		cmp	r3, #0
 263 016c 01D0     		beq	.L13
 264              		.loc 1 99 9 discriminator 7
 265 016e 84F01004 		eor	r4, r4, #16
 266              	.L13:
 267              		.loc 1 99 9 discriminator 9
 268 0172 2F4B     		ldr	r3, .L21+16
 269 0174 1B88     		ldrh	r3, [r3]	@ movhi
 270 0176 9BB2     		uxth	r3, r3
 271 0178 03F02003 		and	r3, r3, #32
 272 017c 9BB2     		uxth	r3, r3
 273 017e 002B     		cmp	r3, #0
 274 0180 01D0     		beq	.L14
 275              		.loc 1 99 9 discriminator 10
 276 0182 84F02004 		eor	r4, r4, #32
 277              	.L14:
 278              		.loc 1 99 9 discriminator 12
 279 0186 A2B2     		uxth	r2, r4
 280 0188 2A4B     		ldr	r3, .L21+20
 281 018a 1343     		orrs	r3, r3, r2
 282 018c 9AB2     		uxth	r2, r3
 283 018e 264B     		ldr	r3, .L21+8
 284 0190 1A60     		str	r2, [r3]
 285              	.LBE4:
 100:common/lib.stm32/STM32_USB-FS-Device_Driver/src/usb_int.c ****           return;
 286              		.loc 1 100 11 is_stmt 1 discriminator 12
 287 0192 AEE0     		b	.L1
 288              	.L10:
 101:common/lib.stm32/STM32_USB-FS-Device_Driver/src/usb_int.c ****         }
 102:common/lib.stm32/STM32_USB-FS-Device_Driver/src/usb_int.c **** 
 103:common/lib.stm32/STM32_USB-FS-Device_Driver/src/usb_int.c ****         else if ((wEPVal & EP_CTR_RX) != 0)
 289              		.loc 1 103 39
 290 0194 FB88     		ldrh	r3, [r7, #6]	@ movhi
 291 0196 9BB2     		uxth	r3, r3
 292 0198 1BB2     		sxth	r3, r3
 293              		.loc 1 103 17
 294 019a 002B     		cmp	r3, #0
 295 019c 80F29F80 		bge	.L2
 104:common/lib.stm32/STM32_USB-FS-Device_Driver/src/usb_int.c ****         {
 105:common/lib.stm32/STM32_USB-FS-Device_Driver/src/usb_int.c ****           _ClearEP_CTR_RX(ENDP0);
 296              		.loc 1 105 11
 297 01a0 214B     		ldr	r3, .L21+8
 298 01a2 1B68     		ldr	r3, [r3]
 299 01a4 9BB2     		uxth	r3, r3
 300 01a6 1946     		mov	r1, r3
 301 01a8 1F4A     		ldr	r2, .L21+8
 302 01aa 40F68F73 		movw	r3, #3983
 303 01ae 0B40     		ands	r3, r3, r1
 304 01b0 1360     		str	r3, [r2]
 106:common/lib.stm32/STM32_USB-FS-Device_Driver/src/usb_int.c ****           Out0_Process();
 305              		.loc 1 106 11
 306 01b2 234B     		ldr	r3, .L21+32
 307 01b4 9847     		blx	r3
 308              	.LVL2:
 309              	.LBB5:
 107:common/lib.stm32/STM32_USB-FS-Device_Driver/src/usb_int.c ****           /* before terminate set Tx & Rx status */
 108:common/lib.stm32/STM32_USB-FS-Device_Driver/src/usb_int.c ****      
 109:common/lib.stm32/STM32_USB-FS-Device_Driver/src/usb_int.c **** 		     _SetEPRxTxStatus(ENDP0,SaveRState,SaveTState);
 310              		.loc 1 109 8
 311 01b6 1C4B     		ldr	r3, .L21+8
 312 01b8 1B68     		ldr	r3, [r3]
 313 01ba 9BB2     		uxth	r3, r3
 314 01bc 4BF6BF74 		movw	r4, #49087
 315 01c0 1C40     		ands	r4, r4, r3
 316 01c2 1A4B     		ldr	r3, .L21+12
 317 01c4 1B88     		ldrh	r3, [r3]	@ movhi
 318 01c6 9BB2     		uxth	r3, r3
 319 01c8 03F48053 		and	r3, r3, #4096
 320 01cc 9BB2     		uxth	r3, r3
 321 01ce 002B     		cmp	r3, #0
 322 01d0 01D0     		beq	.L15
 323              		.loc 1 109 8 is_stmt 0 discriminator 1
 324 01d2 84F48054 		eor	r4, r4, #4096
 325              	.L15:
 326              		.loc 1 109 8 discriminator 3
 327 01d6 154B     		ldr	r3, .L21+12
 328 01d8 1B88     		ldrh	r3, [r3]	@ movhi
 329 01da 9BB2     		uxth	r3, r3
 330 01dc 03F40053 		and	r3, r3, #8192
 331 01e0 9BB2     		uxth	r3, r3
 332 01e2 002B     		cmp	r3, #0
 333 01e4 01D0     		beq	.L16
 334              		.loc 1 109 8 discriminator 4
 335 01e6 84F40054 		eor	r4, r4, #8192
 336              	.L16:
 337              		.loc 1 109 8 discriminator 6
 338 01ea 114B     		ldr	r3, .L21+16
 339 01ec 1B88     		ldrh	r3, [r3]	@ movhi
 340 01ee 9BB2     		uxth	r3, r3
 341 01f0 03F01003 		and	r3, r3, #16
 342 01f4 9BB2     		uxth	r3, r3
 343 01f6 002B     		cmp	r3, #0
 344 01f8 01D0     		beq	.L17
 345              		.loc 1 109 8 discriminator 7
 346 01fa 84F01004 		eor	r4, r4, #16
 347              	.L17:
 348              		.loc 1 109 8 discriminator 9
 349 01fe 0C4B     		ldr	r3, .L21+16
 350 0200 1B88     		ldrh	r3, [r3]	@ movhi
 351 0202 9BB2     		uxth	r3, r3
 352 0204 03F02003 		and	r3, r3, #32
 353 0208 9BB2     		uxth	r3, r3
 354 020a 002B     		cmp	r3, #0
 355 020c 01D0     		beq	.L18
 356              		.loc 1 109 8 discriminator 10
 357 020e 84F02004 		eor	r4, r4, #32
 358              	.L18:
 359              		.loc 1 109 8 discriminator 12
 360 0212 A2B2     		uxth	r2, r4
 361 0214 074B     		ldr	r3, .L21+20
 362 0216 1343     		orrs	r3, r3, r2
 363 0218 9AB2     		uxth	r2, r3
 364 021a 034B     		ldr	r3, .L21+8
 365 021c 1A60     		str	r2, [r3]
 366              	.LBE5:
 110:common/lib.stm32/STM32_USB-FS-Device_Driver/src/usb_int.c ****           return;
 367              		.loc 1 110 11 is_stmt 1 discriminator 12
 368 021e 68E0     		b	.L1
 369              	.L22:
 370              		.align	2
 371              	.L21:
 372 0220 00000000 		.word	wIstr
 373 0224 00000000 		.word	EPindex
 374 0228 005C0040 		.word	1073765376
 375 022c 00000000 		.word	SaveRState
 376 0230 00000000 		.word	SaveTState
 377 0234 8080FFFF 		.word	-32640
 378 0238 00000000 		.word	In0_Process
 379 023c 00000000 		.word	Setup0_Process
 380 0240 00000000 		.word	Out0_Process
 381              	.L3:
 111:common/lib.stm32/STM32_USB-FS-Device_Driver/src/usb_int.c ****         }
 112:common/lib.stm32/STM32_USB-FS-Device_Driver/src/usb_int.c ****       }
 113:common/lib.stm32/STM32_USB-FS-Device_Driver/src/usb_int.c ****     }/* if(EPindex == 0) */
 114:common/lib.stm32/STM32_USB-FS-Device_Driver/src/usb_int.c ****     else
 115:common/lib.stm32/STM32_USB-FS-Device_Driver/src/usb_int.c ****     {
 116:common/lib.stm32/STM32_USB-FS-Device_Driver/src/usb_int.c ****       /* Decode and service non control endpoints interrupt  */
 117:common/lib.stm32/STM32_USB-FS-Device_Driver/src/usb_int.c **** 
 118:common/lib.stm32/STM32_USB-FS-Device_Driver/src/usb_int.c ****       /* process related endpoint register */
 119:common/lib.stm32/STM32_USB-FS-Device_Driver/src/usb_int.c ****       wEPVal = _GetENDPOINT(EPindex);
 382              		.loc 1 119 16
 383 0244 2C4B     		ldr	r3, .L23
 384 0246 1B78     		ldrb	r3, [r3]	@ zero_extendqisi2
 385 0248 9B00     		lsls	r3, r3, #2
 386 024a 03F18043 		add	r3, r3, #1073741824
 387 024e 03F5B843 		add	r3, r3, #23552
 388 0252 1B68     		ldr	r3, [r3]
 389 0254 9BB2     		uxth	r3, r3
 390              		.loc 1 119 14
 391 0256 FB80     		strh	r3, [r7, #6]	@ movhi
 120:common/lib.stm32/STM32_USB-FS-Device_Driver/src/usb_int.c ****       if ((wEPVal & EP_CTR_RX) != 0)
 392              		.loc 1 120 32
 393 0258 FB88     		ldrh	r3, [r7, #6]	@ movhi
 394 025a 9BB2     		uxth	r3, r3
 395 025c 1BB2     		sxth	r3, r3
 396              		.loc 1 120 10
 397 025e 002B     		cmp	r3, #0
 398 0260 1BDA     		bge	.L19
 121:common/lib.stm32/STM32_USB-FS-Device_Driver/src/usb_int.c ****       {
 122:common/lib.stm32/STM32_USB-FS-Device_Driver/src/usb_int.c ****         /* clear int flag */
 123:common/lib.stm32/STM32_USB-FS-Device_Driver/src/usb_int.c ****         _ClearEP_CTR_RX(EPindex);
 399              		.loc 1 123 9
 400 0262 254B     		ldr	r3, .L23
 401 0264 1B78     		ldrb	r3, [r3]	@ zero_extendqisi2
 402 0266 9B00     		lsls	r3, r3, #2
 403 0268 03F18043 		add	r3, r3, #1073741824
 404 026c 03F5B843 		add	r3, r3, #23552
 405 0270 1B68     		ldr	r3, [r3]
 406 0272 9BB2     		uxth	r3, r3
 407 0274 1946     		mov	r1, r3
 408 0276 204B     		ldr	r3, .L23
 409 0278 1B78     		ldrb	r3, [r3]	@ zero_extendqisi2
 410 027a 9B00     		lsls	r3, r3, #2
 411 027c 03F18043 		add	r3, r3, #1073741824
 412 0280 03F5B843 		add	r3, r3, #23552
 413 0284 40F68F72 		movw	r2, #3983
 414 0288 0A40     		ands	r2, r2, r1
 415 028a 1A60     		str	r2, [r3]
 124:common/lib.stm32/STM32_USB-FS-Device_Driver/src/usb_int.c **** 
 125:common/lib.stm32/STM32_USB-FS-Device_Driver/src/usb_int.c ****         /* call OUT service function */
 126:common/lib.stm32/STM32_USB-FS-Device_Driver/src/usb_int.c ****         (*pEpInt_OUT[EPindex-1])();
 416              		.loc 1 126 29
 417 028c 1A4B     		ldr	r3, .L23
 418 028e 1B78     		ldrb	r3, [r3]	@ zero_extendqisi2
 419 0290 013B     		subs	r3, r3, #1
 420              		.loc 1 126 10
 421 0292 1A4A     		ldr	r2, .L23+4
 422 0294 52F82330 		ldr	r3, [r2, r3, lsl #2]
 423 0298 9847     		blx	r3
 424              	.LVL3:
 425              	.L19:
 127:common/lib.stm32/STM32_USB-FS-Device_Driver/src/usb_int.c **** 
 128:common/lib.stm32/STM32_USB-FS-Device_Driver/src/usb_int.c ****       } /* if((wEPVal & EP_CTR_RX) */
 129:common/lib.stm32/STM32_USB-FS-Device_Driver/src/usb_int.c **** 
 130:common/lib.stm32/STM32_USB-FS-Device_Driver/src/usb_int.c ****       if ((wEPVal & EP_CTR_TX) != 0)
 426              		.loc 1 130 19
 427 029a FB88     		ldrh	r3, [r7, #6]	@ movhi
 428 029c 9BB2     		uxth	r3, r3
 429 029e 03F08003 		and	r3, r3, #128
 430              		.loc 1 130 10
 431 02a2 002B     		cmp	r3, #0
 432 02a4 1BD0     		beq	.L2
 131:common/lib.stm32/STM32_USB-FS-Device_Driver/src/usb_int.c ****       {
 132:common/lib.stm32/STM32_USB-FS-Device_Driver/src/usb_int.c ****         /* clear int flag */
 133:common/lib.stm32/STM32_USB-FS-Device_Driver/src/usb_int.c ****         _ClearEP_CTR_TX(EPindex);
 433              		.loc 1 133 9
 434 02a6 144B     		ldr	r3, .L23
 435 02a8 1B78     		ldrb	r3, [r3]	@ zero_extendqisi2
 436 02aa 9B00     		lsls	r3, r3, #2
 437 02ac 03F18043 		add	r3, r3, #1073741824
 438 02b0 03F5B843 		add	r3, r3, #23552
 439 02b4 1B68     		ldr	r3, [r3]
 440 02b6 9BB2     		uxth	r3, r3
 441 02b8 1946     		mov	r1, r3
 442 02ba 0F4B     		ldr	r3, .L23
 443 02bc 1B78     		ldrb	r3, [r3]	@ zero_extendqisi2
 444 02be 9B00     		lsls	r3, r3, #2
 445 02c0 03F18043 		add	r3, r3, #1073741824
 446 02c4 03F5B843 		add	r3, r3, #23552
 447 02c8 48F60F72 		movw	r2, #36623
 448 02cc 0A40     		ands	r2, r2, r1
 449 02ce 1A60     		str	r2, [r3]
 134:common/lib.stm32/STM32_USB-FS-Device_Driver/src/usb_int.c **** 
 135:common/lib.stm32/STM32_USB-FS-Device_Driver/src/usb_int.c ****         /* call IN service function */
 136:common/lib.stm32/STM32_USB-FS-Device_Driver/src/usb_int.c ****         (*pEpInt_IN[EPindex-1])();
 450              		.loc 1 136 28
 451 02d0 094B     		ldr	r3, .L23
 452 02d2 1B78     		ldrb	r3, [r3]	@ zero_extendqisi2
 453 02d4 013B     		subs	r3, r3, #1
 454              		.loc 1 136 10
 455 02d6 0A4A     		ldr	r2, .L23+8
 456 02d8 52F82330 		ldr	r3, [r2, r3, lsl #2]
 457 02dc 9847     		blx	r3
 458              	.LVL4:
 459              	.L2:
  46:common/lib.stm32/STM32_USB-FS-Device_Driver/src/usb_int.c ****   {
 460              		.loc 1 46 20
 461 02de 094B     		ldr	r3, .L23+12
 462 02e0 1B68     		ldr	r3, [r3]
 463 02e2 9AB2     		uxth	r2, r3
  46:common/lib.stm32/STM32_USB-FS-Device_Driver/src/usb_int.c ****   {
 464              		.loc 1 46 18
 465 02e4 084B     		ldr	r3, .L23+16
 466 02e6 1146     		mov	r1, r2	@ movhi
 467 02e8 1980     		strh	r1, [r3]	@ movhi
  46:common/lib.stm32/STM32_USB-FS-Device_Driver/src/usb_int.c ****   {
 468              		.loc 1 46 44
 469 02ea 13B2     		sxth	r3, r2
  46:common/lib.stm32/STM32_USB-FS-Device_Driver/src/usb_int.c ****   {
 470              		.loc 1 46 9
 471 02ec 002B     		cmp	r3, #0
 472 02ee FFF68DAE 		blt	.L20
 473              	.L1:
 137:common/lib.stm32/STM32_USB-FS-Device_Driver/src/usb_int.c ****       } /* if((wEPVal & EP_CTR_TX) != 0) */
 138:common/lib.stm32/STM32_USB-FS-Device_Driver/src/usb_int.c **** 
 139:common/lib.stm32/STM32_USB-FS-Device_Driver/src/usb_int.c ****     }/* if(EPindex == 0) else */
 140:common/lib.stm32/STM32_USB-FS-Device_Driver/src/usb_int.c **** 
 141:common/lib.stm32/STM32_USB-FS-Device_Driver/src/usb_int.c ****   }/* while(...) */
 142:common/lib.stm32/STM32_USB-FS-Device_Driver/src/usb_int.c **** }
 474              		.loc 1 142 1
 475 02f2 0C37     		adds	r7, r7, #12
 476              	.LCFI3:
 477              		.cfi_def_cfa_offset 12
 478 02f4 BD46     		mov	sp, r7
 479              	.LCFI4:
 480              		.cfi_def_cfa_register 13
 481              		@ sp needed
 482 02f6 90BD     		pop	{r4, r7, pc}
 483              	.L24:
 484              		.align	2
 485              	.L23:
 486 02f8 00000000 		.word	EPindex
 487 02fc 00000000 		.word	pEpInt_OUT
 488 0300 00000000 		.word	pEpInt_IN
 489 0304 445C0040 		.word	1073765444
 490 0308 00000000 		.word	wIstr
 491              		.cfi_endproc
 492              	.LFE27:
 494              		.section	.text.CTR_HP,"ax",%progbits
 495              		.align	1
 496              		.global	CTR_HP
 497              		.syntax unified
 498              		.thumb
 499              		.thumb_func
 501              	CTR_HP:
 502              	.LFB28:
 143:common/lib.stm32/STM32_USB-FS-Device_Driver/src/usb_int.c **** 
 144:common/lib.stm32/STM32_USB-FS-Device_Driver/src/usb_int.c **** /*******************************************************************************
 145:common/lib.stm32/STM32_USB-FS-Device_Driver/src/usb_int.c **** * Function Name  : CTR_HP.
 146:common/lib.stm32/STM32_USB-FS-Device_Driver/src/usb_int.c **** * Description    : High Priority Endpoint Correct Transfer interrupt's service 
 147:common/lib.stm32/STM32_USB-FS-Device_Driver/src/usb_int.c **** *                  routine.
 148:common/lib.stm32/STM32_USB-FS-Device_Driver/src/usb_int.c **** * Input          : None.
 149:common/lib.stm32/STM32_USB-FS-Device_Driver/src/usb_int.c **** * Output         : None.
 150:common/lib.stm32/STM32_USB-FS-Device_Driver/src/usb_int.c **** * Return         : None.
 151:common/lib.stm32/STM32_USB-FS-Device_Driver/src/usb_int.c **** *******************************************************************************/
 152:common/lib.stm32/STM32_USB-FS-Device_Driver/src/usb_int.c **** void CTR_HP(void)
 153:common/lib.stm32/STM32_USB-FS-Device_Driver/src/usb_int.c **** {
 503              		.loc 1 153 1
 504              		.cfi_startproc
 505              		@ args = 0, pretend = 0, frame = 8
 506              		@ frame_needed = 1, uses_anonymous_args = 0
 507 0000 80B5     		push	{r7, lr}
 508              	.LCFI5:
 509              		.cfi_def_cfa_offset 8
 510              		.cfi_offset 7, -8
 511              		.cfi_offset 14, -4
 512 0002 82B0     		sub	sp, sp, #8
 513              	.LCFI6:
 514              		.cfi_def_cfa_offset 16
 515 0004 00AF     		add	r7, sp, #0
 516              	.LCFI7:
 517              		.cfi_def_cfa_register 7
 154:common/lib.stm32/STM32_USB-FS-Device_Driver/src/usb_int.c ****   uint32_t wEPVal = 0;
 518              		.loc 1 154 12
 519 0006 0023     		movs	r3, #0
 520 0008 7B60     		str	r3, [r7, #4]
 155:common/lib.stm32/STM32_USB-FS-Device_Driver/src/usb_int.c **** 
 156:common/lib.stm32/STM32_USB-FS-Device_Driver/src/usb_int.c ****   while (((wIstr = _GetISTR()) & ISTR_CTR) != 0)
 521              		.loc 1 156 9
 522 000a 59E0     		b	.L26
 523              	.L28:
 157:common/lib.stm32/STM32_USB-FS-Device_Driver/src/usb_int.c ****   {
 158:common/lib.stm32/STM32_USB-FS-Device_Driver/src/usb_int.c ****     _SetISTR((uint16_t)CLR_CTR); /* clear CTR flag */
 524              		.loc 1 158 5
 525 000c 334B     		ldr	r3, .L29
 526 000e 47F6FF72 		movw	r2, #32767
 527 0012 1A60     		str	r2, [r3]
 159:common/lib.stm32/STM32_USB-FS-Device_Driver/src/usb_int.c ****     /* extract highest priority endpoint number */
 160:common/lib.stm32/STM32_USB-FS-Device_Driver/src/usb_int.c ****     EPindex = (uint8_t)(wIstr & ISTR_EP_ID);
 528              		.loc 1 160 31
 529 0014 324B     		ldr	r3, .L29+4
 530 0016 1B88     		ldrh	r3, [r3]	@ movhi
 531 0018 9BB2     		uxth	r3, r3
 532 001a DBB2     		uxtb	r3, r3
 533              		.loc 1 160 15
 534 001c 03F00F03 		and	r3, r3, #15
 535 0020 DAB2     		uxtb	r2, r3
 536              		.loc 1 160 13
 537 0022 304B     		ldr	r3, .L29+8
 538 0024 1A70     		strb	r2, [r3]
 161:common/lib.stm32/STM32_USB-FS-Device_Driver/src/usb_int.c ****     /* process related endpoint register */
 162:common/lib.stm32/STM32_USB-FS-Device_Driver/src/usb_int.c ****     wEPVal = _GetENDPOINT(EPindex);
 539              		.loc 1 162 14
 540 0026 2F4B     		ldr	r3, .L29+8
 541 0028 1B78     		ldrb	r3, [r3]	@ zero_extendqisi2
 542 002a 9B00     		lsls	r3, r3, #2
 543 002c 03F18043 		add	r3, r3, #1073741824
 544 0030 03F5B843 		add	r3, r3, #23552
 545 0034 1B68     		ldr	r3, [r3]
 546 0036 9BB2     		uxth	r3, r3
 547              		.loc 1 162 12
 548 0038 7B60     		str	r3, [r7, #4]
 163:common/lib.stm32/STM32_USB-FS-Device_Driver/src/usb_int.c ****     if ((wEPVal & EP_CTR_RX) != 0)
 549              		.loc 1 163 17
 550 003a 7B68     		ldr	r3, [r7, #4]
 551 003c 03F40043 		and	r3, r3, #32768
 552              		.loc 1 163 8
 553 0040 002B     		cmp	r3, #0
 554 0042 1CD0     		beq	.L27
 164:common/lib.stm32/STM32_USB-FS-Device_Driver/src/usb_int.c ****     {
 165:common/lib.stm32/STM32_USB-FS-Device_Driver/src/usb_int.c ****       /* clear int flag */
 166:common/lib.stm32/STM32_USB-FS-Device_Driver/src/usb_int.c ****       _ClearEP_CTR_RX(EPindex);
 555              		.loc 1 166 7
 556 0044 274B     		ldr	r3, .L29+8
 557 0046 1B78     		ldrb	r3, [r3]	@ zero_extendqisi2
 558 0048 9B00     		lsls	r3, r3, #2
 559 004a 03F18043 		add	r3, r3, #1073741824
 560 004e 03F5B843 		add	r3, r3, #23552
 561 0052 1B68     		ldr	r3, [r3]
 562 0054 9BB2     		uxth	r3, r3
 563 0056 1946     		mov	r1, r3
 564 0058 224B     		ldr	r3, .L29+8
 565 005a 1B78     		ldrb	r3, [r3]	@ zero_extendqisi2
 566 005c 9B00     		lsls	r3, r3, #2
 567 005e 03F18043 		add	r3, r3, #1073741824
 568 0062 03F5B843 		add	r3, r3, #23552
 569 0066 40F68F72 		movw	r2, #3983
 570 006a 0A40     		ands	r2, r2, r1
 571 006c 1A60     		str	r2, [r3]
 167:common/lib.stm32/STM32_USB-FS-Device_Driver/src/usb_int.c **** 
 168:common/lib.stm32/STM32_USB-FS-Device_Driver/src/usb_int.c ****       /* call OUT service function */
 169:common/lib.stm32/STM32_USB-FS-Device_Driver/src/usb_int.c ****       (*pEpInt_OUT[EPindex-1])();
 572              		.loc 1 169 27
 573 006e 1D4B     		ldr	r3, .L29+8
 574 0070 1B78     		ldrb	r3, [r3]	@ zero_extendqisi2
 575 0072 013B     		subs	r3, r3, #1
 576              		.loc 1 169 8
 577 0074 1C4A     		ldr	r2, .L29+12
 578 0076 52F82330 		ldr	r3, [r2, r3, lsl #2]
 579 007a 9847     		blx	r3
 580              	.LVL5:
 581 007c 20E0     		b	.L26
 582              	.L27:
 170:common/lib.stm32/STM32_USB-FS-Device_Driver/src/usb_int.c **** 
 171:common/lib.stm32/STM32_USB-FS-Device_Driver/src/usb_int.c ****     } /* if((wEPVal & EP_CTR_RX) */
 172:common/lib.stm32/STM32_USB-FS-Device_Driver/src/usb_int.c ****     else if ((wEPVal & EP_CTR_TX) != 0)
 583              		.loc 1 172 22
 584 007e 7B68     		ldr	r3, [r7, #4]
 585 0080 03F08003 		and	r3, r3, #128
 586              		.loc 1 172 13
 587 0084 002B     		cmp	r3, #0
 588 0086 1BD0     		beq	.L26
 173:common/lib.stm32/STM32_USB-FS-Device_Driver/src/usb_int.c ****     {
 174:common/lib.stm32/STM32_USB-FS-Device_Driver/src/usb_int.c ****       /* clear int flag */
 175:common/lib.stm32/STM32_USB-FS-Device_Driver/src/usb_int.c ****       _ClearEP_CTR_TX(EPindex);
 589              		.loc 1 175 7
 590 0088 164B     		ldr	r3, .L29+8
 591 008a 1B78     		ldrb	r3, [r3]	@ zero_extendqisi2
 592 008c 9B00     		lsls	r3, r3, #2
 593 008e 03F18043 		add	r3, r3, #1073741824
 594 0092 03F5B843 		add	r3, r3, #23552
 595 0096 1B68     		ldr	r3, [r3]
 596 0098 9BB2     		uxth	r3, r3
 597 009a 1946     		mov	r1, r3
 598 009c 114B     		ldr	r3, .L29+8
 599 009e 1B78     		ldrb	r3, [r3]	@ zero_extendqisi2
 600 00a0 9B00     		lsls	r3, r3, #2
 601 00a2 03F18043 		add	r3, r3, #1073741824
 602 00a6 03F5B843 		add	r3, r3, #23552
 603 00aa 48F60F72 		movw	r2, #36623
 604 00ae 0A40     		ands	r2, r2, r1
 605 00b0 1A60     		str	r2, [r3]
 176:common/lib.stm32/STM32_USB-FS-Device_Driver/src/usb_int.c **** 
 177:common/lib.stm32/STM32_USB-FS-Device_Driver/src/usb_int.c ****       /* call IN service function */
 178:common/lib.stm32/STM32_USB-FS-Device_Driver/src/usb_int.c ****       (*pEpInt_IN[EPindex-1])();
 606              		.loc 1 178 26
 607 00b2 0C4B     		ldr	r3, .L29+8
 608 00b4 1B78     		ldrb	r3, [r3]	@ zero_extendqisi2
 609 00b6 013B     		subs	r3, r3, #1
 610              		.loc 1 178 8
 611 00b8 0C4A     		ldr	r2, .L29+16
 612 00ba 52F82330 		ldr	r3, [r2, r3, lsl #2]
 613 00be 9847     		blx	r3
 614              	.LVL6:
 615              	.L26:
 156:common/lib.stm32/STM32_USB-FS-Device_Driver/src/usb_int.c ****   {
 616              		.loc 1 156 20
 617 00c0 064B     		ldr	r3, .L29
 618 00c2 1B68     		ldr	r3, [r3]
 619 00c4 9AB2     		uxth	r2, r3
 156:common/lib.stm32/STM32_USB-FS-Device_Driver/src/usb_int.c ****   {
 620              		.loc 1 156 18
 621 00c6 064B     		ldr	r3, .L29+4
 622 00c8 1146     		mov	r1, r2	@ movhi
 623 00ca 1980     		strh	r1, [r3]	@ movhi
 156:common/lib.stm32/STM32_USB-FS-Device_Driver/src/usb_int.c ****   {
 624              		.loc 1 156 44
 625 00cc 13B2     		sxth	r3, r2
 156:common/lib.stm32/STM32_USB-FS-Device_Driver/src/usb_int.c ****   {
 626              		.loc 1 156 9
 627 00ce 002B     		cmp	r3, #0
 628 00d0 9CDB     		blt	.L28
 179:common/lib.stm32/STM32_USB-FS-Device_Driver/src/usb_int.c **** 
 180:common/lib.stm32/STM32_USB-FS-Device_Driver/src/usb_int.c **** 
 181:common/lib.stm32/STM32_USB-FS-Device_Driver/src/usb_int.c ****     } /* if((wEPVal & EP_CTR_TX) != 0) */
 182:common/lib.stm32/STM32_USB-FS-Device_Driver/src/usb_int.c **** 
 183:common/lib.stm32/STM32_USB-FS-Device_Driver/src/usb_int.c ****   }/* while(...) */
 184:common/lib.stm32/STM32_USB-FS-Device_Driver/src/usb_int.c **** }
 629              		.loc 1 184 1
 630 00d2 00BF     		nop
 631 00d4 00BF     		nop
 632 00d6 0837     		adds	r7, r7, #8
 633              	.LCFI8:
 634              		.cfi_def_cfa_offset 8
 635 00d8 BD46     		mov	sp, r7
 636              	.LCFI9:
 637              		.cfi_def_cfa_register 13
 638              		@ sp needed
 639 00da 80BD     		pop	{r7, pc}
 640              	.L30:
 641              		.align	2
 642              	.L29:
 643 00dc 445C0040 		.word	1073765444
 644 00e0 00000000 		.word	wIstr
 645 00e4 00000000 		.word	EPindex
 646 00e8 00000000 		.word	pEpInt_OUT
 647 00ec 00000000 		.word	pEpInt_IN
 648              		.cfi_endproc
 649              	.LFE28:
 651              		.text
 652              	.Letext0:
 653              		.file 2 "c:\\program files (x86)\\gnu arm embedded toolchain\\10 2021.10\\arm-none-eabi\\include\\
 654              		.file 3 "c:\\program files (x86)\\gnu arm embedded toolchain\\10 2021.10\\arm-none-eabi\\include\\
 655              		.file 4 "common/lib.stm32/STM32_USB-FS-Device_Driver/inc/usb_regs.h"
 656              		.file 5 "common/lib.stm32/STM32_USB-FS-Device_Driver/inc/usb_core.h"
 657              		.file 6 "common/lib.stm32/STM32_USB-FS-Device_Driver/inc/usb_init.h"